ARM GAS  /tmp/ccYFEdb7.s 			page 1


   1              		.cpu cortex-m7
   2              		.eabi_attribute 27, 1
   3              		.eabi_attribute 28, 1
   4              		.eabi_attribute 20, 1
   5              		.eabi_attribute 21, 1
   6              		.eabi_attribute 23, 3
   7              		.eabi_attribute 24, 1
   8              		.eabi_attribute 25, 1
   9              		.eabi_attribute 26, 1
  10              		.eabi_attribute 30, 4
  11              		.eabi_attribute 34, 1
  12              		.eabi_attribute 18, 4
  13              		.file	"chcond.c"
  14              		.text
  15              	.Ltext0:
  16              		.cfi_sections	.debug_frame
  17              		.section	.text.queue_prio_insert,"ax",%progbits
  18              		.align	1
  19              		.syntax unified
  20              		.thumb
  21              		.thumb_func
  22              		.fpu fpv4-sp-d16
  23              		.type	queue_prio_insert, %function
  24              	queue_prio_insert:
  25              	.LFB183:
  26              		.file 1 "../../modules/ChibiOS/os/rt/include/chschd.h"
  27              		.loc 1 586 0
  28              		.cfi_startproc
  29              		@ args = 0, pretend = 0, frame = 0
  30              		@ frame_needed = 0, uses_anonymous_args = 0
  31              	.LVL0:
  32 0000 0B46     		mov	r3, r1
  33 0002 10B5     		push	{r4, lr}
  34              		.cfi_def_cfa_offset 8
  35              		.cfi_offset 4, -8
  36              		.cfi_offset 14, -4
  37              	.LVL1:
  38              	.L3:
  39              		.loc 1 590 0 discriminator 2
  40 0004 1B68     		ldr	r3, [r3]
  41              	.LVL2:
  42              		.loc 1 591 0 discriminator 2
  43 0006 9942     		cmp	r1, r3
  44 0008 05D1     		bne	.L2
  45              	.L4:
  46              		.loc 1 593 0
  47 000a 5A68     		ldr	r2, [r3, #4]
  48              		.loc 1 592 0
  49 000c 0360     		str	r3, [r0]
  50              		.loc 1 593 0
  51 000e 4260     		str	r2, [r0, #4]
  52              		.loc 1 594 0
  53 0010 1060     		str	r0, [r2]
  54              		.loc 1 595 0
  55 0012 5860     		str	r0, [r3, #4]
  56              		.loc 1 596 0
  57 0014 10BD     		pop	{r4, pc}
ARM GAS  /tmp/ccYFEdb7.s 			page 2


  58              	.L2:
  59              		.loc 1 591 0 discriminator 1
  60 0016 9C68     		ldr	r4, [r3, #8]
  61 0018 8268     		ldr	r2, [r0, #8]
  62 001a 9442     		cmp	r4, r2
  63 001c F2D2     		bcs	.L3
  64 001e F4E7     		b	.L4
  65              		.cfi_endproc
  66              	.LFE183:
  67              		.size	queue_prio_insert, .-queue_prio_insert
  68              		.section	.text.chCondObjectInit,"ax",%progbits
  69              		.align	1
  70              		.global	chCondObjectInit
  71              		.syntax unified
  72              		.thumb
  73              		.thumb_func
  74              		.fpu fpv4-sp-d16
  75              		.type	chCondObjectInit, %function
  76              	chCondObjectInit:
  77              	.LFB301:
  78              		.file 2 "../../modules/ChibiOS/os/rt/src/chcond.c"
  79              		.loc 2 75 0
  80              		.cfi_startproc
  81              		@ args = 0, pretend = 0, frame = 0
  82              		@ frame_needed = 0, uses_anonymous_args = 0
  83              		@ link register save eliminated.
  84              	.LVL3:
  85              	.LBB39:
  86              	.LBB40:
  87              		.loc 1 539 0
  88 0000 0060     		str	r0, [r0]
  89              		.loc 1 540 0
  90 0002 4060     		str	r0, [r0, #4]
  91              	.LVL4:
  92 0004 7047     		bx	lr
  93              	.LBE40:
  94              	.LBE39:
  95              		.cfi_endproc
  96              	.LFE301:
  97              		.size	chCondObjectInit, .-chCondObjectInit
  98              		.section	.text.chCondSignal,"ax",%progbits
  99              		.align	1
 100              		.global	chCondSignal
 101              		.syntax unified
 102              		.thumb
 103              		.thumb_func
 104              		.fpu fpv4-sp-d16
 105              		.type	chCondSignal, %function
 106              	chCondSignal:
 107              	.LFB302:
 108              		.loc 2 89 0
 109              		.cfi_startproc
 110              		@ args = 0, pretend = 0, frame = 0
 111              		@ frame_needed = 0, uses_anonymous_args = 0
 112              	.LVL5:
 113 0000 10B5     		push	{r4, lr}
 114              		.cfi_def_cfa_offset 8
ARM GAS  /tmp/ccYFEdb7.s 			page 3


 115              		.cfi_offset 4, -8
 116              		.cfi_offset 14, -4
 117              	.LBB55:
 118              	.LBB56:
 119              	.LBB57:
 120              	.LBB58:
 121              	.LBB59:
 122              		.file 3 "../../modules/ChibiOS/os/common/ext/ARM/CMSIS/Core/Include/cmsis_gcc.h"
 123              		.loc 3 493 0
 124 0002 2023     		movs	r3, #32
 125              	.LBE59:
 126              	.LBE58:
 127              	.LBE57:
 128              	.LBE56:
 129              	.LBE55:
 130              		.loc 2 89 0
 131 0004 0446     		mov	r4, r0
 132              	.LBB64:
 133              	.LBB63:
 134              	.LBB62:
 135              	.LBB61:
 136              	.LBB60:
 137              		.loc 3 493 0
 138              		.syntax unified
 139              	@ 493 "../../modules/ChibiOS/os/common/ext/ARM/CMSIS/Core/Include/cmsis_gcc.h" 1
 140 0006 83F31188 		MSR basepri, r3
 141              	@ 0 "" 2
 142              	.LVL6:
 143              		.thumb
 144              		.syntax unified
 145              	.LBE60:
 146              	.LBE61:
 147              	.LBE62:
 148              		.file 4 "../../modules/ChibiOS/os/rt/include/chsys.h"
 149              		.loc 4 356 0
 150 000a FFF7FEFF 		bl	_stats_start_measure_crit_thd
 151              	.LVL7:
 152              	.LBE63:
 153              	.LBE64:
 154              	.LBB65:
 155              	.LBB66:
 156              		.loc 1 566 0
 157 000e 2068     		ldr	r0, [r4]
 158              	.LVL8:
 159              	.LBE66:
 160              	.LBE65:
 161              		.loc 2 94 0
 162 0010 8442     		cmp	r4, r0
 163 0012 05D0     		beq	.L9
 164              	.LVL9:
 165              	.LBB67:
 166              	.LBB68:
 167              		.loc 1 609 0
 168 0014 0368     		ldr	r3, [r0]
 169              	.LBE68:
 170              	.LBE67:
 171              		.loc 2 95 0
ARM GAS  /tmp/ccYFEdb7.s 			page 4


 172 0016 0021     		movs	r1, #0
 173              	.LBB70:
 174              	.LBB69:
 175              		.loc 1 609 0
 176 0018 2360     		str	r3, [r4]
 177              		.loc 1 610 0
 178 001a 5C60     		str	r4, [r3, #4]
 179              	.LVL10:
 180              	.LBE69:
 181              	.LBE70:
 182              		.loc 2 95 0
 183 001c FFF7FEFF 		bl	chSchWakeupS
 184              	.LVL11:
 185              	.L9:
 186              	.LBB71:
 187              	.LBB72:
 188              		.loc 4 368 0
 189 0020 FFF7FEFF 		bl	_stats_stop_measure_crit_thd
 190              	.LVL12:
 191              	.LBB73:
 192              	.LBB74:
 193              	.LBB75:
 194              		.loc 3 493 0
 195 0024 0023     		movs	r3, #0
 196              		.syntax unified
 197              	@ 493 "../../modules/ChibiOS/os/common/ext/ARM/CMSIS/Core/Include/cmsis_gcc.h" 1
 198 0026 83F31188 		MSR basepri, r3
 199              	@ 0 "" 2
 200              	.LVL13:
 201              		.thumb
 202              		.syntax unified
 203 002a 10BD     		pop	{r4, pc}
 204              	.LBE75:
 205              	.LBE74:
 206              	.LBE73:
 207              	.LBE72:
 208              	.LBE71:
 209              		.cfi_endproc
 210              	.LFE302:
 211              		.size	chCondSignal, .-chCondSignal
 212              		.section	.text.chCondSignalI,"ax",%progbits
 213              		.align	1
 214              		.global	chCondSignalI
 215              		.syntax unified
 216              		.thumb
 217              		.thumb_func
 218              		.fpu fpv4-sp-d16
 219              		.type	chCondSignalI, %function
 220              	chCondSignalI:
 221              	.LFB303:
 222              		.loc 2 111 0
 223              		.cfi_startproc
 224              		@ args = 0, pretend = 0, frame = 0
 225              		@ frame_needed = 0, uses_anonymous_args = 0
 226              		@ link register save eliminated.
 227              	.LVL14:
 228              	.LBB76:
ARM GAS  /tmp/ccYFEdb7.s 			page 5


 229              	.LBB77:
 230              		.loc 1 566 0
 231 0000 0368     		ldr	r3, [r0]
 232              	.LVL15:
 233              	.LBE77:
 234              	.LBE76:
 235              		.loc 2 116 0
 236 0002 9842     		cmp	r0, r3
 237 0004 07D0     		beq	.L10
 238              	.LVL16:
 239              	.LBB78:
 240              	.LBB79:
 241              	.LBB80:
 242              		.loc 1 609 0
 243 0006 1A68     		ldr	r2, [r3]
 244 0008 0260     		str	r2, [r0]
 245              		.loc 1 610 0
 246 000a 5060     		str	r0, [r2, #4]
 247              	.LVL17:
 248              	.LBE80:
 249              	.LBE79:
 250              		.loc 2 118 0
 251 000c 0022     		movs	r2, #0
 252              		.loc 2 119 0
 253 000e 1846     		mov	r0, r3
 254              	.LVL18:
 255              		.loc 2 118 0
 256 0010 5A62     		str	r2, [r3, #36]
 257              		.loc 2 119 0
 258 0012 FFF7FEBF 		b	chSchReadyI
 259              	.LVL19:
 260              	.L10:
 261 0016 7047     		bx	lr
 262              	.LBE78:
 263              		.cfi_endproc
 264              	.LFE303:
 265              		.size	chCondSignalI, .-chCondSignalI
 266              		.section	.text.chCondBroadcastI,"ax",%progbits
 267              		.align	1
 268              		.global	chCondBroadcastI
 269              		.syntax unified
 270              		.thumb
 271              		.thumb_func
 272              		.fpu fpv4-sp-d16
 273              		.type	chCondBroadcastI, %function
 274              	chCondBroadcastI:
 275              	.LFB305:
 276              		.loc 2 149 0
 277              		.cfi_startproc
 278              		@ args = 0, pretend = 0, frame = 0
 279              		@ frame_needed = 0, uses_anonymous_args = 0
 280              	.LVL20:
 281 0000 38B5     		push	{r3, r4, r5, lr}
 282              		.cfi_def_cfa_offset 16
 283              		.cfi_offset 3, -16
 284              		.cfi_offset 4, -12
 285              		.cfi_offset 5, -8
ARM GAS  /tmp/ccYFEdb7.s 			page 6


 286              		.cfi_offset 14, -4
 287              		.loc 2 149 0
 288 0002 0446     		mov	r4, r0
 289              		.loc 2 158 0
 290 0004 6FF00105 		mvn	r5, #1
 291              	.LVL21:
 292              	.L13:
 293              	.LBB81:
 294              	.LBB82:
 295              		.loc 1 566 0
 296 0008 2068     		ldr	r0, [r4]
 297              	.LVL22:
 298              	.LBE82:
 299              	.LBE81:
 300              		.loc 2 157 0
 301 000a 8442     		cmp	r4, r0
 302 000c 00D1     		bne	.L14
 303              		.loc 2 160 0
 304 000e 38BD     		pop	{r3, r4, r5, pc}
 305              	.LVL23:
 306              	.L14:
 307              	.LBB83:
 308              	.LBB84:
 309              		.loc 1 609 0
 310 0010 0368     		ldr	r3, [r0]
 311 0012 2360     		str	r3, [r4]
 312              		.loc 1 610 0
 313 0014 5C60     		str	r4, [r3, #4]
 314              	.LVL24:
 315              	.LBE84:
 316              	.LBE83:
 317              		.loc 2 158 0
 318 0016 FFF7FEFF 		bl	chSchReadyI
 319              	.LVL25:
 320 001a 4562     		str	r5, [r0, #36]
 321 001c F4E7     		b	.L13
 322              		.cfi_endproc
 323              	.LFE305:
 324              		.size	chCondBroadcastI, .-chCondBroadcastI
 325              		.section	.text.chCondBroadcast,"ax",%progbits
 326              		.align	1
 327              		.global	chCondBroadcast
 328              		.syntax unified
 329              		.thumb
 330              		.thumb_func
 331              		.fpu fpv4-sp-d16
 332              		.type	chCondBroadcast, %function
 333              	chCondBroadcast:
 334              	.LFB304:
 335              		.loc 2 130 0
 336              		.cfi_startproc
 337              		@ args = 0, pretend = 0, frame = 0
 338              		@ frame_needed = 0, uses_anonymous_args = 0
 339              	.LVL26:
 340 0000 10B5     		push	{r4, lr}
 341              		.cfi_def_cfa_offset 8
 342              		.cfi_offset 4, -8
ARM GAS  /tmp/ccYFEdb7.s 			page 7


 343              		.cfi_offset 14, -4
 344              	.LBB95:
 345              	.LBB96:
 346              	.LBB97:
 347              	.LBB98:
 348              	.LBB99:
 349              		.loc 3 493 0
 350 0002 2023     		movs	r3, #32
 351              	.LBE99:
 352              	.LBE98:
 353              	.LBE97:
 354              	.LBE96:
 355              	.LBE95:
 356              		.loc 2 130 0
 357 0004 0446     		mov	r4, r0
 358              	.LBB104:
 359              	.LBB103:
 360              	.LBB102:
 361              	.LBB101:
 362              	.LBB100:
 363              		.loc 3 493 0
 364              		.syntax unified
 365              	@ 493 "../../modules/ChibiOS/os/common/ext/ARM/CMSIS/Core/Include/cmsis_gcc.h" 1
 366 0006 83F31188 		MSR basepri, r3
 367              	@ 0 "" 2
 368              	.LVL27:
 369              		.thumb
 370              		.syntax unified
 371              	.LBE100:
 372              	.LBE101:
 373              	.LBE102:
 374              		.loc 4 356 0
 375 000a FFF7FEFF 		bl	_stats_start_measure_crit_thd
 376              	.LVL28:
 377              	.LBE103:
 378              	.LBE104:
 379              		.loc 2 133 0
 380 000e 2046     		mov	r0, r4
 381 0010 FFF7FEFF 		bl	chCondBroadcastI
 382              	.LVL29:
 383              		.loc 2 134 0
 384 0014 FFF7FEFF 		bl	chSchRescheduleS
 385              	.LVL30:
 386              	.LBB105:
 387              	.LBB106:
 388              		.loc 4 368 0
 389 0018 FFF7FEFF 		bl	_stats_stop_measure_crit_thd
 390              	.LVL31:
 391              	.LBB107:
 392              	.LBB108:
 393              	.LBB109:
 394              		.loc 3 493 0
 395 001c 0023     		movs	r3, #0
 396              		.syntax unified
 397              	@ 493 "../../modules/ChibiOS/os/common/ext/ARM/CMSIS/Core/Include/cmsis_gcc.h" 1
 398 001e 83F31188 		MSR basepri, r3
 399              	@ 0 "" 2
ARM GAS  /tmp/ccYFEdb7.s 			page 8


 400              	.LVL32:
 401              		.thumb
 402              		.syntax unified
 403 0022 10BD     		pop	{r4, pc}
 404              	.LBE109:
 405              	.LBE108:
 406              	.LBE107:
 407              	.LBE106:
 408              	.LBE105:
 409              		.cfi_endproc
 410              	.LFE304:
 411              		.size	chCondBroadcast, .-chCondBroadcast
 412              		.section	.text.chCondWaitS,"ax",%progbits
 413              		.align	1
 414              		.global	chCondWaitS
 415              		.syntax unified
 416              		.thumb
 417              		.thumb_func
 418              		.fpu fpv4-sp-d16
 419              		.type	chCondWaitS, %function
 420              	chCondWaitS:
 421              	.LFB307:
 422              		.loc 2 205 0
 423              		.cfi_startproc
 424              		@ args = 0, pretend = 0, frame = 0
 425              		@ frame_needed = 0, uses_anonymous_args = 0
 426              	.LVL33:
 427              		.loc 2 206 0
 428 0000 0A4B     		ldr	r3, .L17
 429              		.loc 2 205 0
 430 0002 70B5     		push	{r4, r5, r6, lr}
 431              		.cfi_def_cfa_offset 16
 432              		.cfi_offset 4, -16
 433              		.cfi_offset 5, -12
 434              		.cfi_offset 6, -8
 435              		.cfi_offset 14, -4
 436              		.loc 2 206 0
 437 0004 9C69     		ldr	r4, [r3, #24]
 438              	.LVL34:
 439              		.loc 2 205 0
 440 0006 0646     		mov	r6, r0
 441              	.LBB110:
 442              	.LBB111:
 443              		.file 5 "../../modules/ChibiOS/os/rt/include/chmtx.h"
 444              		.loc 5 161 0
 445 0008 A56B     		ldr	r5, [r4, #56]
 446              	.LBE111:
 447              	.LBE110:
 448              		.loc 2 215 0
 449 000a 2846     		mov	r0, r5
 450              	.LVL35:
 451 000c FFF7FEFF 		bl	chMtxUnlockS
 452              	.LVL36:
 453              		.loc 2 220 0
 454 0010 3146     		mov	r1, r6
 455              		.loc 2 219 0
 456 0012 6662     		str	r6, [r4, #36]
ARM GAS  /tmp/ccYFEdb7.s 			page 9


 457              		.loc 2 220 0
 458 0014 2046     		mov	r0, r4
 459 0016 FFF7FEFF 		bl	queue_prio_insert
 460              	.LVL37:
 461              		.loc 2 221 0
 462 001a 0720     		movs	r0, #7
 463 001c FFF7FEFF 		bl	chSchGoSleepS
 464              	.LVL38:
 465              		.loc 2 222 0
 466 0020 646A     		ldr	r4, [r4, #36]
 467              	.LVL39:
 468              		.loc 2 223 0
 469 0022 2846     		mov	r0, r5
 470 0024 FFF7FEFF 		bl	chMtxLockS
 471              	.LVL40:
 472              		.loc 2 226 0
 473 0028 2046     		mov	r0, r4
 474 002a 70BD     		pop	{r4, r5, r6, pc}
 475              	.LVL41:
 476              	.L18:
 477              		.align	2
 478              	.L17:
 479 002c 00000000 		.word	ch
 480              		.cfi_endproc
 481              	.LFE307:
 482              		.size	chCondWaitS, .-chCondWaitS
 483              		.section	.text.chCondWait,"ax",%progbits
 484              		.align	1
 485              		.global	chCondWait
 486              		.syntax unified
 487              		.thumb
 488              		.thumb_func
 489              		.fpu fpv4-sp-d16
 490              		.type	chCondWait, %function
 491              	chCondWait:
 492              	.LFB306:
 493              		.loc 2 179 0
 494              		.cfi_startproc
 495              		@ args = 0, pretend = 0, frame = 0
 496              		@ frame_needed = 0, uses_anonymous_args = 0
 497              	.LVL42:
 498 0000 10B5     		push	{r4, lr}
 499              		.cfi_def_cfa_offset 8
 500              		.cfi_offset 4, -8
 501              		.cfi_offset 14, -4
 502              	.LBB122:
 503              	.LBB123:
 504              	.LBB124:
 505              	.LBB125:
 506              	.LBB126:
 507              		.loc 3 493 0
 508 0002 2023     		movs	r3, #32
 509              	.LBE126:
 510              	.LBE125:
 511              	.LBE124:
 512              	.LBE123:
 513              	.LBE122:
ARM GAS  /tmp/ccYFEdb7.s 			page 10


 514              		.loc 2 179 0
 515 0004 0446     		mov	r4, r0
 516              	.LBB131:
 517              	.LBB130:
 518              	.LBB129:
 519              	.LBB128:
 520              	.LBB127:
 521              		.loc 3 493 0
 522              		.syntax unified
 523              	@ 493 "../../modules/ChibiOS/os/common/ext/ARM/CMSIS/Core/Include/cmsis_gcc.h" 1
 524 0006 83F31188 		MSR basepri, r3
 525              	@ 0 "" 2
 526              	.LVL43:
 527              		.thumb
 528              		.syntax unified
 529              	.LBE127:
 530              	.LBE128:
 531              	.LBE129:
 532              		.loc 4 356 0
 533 000a FFF7FEFF 		bl	_stats_start_measure_crit_thd
 534              	.LVL44:
 535              	.LBE130:
 536              	.LBE131:
 537              		.loc 2 183 0
 538 000e 2046     		mov	r0, r4
 539 0010 FFF7FEFF 		bl	chCondWaitS
 540              	.LVL45:
 541 0014 0446     		mov	r4, r0
 542              	.LVL46:
 543              	.LBB132:
 544              	.LBB133:
 545              		.loc 4 368 0
 546 0016 FFF7FEFF 		bl	_stats_stop_measure_crit_thd
 547              	.LVL47:
 548              	.LBB134:
 549              	.LBB135:
 550              	.LBB136:
 551              		.loc 3 493 0
 552 001a 0023     		movs	r3, #0
 553              		.syntax unified
 554              	@ 493 "../../modules/ChibiOS/os/common/ext/ARM/CMSIS/Core/Include/cmsis_gcc.h" 1
 555 001c 83F31188 		MSR basepri, r3
 556              	@ 0 "" 2
 557              	.LVL48:
 558              		.thumb
 559              		.syntax unified
 560              	.LBE136:
 561              	.LBE135:
 562              	.LBE134:
 563              	.LBE133:
 564              	.LBE132:
 565              		.loc 2 186 0
 566 0020 2046     		mov	r0, r4
 567 0022 10BD     		pop	{r4, pc}
 568              		.cfi_endproc
 569              	.LFE306:
 570              		.size	chCondWait, .-chCondWait
ARM GAS  /tmp/ccYFEdb7.s 			page 11


 571              		.section	.text.chCondWaitTimeoutS,"ax",%progbits
 572              		.align	1
 573              		.global	chCondWaitTimeoutS
 574              		.syntax unified
 575              		.thumb
 576              		.thumb_func
 577              		.fpu fpv4-sp-d16
 578              		.type	chCondWaitTimeoutS, %function
 579              	chCondWaitTimeoutS:
 580              	.LFB309:
 581              		.loc 2 295 0
 582              		.cfi_startproc
 583              		@ args = 0, pretend = 0, frame = 0
 584              		@ frame_needed = 0, uses_anonymous_args = 0
 585              	.LVL49:
 586 0000 F8B5     		push	{r3, r4, r5, r6, r7, lr}
 587              		.cfi_def_cfa_offset 24
 588              		.cfi_offset 3, -24
 589              		.cfi_offset 4, -20
 590              		.cfi_offset 5, -16
 591              		.cfi_offset 6, -12
 592              		.cfi_offset 7, -8
 593              		.cfi_offset 14, -4
 594              	.LBB137:
 595              	.LBB138:
 596              	.LBB139:
 597              	.LBB140:
 598              		.file 6 "../../modules/ChibiOS/os/rt/include/chthreads.h"
 599              		.loc 6 274 0
 600 0002 0C4E     		ldr	r6, .L25
 601              	.LBE140:
 602              	.LBE139:
 603              	.LBE138:
 604              	.LBE137:
 605              		.loc 2 295 0
 606 0004 0446     		mov	r4, r0
 607 0006 0F46     		mov	r7, r1
 608              	.LBB142:
 609              	.LBB141:
 610              		.loc 5 161 0
 611 0008 B369     		ldr	r3, [r6, #24]
 612 000a 9D6B     		ldr	r5, [r3, #56]
 613              	.LBE141:
 614              	.LBE142:
 615              		.loc 2 304 0
 616 000c 2846     		mov	r0, r5
 617              	.LVL50:
 618 000e FFF7FEFF 		bl	chMtxUnlockS
 619              	.LVL51:
 620              		.loc 2 308 0
 621 0012 B069     		ldr	r0, [r6, #24]
 622              		.loc 2 309 0
 623 0014 2146     		mov	r1, r4
 624              		.loc 2 308 0
 625 0016 4462     		str	r4, [r0, #36]
 626              		.loc 2 309 0
 627 0018 FFF7FEFF 		bl	queue_prio_insert
ARM GAS  /tmp/ccYFEdb7.s 			page 12


 628              	.LVL52:
 629              		.loc 2 310 0
 630 001c 3946     		mov	r1, r7
 631 001e 0720     		movs	r0, #7
 632 0020 FFF7FEFF 		bl	chSchGoSleepTimeoutS
 633              	.LVL53:
 634              		.loc 2 311 0
 635 0024 431C     		adds	r3, r0, #1
 636              		.loc 2 310 0
 637 0026 0446     		mov	r4, r0
 638              	.LVL54:
 639              		.loc 2 311 0
 640 0028 02D0     		beq	.L20
 641              		.loc 2 312 0
 642 002a 2846     		mov	r0, r5
 643              	.LVL55:
 644 002c FFF7FEFF 		bl	chMtxLockS
 645              	.LVL56:
 646              	.L20:
 647              		.loc 2 316 0
 648 0030 2046     		mov	r0, r4
 649 0032 F8BD     		pop	{r3, r4, r5, r6, r7, pc}
 650              	.LVL57:
 651              	.L26:
 652              		.align	2
 653              	.L25:
 654 0034 00000000 		.word	ch
 655              		.cfi_endproc
 656              	.LFE309:
 657              		.size	chCondWaitTimeoutS, .-chCondWaitTimeoutS
 658              		.section	.text.chCondWaitTimeout,"ax",%progbits
 659              		.align	1
 660              		.global	chCondWaitTimeout
 661              		.syntax unified
 662              		.thumb
 663              		.thumb_func
 664              		.fpu fpv4-sp-d16
 665              		.type	chCondWaitTimeout, %function
 666              	chCondWaitTimeout:
 667              	.LFB308:
 668              		.loc 2 257 0
 669              		.cfi_startproc
 670              		@ args = 0, pretend = 0, frame = 0
 671              		@ frame_needed = 0, uses_anonymous_args = 0
 672              	.LVL58:
 673 0000 38B5     		push	{r3, r4, r5, lr}
 674              		.cfi_def_cfa_offset 16
 675              		.cfi_offset 3, -16
 676              		.cfi_offset 4, -12
 677              		.cfi_offset 5, -8
 678              		.cfi_offset 14, -4
 679              		.loc 2 257 0
 680 0002 0446     		mov	r4, r0
 681 0004 0D46     		mov	r5, r1
 682              	.LBB153:
 683              	.LBB154:
 684              	.LBB155:
ARM GAS  /tmp/ccYFEdb7.s 			page 13


 685              	.LBB156:
 686              	.LBB157:
 687              		.loc 3 493 0
 688 0006 2023     		movs	r3, #32
 689              		.syntax unified
 690              	@ 493 "../../modules/ChibiOS/os/common/ext/ARM/CMSIS/Core/Include/cmsis_gcc.h" 1
 691 0008 83F31188 		MSR basepri, r3
 692              	@ 0 "" 2
 693              	.LVL59:
 694              		.thumb
 695              		.syntax unified
 696              	.LBE157:
 697              	.LBE156:
 698              	.LBE155:
 699              		.loc 4 356 0
 700 000c FFF7FEFF 		bl	_stats_start_measure_crit_thd
 701              	.LVL60:
 702              	.LBE154:
 703              	.LBE153:
 704              		.loc 2 261 0
 705 0010 2946     		mov	r1, r5
 706 0012 2046     		mov	r0, r4
 707 0014 FFF7FEFF 		bl	chCondWaitTimeoutS
 708              	.LVL61:
 709 0018 0446     		mov	r4, r0
 710              	.LVL62:
 711              	.LBB158:
 712              	.LBB159:
 713              		.loc 4 368 0
 714 001a FFF7FEFF 		bl	_stats_stop_measure_crit_thd
 715              	.LVL63:
 716              	.LBB160:
 717              	.LBB161:
 718              	.LBB162:
 719              		.loc 3 493 0
 720 001e 0023     		movs	r3, #0
 721              		.syntax unified
 722              	@ 493 "../../modules/ChibiOS/os/common/ext/ARM/CMSIS/Core/Include/cmsis_gcc.h" 1
 723 0020 83F31188 		MSR basepri, r3
 724              	@ 0 "" 2
 725              	.LVL64:
 726              		.thumb
 727              		.syntax unified
 728              	.LBE162:
 729              	.LBE161:
 730              	.LBE160:
 731              	.LBE159:
 732              	.LBE158:
 733              		.loc 2 265 0
 734 0024 2046     		mov	r0, r4
 735 0026 38BD     		pop	{r3, r4, r5, pc}
 736              		.cfi_endproc
 737              	.LFE308:
 738              		.size	chCondWaitTimeout, .-chCondWaitTimeout
 739              		.text
 740              	.Letext0:
 741              		.file 7 "/opt/gcc-arm-none-eabi-6-2017-q2-update/lib/gcc/arm-none-eabi/6.3.1/include/stddef.h"
ARM GAS  /tmp/ccYFEdb7.s 			page 14


 742              		.file 8 "/opt/gcc-arm-none-eabi-6-2017-q2-update/arm-none-eabi/include/machine/_default_types.h"
 743              		.file 9 "/opt/gcc-arm-none-eabi-6-2017-q2-update/arm-none-eabi/include/sys/_stdint.h"
 744              		.file 10 "../../modules/ChibiOS/os/common/ports/ARMCMx/compilers/GCC/chtypes.h"
 745              		.file 11 "../../modules/ChibiOS/os/rt/include/chsystypes.h"
 746              		.file 12 "../../modules/ChibiOS/os/rt/include/chtime.h"
 747              		.file 13 "../../modules/ChibiOS/os/common/ext/ARM/CMSIS/Core/Include/core_cm7.h"
 748              		.file 14 "../../modules/ChibiOS/os/common/ext/ST/STM32F7xx/system_stm32f7xx.h"
 749              		.file 15 "../../modules/ChibiOS/os/common/ports/ARMCMx/chcore.h"
 750              		.file 16 "../../modules/ChibiOS/os/common/ports/ARMCMx/chcore_v7m.h"
 751              		.file 17 "../../modules/ChibiOS/os/rt/include/chtm.h"
 752              		.file 18 "../../modules/ChibiOS/os/rt/include/chstats.h"
 753              		.file 19 "../../modules/ChibiOS/os/rt/include/chsem.h"
 754              		.file 20 "../../modules/ChibiOS/os/rt/include/chregistry.h"
 755              		.file 21 "../../modules/ChibiOS/os/rt/include/chcond.h"
 756              		.file 22 "../../modules/ChibiOS/os/oslib/include/chmemcore.h"
 757              		.file 23 "../../modules/ChibiOS/os/oslib/include/chmempools.h"
 758              		.file 24 "../../modules/ChibiOS/os/oslib/include/chfactory.h"
 759              		.section	.debug_info,"",%progbits
 760              	.Ldebug_info0:
 761 0000 39140000 		.4byte	0x1439
 762 0004 0400     		.2byte	0x4
 763 0006 00000000 		.4byte	.Ldebug_abbrev0
 764 000a 04       		.byte	0x4
 765 000b 01       		.uleb128 0x1
 766 000c 33050000 		.4byte	.LASF191
 767 0010 0C       		.byte	0xc
 768 0011 B1080000 		.4byte	.LASF192
 769 0015 6F040000 		.4byte	.LASF193
 770 0019 C0000000 		.4byte	.Ldebug_ranges0+0xc0
 771 001d 00000000 		.4byte	0
 772 0021 00000000 		.4byte	.Ldebug_line0
 773 0025 02       		.uleb128 0x2
 774 0026 04       		.byte	0x4
 775 0027 05       		.byte	0x5
 776 0028 696E7400 		.ascii	"int\000"
 777 002c 03       		.uleb128 0x3
 778 002d 0D000000 		.4byte	.LASF4
 779 0031 07       		.byte	0x7
 780 0032 D8       		.byte	0xd8
 781 0033 37000000 		.4byte	0x37
 782 0037 04       		.uleb128 0x4
 783 0038 04       		.byte	0x4
 784 0039 07       		.byte	0x7
 785 003a 89020000 		.4byte	.LASF0
 786 003e 04       		.uleb128 0x4
 787 003f 08       		.byte	0x8
 788 0040 05       		.byte	0x5
 789 0041 42010000 		.4byte	.LASF1
 790 0045 04       		.uleb128 0x4
 791 0046 08       		.byte	0x8
 792 0047 04       		.byte	0x4
 793 0048 CB070000 		.4byte	.LASF2
 794 004c 04       		.uleb128 0x4
 795 004d 01       		.byte	0x1
 796 004e 06       		.byte	0x6
 797 004f 50010000 		.4byte	.LASF3
 798 0053 03       		.uleb128 0x3
ARM GAS  /tmp/ccYFEdb7.s 			page 15


 799 0054 37000000 		.4byte	.LASF5
 800 0058 08       		.byte	0x8
 801 0059 2B       		.byte	0x2b
 802 005a 5E000000 		.4byte	0x5e
 803 005e 04       		.uleb128 0x4
 804 005f 01       		.byte	0x1
 805 0060 08       		.byte	0x8
 806 0061 7C060000 		.4byte	.LASF6
 807 0065 04       		.uleb128 0x4
 808 0066 02       		.byte	0x2
 809 0067 05       		.byte	0x5
 810 0068 A0060000 		.4byte	.LASF7
 811 006c 03       		.uleb128 0x3
 812 006d AA070000 		.4byte	.LASF8
 813 0071 08       		.byte	0x8
 814 0072 39       		.byte	0x39
 815 0073 77000000 		.4byte	0x77
 816 0077 04       		.uleb128 0x4
 817 0078 02       		.byte	0x2
 818 0079 07       		.byte	0x7
 819 007a 2E080000 		.4byte	.LASF9
 820 007e 03       		.uleb128 0x3
 821 007f 90030000 		.4byte	.LASF10
 822 0083 08       		.byte	0x8
 823 0084 4D       		.byte	0x4d
 824 0085 89000000 		.4byte	0x89
 825 0089 04       		.uleb128 0x4
 826 008a 04       		.byte	0x4
 827 008b 05       		.byte	0x5
 828 008c A6010000 		.4byte	.LASF11
 829 0090 03       		.uleb128 0x3
 830 0091 05020000 		.4byte	.LASF12
 831 0095 08       		.byte	0x8
 832 0096 4F       		.byte	0x4f
 833 0097 9B000000 		.4byte	0x9b
 834 009b 04       		.uleb128 0x4
 835 009c 04       		.byte	0x4
 836 009d 07       		.byte	0x7
 837 009e 72070000 		.4byte	.LASF13
 838 00a2 03       		.uleb128 0x3
 839 00a3 D4040000 		.4byte	.LASF14
 840 00a7 08       		.byte	0x8
 841 00a8 69       		.byte	0x69
 842 00a9 AD000000 		.4byte	0xad
 843 00ad 04       		.uleb128 0x4
 844 00ae 08       		.byte	0x8
 845 00af 07       		.byte	0x7
 846 00b0 D0000000 		.4byte	.LASF15
 847 00b4 03       		.uleb128 0x3
 848 00b5 FA080000 		.4byte	.LASF16
 849 00b9 09       		.byte	0x9
 850 00ba 18       		.byte	0x18
 851 00bb 53000000 		.4byte	0x53
 852 00bf 05       		.uleb128 0x5
 853 00c0 B4000000 		.4byte	0xb4
 854 00c4 03       		.uleb128 0x3
 855 00c5 96020000 		.4byte	.LASF17
ARM GAS  /tmp/ccYFEdb7.s 			page 16


 856 00c9 09       		.byte	0x9
 857 00ca 24       		.byte	0x24
 858 00cb 6C000000 		.4byte	0x6c
 859 00cf 03       		.uleb128 0x3
 860 00d0 74060000 		.4byte	.LASF18
 861 00d4 09       		.byte	0x9
 862 00d5 2C       		.byte	0x2c
 863 00d6 7E000000 		.4byte	0x7e
 864 00da 06       		.uleb128 0x6
 865 00db CF000000 		.4byte	0xcf
 866 00df 03       		.uleb128 0x3
 867 00e0 2D070000 		.4byte	.LASF19
 868 00e4 09       		.byte	0x9
 869 00e5 30       		.byte	0x30
 870 00e6 90000000 		.4byte	0x90
 871 00ea 03       		.uleb128 0x3
 872 00eb 21000000 		.4byte	.LASF20
 873 00ef 09       		.byte	0x9
 874 00f0 3C       		.byte	0x3c
 875 00f1 A2000000 		.4byte	0xa2
 876 00f5 03       		.uleb128 0x3
 877 00f6 4C080000 		.4byte	.LASF21
 878 00fa 0A       		.byte	0xa
 879 00fb 27       		.byte	0x27
 880 00fc DF000000 		.4byte	0xdf
 881 0100 03       		.uleb128 0x3
 882 0101 39010000 		.4byte	.LASF22
 883 0105 0A       		.byte	0xa
 884 0106 28       		.byte	0x28
 885 0107 EA000000 		.4byte	0xea
 886 010b 03       		.uleb128 0x3
 887 010c 4E030000 		.4byte	.LASF23
 888 0110 0A       		.byte	0xa
 889 0111 2A       		.byte	0x2a
 890 0112 B4000000 		.4byte	0xb4
 891 0116 03       		.uleb128 0x3
 892 0117 BB010000 		.4byte	.LASF24
 893 011b 0A       		.byte	0xa
 894 011c 2B       		.byte	0x2b
 895 011d B4000000 		.4byte	0xb4
 896 0121 03       		.uleb128 0x3
 897 0122 F4040000 		.4byte	.LASF25
 898 0126 0A       		.byte	0xa
 899 0127 2C       		.byte	0x2c
 900 0128 B4000000 		.4byte	0xb4
 901 012c 03       		.uleb128 0x3
 902 012d 2B050000 		.4byte	.LASF26
 903 0131 0A       		.byte	0xa
 904 0132 2E       		.byte	0x2e
 905 0133 DF000000 		.4byte	0xdf
 906 0137 03       		.uleb128 0x3
 907 0138 1A030000 		.4byte	.LASF27
 908 013c 0A       		.byte	0xa
 909 013d 2F       		.byte	0x2f
 910 013e CF000000 		.4byte	0xcf
 911 0142 03       		.uleb128 0x3
 912 0143 6F030000 		.4byte	.LASF28
ARM GAS  /tmp/ccYFEdb7.s 			page 17


 913 0147 0A       		.byte	0xa
 914 0148 31       		.byte	0x31
 915 0149 DF000000 		.4byte	0xdf
 916 014d 03       		.uleb128 0x3
 917 014e 76020000 		.4byte	.LASF29
 918 0152 0A       		.byte	0xa
 919 0153 33       		.byte	0x33
 920 0154 CF000000 		.4byte	0xcf
 921 0158 03       		.uleb128 0x3
 922 0159 25030000 		.4byte	.LASF30
 923 015d 0A       		.byte	0xa
 924 015e 34       		.byte	0x34
 925 015f DF000000 		.4byte	0xdf
 926 0163 03       		.uleb128 0x3
 927 0164 DA080000 		.4byte	.LASF31
 928 0168 0B       		.byte	0xb
 929 0169 34       		.byte	0x34
 930 016a 6E010000 		.4byte	0x16e
 931 016e 07       		.uleb128 0x7
 932 016f 10030000 		.4byte	.LASF50
 933 0173 60       		.byte	0x60
 934 0174 01       		.byte	0x1
 935 0175 8E       		.byte	0x8e
 936 0176 59020000 		.4byte	0x259
 937 017a 08       		.uleb128 0x8
 938 017b EC020000 		.4byte	.LASF32
 939 017f 01       		.byte	0x1
 940 0180 8F       		.byte	0x8f
 941 0181 8E020000 		.4byte	0x28e
 942 0185 00       		.byte	0
 943 0186 08       		.uleb128 0x8
 944 0187 AE040000 		.4byte	.LASF33
 945 018b 01       		.byte	0x1
 946 018c 90       		.byte	0x90
 947 018d 2C010000 		.4byte	0x12c
 948 0191 08       		.byte	0x8
 949 0192 09       		.uleb128 0x9
 950 0193 63747800 		.ascii	"ctx\000"
 951 0197 01       		.byte	0x1
 952 0198 91       		.byte	0x91
 953 0199 05050000 		.4byte	0x505
 954 019d 0C       		.byte	0xc
 955 019e 08       		.uleb128 0x8
 956 019f A5030000 		.4byte	.LASF34
 957 01a3 01       		.byte	0x1
 958 01a4 93       		.byte	0x93
 959 01a5 64020000 		.4byte	0x264
 960 01a9 10       		.byte	0x10
 961 01aa 08       		.uleb128 0x8
 962 01ab 9B070000 		.4byte	.LASF35
 963 01af 01       		.byte	0x1
 964 01b0 94       		.byte	0x94
 965 01b1 64020000 		.4byte	0x264
 966 01b5 14       		.byte	0x14
 967 01b6 08       		.uleb128 0x8
 968 01b7 35030000 		.4byte	.LASF36
 969 01bb 01       		.byte	0x1
ARM GAS  /tmp/ccYFEdb7.s 			page 18


 970 01bc 9B       		.byte	0x9b
 971 01bd F7070000 		.4byte	0x7f7
 972 01c1 18       		.byte	0x18
 973 01c2 08       		.uleb128 0x8
 974 01c3 84070000 		.4byte	.LASF37
 975 01c7 01       		.byte	0x1
 976 01c8 A4       		.byte	0xa4
 977 01c9 0E080000 		.4byte	0x80e
 978 01cd 1C       		.byte	0x1c
 979 01ce 08       		.uleb128 0x8
 980 01cf A0010000 		.4byte	.LASF38
 981 01d3 01       		.byte	0x1
 982 01d4 A9       		.byte	0xa9
 983 01d5 16010000 		.4byte	0x116
 984 01d9 20       		.byte	0x20
 985 01da 08       		.uleb128 0x8
 986 01db 02090000 		.4byte	.LASF39
 987 01df 01       		.byte	0x1
 988 01e0 AD       		.byte	0xad
 989 01e1 0B010000 		.4byte	0x10b
 990 01e5 21       		.byte	0x21
 991 01e6 08       		.uleb128 0x8
 992 01e7 07050000 		.4byte	.LASF40
 993 01eb 01       		.byte	0x1
 994 01ec B2       		.byte	0xb2
 995 01ed 21010000 		.4byte	0x121
 996 01f1 22       		.byte	0x22
 997 01f2 0A       		.uleb128 0xa
 998 01f3 7500     		.ascii	"u\000"
 999 01f5 01       		.byte	0x1
 1000 01f6 0301     		.2byte	0x103
 1001 01f8 21070000 		.4byte	0x721
 1002 01fc 24       		.byte	0x24
 1003 01fd 0B       		.uleb128 0xb
 1004 01fe 32020000 		.4byte	.LASF41
 1005 0202 01       		.byte	0x1
 1006 0203 0801     		.2byte	0x108
 1007 0205 6A020000 		.4byte	0x26a
 1008 0209 28       		.byte	0x28
 1009 020a 0B       		.uleb128 0xb
 1010 020b 97010000 		.4byte	.LASF42
 1011 020f 01       		.byte	0x1
 1012 0210 0E01     		.2byte	0x10e
 1013 0212 8E020000 		.4byte	0x28e
 1014 0216 2C       		.byte	0x2c
 1015 0217 0B       		.uleb128 0xb
 1016 0218 2C030000 		.4byte	.LASF43
 1017 021c 01       		.byte	0x1
 1018 021d 1401     		.2byte	0x114
 1019 021f 42010000 		.4byte	0x142
 1020 0223 34       		.byte	0x34
 1021 0224 0B       		.uleb128 0xb
 1022 0225 9E090000 		.4byte	.LASF44
 1023 0229 01       		.byte	0x1
 1024 022a 1B01     		.2byte	0x11b
 1025 022c F1070000 		.4byte	0x7f1
 1026 0230 38       		.byte	0x38
ARM GAS  /tmp/ccYFEdb7.s 			page 19


 1027 0231 0B       		.uleb128 0xb
 1028 0232 AB030000 		.4byte	.LASF45
 1029 0236 01       		.byte	0x1
 1030 0237 1F01     		.2byte	0x11f
 1031 0239 2C010000 		.4byte	0x12c
 1032 023d 3C       		.byte	0x3c
 1033 023e 0B       		.uleb128 0xb
 1034 023f F2020000 		.4byte	.LASF46
 1035 0243 01       		.byte	0x1
 1036 0244 2601     		.2byte	0x126
 1037 0246 46030000 		.4byte	0x346
 1038 024a 40       		.byte	0x40
 1039 024b 0B       		.uleb128 0xb
 1040 024c D8010000 		.4byte	.LASF47
 1041 0250 01       		.byte	0x1
 1042 0251 2C01     		.2byte	0x12c
 1043 0253 D2060000 		.4byte	0x6d2
 1044 0257 48       		.byte	0x48
 1045 0258 00       		.byte	0
 1046 0259 03       		.uleb128 0x3
 1047 025a E2030000 		.4byte	.LASF48
 1048 025e 0B       		.byte	0xb
 1049 025f 39       		.byte	0x39
 1050 0260 64020000 		.4byte	0x264
 1051 0264 0C       		.uleb128 0xc
 1052 0265 04       		.byte	0x4
 1053 0266 63010000 		.4byte	0x163
 1054 026a 03       		.uleb128 0x3
 1055 026b 2B090000 		.4byte	.LASF49
 1056 026f 0B       		.byte	0xb
 1057 0270 3E       		.byte	0x3e
 1058 0271 75020000 		.4byte	0x275
 1059 0275 07       		.uleb128 0x7
 1060 0276 49070000 		.4byte	.LASF51
 1061 027a 04       		.byte	0x4
 1062 027b 01       		.byte	0x1
 1063 027c 7C       		.byte	0x7c
 1064 027d 8E020000 		.4byte	0x28e
 1065 0281 08       		.uleb128 0x8
 1066 0282 34010000 		.4byte	.LASF52
 1067 0286 01       		.byte	0x1
 1068 0287 7D       		.byte	0x7d
 1069 0288 64020000 		.4byte	0x264
 1070 028c 00       		.byte	0
 1071 028d 00       		.byte	0
 1072 028e 03       		.uleb128 0x3
 1073 028f 95080000 		.4byte	.LASF53
 1074 0293 0B       		.byte	0xb
 1075 0294 45       		.byte	0x45
 1076 0295 9E020000 		.4byte	0x29e
 1077 0299 05       		.uleb128 0x5
 1078 029a 8E020000 		.4byte	0x28e
 1079 029e 07       		.uleb128 0x7
 1080 029f 52000000 		.4byte	.LASF54
 1081 02a3 08       		.byte	0x8
 1082 02a4 01       		.byte	0x1
 1083 02a5 83       		.byte	0x83
ARM GAS  /tmp/ccYFEdb7.s 			page 20


 1084 02a6 C3020000 		.4byte	0x2c3
 1085 02aa 08       		.uleb128 0x8
 1086 02ab 34010000 		.4byte	.LASF52
 1087 02af 01       		.byte	0x1
 1088 02b0 84       		.byte	0x84
 1089 02b1 64020000 		.4byte	0x264
 1090 02b5 00       		.byte	0
 1091 02b6 08       		.uleb128 0x8
 1092 02b7 41000000 		.4byte	.LASF55
 1093 02bb 01       		.byte	0x1
 1094 02bc 85       		.byte	0x85
 1095 02bd 64020000 		.4byte	0x264
 1096 02c1 04       		.byte	0x4
 1097 02c2 00       		.byte	0
 1098 02c3 03       		.uleb128 0x3
 1099 02c4 00000000 		.4byte	.LASF56
 1100 02c8 0B       		.byte	0xb
 1101 02c9 4C       		.byte	0x4c
 1102 02ca CE020000 		.4byte	0x2ce
 1103 02ce 0D       		.uleb128 0xd
 1104 02cf 61030000 		.4byte	.LASF57
 1105 02d3 1C       		.byte	0x1c
 1106 02d4 01       		.byte	0x1
 1107 02d5 5E01     		.2byte	0x15e
 1108 02d7 2A030000 		.4byte	0x32a
 1109 02db 0B       		.uleb128 0xb
 1110 02dc EC020000 		.4byte	.LASF32
 1111 02e0 01       		.byte	0x1
 1112 02e1 5F01     		.2byte	0x15f
 1113 02e3 8E020000 		.4byte	0x28e
 1114 02e7 00       		.byte	0
 1115 02e8 0B       		.uleb128 0xb
 1116 02e9 AE040000 		.4byte	.LASF33
 1117 02ed 01       		.byte	0x1
 1118 02ee 6001     		.2byte	0x160
 1119 02f0 2C010000 		.4byte	0x12c
 1120 02f4 08       		.byte	0x8
 1121 02f5 0A       		.uleb128 0xa
 1122 02f6 63747800 		.ascii	"ctx\000"
 1123 02fa 01       		.byte	0x1
 1124 02fb 6201     		.2byte	0x162
 1125 02fd 05050000 		.4byte	0x505
 1126 0301 0C       		.byte	0xc
 1127 0302 0B       		.uleb128 0xb
 1128 0303 A5030000 		.4byte	.LASF34
 1129 0307 01       		.byte	0x1
 1130 0308 6501     		.2byte	0x165
 1131 030a 64020000 		.4byte	0x264
 1132 030e 10       		.byte	0x10
 1133 030f 0B       		.uleb128 0xb
 1134 0310 9B070000 		.4byte	.LASF35
 1135 0314 01       		.byte	0x1
 1136 0315 6601     		.2byte	0x166
 1137 0317 64020000 		.4byte	0x264
 1138 031b 14       		.byte	0x14
 1139 031c 0B       		.uleb128 0xb
 1140 031d CC040000 		.4byte	.LASF58
ARM GAS  /tmp/ccYFEdb7.s 			page 21


 1141 0321 01       		.byte	0x1
 1142 0322 6901     		.2byte	0x169
 1143 0324 64020000 		.4byte	0x264
 1144 0328 18       		.byte	0x18
 1145 0329 00       		.byte	0
 1146 032a 03       		.uleb128 0x3
 1147 032b F3070000 		.4byte	.LASF59
 1148 032f 0B       		.byte	0xb
 1149 0330 51       		.byte	0x51
 1150 0331 35030000 		.4byte	0x335
 1151 0335 0C       		.uleb128 0xc
 1152 0336 04       		.byte	0x4
 1153 0337 3B030000 		.4byte	0x33b
 1154 033b 0E       		.uleb128 0xe
 1155 033c 46030000 		.4byte	0x346
 1156 0340 0F       		.uleb128 0xf
 1157 0341 46030000 		.4byte	0x346
 1158 0345 00       		.byte	0
 1159 0346 10       		.uleb128 0x10
 1160 0347 04       		.byte	0x4
 1161 0348 03       		.uleb128 0x3
 1162 0349 0C050000 		.4byte	.LASF60
 1163 034d 0B       		.byte	0xb
 1164 034e 56       		.byte	0x56
 1165 034f 53030000 		.4byte	0x353
 1166 0353 0D       		.uleb128 0xd
 1167 0354 EB060000 		.4byte	.LASF61
 1168 0358 14       		.byte	0x14
 1169 0359 01       		.byte	0x1
 1170 035a 3901     		.2byte	0x139
 1171 035c A2030000 		.4byte	0x3a2
 1172 0360 0B       		.uleb128 0xb
 1173 0361 34010000 		.4byte	.LASF52
 1174 0365 01       		.byte	0x1
 1175 0366 3A01     		.2byte	0x13a
 1176 0368 14080000 		.4byte	0x814
 1177 036c 00       		.byte	0
 1178 036d 0B       		.uleb128 0xb
 1179 036e 41000000 		.4byte	.LASF55
 1180 0372 01       		.byte	0x1
 1181 0373 3B01     		.2byte	0x13b
 1182 0375 14080000 		.4byte	0x814
 1183 0379 04       		.byte	0x4
 1184 037a 0B       		.uleb128 0xb
 1185 037b 14000000 		.4byte	.LASF62
 1186 037f 01       		.byte	0x1
 1187 0380 3C01     		.2byte	0x13c
 1188 0382 86040000 		.4byte	0x486
 1189 0386 08       		.byte	0x8
 1190 0387 0B       		.uleb128 0xb
 1191 0388 D3010000 		.4byte	.LASF63
 1192 038c 01       		.byte	0x1
 1193 038d 3D01     		.2byte	0x13d
 1194 038f 2A030000 		.4byte	0x32a
 1195 0393 0C       		.byte	0xc
 1196 0394 0A       		.uleb128 0xa
 1197 0395 70617200 		.ascii	"par\000"
ARM GAS  /tmp/ccYFEdb7.s 			page 22


 1198 0399 01       		.byte	0x1
 1199 039a 3F01     		.2byte	0x13f
 1200 039c 46030000 		.4byte	0x346
 1201 03a0 10       		.byte	0x10
 1202 03a1 00       		.byte	0
 1203 03a2 03       		.uleb128 0x3
 1204 03a3 03010000 		.4byte	.LASF64
 1205 03a7 0B       		.byte	0xb
 1206 03a8 5B       		.byte	0x5b
 1207 03a9 AD030000 		.4byte	0x3ad
 1208 03ad 0D       		.uleb128 0xd
 1209 03ae F5030000 		.4byte	.LASF65
 1210 03b2 10       		.byte	0x10
 1211 03b3 01       		.byte	0x1
 1212 03b4 4901     		.2byte	0x149
 1213 03b6 EF030000 		.4byte	0x3ef
 1214 03ba 0B       		.uleb128 0xb
 1215 03bb 34010000 		.4byte	.LASF52
 1216 03bf 01       		.byte	0x1
 1217 03c0 4A01     		.2byte	0x14a
 1218 03c2 14080000 		.4byte	0x814
 1219 03c6 00       		.byte	0
 1220 03c7 0B       		.uleb128 0xb
 1221 03c8 41000000 		.4byte	.LASF55
 1222 03cc 01       		.byte	0x1
 1223 03cd 4C01     		.2byte	0x14c
 1224 03cf 14080000 		.4byte	0x814
 1225 03d3 04       		.byte	0x4
 1226 03d4 0B       		.uleb128 0xb
 1227 03d5 14000000 		.4byte	.LASF62
 1228 03d9 01       		.byte	0x1
 1229 03da 4E01     		.2byte	0x14e
 1230 03dc 86040000 		.4byte	0x486
 1231 03e0 08       		.byte	0x8
 1232 03e1 0B       		.uleb128 0xb
 1233 03e2 AA060000 		.4byte	.LASF66
 1234 03e6 01       		.byte	0x1
 1235 03e7 5601     		.2byte	0x156
 1236 03e9 7B040000 		.4byte	0x47b
 1237 03ed 0C       		.byte	0xc
 1238 03ee 00       		.byte	0
 1239 03ef 03       		.uleb128 0x3
 1240 03f0 63000000 		.4byte	.LASF67
 1241 03f4 0B       		.byte	0xb
 1242 03f5 60       		.byte	0x60
 1243 03f6 FA030000 		.4byte	0x3fa
 1244 03fa 0D       		.uleb128 0xd
 1245 03fb 22020000 		.4byte	.LASF68
 1246 03ff 04       		.byte	0x4
 1247 0400 01       		.byte	0x1
 1248 0401 7001     		.2byte	0x170
 1249 0403 15040000 		.4byte	0x415
 1250 0407 0B       		.uleb128 0xb
 1251 0408 0A080000 		.4byte	.LASF69
 1252 040c 01       		.byte	0x1
 1253 040d 7801     		.2byte	0x178
 1254 040f FD070000 		.4byte	0x7fd
ARM GAS  /tmp/ccYFEdb7.s 			page 23


 1255 0413 00       		.byte	0
 1256 0414 00       		.byte	0
 1257 0415 03       		.uleb128 0x3
 1258 0416 3A030000 		.4byte	.LASF70
 1259 041a 0B       		.byte	0xb
 1260 041b 65       		.byte	0x65
 1261 041c 20040000 		.4byte	0x420
 1262 0420 0D       		.uleb128 0xd
 1263 0421 BA060000 		.4byte	.LASF71
 1264 0425 D0       		.byte	0xd0
 1265 0426 01       		.byte	0x1
 1266 0427 9001     		.2byte	0x190
 1267 0429 7B040000 		.4byte	0x47b
 1268 042d 0B       		.uleb128 0xb
 1269 042e 76010000 		.4byte	.LASF72
 1270 0432 01       		.byte	0x1
 1271 0433 9401     		.2byte	0x194
 1272 0435 C3020000 		.4byte	0x2c3
 1273 0439 00       		.byte	0
 1274 043a 0B       		.uleb128 0xb
 1275 043b 84010000 		.4byte	.LASF73
 1276 043f 01       		.byte	0x1
 1277 0440 9801     		.2byte	0x198
 1278 0442 A2030000 		.4byte	0x3a2
 1279 0446 1C       		.byte	0x1c
 1280 0447 0A       		.uleb128 0xa
 1281 0448 64626700 		.ascii	"dbg\000"
 1282 044c 01       		.byte	0x1
 1283 044d 9C01     		.2byte	0x19c
 1284 044f EF030000 		.4byte	0x3ef
 1285 0453 2C       		.byte	0x2c
 1286 0454 0B       		.uleb128 0xb
 1287 0455 F0000000 		.4byte	.LASF74
 1288 0459 01       		.byte	0x1
 1289 045a A001     		.2byte	0x1a0
 1290 045c 63010000 		.4byte	0x163
 1291 0460 30       		.byte	0x30
 1292 0461 0A       		.uleb128 0xa
 1293 0462 746D00   		.ascii	"tm\000"
 1294 0465 01       		.byte	0x1
 1295 0466 A501     		.2byte	0x1a5
 1296 0468 84060000 		.4byte	0x684
 1297 046c 90       		.byte	0x90
 1298 046d 0B       		.uleb128 0xb
 1299 046e 2A000000 		.4byte	.LASF75
 1300 0472 01       		.byte	0x1
 1301 0473 AB01     		.2byte	0x1ab
 1302 0475 16070000 		.4byte	0x716
 1303 0479 98       		.byte	0x98
 1304 047a 00       		.byte	0
 1305 047b 03       		.uleb128 0x3
 1306 047c E9070000 		.4byte	.LASF76
 1307 0480 0C       		.byte	0xc
 1308 0481 6D       		.byte	0x6d
 1309 0482 DF000000 		.4byte	0xdf
 1310 0486 03       		.uleb128 0x3
 1311 0487 68020000 		.4byte	.LASF77
ARM GAS  /tmp/ccYFEdb7.s 			page 24


 1312 048b 0C       		.byte	0xc
 1313 048c 79       		.byte	0x79
 1314 048d DF000000 		.4byte	0xdf
 1315 0491 04       		.uleb128 0x4
 1316 0492 04       		.byte	0x4
 1317 0493 07       		.byte	0x7
 1318 0494 D9030000 		.4byte	.LASF78
 1319 0498 11       		.uleb128 0x11
 1320 0499 19010000 		.4byte	.LASF79
 1321 049d 0D       		.byte	0xd
 1322 049e 220A     		.2byte	0xa22
 1323 04a0 DA000000 		.4byte	0xda
 1324 04a4 12       		.uleb128 0x12
 1325 04a5 9F020000 		.4byte	.LASF80
 1326 04a9 0E       		.byte	0xe
 1327 04aa 4C       		.byte	0x4c
 1328 04ab DF000000 		.4byte	0xdf
 1329 04af 13       		.uleb128 0x13
 1330 04b0 BF000000 		.4byte	0xbf
 1331 04b4 BF040000 		.4byte	0x4bf
 1332 04b8 14       		.uleb128 0x14
 1333 04b9 91040000 		.4byte	0x491
 1334 04bd 0F       		.byte	0xf
 1335 04be 00       		.byte	0
 1336 04bf 05       		.uleb128 0x5
 1337 04c0 AF040000 		.4byte	0x4af
 1338 04c4 12       		.uleb128 0x12
 1339 04c5 7B030000 		.4byte	.LASF81
 1340 04c9 0E       		.byte	0xe
 1341 04ca 4E       		.byte	0x4e
 1342 04cb BF040000 		.4byte	0x4bf
 1343 04cf 13       		.uleb128 0x13
 1344 04d0 BF000000 		.4byte	0xbf
 1345 04d4 DF040000 		.4byte	0x4df
 1346 04d8 14       		.uleb128 0x14
 1347 04d9 91040000 		.4byte	0x491
 1348 04dd 07       		.byte	0x7
 1349 04de 00       		.byte	0
 1350 04df 05       		.uleb128 0x5
 1351 04e0 CF040000 		.4byte	0x4cf
 1352 04e4 12       		.uleb128 0x12
 1353 04e5 3A020000 		.4byte	.LASF82
 1354 04e9 0E       		.byte	0xe
 1355 04ea 4F       		.byte	0x4f
 1356 04eb DF040000 		.4byte	0x4df
 1357 04ef 03       		.uleb128 0x3
 1358 04f0 10020000 		.4byte	.LASF83
 1359 04f4 0F       		.byte	0xf
 1360 04f5 65       		.byte	0x65
 1361 04f6 46030000 		.4byte	0x346
 1362 04fa 03       		.uleb128 0x3
 1363 04fb 9A030000 		.4byte	.LASF84
 1364 04ff 0F       		.byte	0xf
 1365 0500 6D       		.byte	0x6d
 1366 0501 EA000000 		.4byte	0xea
 1367 0505 07       		.uleb128 0x7
 1368 0506 99000000 		.4byte	.LASF85
ARM GAS  /tmp/ccYFEdb7.s 			page 25


 1369 050a 04       		.byte	0x4
 1370 050b 0F       		.byte	0xf
 1371 050c 89       		.byte	0x89
 1372 050d 1D050000 		.4byte	0x51d
 1373 0511 09       		.uleb128 0x9
 1374 0512 737000   		.ascii	"sp\000"
 1375 0515 0F       		.byte	0xf
 1376 0516 8A       		.byte	0x8a
 1377 0517 69060000 		.4byte	0x669
 1378 051b 00       		.byte	0
 1379 051c 00       		.byte	0
 1380 051d 0D       		.uleb128 0xd
 1381 051e 46000000 		.4byte	.LASF86
 1382 0522 64       		.byte	0x64
 1383 0523 10       		.byte	0x10
 1384 0524 5901     		.2byte	0x159
 1385 0526 69060000 		.4byte	0x669
 1386 052a 0A       		.uleb128 0xa
 1387 052b 73313600 		.ascii	"s16\000"
 1388 052f 10       		.byte	0x10
 1389 0530 5B01     		.2byte	0x15b
 1390 0532 EF040000 		.4byte	0x4ef
 1391 0536 00       		.byte	0
 1392 0537 0A       		.uleb128 0xa
 1393 0538 73313700 		.ascii	"s17\000"
 1394 053c 10       		.byte	0x10
 1395 053d 5C01     		.2byte	0x15c
 1396 053f EF040000 		.4byte	0x4ef
 1397 0543 04       		.byte	0x4
 1398 0544 0A       		.uleb128 0xa
 1399 0545 73313800 		.ascii	"s18\000"
 1400 0549 10       		.byte	0x10
 1401 054a 5D01     		.2byte	0x15d
 1402 054c EF040000 		.4byte	0x4ef
 1403 0550 08       		.byte	0x8
 1404 0551 0A       		.uleb128 0xa
 1405 0552 73313900 		.ascii	"s19\000"
 1406 0556 10       		.byte	0x10
 1407 0557 5E01     		.2byte	0x15e
 1408 0559 EF040000 		.4byte	0x4ef
 1409 055d 0C       		.byte	0xc
 1410 055e 0A       		.uleb128 0xa
 1411 055f 73323000 		.ascii	"s20\000"
 1412 0563 10       		.byte	0x10
 1413 0564 5F01     		.2byte	0x15f
 1414 0566 EF040000 		.4byte	0x4ef
 1415 056a 10       		.byte	0x10
 1416 056b 0A       		.uleb128 0xa
 1417 056c 73323100 		.ascii	"s21\000"
 1418 0570 10       		.byte	0x10
 1419 0571 6001     		.2byte	0x160
 1420 0573 EF040000 		.4byte	0x4ef
 1421 0577 14       		.byte	0x14
 1422 0578 0A       		.uleb128 0xa
 1423 0579 73323200 		.ascii	"s22\000"
 1424 057d 10       		.byte	0x10
 1425 057e 6101     		.2byte	0x161
ARM GAS  /tmp/ccYFEdb7.s 			page 26


 1426 0580 EF040000 		.4byte	0x4ef
 1427 0584 18       		.byte	0x18
 1428 0585 0A       		.uleb128 0xa
 1429 0586 73323300 		.ascii	"s23\000"
 1430 058a 10       		.byte	0x10
 1431 058b 6201     		.2byte	0x162
 1432 058d EF040000 		.4byte	0x4ef
 1433 0591 1C       		.byte	0x1c
 1434 0592 0A       		.uleb128 0xa
 1435 0593 73323400 		.ascii	"s24\000"
 1436 0597 10       		.byte	0x10
 1437 0598 6301     		.2byte	0x163
 1438 059a EF040000 		.4byte	0x4ef
 1439 059e 20       		.byte	0x20
 1440 059f 0A       		.uleb128 0xa
 1441 05a0 73323500 		.ascii	"s25\000"
 1442 05a4 10       		.byte	0x10
 1443 05a5 6401     		.2byte	0x164
 1444 05a7 EF040000 		.4byte	0x4ef
 1445 05ab 24       		.byte	0x24
 1446 05ac 0A       		.uleb128 0xa
 1447 05ad 73323600 		.ascii	"s26\000"
 1448 05b1 10       		.byte	0x10
 1449 05b2 6501     		.2byte	0x165
 1450 05b4 EF040000 		.4byte	0x4ef
 1451 05b8 28       		.byte	0x28
 1452 05b9 0A       		.uleb128 0xa
 1453 05ba 73323700 		.ascii	"s27\000"
 1454 05be 10       		.byte	0x10
 1455 05bf 6601     		.2byte	0x166
 1456 05c1 EF040000 		.4byte	0x4ef
 1457 05c5 2C       		.byte	0x2c
 1458 05c6 0A       		.uleb128 0xa
 1459 05c7 73323800 		.ascii	"s28\000"
 1460 05cb 10       		.byte	0x10
 1461 05cc 6701     		.2byte	0x167
 1462 05ce EF040000 		.4byte	0x4ef
 1463 05d2 30       		.byte	0x30
 1464 05d3 0A       		.uleb128 0xa
 1465 05d4 73323900 		.ascii	"s29\000"
 1466 05d8 10       		.byte	0x10
 1467 05d9 6801     		.2byte	0x168
 1468 05db EF040000 		.4byte	0x4ef
 1469 05df 34       		.byte	0x34
 1470 05e0 0A       		.uleb128 0xa
 1471 05e1 73333000 		.ascii	"s30\000"
 1472 05e5 10       		.byte	0x10
 1473 05e6 6901     		.2byte	0x169
 1474 05e8 EF040000 		.4byte	0x4ef
 1475 05ec 38       		.byte	0x38
 1476 05ed 0A       		.uleb128 0xa
 1477 05ee 73333100 		.ascii	"s31\000"
 1478 05f2 10       		.byte	0x10
 1479 05f3 6A01     		.2byte	0x16a
 1480 05f5 EF040000 		.4byte	0x4ef
 1481 05f9 3C       		.byte	0x3c
 1482 05fa 0A       		.uleb128 0xa
ARM GAS  /tmp/ccYFEdb7.s 			page 27


 1483 05fb 723400   		.ascii	"r4\000"
 1484 05fe 10       		.byte	0x10
 1485 05ff 6C01     		.2byte	0x16c
 1486 0601 EF040000 		.4byte	0x4ef
 1487 0605 40       		.byte	0x40
 1488 0606 0A       		.uleb128 0xa
 1489 0607 723500   		.ascii	"r5\000"
 1490 060a 10       		.byte	0x10
 1491 060b 6D01     		.2byte	0x16d
 1492 060d EF040000 		.4byte	0x4ef
 1493 0611 44       		.byte	0x44
 1494 0612 0A       		.uleb128 0xa
 1495 0613 723600   		.ascii	"r6\000"
 1496 0616 10       		.byte	0x10
 1497 0617 6E01     		.2byte	0x16e
 1498 0619 EF040000 		.4byte	0x4ef
 1499 061d 48       		.byte	0x48
 1500 061e 0A       		.uleb128 0xa
 1501 061f 723700   		.ascii	"r7\000"
 1502 0622 10       		.byte	0x10
 1503 0623 6F01     		.2byte	0x16f
 1504 0625 EF040000 		.4byte	0x4ef
 1505 0629 4C       		.byte	0x4c
 1506 062a 0A       		.uleb128 0xa
 1507 062b 723800   		.ascii	"r8\000"
 1508 062e 10       		.byte	0x10
 1509 062f 7001     		.2byte	0x170
 1510 0631 EF040000 		.4byte	0x4ef
 1511 0635 50       		.byte	0x50
 1512 0636 0A       		.uleb128 0xa
 1513 0637 723900   		.ascii	"r9\000"
 1514 063a 10       		.byte	0x10
 1515 063b 7101     		.2byte	0x171
 1516 063d EF040000 		.4byte	0x4ef
 1517 0641 54       		.byte	0x54
 1518 0642 0A       		.uleb128 0xa
 1519 0643 72313000 		.ascii	"r10\000"
 1520 0647 10       		.byte	0x10
 1521 0648 7201     		.2byte	0x172
 1522 064a EF040000 		.4byte	0x4ef
 1523 064e 58       		.byte	0x58
 1524 064f 0A       		.uleb128 0xa
 1525 0650 72313100 		.ascii	"r11\000"
 1526 0654 10       		.byte	0x10
 1527 0655 7301     		.2byte	0x173
 1528 0657 EF040000 		.4byte	0x4ef
 1529 065b 5C       		.byte	0x5c
 1530 065c 0A       		.uleb128 0xa
 1531 065d 6C7200   		.ascii	"lr\000"
 1532 0660 10       		.byte	0x10
 1533 0661 7401     		.2byte	0x174
 1534 0663 EF040000 		.4byte	0x4ef
 1535 0667 60       		.byte	0x60
 1536 0668 00       		.byte	0
 1537 0669 0C       		.uleb128 0xc
 1538 066a 04       		.byte	0x4
 1539 066b 1D050000 		.4byte	0x51d
ARM GAS  /tmp/ccYFEdb7.s 			page 28


 1540 066f 15       		.uleb128 0x15
 1541 0670 04       		.byte	0x4
 1542 0671 11       		.byte	0x11
 1543 0672 38       		.byte	0x38
 1544 0673 84060000 		.4byte	0x684
 1545 0677 08       		.uleb128 0x8
 1546 0678 14080000 		.4byte	.LASF87
 1547 067c 11       		.byte	0x11
 1548 067d 3C       		.byte	0x3c
 1549 067e F5000000 		.4byte	0xf5
 1550 0682 00       		.byte	0
 1551 0683 00       		.byte	0
 1552 0684 03       		.uleb128 0x3
 1553 0685 9D040000 		.4byte	.LASF88
 1554 0689 11       		.byte	0x11
 1555 068a 3D       		.byte	0x3d
 1556 068b 6F060000 		.4byte	0x66f
 1557 068f 15       		.uleb128 0x15
 1558 0690 18       		.byte	0x18
 1559 0691 11       		.byte	0x11
 1560 0692 48       		.byte	0x48
 1561 0693 D2060000 		.4byte	0x6d2
 1562 0697 08       		.uleb128 0x8
 1563 0698 C6070000 		.4byte	.LASF89
 1564 069c 11       		.byte	0x11
 1565 069d 49       		.byte	0x49
 1566 069e F5000000 		.4byte	0xf5
 1567 06a2 00       		.byte	0
 1568 06a3 08       		.uleb128 0x8
 1569 06a4 A6000000 		.4byte	.LASF90
 1570 06a8 11       		.byte	0x11
 1571 06a9 4A       		.byte	0x4a
 1572 06aa F5000000 		.4byte	0xf5
 1573 06ae 04       		.byte	0x4
 1574 06af 08       		.uleb128 0x8
 1575 06b0 20030000 		.4byte	.LASF91
 1576 06b4 11       		.byte	0x11
 1577 06b5 4B       		.byte	0x4b
 1578 06b6 F5000000 		.4byte	0xf5
 1579 06ba 08       		.byte	0x8
 1580 06bb 09       		.uleb128 0x9
 1581 06bc 6E00     		.ascii	"n\000"
 1582 06be 11       		.byte	0x11
 1583 06bf 4C       		.byte	0x4c
 1584 06c0 58010000 		.4byte	0x158
 1585 06c4 0C       		.byte	0xc
 1586 06c5 08       		.uleb128 0x8
 1587 06c6 E9040000 		.4byte	.LASF92
 1588 06ca 11       		.byte	0x11
 1589 06cb 4D       		.byte	0x4d
 1590 06cc 00010000 		.4byte	0x100
 1591 06d0 10       		.byte	0x10
 1592 06d1 00       		.byte	0
 1593 06d2 03       		.uleb128 0x3
 1594 06d3 AC000000 		.4byte	.LASF93
 1595 06d7 11       		.byte	0x11
 1596 06d8 4E       		.byte	0x4e
ARM GAS  /tmp/ccYFEdb7.s 			page 29


 1597 06d9 8F060000 		.4byte	0x68f
 1598 06dd 15       		.uleb128 0x15
 1599 06de 38       		.byte	0x38
 1600 06df 12       		.byte	0x12
 1601 06e0 38       		.byte	0x38
 1602 06e1 16070000 		.4byte	0x716
 1603 06e5 08       		.uleb128 0x8
 1604 06e6 E6020000 		.4byte	.LASF94
 1605 06ea 12       		.byte	0x12
 1606 06eb 39       		.byte	0x39
 1607 06ec 58010000 		.4byte	0x158
 1608 06f0 00       		.byte	0
 1609 06f1 08       		.uleb128 0x8
 1610 06f2 66040000 		.4byte	.LASF95
 1611 06f6 12       		.byte	0x12
 1612 06f7 3A       		.byte	0x3a
 1613 06f8 58010000 		.4byte	0x158
 1614 06fc 04       		.byte	0x4
 1615 06fd 08       		.uleb128 0x8
 1616 06fe A6090000 		.4byte	.LASF96
 1617 0702 12       		.byte	0x12
 1618 0703 3B       		.byte	0x3b
 1619 0704 D2060000 		.4byte	0x6d2
 1620 0708 08       		.byte	0x8
 1621 0709 08       		.uleb128 0x8
 1622 070a 56030000 		.4byte	.LASF97
 1623 070e 12       		.byte	0x12
 1624 070f 3D       		.byte	0x3d
 1625 0710 D2060000 		.4byte	0x6d2
 1626 0714 20       		.byte	0x20
 1627 0715 00       		.byte	0
 1628 0716 03       		.uleb128 0x3
 1629 0717 01030000 		.4byte	.LASF98
 1630 071b 12       		.byte	0x12
 1631 071c 3F       		.byte	0x3f
 1632 071d DD060000 		.4byte	0x6dd
 1633 0721 16       		.uleb128 0x16
 1634 0722 04       		.byte	0x4
 1635 0723 01       		.byte	0x1
 1636 0724 C6       		.byte	0xc6
 1637 0725 83070000 		.4byte	0x783
 1638 0729 17       		.uleb128 0x17
 1639 072a 1A000000 		.4byte	.LASF99
 1640 072e 01       		.byte	0x1
 1641 072f CD       		.byte	0xcd
 1642 0730 37010000 		.4byte	0x137
 1643 0734 17       		.uleb128 0x17
 1644 0735 E7000000 		.4byte	.LASF100
 1645 0739 01       		.byte	0x1
 1646 073a D4       		.byte	0xd4
 1647 073b 37010000 		.4byte	0x137
 1648 073f 17       		.uleb128 0x17
 1649 0740 12090000 		.4byte	.LASF101
 1650 0744 01       		.byte	0x1
 1651 0745 DB       		.byte	0xdb
 1652 0746 46030000 		.4byte	0x346
 1653 074a 17       		.uleb128 0x17
ARM GAS  /tmp/ccYFEdb7.s 			page 30


 1654 074b C1020000 		.4byte	.LASF102
 1655 074f 01       		.byte	0x1
 1656 0750 E2       		.byte	0xe2
 1657 0751 83070000 		.4byte	0x783
 1658 0755 17       		.uleb128 0x17
 1659 0756 FB000000 		.4byte	.LASF103
 1660 075a 01       		.byte	0x1
 1661 075b E7       		.byte	0xe7
 1662 075c 37010000 		.4byte	0x137
 1663 0760 17       		.uleb128 0x17
 1664 0761 AF020000 		.4byte	.LASF104
 1665 0765 01       		.byte	0x1
 1666 0766 F0       		.byte	0xf0
 1667 0767 AE070000 		.4byte	0x7ae
 1668 076b 17       		.uleb128 0x17
 1669 076c 36070000 		.4byte	.LASF105
 1670 0770 01       		.byte	0x1
 1671 0771 F9       		.byte	0xf9
 1672 0772 F1070000 		.4byte	0x7f1
 1673 0776 18       		.uleb128 0x18
 1674 0777 B3060000 		.4byte	.LASF106
 1675 077b 01       		.byte	0x1
 1676 077c 0101     		.2byte	0x101
 1677 077e 42010000 		.4byte	0x142
 1678 0782 00       		.byte	0
 1679 0783 0C       		.uleb128 0xc
 1680 0784 04       		.byte	0x4
 1681 0785 59020000 		.4byte	0x259
 1682 0789 07       		.uleb128 0x7
 1683 078a FC060000 		.4byte	.LASF107
 1684 078e 0C       		.byte	0xc
 1685 078f 13       		.byte	0x13
 1686 0790 34       		.byte	0x34
 1687 0791 AE070000 		.4byte	0x7ae
 1688 0795 08       		.uleb128 0x8
 1689 0796 EC020000 		.4byte	.LASF32
 1690 079a 13       		.byte	0x13
 1691 079b 35       		.byte	0x35
 1692 079c 8E020000 		.4byte	0x28e
 1693 07a0 00       		.byte	0
 1694 07a1 09       		.uleb128 0x9
 1695 07a2 636E7400 		.ascii	"cnt\000"
 1696 07a6 13       		.byte	0x13
 1697 07a7 37       		.byte	0x37
 1698 07a8 4D010000 		.4byte	0x14d
 1699 07ac 08       		.byte	0x8
 1700 07ad 00       		.byte	0
 1701 07ae 0C       		.uleb128 0xc
 1702 07af 04       		.byte	0x4
 1703 07b0 89070000 		.4byte	0x789
 1704 07b4 07       		.uleb128 0x7
 1705 07b5 1B080000 		.4byte	.LASF108
 1706 07b9 14       		.byte	0x14
 1707 07ba 05       		.byte	0x5
 1708 07bb 39       		.byte	0x39
 1709 07bc F1070000 		.4byte	0x7f1
 1710 07c0 08       		.uleb128 0x8
ARM GAS  /tmp/ccYFEdb7.s 			page 31


 1711 07c1 EC020000 		.4byte	.LASF32
 1712 07c5 05       		.byte	0x5
 1713 07c6 3A       		.byte	0x3a
 1714 07c7 8E020000 		.4byte	0x28e
 1715 07cb 00       		.byte	0
 1716 07cc 08       		.uleb128 0x8
 1717 07cd 59070000 		.4byte	.LASF109
 1718 07d1 05       		.byte	0x5
 1719 07d2 3C       		.byte	0x3c
 1720 07d3 64020000 		.4byte	0x264
 1721 07d7 08       		.byte	0x8
 1722 07d8 08       		.uleb128 0x8
 1723 07d9 34010000 		.4byte	.LASF52
 1724 07dd 05       		.byte	0x5
 1725 07de 3E       		.byte	0x3e
 1726 07df 53090000 		.4byte	0x953
 1727 07e3 0C       		.byte	0xc
 1728 07e4 09       		.uleb128 0x9
 1729 07e5 636E7400 		.ascii	"cnt\000"
 1730 07e9 05       		.byte	0x5
 1731 07ea 41       		.byte	0x41
 1732 07eb 4D010000 		.4byte	0x14d
 1733 07ef 10       		.byte	0x10
 1734 07f0 00       		.byte	0
 1735 07f1 0C       		.uleb128 0xc
 1736 07f2 04       		.byte	0x4
 1737 07f3 B4070000 		.4byte	0x7b4
 1738 07f7 0C       		.uleb128 0xc
 1739 07f8 04       		.byte	0x4
 1740 07f9 09080000 		.4byte	0x809
 1741 07fd 06       		.uleb128 0x6
 1742 07fe F7070000 		.4byte	0x7f7
 1743 0802 04       		.uleb128 0x4
 1744 0803 01       		.byte	0x1
 1745 0804 08       		.byte	0x8
 1746 0805 96070000 		.4byte	.LASF110
 1747 0809 05       		.uleb128 0x5
 1748 080a 02080000 		.4byte	0x802
 1749 080e 0C       		.uleb128 0xc
 1750 080f 04       		.byte	0x4
 1751 0810 FA040000 		.4byte	0x4fa
 1752 0814 0C       		.uleb128 0xc
 1753 0815 04       		.byte	0x4
 1754 0816 48030000 		.4byte	0x348
 1755 081a 19       		.uleb128 0x19
 1756 081b 636800   		.ascii	"ch\000"
 1757 081e 01       		.byte	0x1
 1758 081f C701     		.2byte	0x1c7
 1759 0821 15040000 		.4byte	0x415
 1760 0825 13       		.uleb128 0x13
 1761 0826 FA040000 		.4byte	0x4fa
 1762 082a 30080000 		.4byte	0x830
 1763 082e 1A       		.uleb128 0x1a
 1764 082f 00       		.byte	0
 1765 0830 11       		.uleb128 0x11
 1766 0831 12070000 		.4byte	.LASF111
 1767 0835 04       		.byte	0x4
ARM GAS  /tmp/ccYFEdb7.s 			page 32


 1768 0836 1701     		.2byte	0x117
 1769 0838 25080000 		.4byte	0x825
 1770 083c 15       		.uleb128 0x15
 1771 083d 16       		.byte	0x16
 1772 083e 14       		.byte	0x14
 1773 083f 34       		.byte	0x34
 1774 0840 1D090000 		.4byte	0x91d
 1775 0844 08       		.uleb128 0x8
 1776 0845 41080000 		.4byte	.LASF112
 1777 0849 14       		.byte	0x14
 1778 084a 35       		.byte	0x35
 1779 084b 1D090000 		.4byte	0x91d
 1780 084f 00       		.byte	0
 1781 0850 08       		.uleb128 0x8
 1782 0851 48020000 		.4byte	.LASF113
 1783 0855 14       		.byte	0x14
 1784 0856 36       		.byte	0x36
 1785 0857 B4000000 		.4byte	0xb4
 1786 085b 04       		.byte	0x4
 1787 085c 08       		.uleb128 0x8
 1788 085d 71010000 		.4byte	.LASF114
 1789 0861 14       		.byte	0x14
 1790 0862 37       		.byte	0x37
 1791 0863 B4000000 		.4byte	0xb4
 1792 0867 05       		.byte	0x5
 1793 0868 08       		.uleb128 0x8
 1794 0869 B4030000 		.4byte	.LASF115
 1795 086d 14       		.byte	0x14
 1796 086e 38       		.byte	0x38
 1797 086f C4000000 		.4byte	0xc4
 1798 0873 06       		.byte	0x6
 1799 0874 08       		.uleb128 0x8
 1800 0875 7A080000 		.4byte	.LASF116
 1801 0879 14       		.byte	0x14
 1802 087a 39       		.byte	0x39
 1803 087b B4000000 		.4byte	0xb4
 1804 087f 08       		.byte	0x8
 1805 0880 08       		.uleb128 0x8
 1806 0881 24070000 		.4byte	.LASF117
 1807 0885 14       		.byte	0x14
 1808 0886 3A       		.byte	0x3a
 1809 0887 B4000000 		.4byte	0xb4
 1810 088b 09       		.byte	0x9
 1811 088c 08       		.uleb128 0x8
 1812 088d FC040000 		.4byte	.LASF118
 1813 0891 14       		.byte	0x14
 1814 0892 3B       		.byte	0x3b
 1815 0893 B4000000 		.4byte	0xb4
 1816 0897 0A       		.byte	0xa
 1817 0898 08       		.uleb128 0x8
 1818 0899 8A060000 		.4byte	.LASF119
 1819 089d 14       		.byte	0x14
 1820 089e 3C       		.byte	0x3c
 1821 089f B4000000 		.4byte	0xb4
 1822 08a3 0B       		.byte	0xb
 1823 08a4 08       		.uleb128 0x8
 1824 08a5 46030000 		.4byte	.LASF120
ARM GAS  /tmp/ccYFEdb7.s 			page 33


 1825 08a9 14       		.byte	0x14
 1826 08aa 3D       		.byte	0x3d
 1827 08ab B4000000 		.4byte	0xb4
 1828 08af 0C       		.byte	0xc
 1829 08b0 08       		.uleb128 0x8
 1830 08b1 5C040000 		.4byte	.LASF121
 1831 08b5 14       		.byte	0x14
 1832 08b6 3E       		.byte	0x3e
 1833 08b7 B4000000 		.4byte	0xb4
 1834 08bb 0D       		.byte	0xd
 1835 08bc 08       		.uleb128 0x8
 1836 08bd 24080000 		.4byte	.LASF122
 1837 08c1 14       		.byte	0x14
 1838 08c2 3F       		.byte	0x3f
 1839 08c3 B4000000 		.4byte	0xb4
 1840 08c7 0E       		.byte	0xe
 1841 08c8 08       		.uleb128 0x8
 1842 08c9 E3080000 		.4byte	.LASF123
 1843 08cd 14       		.byte	0x14
 1844 08ce 40       		.byte	0x40
 1845 08cf B4000000 		.4byte	0xb4
 1846 08d3 0F       		.byte	0xf
 1847 08d4 08       		.uleb128 0x8
 1848 08d5 93060000 		.4byte	.LASF124
 1849 08d9 14       		.byte	0x14
 1850 08da 41       		.byte	0x41
 1851 08db B4000000 		.4byte	0xb4
 1852 08df 10       		.byte	0x10
 1853 08e0 08       		.uleb128 0x8
 1854 08e1 3A090000 		.4byte	.LASF125
 1855 08e5 14       		.byte	0x14
 1856 08e6 42       		.byte	0x42
 1857 08e7 B4000000 		.4byte	0xb4
 1858 08eb 11       		.byte	0x11
 1859 08ec 08       		.uleb128 0x8
 1860 08ed 94090000 		.4byte	.LASF126
 1861 08f1 14       		.byte	0x14
 1862 08f2 43       		.byte	0x43
 1863 08f3 B4000000 		.4byte	0xb4
 1864 08f7 12       		.byte	0x12
 1865 08f8 08       		.uleb128 0x8
 1866 08f9 F8020000 		.4byte	.LASF127
 1867 08fd 14       		.byte	0x14
 1868 08fe 44       		.byte	0x44
 1869 08ff B4000000 		.4byte	0xb4
 1870 0903 13       		.byte	0x13
 1871 0904 08       		.uleb128 0x8
 1872 0905 E8010000 		.4byte	.LASF128
 1873 0909 14       		.byte	0x14
 1874 090a 45       		.byte	0x45
 1875 090b B4000000 		.4byte	0xb4
 1876 090f 14       		.byte	0x14
 1877 0910 08       		.uleb128 0x8
 1878 0911 09070000 		.4byte	.LASF129
 1879 0915 14       		.byte	0x14
 1880 0916 46       		.byte	0x46
 1881 0917 B4000000 		.4byte	0xb4
ARM GAS  /tmp/ccYFEdb7.s 			page 34


 1882 091b 15       		.byte	0x15
 1883 091c 00       		.byte	0
 1884 091d 13       		.uleb128 0x13
 1885 091e 02080000 		.4byte	0x802
 1886 0922 2D090000 		.4byte	0x92d
 1887 0926 14       		.uleb128 0x14
 1888 0927 91040000 		.4byte	0x491
 1889 092b 03       		.byte	0x3
 1890 092c 00       		.byte	0
 1891 092d 03       		.uleb128 0x3
 1892 092e DE010000 		.4byte	.LASF130
 1893 0932 14       		.byte	0x14
 1894 0933 47       		.byte	0x47
 1895 0934 3C080000 		.4byte	0x83c
 1896 0938 05       		.uleb128 0x5
 1897 0939 2D090000 		.4byte	0x92d
 1898 093d 12       		.uleb128 0x12
 1899 093e C7020000 		.4byte	.LASF131
 1900 0942 14       		.byte	0x14
 1901 0943 6C       		.byte	0x6c
 1902 0944 38090000 		.4byte	0x938
 1903 0948 03       		.uleb128 0x3
 1904 0949 4D020000 		.4byte	.LASF132
 1905 094d 05       		.byte	0x5
 1906 094e 34       		.byte	0x34
 1907 094f B4070000 		.4byte	0x7b4
 1908 0953 0C       		.uleb128 0xc
 1909 0954 04       		.byte	0x4
 1910 0955 48090000 		.4byte	0x948
 1911 0959 07       		.uleb128 0x7
 1912 095a 0C040000 		.4byte	.LASF133
 1913 095e 08       		.byte	0x8
 1914 095f 15       		.byte	0x15
 1915 0960 3B       		.byte	0x3b
 1916 0961 72090000 		.4byte	0x972
 1917 0965 08       		.uleb128 0x8
 1918 0966 EC020000 		.4byte	.LASF32
 1919 096a 15       		.byte	0x15
 1920 096b 3C       		.byte	0x3c
 1921 096c 8E020000 		.4byte	0x28e
 1922 0970 00       		.byte	0
 1923 0971 00       		.byte	0
 1924 0972 03       		.uleb128 0x3
 1925 0973 5C010000 		.4byte	.LASF134
 1926 0977 15       		.byte	0x15
 1927 0978 3E       		.byte	0x3e
 1928 0979 59090000 		.4byte	0x959
 1929 097d 04       		.uleb128 0x4
 1930 097e 01       		.byte	0x1
 1931 097f 02       		.byte	0x2
 1932 0980 6E060000 		.4byte	.LASF135
 1933 0984 03       		.uleb128 0x3
 1934 0985 54080000 		.4byte	.LASF136
 1935 0989 16       		.byte	0x16
 1936 098a 47       		.byte	0x47
 1937 098b 8F090000 		.4byte	0x98f
 1938 098f 0C       		.uleb128 0xc
ARM GAS  /tmp/ccYFEdb7.s 			page 35


 1939 0990 04       		.byte	0x4
 1940 0991 95090000 		.4byte	0x995
 1941 0995 1B       		.uleb128 0x1b
 1942 0996 46030000 		.4byte	0x346
 1943 099a A9090000 		.4byte	0x9a9
 1944 099e 0F       		.uleb128 0xf
 1945 099f 2C000000 		.4byte	0x2c
 1946 09a3 0F       		.uleb128 0xf
 1947 09a4 37000000 		.4byte	0x37
 1948 09a8 00       		.byte	0
 1949 09a9 15       		.uleb128 0x15
 1950 09aa 08       		.byte	0x8
 1951 09ab 16       		.byte	0x16
 1952 09ac 51       		.byte	0x51
 1953 09ad CA090000 		.4byte	0x9ca
 1954 09b1 08       		.uleb128 0x8
 1955 09b2 B1090000 		.4byte	.LASF137
 1956 09b6 16       		.byte	0x16
 1957 09b7 55       		.byte	0x55
 1958 09b8 CA090000 		.4byte	0x9ca
 1959 09bc 00       		.byte	0
 1960 09bd 08       		.uleb128 0x8
 1961 09be 89030000 		.4byte	.LASF138
 1962 09c2 16       		.byte	0x16
 1963 09c3 59       		.byte	0x59
 1964 09c4 CA090000 		.4byte	0x9ca
 1965 09c8 04       		.byte	0x4
 1966 09c9 00       		.byte	0
 1967 09ca 0C       		.uleb128 0xc
 1968 09cb 04       		.byte	0x4
 1969 09cc B4000000 		.4byte	0xb4
 1970 09d0 03       		.uleb128 0x3
 1971 09d1 DF040000 		.4byte	.LASF139
 1972 09d5 16       		.byte	0x16
 1973 09d6 5A       		.byte	0x5a
 1974 09d7 A9090000 		.4byte	0x9a9
 1975 09db 12       		.uleb128 0x12
 1976 09dc B6020000 		.4byte	.LASF140
 1977 09e0 16       		.byte	0x16
 1978 09e1 65       		.byte	0x65
 1979 09e2 D0090000 		.4byte	0x9d0
 1980 09e6 07       		.uleb128 0x7
 1981 09e7 A5080000 		.4byte	.LASF141
 1982 09eb 04       		.byte	0x4
 1983 09ec 17       		.byte	0x17
 1984 09ed 38       		.byte	0x38
 1985 09ee FF090000 		.4byte	0x9ff
 1986 09f2 08       		.uleb128 0x8
 1987 09f3 34010000 		.4byte	.LASF52
 1988 09f7 17       		.byte	0x17
 1989 09f8 39       		.byte	0x39
 1990 09f9 FF090000 		.4byte	0x9ff
 1991 09fd 00       		.byte	0
 1992 09fe 00       		.byte	0
 1993 09ff 0C       		.uleb128 0xc
 1994 0a00 04       		.byte	0x4
 1995 0a01 E6090000 		.4byte	0x9e6
ARM GAS  /tmp/ccYFEdb7.s 			page 36


 1996 0a05 15       		.uleb128 0x15
 1997 0a06 10       		.byte	0x10
 1998 0a07 17       		.byte	0x17
 1999 0a08 40       		.byte	0x40
 2000 0a09 3E0A0000 		.4byte	0xa3e
 2001 0a0d 08       		.uleb128 0x8
 2002 0a0e 34010000 		.4byte	.LASF52
 2003 0a12 17       		.byte	0x17
 2004 0a13 41       		.byte	0x41
 2005 0a14 FF090000 		.4byte	0x9ff
 2006 0a18 00       		.byte	0
 2007 0a19 08       		.uleb128 0x8
 2008 0a1a 6E080000 		.4byte	.LASF142
 2009 0a1e 17       		.byte	0x17
 2010 0a1f 42       		.byte	0x42
 2011 0a20 2C000000 		.4byte	0x2c
 2012 0a24 04       		.byte	0x4
 2013 0a25 08       		.uleb128 0x8
 2014 0a26 55020000 		.4byte	.LASF143
 2015 0a2a 17       		.byte	0x17
 2016 0a2b 44       		.byte	0x44
 2017 0a2c 37000000 		.4byte	0x37
 2018 0a30 08       		.byte	0x8
 2019 0a31 08       		.uleb128 0x8
 2020 0a32 72000000 		.4byte	.LASF144
 2021 0a36 17       		.byte	0x17
 2022 0a37 45       		.byte	0x45
 2023 0a38 84090000 		.4byte	0x984
 2024 0a3c 0C       		.byte	0xc
 2025 0a3d 00       		.byte	0
 2026 0a3e 03       		.uleb128 0x3
 2027 0a3f D8020000 		.4byte	.LASF145
 2028 0a43 17       		.byte	0x17
 2029 0a44 47       		.byte	0x47
 2030 0a45 050A0000 		.4byte	0xa05
 2031 0a49 07       		.uleb128 0x7
 2032 0a4a 1C050000 		.4byte	.LASF146
 2033 0a4e 10       		.byte	0x10
 2034 0a4f 18       		.byte	0x18
 2035 0a50 A9       		.byte	0xa9
 2036 0a51 7A0A0000 		.4byte	0xa7a
 2037 0a55 08       		.uleb128 0x8
 2038 0a56 34010000 		.4byte	.LASF52
 2039 0a5a 18       		.byte	0x18
 2040 0a5b AD       		.byte	0xad
 2041 0a5c 7A0A0000 		.4byte	0xa7a
 2042 0a60 00       		.byte	0
 2043 0a61 08       		.uleb128 0x8
 2044 0a62 07050000 		.4byte	.LASF40
 2045 0a66 18       		.byte	0x18
 2046 0a67 B1       		.byte	0xb1
 2047 0a68 58010000 		.4byte	0x158
 2048 0a6c 04       		.byte	0x4
 2049 0a6d 08       		.uleb128 0x8
 2050 0a6e 35030000 		.4byte	.LASF36
 2051 0a72 18       		.byte	0x18
 2052 0a73 B3       		.byte	0xb3
ARM GAS  /tmp/ccYFEdb7.s 			page 37


 2053 0a74 800A0000 		.4byte	0xa80
 2054 0a78 08       		.byte	0x8
 2055 0a79 00       		.byte	0
 2056 0a7a 0C       		.uleb128 0xc
 2057 0a7b 04       		.byte	0x4
 2058 0a7c 490A0000 		.4byte	0xa49
 2059 0a80 13       		.uleb128 0x13
 2060 0a81 02080000 		.4byte	0x802
 2061 0a85 900A0000 		.4byte	0xa90
 2062 0a89 14       		.uleb128 0x14
 2063 0a8a 91040000 		.4byte	0x491
 2064 0a8e 07       		.byte	0x7
 2065 0a8f 00       		.byte	0
 2066 0a90 03       		.uleb128 0x3
 2067 0a91 26010000 		.4byte	.LASF147
 2068 0a95 18       		.byte	0x18
 2069 0a96 B7       		.byte	0xb7
 2070 0a97 490A0000 		.4byte	0xa49
 2071 0a9b 07       		.uleb128 0x7
 2072 0a9c 32040000 		.4byte	.LASF148
 2073 0aa0 04       		.byte	0x4
 2074 0aa1 18       		.byte	0x18
 2075 0aa2 BC       		.byte	0xbc
 2076 0aa3 B40A0000 		.4byte	0xab4
 2077 0aa7 08       		.uleb128 0x8
 2078 0aa8 34010000 		.4byte	.LASF52
 2079 0aac 18       		.byte	0x18
 2080 0aad BD       		.byte	0xbd
 2081 0aae B40A0000 		.4byte	0xab4
 2082 0ab2 00       		.byte	0
 2083 0ab3 00       		.byte	0
 2084 0ab4 0C       		.uleb128 0xc
 2085 0ab5 04       		.byte	0x4
 2086 0ab6 900A0000 		.4byte	0xa90
 2087 0aba 03       		.uleb128 0x3
 2088 0abb 92040000 		.4byte	.LASF149
 2089 0abf 18       		.byte	0x18
 2090 0ac0 BE       		.byte	0xbe
 2091 0ac1 9B0A0000 		.4byte	0xa9b
 2092 0ac5 0D       		.uleb128 0xd
 2093 0ac6 82080000 		.4byte	.LASF150
 2094 0aca 48       		.byte	0x48
 2095 0acb 18       		.byte	0x18
 2096 0acc 3E01     		.2byte	0x13e
 2097 0ace 3B0B0000 		.4byte	0xb3b
 2098 0ad2 0A       		.uleb128 0xa
 2099 0ad3 6D747800 		.ascii	"mtx\000"
 2100 0ad7 18       		.byte	0x18
 2101 0ad8 4301     		.2byte	0x143
 2102 0ada 48090000 		.4byte	0x948
 2103 0ade 00       		.byte	0
 2104 0adf 0B       		.uleb128 0xb
 2105 0ae0 A1070000 		.4byte	.LASF151
 2106 0ae4 18       		.byte	0x18
 2107 0ae5 4A01     		.2byte	0x14a
 2108 0ae7 BA0A0000 		.4byte	0xaba
 2109 0aeb 14       		.byte	0x14
ARM GAS  /tmp/ccYFEdb7.s 			page 38


 2110 0aec 0B       		.uleb128 0xb
 2111 0aed E2060000 		.4byte	.LASF152
 2112 0af1 18       		.byte	0x18
 2113 0af2 4E01     		.2byte	0x14e
 2114 0af4 3E0A0000 		.4byte	0xa3e
 2115 0af8 18       		.byte	0x18
 2116 0af9 0B       		.uleb128 0xb
 2117 0afa 49060000 		.4byte	.LASF153
 2118 0afe 18       		.byte	0x18
 2119 0aff 5301     		.2byte	0x153
 2120 0b01 BA0A0000 		.4byte	0xaba
 2121 0b05 28       		.byte	0x28
 2122 0b06 0B       		.uleb128 0xb
 2123 0b07 86000000 		.4byte	.LASF154
 2124 0b0b 18       		.byte	0x18
 2125 0b0c 5901     		.2byte	0x159
 2126 0b0e BA0A0000 		.4byte	0xaba
 2127 0b12 2C       		.byte	0x2c
 2128 0b13 0B       		.uleb128 0xb
 2129 0b14 C3040000 		.4byte	.LASF155
 2130 0b18 18       		.byte	0x18
 2131 0b19 5D01     		.2byte	0x15d
 2132 0b1b 3E0A0000 		.4byte	0xa3e
 2133 0b1f 30       		.byte	0x30
 2134 0b20 0B       		.uleb128 0xb
 2135 0b21 19020000 		.4byte	.LASF156
 2136 0b25 18       		.byte	0x18
 2137 0b26 6301     		.2byte	0x163
 2138 0b28 BA0A0000 		.4byte	0xaba
 2139 0b2c 40       		.byte	0x40
 2140 0b2d 0B       		.uleb128 0xb
 2141 0b2e 08090000 		.4byte	.LASF157
 2142 0b32 18       		.byte	0x18
 2143 0b33 6901     		.2byte	0x169
 2144 0b35 BA0A0000 		.4byte	0xaba
 2145 0b39 44       		.byte	0x44
 2146 0b3a 00       		.byte	0
 2147 0b3b 1C       		.uleb128 0x1c
 2148 0b3c 65090000 		.4byte	.LASF158
 2149 0b40 18       		.byte	0x18
 2150 0b41 7101     		.2byte	0x171
 2151 0b43 C50A0000 		.4byte	0xac5
 2152 0b47 11       		.uleb128 0x11
 2153 0b48 CD060000 		.4byte	.LASF159
 2154 0b4c 18       		.byte	0x18
 2155 0b4d 7C01     		.2byte	0x17c
 2156 0b4f 3B0B0000 		.4byte	0xb3b
 2157 0b53 1D       		.uleb128 0x1d
 2158 0b54 1F040000 		.4byte	.LASF161
 2159 0b58 02       		.byte	0x2
 2160 0b59 2701     		.2byte	0x127
 2161 0b5b 37010000 		.4byte	0x137
 2162 0b5f 00000000 		.4byte	.LFB309
 2163 0b63 38000000 		.4byte	.LFE309-.LFB309
 2164 0b67 01       		.uleb128 0x1
 2165 0b68 9C       		.byte	0x9c
 2166 0b69 2C0C0000 		.4byte	0xc2c
ARM GAS  /tmp/ccYFEdb7.s 			page 39


 2167 0b6d 1E       		.uleb128 0x1e
 2168 0b6e 637000   		.ascii	"cp\000"
 2169 0b71 02       		.byte	0x2
 2170 0b72 2701     		.2byte	0x127
 2171 0b74 2C0C0000 		.4byte	0xc2c
 2172 0b78 00000000 		.4byte	.LLST26
 2173 0b7c 1F       		.uleb128 0x1f
 2174 0b7d D0020000 		.4byte	.LASF160
 2175 0b81 02       		.byte	0x2
 2176 0b82 2701     		.2byte	0x127
 2177 0b84 86040000 		.4byte	0x486
 2178 0b88 2C000000 		.4byte	.LLST27
 2179 0b8c 20       		.uleb128 0x20
 2180 0b8d 6D7000   		.ascii	"mp\000"
 2181 0b90 02       		.byte	0x2
 2182 0b91 2801     		.2byte	0x128
 2183 0b93 53090000 		.4byte	0x953
 2184 0b97 21       		.uleb128 0x21
 2185 0b98 6D736700 		.ascii	"msg\000"
 2186 0b9c 02       		.byte	0x2
 2187 0b9d 2901     		.2byte	0x129
 2188 0b9f 37010000 		.4byte	0x137
 2189 0ba3 58000000 		.4byte	.LLST28
 2190 0ba7 22       		.uleb128 0x22
 2191 0ba8 C4060000 		.4byte	.LASF164
 2192 0bac 420C0000 		.4byte	0xc42
 2193 0bb0 23       		.uleb128 0x23
 2194 0bb1 BD120000 		.4byte	0x12bd
 2195 0bb5 02000000 		.4byte	.LBB137
 2196 0bb9 A8000000 		.4byte	.Ldebug_ranges0+0xa8
 2197 0bbd 02       		.byte	0x2
 2198 0bbe 2801     		.2byte	0x128
 2199 0bc0 D40B0000 		.4byte	0xbd4
 2200 0bc4 24       		.uleb128 0x24
 2201 0bc5 C9120000 		.4byte	0x12c9
 2202 0bc9 02000000 		.4byte	.LBB139
 2203 0bcd 02000000 		.4byte	.LBE139-.LBB139
 2204 0bd1 05       		.byte	0x5
 2205 0bd2 A1       		.byte	0xa1
 2206 0bd3 00       		.byte	0
 2207 0bd4 25       		.uleb128 0x25
 2208 0bd5 12000000 		.4byte	.LVL51
 2209 0bd9 D4130000 		.4byte	0x13d4
 2210 0bdd E80B0000 		.4byte	0xbe8
 2211 0be1 26       		.uleb128 0x26
 2212 0be2 01       		.uleb128 0x1
 2213 0be3 50       		.byte	0x50
 2214 0be4 02       		.uleb128 0x2
 2215 0be5 75       		.byte	0x75
 2216 0be6 00       		.sleb128 0
 2217 0be7 00       		.byte	0
 2218 0be8 25       		.uleb128 0x25
 2219 0be9 1C000000 		.4byte	.LVL52
 2220 0bed 29130000 		.4byte	0x1329
 2221 0bf1 020C0000 		.4byte	0xc02
 2222 0bf5 26       		.uleb128 0x26
 2223 0bf6 01       		.uleb128 0x1
ARM GAS  /tmp/ccYFEdb7.s 			page 40


 2224 0bf7 50       		.byte	0x50
 2225 0bf8 02       		.uleb128 0x2
 2226 0bf9 70       		.byte	0x70
 2227 0bfa 00       		.sleb128 0
 2228 0bfb 26       		.uleb128 0x26
 2229 0bfc 01       		.uleb128 0x1
 2230 0bfd 51       		.byte	0x51
 2231 0bfe 02       		.uleb128 0x2
 2232 0bff 74       		.byte	0x74
 2233 0c00 00       		.sleb128 0
 2234 0c01 00       		.byte	0
 2235 0c02 25       		.uleb128 0x25
 2236 0c03 24000000 		.4byte	.LVL53
 2237 0c07 DF130000 		.4byte	0x13df
 2238 0c0b 1B0C0000 		.4byte	0xc1b
 2239 0c0f 26       		.uleb128 0x26
 2240 0c10 01       		.uleb128 0x1
 2241 0c11 50       		.byte	0x50
 2242 0c12 01       		.uleb128 0x1
 2243 0c13 37       		.byte	0x37
 2244 0c14 26       		.uleb128 0x26
 2245 0c15 01       		.uleb128 0x1
 2246 0c16 51       		.byte	0x51
 2247 0c17 02       		.uleb128 0x2
 2248 0c18 77       		.byte	0x77
 2249 0c19 00       		.sleb128 0
 2250 0c1a 00       		.byte	0
 2251 0c1b 27       		.uleb128 0x27
 2252 0c1c 30000000 		.4byte	.LVL56
 2253 0c20 EB130000 		.4byte	0x13eb
 2254 0c24 26       		.uleb128 0x26
 2255 0c25 01       		.uleb128 0x1
 2256 0c26 50       		.byte	0x50
 2257 0c27 02       		.uleb128 0x2
 2258 0c28 75       		.byte	0x75
 2259 0c29 00       		.sleb128 0
 2260 0c2a 00       		.byte	0
 2261 0c2b 00       		.byte	0
 2262 0c2c 0C       		.uleb128 0xc
 2263 0c2d 04       		.byte	0x4
 2264 0c2e 72090000 		.4byte	0x972
 2265 0c32 13       		.uleb128 0x13
 2266 0c33 09080000 		.4byte	0x809
 2267 0c37 420C0000 		.4byte	0xc42
 2268 0c3b 14       		.uleb128 0x14
 2269 0c3c 91040000 		.4byte	0x491
 2270 0c40 12       		.byte	0x12
 2271 0c41 00       		.byte	0
 2272 0c42 05       		.uleb128 0x5
 2273 0c43 320C0000 		.4byte	0xc32
 2274 0c47 1D       		.uleb128 0x1d
 2275 0c48 19090000 		.4byte	.LASF162
 2276 0c4c 02       		.byte	0x2
 2277 0c4d 0101     		.2byte	0x101
 2278 0c4f 37010000 		.4byte	0x137
 2279 0c53 00000000 		.4byte	.LFB308
 2280 0c57 28000000 		.4byte	.LFE308-.LFB308
ARM GAS  /tmp/ccYFEdb7.s 			page 41


 2281 0c5b 01       		.uleb128 0x1
 2282 0c5c 9C       		.byte	0x9c
 2283 0c5d 500D0000 		.4byte	0xd50
 2284 0c61 1E       		.uleb128 0x1e
 2285 0c62 637000   		.ascii	"cp\000"
 2286 0c65 02       		.byte	0x2
 2287 0c66 0101     		.2byte	0x101
 2288 0c68 2C0C0000 		.4byte	0xc2c
 2289 0c6c 81000000 		.4byte	.LLST29
 2290 0c70 1F       		.uleb128 0x1f
 2291 0c71 D0020000 		.4byte	.LASF160
 2292 0c75 02       		.byte	0x2
 2293 0c76 0101     		.2byte	0x101
 2294 0c78 86040000 		.4byte	0x486
 2295 0c7c AD000000 		.4byte	.LLST30
 2296 0c80 21       		.uleb128 0x21
 2297 0c81 6D736700 		.ascii	"msg\000"
 2298 0c85 02       		.byte	0x2
 2299 0c86 0201     		.2byte	0x102
 2300 0c88 37010000 		.4byte	0x137
 2301 0c8c CB000000 		.4byte	.LLST31
 2302 0c90 28       		.uleb128 0x28
 2303 0c91 F1120000 		.4byte	0x12f1
 2304 0c95 06000000 		.4byte	.LBB153
 2305 0c99 0A000000 		.4byte	.LBE153-.LBB153
 2306 0c9d 02       		.byte	0x2
 2307 0c9e 0401     		.2byte	0x104
 2308 0ca0 DD0C0000 		.4byte	0xcdd
 2309 0ca4 28       		.uleb128 0x28
 2310 0ca5 B1130000 		.4byte	0x13b1
 2311 0ca9 06000000 		.4byte	.LBB155
 2312 0cad 06000000 		.4byte	.LBE155-.LBB155
 2313 0cb1 04       		.byte	0x4
 2314 0cb2 6301     		.2byte	0x163
 2315 0cb4 D30C0000 		.4byte	0xcd3
 2316 0cb8 29       		.uleb128 0x29
 2317 0cb9 BA130000 		.4byte	0x13ba
 2318 0cbd 06000000 		.4byte	.LBB156
 2319 0cc1 06000000 		.4byte	.LBE156-.LBB156
 2320 0cc5 10       		.byte	0x10
 2321 0cc6 6202     		.2byte	0x262
 2322 0cc8 2A       		.uleb128 0x2a
 2323 0cc9 C7130000 		.4byte	0x13c7
 2324 0ccd E9000000 		.4byte	.LLST32
 2325 0cd1 00       		.byte	0
 2326 0cd2 00       		.byte	0
 2327 0cd3 2B       		.uleb128 0x2b
 2328 0cd4 10000000 		.4byte	.LVL60
 2329 0cd8 F6130000 		.4byte	0x13f6
 2330 0cdc 00       		.byte	0
 2331 0cdd 28       		.uleb128 0x28
 2332 0cde D6120000 		.4byte	0x12d6
 2333 0ce2 1A000000 		.4byte	.LBB158
 2334 0ce6 0A000000 		.4byte	.LBE158-.LBB158
 2335 0cea 02       		.byte	0x2
 2336 0ceb 0601     		.2byte	0x106
 2337 0ced 390D0000 		.4byte	0xd39
ARM GAS  /tmp/ccYFEdb7.s 			page 42


 2338 0cf1 2C       		.uleb128 0x2c
 2339 0cf2 1A000000 		.4byte	.LBB159
 2340 0cf6 0A000000 		.4byte	.LBE159-.LBB159
 2341 0cfa 2D       		.uleb128 0x2d
 2342 0cfb E3120000 		.4byte	0x12e3
 2343 0cff 28       		.uleb128 0x28
 2344 0d00 A8130000 		.4byte	0x13a8
 2345 0d04 1E000000 		.4byte	.LBB160
 2346 0d08 06000000 		.4byte	.LBE160-.LBB160
 2347 0d0c 04       		.byte	0x4
 2348 0d0d 7A01     		.2byte	0x17a
 2349 0d0f 2E0D0000 		.4byte	0xd2e
 2350 0d13 29       		.uleb128 0x29
 2351 0d14 BA130000 		.4byte	0x13ba
 2352 0d18 1E000000 		.4byte	.LBB161
 2353 0d1c 06000000 		.4byte	.LBE161-.LBB161
 2354 0d20 10       		.byte	0x10
 2355 0d21 7502     		.2byte	0x275
 2356 0d23 2A       		.uleb128 0x2a
 2357 0d24 C7130000 		.4byte	0x13c7
 2358 0d28 FE000000 		.4byte	.LLST33
 2359 0d2c 00       		.byte	0
 2360 0d2d 00       		.byte	0
 2361 0d2e 2B       		.uleb128 0x2b
 2362 0d2f 1E000000 		.4byte	.LVL63
 2363 0d33 01140000 		.4byte	0x1401
 2364 0d37 00       		.byte	0
 2365 0d38 00       		.byte	0
 2366 0d39 27       		.uleb128 0x27
 2367 0d3a 18000000 		.4byte	.LVL61
 2368 0d3e 530B0000 		.4byte	0xb53
 2369 0d42 26       		.uleb128 0x26
 2370 0d43 01       		.uleb128 0x1
 2371 0d44 50       		.byte	0x50
 2372 0d45 02       		.uleb128 0x2
 2373 0d46 74       		.byte	0x74
 2374 0d47 00       		.sleb128 0
 2375 0d48 26       		.uleb128 0x26
 2376 0d49 01       		.uleb128 0x1
 2377 0d4a 51       		.byte	0x51
 2378 0d4b 02       		.uleb128 0x2
 2379 0d4c 75       		.byte	0x75
 2380 0d4d 00       		.sleb128 0
 2381 0d4e 00       		.byte	0
 2382 0d4f 00       		.byte	0
 2383 0d50 2E       		.uleb128 0x2e
 2384 0d51 AF010000 		.4byte	.LASF163
 2385 0d55 02       		.byte	0x2
 2386 0d56 CD       		.byte	0xcd
 2387 0d57 37010000 		.4byte	0x137
 2388 0d5b 00000000 		.4byte	.LFB307
 2389 0d5f 30000000 		.4byte	.LFE307-.LFB307
 2390 0d63 01       		.uleb128 0x1
 2391 0d64 9C       		.byte	0x9c
 2392 0d65 090E0000 		.4byte	0xe09
 2393 0d69 2F       		.uleb128 0x2f
 2394 0d6a 637000   		.ascii	"cp\000"
ARM GAS  /tmp/ccYFEdb7.s 			page 43


 2395 0d6d 02       		.byte	0x2
 2396 0d6e CD       		.byte	0xcd
 2397 0d6f 2C0C0000 		.4byte	0xc2c
 2398 0d73 12010000 		.4byte	.LLST19
 2399 0d77 30       		.uleb128 0x30
 2400 0d78 63747000 		.ascii	"ctp\000"
 2401 0d7c 02       		.byte	0x2
 2402 0d7d CE       		.byte	0xce
 2403 0d7e 64020000 		.4byte	0x264
 2404 0d82 3E010000 		.4byte	.LLST20
 2405 0d86 31       		.uleb128 0x31
 2406 0d87 6D7000   		.ascii	"mp\000"
 2407 0d8a 02       		.byte	0x2
 2408 0d8b CF       		.byte	0xcf
 2409 0d8c 53090000 		.4byte	0x953
 2410 0d90 30       		.uleb128 0x30
 2411 0d91 6D736700 		.ascii	"msg\000"
 2412 0d95 02       		.byte	0x2
 2413 0d96 D0       		.byte	0xd0
 2414 0d97 37010000 		.4byte	0x137
 2415 0d9b 51010000 		.4byte	.LLST21
 2416 0d9f 22       		.uleb128 0x22
 2417 0da0 C4060000 		.4byte	.LASF164
 2418 0da4 190E0000 		.4byte	0xe19
 2419 0da8 24       		.uleb128 0x24
 2420 0da9 BD120000 		.4byte	0x12bd
 2421 0dad 08000000 		.4byte	.LBB110
 2422 0db1 02000000 		.4byte	.LBE110-.LBB110
 2423 0db5 02       		.byte	0x2
 2424 0db6 CF       		.byte	0xcf
 2425 0db7 25       		.uleb128 0x25
 2426 0db8 10000000 		.4byte	.LVL36
 2427 0dbc D4130000 		.4byte	0x13d4
 2428 0dc0 CB0D0000 		.4byte	0xdcb
 2429 0dc4 26       		.uleb128 0x26
 2430 0dc5 01       		.uleb128 0x1
 2431 0dc6 50       		.byte	0x50
 2432 0dc7 02       		.uleb128 0x2
 2433 0dc8 75       		.byte	0x75
 2434 0dc9 00       		.sleb128 0
 2435 0dca 00       		.byte	0
 2436 0dcb 25       		.uleb128 0x25
 2437 0dcc 1A000000 		.4byte	.LVL37
 2438 0dd0 29130000 		.4byte	0x1329
 2439 0dd4 E50D0000 		.4byte	0xde5
 2440 0dd8 26       		.uleb128 0x26
 2441 0dd9 01       		.uleb128 0x1
 2442 0dda 50       		.byte	0x50
 2443 0ddb 02       		.uleb128 0x2
 2444 0ddc 74       		.byte	0x74
 2445 0ddd 00       		.sleb128 0
 2446 0dde 26       		.uleb128 0x26
 2447 0ddf 01       		.uleb128 0x1
 2448 0de0 51       		.byte	0x51
 2449 0de1 02       		.uleb128 0x2
 2450 0de2 76       		.byte	0x76
 2451 0de3 00       		.sleb128 0
ARM GAS  /tmp/ccYFEdb7.s 			page 44


 2452 0de4 00       		.byte	0
 2453 0de5 25       		.uleb128 0x25
 2454 0de6 20000000 		.4byte	.LVL38
 2455 0dea 0C140000 		.4byte	0x140c
 2456 0dee F80D0000 		.4byte	0xdf8
 2457 0df2 26       		.uleb128 0x26
 2458 0df3 01       		.uleb128 0x1
 2459 0df4 50       		.byte	0x50
 2460 0df5 01       		.uleb128 0x1
 2461 0df6 37       		.byte	0x37
 2462 0df7 00       		.byte	0
 2463 0df8 27       		.uleb128 0x27
 2464 0df9 28000000 		.4byte	.LVL40
 2465 0dfd EB130000 		.4byte	0x13eb
 2466 0e01 26       		.uleb128 0x26
 2467 0e02 01       		.uleb128 0x1
 2468 0e03 50       		.byte	0x50
 2469 0e04 02       		.uleb128 0x2
 2470 0e05 75       		.byte	0x75
 2471 0e06 00       		.sleb128 0
 2472 0e07 00       		.byte	0
 2473 0e08 00       		.byte	0
 2474 0e09 13       		.uleb128 0x13
 2475 0e0a 09080000 		.4byte	0x809
 2476 0e0e 190E0000 		.4byte	0xe19
 2477 0e12 14       		.uleb128 0x14
 2478 0e13 91040000 		.4byte	0x491
 2479 0e17 0B       		.byte	0xb
 2480 0e18 00       		.byte	0
 2481 0e19 05       		.uleb128 0x5
 2482 0e1a 090E0000 		.4byte	0xe09
 2483 0e1e 2E       		.uleb128 0x2e
 2484 0e1f 8B070000 		.4byte	.LASF165
 2485 0e23 02       		.byte	0x2
 2486 0e24 B3       		.byte	0xb3
 2487 0e25 37010000 		.4byte	0x137
 2488 0e29 00000000 		.4byte	.LFB306
 2489 0e2d 24000000 		.4byte	.LFE306-.LFB306
 2490 0e31 01       		.uleb128 0x1
 2491 0e32 9C       		.byte	0x9c
 2492 0e33 0C0F0000 		.4byte	0xf0c
 2493 0e37 2F       		.uleb128 0x2f
 2494 0e38 637000   		.ascii	"cp\000"
 2495 0e3b 02       		.byte	0x2
 2496 0e3c B3       		.byte	0xb3
 2497 0e3d 2C0C0000 		.4byte	0xc2c
 2498 0e41 6F010000 		.4byte	.LLST22
 2499 0e45 30       		.uleb128 0x30
 2500 0e46 6D736700 		.ascii	"msg\000"
 2501 0e4a 02       		.byte	0x2
 2502 0e4b B4       		.byte	0xb4
 2503 0e4c 37010000 		.4byte	0x137
 2504 0e50 9B010000 		.4byte	.LLST23
 2505 0e54 32       		.uleb128 0x32
 2506 0e55 F1120000 		.4byte	0x12f1
 2507 0e59 02000000 		.4byte	.LBB122
 2508 0e5d 78000000 		.4byte	.Ldebug_ranges0+0x78
ARM GAS  /tmp/ccYFEdb7.s 			page 45


 2509 0e61 02       		.byte	0x2
 2510 0e62 B6       		.byte	0xb6
 2511 0e63 A00E0000 		.4byte	0xea0
 2512 0e67 23       		.uleb128 0x23
 2513 0e68 B1130000 		.4byte	0x13b1
 2514 0e6c 02000000 		.4byte	.LBB124
 2515 0e70 90000000 		.4byte	.Ldebug_ranges0+0x90
 2516 0e74 04       		.byte	0x4
 2517 0e75 6301     		.2byte	0x163
 2518 0e77 960E0000 		.4byte	0xe96
 2519 0e7b 33       		.uleb128 0x33
 2520 0e7c BA130000 		.4byte	0x13ba
 2521 0e80 02000000 		.4byte	.LBB125
 2522 0e84 90000000 		.4byte	.Ldebug_ranges0+0x90
 2523 0e88 10       		.byte	0x10
 2524 0e89 6202     		.2byte	0x262
 2525 0e8b 2A       		.uleb128 0x2a
 2526 0e8c C7130000 		.4byte	0x13c7
 2527 0e90 B9010000 		.4byte	.LLST24
 2528 0e94 00       		.byte	0
 2529 0e95 00       		.byte	0
 2530 0e96 2B       		.uleb128 0x2b
 2531 0e97 0E000000 		.4byte	.LVL44
 2532 0e9b F6130000 		.4byte	0x13f6
 2533 0e9f 00       		.byte	0
 2534 0ea0 34       		.uleb128 0x34
 2535 0ea1 D6120000 		.4byte	0x12d6
 2536 0ea5 16000000 		.4byte	.LBB132
 2537 0ea9 0A000000 		.4byte	.LBE132-.LBB132
 2538 0ead 02       		.byte	0x2
 2539 0eae B8       		.byte	0xb8
 2540 0eaf FB0E0000 		.4byte	0xefb
 2541 0eb3 2C       		.uleb128 0x2c
 2542 0eb4 16000000 		.4byte	.LBB133
 2543 0eb8 0A000000 		.4byte	.LBE133-.LBB133
 2544 0ebc 2D       		.uleb128 0x2d
 2545 0ebd E3120000 		.4byte	0x12e3
 2546 0ec1 28       		.uleb128 0x28
 2547 0ec2 A8130000 		.4byte	0x13a8
 2548 0ec6 1A000000 		.4byte	.LBB134
 2549 0eca 06000000 		.4byte	.LBE134-.LBB134
 2550 0ece 04       		.byte	0x4
 2551 0ecf 7A01     		.2byte	0x17a
 2552 0ed1 F00E0000 		.4byte	0xef0
 2553 0ed5 29       		.uleb128 0x29
 2554 0ed6 BA130000 		.4byte	0x13ba
 2555 0eda 1A000000 		.4byte	.LBB135
 2556 0ede 06000000 		.4byte	.LBE135-.LBB135
 2557 0ee2 10       		.byte	0x10
 2558 0ee3 7502     		.2byte	0x275
 2559 0ee5 2A       		.uleb128 0x2a
 2560 0ee6 C7130000 		.4byte	0x13c7
 2561 0eea CE010000 		.4byte	.LLST25
 2562 0eee 00       		.byte	0
 2563 0eef 00       		.byte	0
 2564 0ef0 2B       		.uleb128 0x2b
 2565 0ef1 1A000000 		.4byte	.LVL47
ARM GAS  /tmp/ccYFEdb7.s 			page 46


 2566 0ef5 01140000 		.4byte	0x1401
 2567 0ef9 00       		.byte	0
 2568 0efa 00       		.byte	0
 2569 0efb 27       		.uleb128 0x27
 2570 0efc 14000000 		.4byte	.LVL45
 2571 0f00 500D0000 		.4byte	0xd50
 2572 0f04 26       		.uleb128 0x26
 2573 0f05 01       		.uleb128 0x1
 2574 0f06 50       		.byte	0x50
 2575 0f07 02       		.uleb128 0x2
 2576 0f08 74       		.byte	0x74
 2577 0f09 00       		.sleb128 0
 2578 0f0a 00       		.byte	0
 2579 0f0b 00       		.byte	0
 2580 0f0c 35       		.uleb128 0x35
 2581 0f0d BF000000 		.4byte	.LASF166
 2582 0f11 02       		.byte	0x2
 2583 0f12 95       		.byte	0x95
 2584 0f13 00000000 		.4byte	.LFB305
 2585 0f17 1E000000 		.4byte	.LFE305-.LFB305
 2586 0f1b 01       		.uleb128 0x1
 2587 0f1c 9C       		.byte	0x9c
 2588 0f1d 8F0F0000 		.4byte	0xf8f
 2589 0f21 2F       		.uleb128 0x2f
 2590 0f22 637000   		.ascii	"cp\000"
 2591 0f25 02       		.byte	0x2
 2592 0f26 95       		.byte	0x95
 2593 0f27 2C0C0000 		.4byte	0xc2c
 2594 0f2b E2010000 		.4byte	.LLST12
 2595 0f2f 22       		.uleb128 0x22
 2596 0f30 C4060000 		.4byte	.LASF164
 2597 0f34 9F0F0000 		.4byte	0xf9f
 2598 0f38 34       		.uleb128 0x34
 2599 0f39 6A130000 		.4byte	0x136a
 2600 0f3d 08000000 		.4byte	.LBB81
 2601 0f41 02000000 		.4byte	.LBE81-.LBB81
 2602 0f45 02       		.byte	0x2
 2603 0f46 9D       		.byte	0x9d
 2604 0f47 550F0000 		.4byte	0xf55
 2605 0f4b 2A       		.uleb128 0x2a
 2606 0f4c 7B130000 		.4byte	0x137b
 2607 0f50 00020000 		.4byte	.LLST13
 2608 0f54 00       		.byte	0
 2609 0f55 34       		.uleb128 0x34
 2610 0f56 FA120000 		.4byte	0x12fa
 2611 0f5a 10000000 		.4byte	.LBB83
 2612 0f5e 06000000 		.4byte	.LBE83-.LBB83
 2613 0f62 02       		.byte	0x2
 2614 0f63 9E       		.byte	0x9e
 2615 0f64 850F0000 		.4byte	0xf85
 2616 0f68 2A       		.uleb128 0x2a
 2617 0f69 0B130000 		.4byte	0x130b
 2618 0f6d 13020000 		.4byte	.LLST14
 2619 0f71 2C       		.uleb128 0x2c
 2620 0f72 10000000 		.4byte	.LBB84
 2621 0f76 06000000 		.4byte	.LBE84-.LBB84
 2622 0f7a 36       		.uleb128 0x36
ARM GAS  /tmp/ccYFEdb7.s 			page 47


 2623 0f7b 17130000 		.4byte	0x1317
 2624 0f7f 26020000 		.4byte	.LLST15
 2625 0f83 00       		.byte	0
 2626 0f84 00       		.byte	0
 2627 0f85 2B       		.uleb128 0x2b
 2628 0f86 1A000000 		.4byte	.LVL25
 2629 0f8a 18140000 		.4byte	0x1418
 2630 0f8e 00       		.byte	0
 2631 0f8f 13       		.uleb128 0x13
 2632 0f90 09080000 		.4byte	0x809
 2633 0f94 9F0F0000 		.4byte	0xf9f
 2634 0f98 14       		.uleb128 0x14
 2635 0f99 91040000 		.4byte	0x491
 2636 0f9d 10       		.byte	0x10
 2637 0f9e 00       		.byte	0
 2638 0f9f 05       		.uleb128 0x5
 2639 0fa0 8F0F0000 		.4byte	0xf8f
 2640 0fa4 35       		.uleb128 0x35
 2641 0fa5 B3040000 		.4byte	.LASF167
 2642 0fa9 02       		.byte	0x2
 2643 0faa 82       		.byte	0x82
 2644 0fab 00000000 		.4byte	.LFB304
 2645 0faf 24000000 		.4byte	.LFE304-.LFB304
 2646 0fb3 01       		.uleb128 0x1
 2647 0fb4 9C       		.byte	0x9c
 2648 0fb5 8C100000 		.4byte	0x108c
 2649 0fb9 2F       		.uleb128 0x2f
 2650 0fba 637000   		.ascii	"cp\000"
 2651 0fbd 02       		.byte	0x2
 2652 0fbe 82       		.byte	0x82
 2653 0fbf 2C0C0000 		.4byte	0xc2c
 2654 0fc3 39020000 		.4byte	.LLST16
 2655 0fc7 32       		.uleb128 0x32
 2656 0fc8 F1120000 		.4byte	0x12f1
 2657 0fcc 02000000 		.4byte	.LBB95
 2658 0fd0 48000000 		.4byte	.Ldebug_ranges0+0x48
 2659 0fd4 02       		.byte	0x2
 2660 0fd5 84       		.byte	0x84
 2661 0fd6 13100000 		.4byte	0x1013
 2662 0fda 23       		.uleb128 0x23
 2663 0fdb B1130000 		.4byte	0x13b1
 2664 0fdf 02000000 		.4byte	.LBB97
 2665 0fe3 60000000 		.4byte	.Ldebug_ranges0+0x60
 2666 0fe7 04       		.byte	0x4
 2667 0fe8 6301     		.2byte	0x163
 2668 0fea 09100000 		.4byte	0x1009
 2669 0fee 33       		.uleb128 0x33
 2670 0fef BA130000 		.4byte	0x13ba
 2671 0ff3 02000000 		.4byte	.LBB98
 2672 0ff7 60000000 		.4byte	.Ldebug_ranges0+0x60
 2673 0ffb 10       		.byte	0x10
 2674 0ffc 6202     		.2byte	0x262
 2675 0ffe 2A       		.uleb128 0x2a
 2676 0fff C7130000 		.4byte	0x13c7
 2677 1003 57020000 		.4byte	.LLST17
 2678 1007 00       		.byte	0
 2679 1008 00       		.byte	0
ARM GAS  /tmp/ccYFEdb7.s 			page 48


 2680 1009 2B       		.uleb128 0x2b
 2681 100a 0E000000 		.4byte	.LVL28
 2682 100e F6130000 		.4byte	0x13f6
 2683 1012 00       		.byte	0
 2684 1013 34       		.uleb128 0x34
 2685 1014 D6120000 		.4byte	0x12d6
 2686 1018 18000000 		.4byte	.LBB105
 2687 101c 0C000000 		.4byte	.LBE105-.LBB105
 2688 1020 02       		.byte	0x2
 2689 1021 87       		.byte	0x87
 2690 1022 6E100000 		.4byte	0x106e
 2691 1026 2C       		.uleb128 0x2c
 2692 1027 18000000 		.4byte	.LBB106
 2693 102b 0C000000 		.4byte	.LBE106-.LBB106
 2694 102f 2D       		.uleb128 0x2d
 2695 1030 E3120000 		.4byte	0x12e3
 2696 1034 28       		.uleb128 0x28
 2697 1035 A8130000 		.4byte	0x13a8
 2698 1039 1C000000 		.4byte	.LBB107
 2699 103d 08000000 		.4byte	.LBE107-.LBB107
 2700 1041 04       		.byte	0x4
 2701 1042 7A01     		.2byte	0x17a
 2702 1044 63100000 		.4byte	0x1063
 2703 1048 29       		.uleb128 0x29
 2704 1049 BA130000 		.4byte	0x13ba
 2705 104d 1C000000 		.4byte	.LBB108
 2706 1051 08000000 		.4byte	.LBE108-.LBB108
 2707 1055 10       		.byte	0x10
 2708 1056 7502     		.2byte	0x275
 2709 1058 2A       		.uleb128 0x2a
 2710 1059 C7130000 		.4byte	0x13c7
 2711 105d 6C020000 		.4byte	.LLST18
 2712 1061 00       		.byte	0
 2713 1062 00       		.byte	0
 2714 1063 2B       		.uleb128 0x2b
 2715 1064 1C000000 		.4byte	.LVL31
 2716 1068 01140000 		.4byte	0x1401
 2717 106c 00       		.byte	0
 2718 106d 00       		.byte	0
 2719 106e 25       		.uleb128 0x25
 2720 106f 14000000 		.4byte	.LVL29
 2721 1073 0C0F0000 		.4byte	0xf0c
 2722 1077 82100000 		.4byte	0x1082
 2723 107b 26       		.uleb128 0x26
 2724 107c 01       		.uleb128 0x1
 2725 107d 50       		.byte	0x50
 2726 107e 02       		.uleb128 0x2
 2727 107f 74       		.byte	0x74
 2728 1080 00       		.sleb128 0
 2729 1081 00       		.byte	0
 2730 1082 2B       		.uleb128 0x2b
 2731 1083 18000000 		.4byte	.LVL30
 2732 1087 24140000 		.4byte	0x1424
 2733 108b 00       		.byte	0
 2734 108c 35       		.uleb128 0x35
 2735 108d 60060000 		.4byte	.LASF168
 2736 1091 02       		.byte	0x2
ARM GAS  /tmp/ccYFEdb7.s 			page 49


 2737 1092 6F       		.byte	0x6f
 2738 1093 00000000 		.4byte	.LFB303
 2739 1097 18000000 		.4byte	.LFE303-.LFB303
 2740 109b 01       		.uleb128 0x1
 2741 109c 9C       		.byte	0x9c
 2742 109d 23110000 		.4byte	0x1123
 2743 10a1 2F       		.uleb128 0x2f
 2744 10a2 637000   		.ascii	"cp\000"
 2745 10a5 02       		.byte	0x2
 2746 10a6 6F       		.byte	0x6f
 2747 10a7 2C0C0000 		.4byte	0xc2c
 2748 10ab 80020000 		.4byte	.LLST8
 2749 10af 22       		.uleb128 0x22
 2750 10b0 C4060000 		.4byte	.LASF164
 2751 10b4 33110000 		.4byte	0x1133
 2752 10b8 37       		.uleb128 0x37
 2753 10b9 06000000 		.4byte	.LBB78
 2754 10bd 12000000 		.4byte	.LBE78-.LBB78
 2755 10c1 09110000 		.4byte	0x1109
 2756 10c5 31       		.uleb128 0x31
 2757 10c6 747000   		.ascii	"tp\000"
 2758 10c9 02       		.byte	0x2
 2759 10ca 75       		.byte	0x75
 2760 10cb 64020000 		.4byte	0x264
 2761 10cf 34       		.uleb128 0x34
 2762 10d0 FA120000 		.4byte	0x12fa
 2763 10d4 06000000 		.4byte	.LBB79
 2764 10d8 06000000 		.4byte	.LBE79-.LBB79
 2765 10dc 02       		.byte	0x2
 2766 10dd 75       		.byte	0x75
 2767 10de FF100000 		.4byte	0x10ff
 2768 10e2 2A       		.uleb128 0x2a
 2769 10e3 0B130000 		.4byte	0x130b
 2770 10e7 AC020000 		.4byte	.LLST10
 2771 10eb 2C       		.uleb128 0x2c
 2772 10ec 06000000 		.4byte	.LBB80
 2773 10f0 06000000 		.4byte	.LBE80-.LBB80
 2774 10f4 36       		.uleb128 0x36
 2775 10f5 17130000 		.4byte	0x1317
 2776 10f9 BF020000 		.4byte	.LLST11
 2777 10fd 00       		.byte	0
 2778 10fe 00       		.byte	0
 2779 10ff 38       		.uleb128 0x38
 2780 1100 16000000 		.4byte	.LVL19
 2781 1104 18140000 		.4byte	0x1418
 2782 1108 00       		.byte	0
 2783 1109 39       		.uleb128 0x39
 2784 110a 6A130000 		.4byte	0x136a
 2785 110e 00000000 		.4byte	.LBB76
 2786 1112 02000000 		.4byte	.LBE76-.LBB76
 2787 1116 02       		.byte	0x2
 2788 1117 74       		.byte	0x74
 2789 1118 2A       		.uleb128 0x2a
 2790 1119 7B130000 		.4byte	0x137b
 2791 111d D2020000 		.4byte	.LLST9
 2792 1121 00       		.byte	0
 2793 1122 00       		.byte	0
ARM GAS  /tmp/ccYFEdb7.s 			page 50


 2794 1123 13       		.uleb128 0x13
 2795 1124 09080000 		.4byte	0x809
 2796 1128 33110000 		.4byte	0x1133
 2797 112c 14       		.uleb128 0x14
 2798 112d 91040000 		.4byte	0x491
 2799 1131 0D       		.byte	0xd
 2800 1132 00       		.byte	0
 2801 1133 05       		.uleb128 0x5
 2802 1134 23110000 		.4byte	0x1123
 2803 1138 35       		.uleb128 0x35
 2804 1139 5B020000 		.4byte	.LASF169
 2805 113d 02       		.byte	0x2
 2806 113e 59       		.byte	0x59
 2807 113f 00000000 		.4byte	.LFB302
 2808 1143 2C000000 		.4byte	.LFE302-.LFB302
 2809 1147 01       		.uleb128 0x1
 2810 1148 9C       		.byte	0x9c
 2811 1149 64120000 		.4byte	0x1264
 2812 114d 2F       		.uleb128 0x2f
 2813 114e 637000   		.ascii	"cp\000"
 2814 1151 02       		.byte	0x2
 2815 1152 59       		.byte	0x59
 2816 1153 2C0C0000 		.4byte	0xc2c
 2817 1157 E5020000 		.4byte	.LLST2
 2818 115b 22       		.uleb128 0x22
 2819 115c C4060000 		.4byte	.LASF164
 2820 1160 74120000 		.4byte	0x1274
 2821 1164 32       		.uleb128 0x32
 2822 1165 F1120000 		.4byte	0x12f1
 2823 1169 02000000 		.4byte	.LBB55
 2824 116d 00000000 		.4byte	.Ldebug_ranges0+0
 2825 1171 02       		.byte	0x2
 2826 1172 5D       		.byte	0x5d
 2827 1173 B0110000 		.4byte	0x11b0
 2828 1177 23       		.uleb128 0x23
 2829 1178 B1130000 		.4byte	0x13b1
 2830 117c 02000000 		.4byte	.LBB57
 2831 1180 18000000 		.4byte	.Ldebug_ranges0+0x18
 2832 1184 04       		.byte	0x4
 2833 1185 6301     		.2byte	0x163
 2834 1187 A6110000 		.4byte	0x11a6
 2835 118b 33       		.uleb128 0x33
 2836 118c BA130000 		.4byte	0x13ba
 2837 1190 02000000 		.4byte	.LBB58
 2838 1194 18000000 		.4byte	.Ldebug_ranges0+0x18
 2839 1198 10       		.byte	0x10
 2840 1199 6202     		.2byte	0x262
 2841 119b 2A       		.uleb128 0x2a
 2842 119c C7130000 		.4byte	0x13c7
 2843 11a0 03030000 		.4byte	.LLST3
 2844 11a4 00       		.byte	0
 2845 11a5 00       		.byte	0
 2846 11a6 2B       		.uleb128 0x2b
 2847 11a7 0E000000 		.4byte	.LVL7
 2848 11ab F6130000 		.4byte	0x13f6
 2849 11af 00       		.byte	0
 2850 11b0 34       		.uleb128 0x34
ARM GAS  /tmp/ccYFEdb7.s 			page 51


 2851 11b1 6A130000 		.4byte	0x136a
 2852 11b5 0E000000 		.4byte	.LBB65
 2853 11b9 02000000 		.4byte	.LBE65-.LBB65
 2854 11bd 02       		.byte	0x2
 2855 11be 5E       		.byte	0x5e
 2856 11bf CD110000 		.4byte	0x11cd
 2857 11c3 2A       		.uleb128 0x2a
 2858 11c4 7B130000 		.4byte	0x137b
 2859 11c8 18030000 		.4byte	.LLST4
 2860 11cc 00       		.byte	0
 2861 11cd 32       		.uleb128 0x32
 2862 11ce FA120000 		.4byte	0x12fa
 2863 11d2 14000000 		.4byte	.LBB67
 2864 11d6 30000000 		.4byte	.Ldebug_ranges0+0x30
 2865 11da 02       		.byte	0x2
 2866 11db 5F       		.byte	0x5f
 2867 11dc F9110000 		.4byte	0x11f9
 2868 11e0 2A       		.uleb128 0x2a
 2869 11e1 0B130000 		.4byte	0x130b
 2870 11e5 2B030000 		.4byte	.LLST5
 2871 11e9 3A       		.uleb128 0x3a
 2872 11ea 30000000 		.4byte	.Ldebug_ranges0+0x30
 2873 11ee 36       		.uleb128 0x36
 2874 11ef 17130000 		.4byte	0x1317
 2875 11f3 3E030000 		.4byte	.LLST6
 2876 11f7 00       		.byte	0
 2877 11f8 00       		.byte	0
 2878 11f9 34       		.uleb128 0x34
 2879 11fa D6120000 		.4byte	0x12d6
 2880 11fe 20000000 		.4byte	.LBB71
 2881 1202 0C000000 		.4byte	.LBE71-.LBB71
 2882 1206 02       		.byte	0x2
 2883 1207 61       		.byte	0x61
 2884 1208 54120000 		.4byte	0x1254
 2885 120c 2C       		.uleb128 0x2c
 2886 120d 20000000 		.4byte	.LBB72
 2887 1211 0C000000 		.4byte	.LBE72-.LBB72
 2888 1215 2D       		.uleb128 0x2d
 2889 1216 E3120000 		.4byte	0x12e3
 2890 121a 28       		.uleb128 0x28
 2891 121b A8130000 		.4byte	0x13a8
 2892 121f 24000000 		.4byte	.LBB73
 2893 1223 08000000 		.4byte	.LBE73-.LBB73
 2894 1227 04       		.byte	0x4
 2895 1228 7A01     		.2byte	0x17a
 2896 122a 49120000 		.4byte	0x1249
 2897 122e 29       		.uleb128 0x29
 2898 122f BA130000 		.4byte	0x13ba
 2899 1233 24000000 		.4byte	.LBB74
 2900 1237 08000000 		.4byte	.LBE74-.LBB74
 2901 123b 10       		.byte	0x10
 2902 123c 7502     		.2byte	0x275
 2903 123e 2A       		.uleb128 0x2a
 2904 123f C7130000 		.4byte	0x13c7
 2905 1243 51030000 		.4byte	.LLST7
 2906 1247 00       		.byte	0
 2907 1248 00       		.byte	0
ARM GAS  /tmp/ccYFEdb7.s 			page 52


 2908 1249 2B       		.uleb128 0x2b
 2909 124a 24000000 		.4byte	.LVL12
 2910 124e 01140000 		.4byte	0x1401
 2911 1252 00       		.byte	0
 2912 1253 00       		.byte	0
 2913 1254 27       		.uleb128 0x27
 2914 1255 20000000 		.4byte	.LVL11
 2915 1259 30140000 		.4byte	0x1430
 2916 125d 26       		.uleb128 0x26
 2917 125e 01       		.uleb128 0x1
 2918 125f 51       		.byte	0x51
 2919 1260 01       		.uleb128 0x1
 2920 1261 30       		.byte	0x30
 2921 1262 00       		.byte	0
 2922 1263 00       		.byte	0
 2923 1264 13       		.uleb128 0x13
 2924 1265 09080000 		.4byte	0x809
 2925 1269 74120000 		.4byte	0x1274
 2926 126d 14       		.uleb128 0x14
 2927 126e 91040000 		.4byte	0x491
 2928 1272 0C       		.byte	0xc
 2929 1273 00       		.byte	0
 2930 1274 05       		.uleb128 0x5
 2931 1275 64120000 		.4byte	0x1264
 2932 1279 35       		.uleb128 0x35
 2933 127a B5070000 		.4byte	.LASF170
 2934 127e 02       		.byte	0x2
 2935 127f 4B       		.byte	0x4b
 2936 1280 00000000 		.4byte	.LFB301
 2937 1284 06000000 		.4byte	.LFE301-.LFB301
 2938 1288 01       		.uleb128 0x1
 2939 1289 9C       		.byte	0x9c
 2940 128a BD120000 		.4byte	0x12bd
 2941 128e 3B       		.uleb128 0x3b
 2942 128f 637000   		.ascii	"cp\000"
 2943 1292 02       		.byte	0x2
 2944 1293 4B       		.byte	0x4b
 2945 1294 2C0C0000 		.4byte	0xc2c
 2946 1298 01       		.uleb128 0x1
 2947 1299 50       		.byte	0x50
 2948 129a 22       		.uleb128 0x22
 2949 129b C4060000 		.4byte	.LASF164
 2950 129f 9F0F0000 		.4byte	0xf9f
 2951 12a3 39       		.uleb128 0x39
 2952 12a4 8E130000 		.4byte	0x138e
 2953 12a8 00000000 		.4byte	.LBB39
 2954 12ac 06000000 		.4byte	.LBE39-.LBB39
 2955 12b0 02       		.byte	0x2
 2956 12b1 4F       		.byte	0x4f
 2957 12b2 2A       		.uleb128 0x2a
 2958 12b3 9B130000 		.4byte	0x139b
 2959 12b7 65030000 		.4byte	.LLST1
 2960 12bb 00       		.byte	0
 2961 12bc 00       		.byte	0
 2962 12bd 3C       		.uleb128 0x3c
 2963 12be 5F070000 		.4byte	.LASF171
 2964 12c2 05       		.byte	0x5
ARM GAS  /tmp/ccYFEdb7.s 			page 53


 2965 12c3 9F       		.byte	0x9f
 2966 12c4 53090000 		.4byte	0x953
 2967 12c8 03       		.byte	0x3
 2968 12c9 3D       		.uleb128 0x3d
 2969 12ca EC080000 		.4byte	.LASF172
 2970 12ce 06       		.byte	0x6
 2971 12cf 1001     		.2byte	0x110
 2972 12d1 64020000 		.4byte	0x264
 2973 12d5 03       		.byte	0x3
 2974 12d6 3E       		.uleb128 0x3e
 2975 12d7 59090000 		.4byte	.LASF175
 2976 12db 04       		.byte	0x4
 2977 12dc 6D01     		.2byte	0x16d
 2978 12de 03       		.byte	0x3
 2979 12df F1120000 		.4byte	0x12f1
 2980 12e3 3F       		.uleb128 0x3f
 2981 12e4 C4060000 		.4byte	.LASF164
 2982 12e8 190E0000 		.4byte	0xe19
 2983 12ec 59090000 		.4byte	.LASF175
 2984 12f0 00       		.byte	0
 2985 12f1 40       		.uleb128 0x40
 2986 12f2 D8060000 		.4byte	.LASF177
 2987 12f6 04       		.byte	0x4
 2988 12f7 6101     		.2byte	0x161
 2989 12f9 03       		.byte	0x3
 2990 12fa 41       		.uleb128 0x41
 2991 12fb D7070000 		.4byte	.LASF173
 2992 12ff 01       		.byte	0x1
 2993 1300 5E02     		.2byte	0x25e
 2994 1302 64020000 		.4byte	0x264
 2995 1306 03       		.byte	0x3
 2996 1307 23130000 		.4byte	0x1323
 2997 130b 42       		.uleb128 0x42
 2998 130c 74717000 		.ascii	"tqp\000"
 2999 1310 01       		.byte	0x1
 3000 1311 5E02     		.2byte	0x25e
 3001 1313 23130000 		.4byte	0x1323
 3002 1317 20       		.uleb128 0x20
 3003 1318 747000   		.ascii	"tp\000"
 3004 131b 01       		.byte	0x1
 3005 131c 5F02     		.2byte	0x25f
 3006 131e 64020000 		.4byte	0x264
 3007 1322 00       		.byte	0
 3008 1323 0C       		.uleb128 0xc
 3009 1324 04       		.byte	0x4
 3010 1325 8E020000 		.4byte	0x28e
 3011 1329 43       		.uleb128 0x43
 3012 132a 82090000 		.4byte	.LASF194
 3013 132e 01       		.byte	0x1
 3014 132f 4A02     		.2byte	0x24a
 3015 1331 00000000 		.4byte	.LFB183
 3016 1335 20000000 		.4byte	.LFE183-.LFB183
 3017 1339 01       		.uleb128 0x1
 3018 133a 9C       		.byte	0x9c
 3019 133b 6A130000 		.4byte	0x136a
 3020 133f 44       		.uleb128 0x44
 3021 1340 747000   		.ascii	"tp\000"
ARM GAS  /tmp/ccYFEdb7.s 			page 54


 3022 1343 01       		.byte	0x1
 3023 1344 4A02     		.2byte	0x24a
 3024 1346 64020000 		.4byte	0x264
 3025 134a 01       		.uleb128 0x1
 3026 134b 50       		.byte	0x50
 3027 134c 44       		.uleb128 0x44
 3028 134d 74717000 		.ascii	"tqp\000"
 3029 1351 01       		.byte	0x1
 3030 1352 4A02     		.2byte	0x24a
 3031 1354 23130000 		.4byte	0x1323
 3032 1358 01       		.uleb128 0x1
 3033 1359 51       		.byte	0x51
 3034 135a 21       		.uleb128 0x21
 3035 135b 637000   		.ascii	"cp\000"
 3036 135e 01       		.byte	0x1
 3037 135f 4C02     		.2byte	0x24c
 3038 1361 64020000 		.4byte	0x264
 3039 1365 78030000 		.4byte	.LLST0
 3040 1369 00       		.byte	0
 3041 136a 41       		.uleb128 0x41
 3042 136b C4010000 		.4byte	.LASF174
 3043 136f 01       		.byte	0x1
 3044 1370 3402     		.2byte	0x234
 3045 1372 7D090000 		.4byte	0x97d
 3046 1376 03       		.byte	0x3
 3047 1377 88130000 		.4byte	0x1388
 3048 137b 42       		.uleb128 0x42
 3049 137c 74717000 		.ascii	"tqp\000"
 3050 1380 01       		.byte	0x1
 3051 1381 3402     		.2byte	0x234
 3052 1383 88130000 		.4byte	0x1388
 3053 1387 00       		.byte	0
 3054 1388 0C       		.uleb128 0xc
 3055 1389 04       		.byte	0x4
 3056 138a 99020000 		.4byte	0x299
 3057 138e 3E       		.uleb128 0x3e
 3058 138f 7B000000 		.4byte	.LASF176
 3059 1393 01       		.byte	0x1
 3060 1394 1902     		.2byte	0x219
 3061 1396 03       		.byte	0x3
 3062 1397 A8130000 		.4byte	0x13a8
 3063 139b 42       		.uleb128 0x42
 3064 139c 74717000 		.ascii	"tqp\000"
 3065 13a0 01       		.byte	0x1
 3066 13a1 1902     		.2byte	0x219
 3067 13a3 23130000 		.4byte	0x1323
 3068 13a7 00       		.byte	0
 3069 13a8 40       		.uleb128 0x40
 3070 13a9 8B010000 		.4byte	.LASF178
 3071 13ad 10       		.byte	0x10
 3072 13ae 7202     		.2byte	0x272
 3073 13b0 03       		.byte	0x3
 3074 13b1 40       		.uleb128 0x40
 3075 13b2 8F000000 		.4byte	.LASF179
 3076 13b6 10       		.byte	0x10
 3077 13b7 5A02     		.2byte	0x25a
 3078 13b9 03       		.byte	0x3
ARM GAS  /tmp/ccYFEdb7.s 			page 55


 3079 13ba 3E       		.uleb128 0x3e
 3080 13bb FC070000 		.4byte	.LASF180
 3081 13bf 03       		.byte	0x3
 3082 13c0 EB01     		.2byte	0x1eb
 3083 13c2 03       		.byte	0x3
 3084 13c3 D4130000 		.4byte	0x13d4
 3085 13c7 45       		.uleb128 0x45
 3086 13c8 7C010000 		.4byte	.LASF181
 3087 13cc 03       		.byte	0x3
 3088 13cd EB01     		.2byte	0x1eb
 3089 13cf DF000000 		.4byte	0xdf
 3090 13d3 00       		.byte	0
 3091 13d4 46       		.uleb128 0x46
 3092 13d5 7C020000 		.4byte	.LASF182
 3093 13d9 7C020000 		.4byte	.LASF182
 3094 13dd 05       		.byte	0x5
 3095 13de 6C       		.byte	0x6c
 3096 13df 47       		.uleb128 0x47
 3097 13e0 44090000 		.4byte	.LASF183
 3098 13e4 44090000 		.4byte	.LASF183
 3099 13e8 01       		.byte	0x1
 3100 13e9 D401     		.2byte	0x1d4
 3101 13eb 46       		.uleb128 0x46
 3102 13ec 77090000 		.4byte	.LASF184
 3103 13f0 77090000 		.4byte	.LASF184
 3104 13f4 05       		.byte	0x5
 3105 13f5 68       		.byte	0x68
 3106 13f6 46       		.uleb128 0x46
 3107 13f7 3E040000 		.4byte	.LASF185
 3108 13fb 3E040000 		.4byte	.LASF185
 3109 13ff 12       		.byte	0x12
 3110 1400 4F       		.byte	0x4f
 3111 1401 46       		.uleb128 0x46
 3112 1402 BC030000 		.4byte	.LASF186
 3113 1406 BC030000 		.4byte	.LASF186
 3114 140a 12       		.byte	0x12
 3115 140b 50       		.byte	0x50
 3116 140c 47       		.uleb128 0x47
 3117 140d 52060000 		.4byte	.LASF187
 3118 1411 52060000 		.4byte	.LASF187
 3119 1415 01       		.byte	0x1
 3120 1416 D301     		.2byte	0x1d3
 3121 1418 47       		.uleb128 0x47
 3122 1419 3D070000 		.4byte	.LASF188
 3123 141d 3D070000 		.4byte	.LASF188
 3124 1421 01       		.byte	0x1
 3125 1422 D101     		.2byte	0x1d1
 3126 1424 47       		.uleb128 0x47
 3127 1425 F4010000 		.4byte	.LASF189
 3128 1429 F4010000 		.4byte	.LASF189
 3129 142d 01       		.byte	0x1
 3130 142e D601     		.2byte	0x1d6
 3131 1430 47       		.uleb128 0x47
 3132 1431 61080000 		.4byte	.LASF190
 3133 1435 61080000 		.4byte	.LASF190
 3134 1439 01       		.byte	0x1
 3135 143a D501     		.2byte	0x1d5
ARM GAS  /tmp/ccYFEdb7.s 			page 56


 3136 143c 00       		.byte	0
 3137              		.section	.debug_abbrev,"",%progbits
 3138              	.Ldebug_abbrev0:
 3139 0000 01       		.uleb128 0x1
 3140 0001 11       		.uleb128 0x11
 3141 0002 01       		.byte	0x1
 3142 0003 25       		.uleb128 0x25
 3143 0004 0E       		.uleb128 0xe
 3144 0005 13       		.uleb128 0x13
 3145 0006 0B       		.uleb128 0xb
 3146 0007 03       		.uleb128 0x3
 3147 0008 0E       		.uleb128 0xe
 3148 0009 1B       		.uleb128 0x1b
 3149 000a 0E       		.uleb128 0xe
 3150 000b 55       		.uleb128 0x55
 3151 000c 17       		.uleb128 0x17
 3152 000d 11       		.uleb128 0x11
 3153 000e 01       		.uleb128 0x1
 3154 000f 10       		.uleb128 0x10
 3155 0010 17       		.uleb128 0x17
 3156 0011 00       		.byte	0
 3157 0012 00       		.byte	0
 3158 0013 02       		.uleb128 0x2
 3159 0014 24       		.uleb128 0x24
 3160 0015 00       		.byte	0
 3161 0016 0B       		.uleb128 0xb
 3162 0017 0B       		.uleb128 0xb
 3163 0018 3E       		.uleb128 0x3e
 3164 0019 0B       		.uleb128 0xb
 3165 001a 03       		.uleb128 0x3
 3166 001b 08       		.uleb128 0x8
 3167 001c 00       		.byte	0
 3168 001d 00       		.byte	0
 3169 001e 03       		.uleb128 0x3
 3170 001f 16       		.uleb128 0x16
 3171 0020 00       		.byte	0
 3172 0021 03       		.uleb128 0x3
 3173 0022 0E       		.uleb128 0xe
 3174 0023 3A       		.uleb128 0x3a
 3175 0024 0B       		.uleb128 0xb
 3176 0025 3B       		.uleb128 0x3b
 3177 0026 0B       		.uleb128 0xb
 3178 0027 49       		.uleb128 0x49
 3179 0028 13       		.uleb128 0x13
 3180 0029 00       		.byte	0
 3181 002a 00       		.byte	0
 3182 002b 04       		.uleb128 0x4
 3183 002c 24       		.uleb128 0x24
 3184 002d 00       		.byte	0
 3185 002e 0B       		.uleb128 0xb
 3186 002f 0B       		.uleb128 0xb
 3187 0030 3E       		.uleb128 0x3e
 3188 0031 0B       		.uleb128 0xb
 3189 0032 03       		.uleb128 0x3
 3190 0033 0E       		.uleb128 0xe
 3191 0034 00       		.byte	0
 3192 0035 00       		.byte	0
ARM GAS  /tmp/ccYFEdb7.s 			page 57


 3193 0036 05       		.uleb128 0x5
 3194 0037 26       		.uleb128 0x26
 3195 0038 00       		.byte	0
 3196 0039 49       		.uleb128 0x49
 3197 003a 13       		.uleb128 0x13
 3198 003b 00       		.byte	0
 3199 003c 00       		.byte	0
 3200 003d 06       		.uleb128 0x6
 3201 003e 35       		.uleb128 0x35
 3202 003f 00       		.byte	0
 3203 0040 49       		.uleb128 0x49
 3204 0041 13       		.uleb128 0x13
 3205 0042 00       		.byte	0
 3206 0043 00       		.byte	0
 3207 0044 07       		.uleb128 0x7
 3208 0045 13       		.uleb128 0x13
 3209 0046 01       		.byte	0x1
 3210 0047 03       		.uleb128 0x3
 3211 0048 0E       		.uleb128 0xe
 3212 0049 0B       		.uleb128 0xb
 3213 004a 0B       		.uleb128 0xb
 3214 004b 3A       		.uleb128 0x3a
 3215 004c 0B       		.uleb128 0xb
 3216 004d 3B       		.uleb128 0x3b
 3217 004e 0B       		.uleb128 0xb
 3218 004f 01       		.uleb128 0x1
 3219 0050 13       		.uleb128 0x13
 3220 0051 00       		.byte	0
 3221 0052 00       		.byte	0
 3222 0053 08       		.uleb128 0x8
 3223 0054 0D       		.uleb128 0xd
 3224 0055 00       		.byte	0
 3225 0056 03       		.uleb128 0x3
 3226 0057 0E       		.uleb128 0xe
 3227 0058 3A       		.uleb128 0x3a
 3228 0059 0B       		.uleb128 0xb
 3229 005a 3B       		.uleb128 0x3b
 3230 005b 0B       		.uleb128 0xb
 3231 005c 49       		.uleb128 0x49
 3232 005d 13       		.uleb128 0x13
 3233 005e 38       		.uleb128 0x38
 3234 005f 0B       		.uleb128 0xb
 3235 0060 00       		.byte	0
 3236 0061 00       		.byte	0
 3237 0062 09       		.uleb128 0x9
 3238 0063 0D       		.uleb128 0xd
 3239 0064 00       		.byte	0
 3240 0065 03       		.uleb128 0x3
 3241 0066 08       		.uleb128 0x8
 3242 0067 3A       		.uleb128 0x3a
 3243 0068 0B       		.uleb128 0xb
 3244 0069 3B       		.uleb128 0x3b
 3245 006a 0B       		.uleb128 0xb
 3246 006b 49       		.uleb128 0x49
 3247 006c 13       		.uleb128 0x13
 3248 006d 38       		.uleb128 0x38
 3249 006e 0B       		.uleb128 0xb
ARM GAS  /tmp/ccYFEdb7.s 			page 58


 3250 006f 00       		.byte	0
 3251 0070 00       		.byte	0
 3252 0071 0A       		.uleb128 0xa
 3253 0072 0D       		.uleb128 0xd
 3254 0073 00       		.byte	0
 3255 0074 03       		.uleb128 0x3
 3256 0075 08       		.uleb128 0x8
 3257 0076 3A       		.uleb128 0x3a
 3258 0077 0B       		.uleb128 0xb
 3259 0078 3B       		.uleb128 0x3b
 3260 0079 05       		.uleb128 0x5
 3261 007a 49       		.uleb128 0x49
 3262 007b 13       		.uleb128 0x13
 3263 007c 38       		.uleb128 0x38
 3264 007d 0B       		.uleb128 0xb
 3265 007e 00       		.byte	0
 3266 007f 00       		.byte	0
 3267 0080 0B       		.uleb128 0xb
 3268 0081 0D       		.uleb128 0xd
 3269 0082 00       		.byte	0
 3270 0083 03       		.uleb128 0x3
 3271 0084 0E       		.uleb128 0xe
 3272 0085 3A       		.uleb128 0x3a
 3273 0086 0B       		.uleb128 0xb
 3274 0087 3B       		.uleb128 0x3b
 3275 0088 05       		.uleb128 0x5
 3276 0089 49       		.uleb128 0x49
 3277 008a 13       		.uleb128 0x13
 3278 008b 38       		.uleb128 0x38
 3279 008c 0B       		.uleb128 0xb
 3280 008d 00       		.byte	0
 3281 008e 00       		.byte	0
 3282 008f 0C       		.uleb128 0xc
 3283 0090 0F       		.uleb128 0xf
 3284 0091 00       		.byte	0
 3285 0092 0B       		.uleb128 0xb
 3286 0093 0B       		.uleb128 0xb
 3287 0094 49       		.uleb128 0x49
 3288 0095 13       		.uleb128 0x13
 3289 0096 00       		.byte	0
 3290 0097 00       		.byte	0
 3291 0098 0D       		.uleb128 0xd
 3292 0099 13       		.uleb128 0x13
 3293 009a 01       		.byte	0x1
 3294 009b 03       		.uleb128 0x3
 3295 009c 0E       		.uleb128 0xe
 3296 009d 0B       		.uleb128 0xb
 3297 009e 0B       		.uleb128 0xb
 3298 009f 3A       		.uleb128 0x3a
 3299 00a0 0B       		.uleb128 0xb
 3300 00a1 3B       		.uleb128 0x3b
 3301 00a2 05       		.uleb128 0x5
 3302 00a3 01       		.uleb128 0x1
 3303 00a4 13       		.uleb128 0x13
 3304 00a5 00       		.byte	0
 3305 00a6 00       		.byte	0
 3306 00a7 0E       		.uleb128 0xe
ARM GAS  /tmp/ccYFEdb7.s 			page 59


 3307 00a8 15       		.uleb128 0x15
 3308 00a9 01       		.byte	0x1
 3309 00aa 27       		.uleb128 0x27
 3310 00ab 19       		.uleb128 0x19
 3311 00ac 01       		.uleb128 0x1
 3312 00ad 13       		.uleb128 0x13
 3313 00ae 00       		.byte	0
 3314 00af 00       		.byte	0
 3315 00b0 0F       		.uleb128 0xf
 3316 00b1 05       		.uleb128 0x5
 3317 00b2 00       		.byte	0
 3318 00b3 49       		.uleb128 0x49
 3319 00b4 13       		.uleb128 0x13
 3320 00b5 00       		.byte	0
 3321 00b6 00       		.byte	0
 3322 00b7 10       		.uleb128 0x10
 3323 00b8 0F       		.uleb128 0xf
 3324 00b9 00       		.byte	0
 3325 00ba 0B       		.uleb128 0xb
 3326 00bb 0B       		.uleb128 0xb
 3327 00bc 00       		.byte	0
 3328 00bd 00       		.byte	0
 3329 00be 11       		.uleb128 0x11
 3330 00bf 34       		.uleb128 0x34
 3331 00c0 00       		.byte	0
 3332 00c1 03       		.uleb128 0x3
 3333 00c2 0E       		.uleb128 0xe
 3334 00c3 3A       		.uleb128 0x3a
 3335 00c4 0B       		.uleb128 0xb
 3336 00c5 3B       		.uleb128 0x3b
 3337 00c6 05       		.uleb128 0x5
 3338 00c7 49       		.uleb128 0x49
 3339 00c8 13       		.uleb128 0x13
 3340 00c9 3F       		.uleb128 0x3f
 3341 00ca 19       		.uleb128 0x19
 3342 00cb 3C       		.uleb128 0x3c
 3343 00cc 19       		.uleb128 0x19
 3344 00cd 00       		.byte	0
 3345 00ce 00       		.byte	0
 3346 00cf 12       		.uleb128 0x12
 3347 00d0 34       		.uleb128 0x34
 3348 00d1 00       		.byte	0
 3349 00d2 03       		.uleb128 0x3
 3350 00d3 0E       		.uleb128 0xe
 3351 00d4 3A       		.uleb128 0x3a
 3352 00d5 0B       		.uleb128 0xb
 3353 00d6 3B       		.uleb128 0x3b
 3354 00d7 0B       		.uleb128 0xb
 3355 00d8 49       		.uleb128 0x49
 3356 00d9 13       		.uleb128 0x13
 3357 00da 3F       		.uleb128 0x3f
 3358 00db 19       		.uleb128 0x19
 3359 00dc 3C       		.uleb128 0x3c
 3360 00dd 19       		.uleb128 0x19
 3361 00de 00       		.byte	0
 3362 00df 00       		.byte	0
 3363 00e0 13       		.uleb128 0x13
ARM GAS  /tmp/ccYFEdb7.s 			page 60


 3364 00e1 01       		.uleb128 0x1
 3365 00e2 01       		.byte	0x1
 3366 00e3 49       		.uleb128 0x49
 3367 00e4 13       		.uleb128 0x13
 3368 00e5 01       		.uleb128 0x1
 3369 00e6 13       		.uleb128 0x13
 3370 00e7 00       		.byte	0
 3371 00e8 00       		.byte	0
 3372 00e9 14       		.uleb128 0x14
 3373 00ea 21       		.uleb128 0x21
 3374 00eb 00       		.byte	0
 3375 00ec 49       		.uleb128 0x49
 3376 00ed 13       		.uleb128 0x13
 3377 00ee 2F       		.uleb128 0x2f
 3378 00ef 0B       		.uleb128 0xb
 3379 00f0 00       		.byte	0
 3380 00f1 00       		.byte	0
 3381 00f2 15       		.uleb128 0x15
 3382 00f3 13       		.uleb128 0x13
 3383 00f4 01       		.byte	0x1
 3384 00f5 0B       		.uleb128 0xb
 3385 00f6 0B       		.uleb128 0xb
 3386 00f7 3A       		.uleb128 0x3a
 3387 00f8 0B       		.uleb128 0xb
 3388 00f9 3B       		.uleb128 0x3b
 3389 00fa 0B       		.uleb128 0xb
 3390 00fb 01       		.uleb128 0x1
 3391 00fc 13       		.uleb128 0x13
 3392 00fd 00       		.byte	0
 3393 00fe 00       		.byte	0
 3394 00ff 16       		.uleb128 0x16
 3395 0100 17       		.uleb128 0x17
 3396 0101 01       		.byte	0x1
 3397 0102 0B       		.uleb128 0xb
 3398 0103 0B       		.uleb128 0xb
 3399 0104 3A       		.uleb128 0x3a
 3400 0105 0B       		.uleb128 0xb
 3401 0106 3B       		.uleb128 0x3b
 3402 0107 0B       		.uleb128 0xb
 3403 0108 01       		.uleb128 0x1
 3404 0109 13       		.uleb128 0x13
 3405 010a 00       		.byte	0
 3406 010b 00       		.byte	0
 3407 010c 17       		.uleb128 0x17
 3408 010d 0D       		.uleb128 0xd
 3409 010e 00       		.byte	0
 3410 010f 03       		.uleb128 0x3
 3411 0110 0E       		.uleb128 0xe
 3412 0111 3A       		.uleb128 0x3a
 3413 0112 0B       		.uleb128 0xb
 3414 0113 3B       		.uleb128 0x3b
 3415 0114 0B       		.uleb128 0xb
 3416 0115 49       		.uleb128 0x49
 3417 0116 13       		.uleb128 0x13
 3418 0117 00       		.byte	0
 3419 0118 00       		.byte	0
 3420 0119 18       		.uleb128 0x18
ARM GAS  /tmp/ccYFEdb7.s 			page 61


 3421 011a 0D       		.uleb128 0xd
 3422 011b 00       		.byte	0
 3423 011c 03       		.uleb128 0x3
 3424 011d 0E       		.uleb128 0xe
 3425 011e 3A       		.uleb128 0x3a
 3426 011f 0B       		.uleb128 0xb
 3427 0120 3B       		.uleb128 0x3b
 3428 0121 05       		.uleb128 0x5
 3429 0122 49       		.uleb128 0x49
 3430 0123 13       		.uleb128 0x13
 3431 0124 00       		.byte	0
 3432 0125 00       		.byte	0
 3433 0126 19       		.uleb128 0x19
 3434 0127 34       		.uleb128 0x34
 3435 0128 00       		.byte	0
 3436 0129 03       		.uleb128 0x3
 3437 012a 08       		.uleb128 0x8
 3438 012b 3A       		.uleb128 0x3a
 3439 012c 0B       		.uleb128 0xb
 3440 012d 3B       		.uleb128 0x3b
 3441 012e 05       		.uleb128 0x5
 3442 012f 49       		.uleb128 0x49
 3443 0130 13       		.uleb128 0x13
 3444 0131 3F       		.uleb128 0x3f
 3445 0132 19       		.uleb128 0x19
 3446 0133 3C       		.uleb128 0x3c
 3447 0134 19       		.uleb128 0x19
 3448 0135 00       		.byte	0
 3449 0136 00       		.byte	0
 3450 0137 1A       		.uleb128 0x1a
 3451 0138 21       		.uleb128 0x21
 3452 0139 00       		.byte	0
 3453 013a 00       		.byte	0
 3454 013b 00       		.byte	0
 3455 013c 1B       		.uleb128 0x1b
 3456 013d 15       		.uleb128 0x15
 3457 013e 01       		.byte	0x1
 3458 013f 27       		.uleb128 0x27
 3459 0140 19       		.uleb128 0x19
 3460 0141 49       		.uleb128 0x49
 3461 0142 13       		.uleb128 0x13
 3462 0143 01       		.uleb128 0x1
 3463 0144 13       		.uleb128 0x13
 3464 0145 00       		.byte	0
 3465 0146 00       		.byte	0
 3466 0147 1C       		.uleb128 0x1c
 3467 0148 16       		.uleb128 0x16
 3468 0149 00       		.byte	0
 3469 014a 03       		.uleb128 0x3
 3470 014b 0E       		.uleb128 0xe
 3471 014c 3A       		.uleb128 0x3a
 3472 014d 0B       		.uleb128 0xb
 3473 014e 3B       		.uleb128 0x3b
 3474 014f 05       		.uleb128 0x5
 3475 0150 49       		.uleb128 0x49
 3476 0151 13       		.uleb128 0x13
 3477 0152 00       		.byte	0
ARM GAS  /tmp/ccYFEdb7.s 			page 62


 3478 0153 00       		.byte	0
 3479 0154 1D       		.uleb128 0x1d
 3480 0155 2E       		.uleb128 0x2e
 3481 0156 01       		.byte	0x1
 3482 0157 3F       		.uleb128 0x3f
 3483 0158 19       		.uleb128 0x19
 3484 0159 03       		.uleb128 0x3
 3485 015a 0E       		.uleb128 0xe
 3486 015b 3A       		.uleb128 0x3a
 3487 015c 0B       		.uleb128 0xb
 3488 015d 3B       		.uleb128 0x3b
 3489 015e 05       		.uleb128 0x5
 3490 015f 27       		.uleb128 0x27
 3491 0160 19       		.uleb128 0x19
 3492 0161 49       		.uleb128 0x49
 3493 0162 13       		.uleb128 0x13
 3494 0163 11       		.uleb128 0x11
 3495 0164 01       		.uleb128 0x1
 3496 0165 12       		.uleb128 0x12
 3497 0166 06       		.uleb128 0x6
 3498 0167 40       		.uleb128 0x40
 3499 0168 18       		.uleb128 0x18
 3500 0169 9742     		.uleb128 0x2117
 3501 016b 19       		.uleb128 0x19
 3502 016c 01       		.uleb128 0x1
 3503 016d 13       		.uleb128 0x13
 3504 016e 00       		.byte	0
 3505 016f 00       		.byte	0
 3506 0170 1E       		.uleb128 0x1e
 3507 0171 05       		.uleb128 0x5
 3508 0172 00       		.byte	0
 3509 0173 03       		.uleb128 0x3
 3510 0174 08       		.uleb128 0x8
 3511 0175 3A       		.uleb128 0x3a
 3512 0176 0B       		.uleb128 0xb
 3513 0177 3B       		.uleb128 0x3b
 3514 0178 05       		.uleb128 0x5
 3515 0179 49       		.uleb128 0x49
 3516 017a 13       		.uleb128 0x13
 3517 017b 02       		.uleb128 0x2
 3518 017c 17       		.uleb128 0x17
 3519 017d 00       		.byte	0
 3520 017e 00       		.byte	0
 3521 017f 1F       		.uleb128 0x1f
 3522 0180 05       		.uleb128 0x5
 3523 0181 00       		.byte	0
 3524 0182 03       		.uleb128 0x3
 3525 0183 0E       		.uleb128 0xe
 3526 0184 3A       		.uleb128 0x3a
 3527 0185 0B       		.uleb128 0xb
 3528 0186 3B       		.uleb128 0x3b
 3529 0187 05       		.uleb128 0x5
 3530 0188 49       		.uleb128 0x49
 3531 0189 13       		.uleb128 0x13
 3532 018a 02       		.uleb128 0x2
 3533 018b 17       		.uleb128 0x17
 3534 018c 00       		.byte	0
ARM GAS  /tmp/ccYFEdb7.s 			page 63


 3535 018d 00       		.byte	0
 3536 018e 20       		.uleb128 0x20
 3537 018f 34       		.uleb128 0x34
 3538 0190 00       		.byte	0
 3539 0191 03       		.uleb128 0x3
 3540 0192 08       		.uleb128 0x8
 3541 0193 3A       		.uleb128 0x3a
 3542 0194 0B       		.uleb128 0xb
 3543 0195 3B       		.uleb128 0x3b
 3544 0196 05       		.uleb128 0x5
 3545 0197 49       		.uleb128 0x49
 3546 0198 13       		.uleb128 0x13
 3547 0199 00       		.byte	0
 3548 019a 00       		.byte	0
 3549 019b 21       		.uleb128 0x21
 3550 019c 34       		.uleb128 0x34
 3551 019d 00       		.byte	0
 3552 019e 03       		.uleb128 0x3
 3553 019f 08       		.uleb128 0x8
 3554 01a0 3A       		.uleb128 0x3a
 3555 01a1 0B       		.uleb128 0xb
 3556 01a2 3B       		.uleb128 0x3b
 3557 01a3 05       		.uleb128 0x5
 3558 01a4 49       		.uleb128 0x49
 3559 01a5 13       		.uleb128 0x13
 3560 01a6 02       		.uleb128 0x2
 3561 01a7 17       		.uleb128 0x17
 3562 01a8 00       		.byte	0
 3563 01a9 00       		.byte	0
 3564 01aa 22       		.uleb128 0x22
 3565 01ab 34       		.uleb128 0x34
 3566 01ac 00       		.byte	0
 3567 01ad 03       		.uleb128 0x3
 3568 01ae 0E       		.uleb128 0xe
 3569 01af 49       		.uleb128 0x49
 3570 01b0 13       		.uleb128 0x13
 3571 01b1 34       		.uleb128 0x34
 3572 01b2 19       		.uleb128 0x19
 3573 01b3 00       		.byte	0
 3574 01b4 00       		.byte	0
 3575 01b5 23       		.uleb128 0x23
 3576 01b6 1D       		.uleb128 0x1d
 3577 01b7 01       		.byte	0x1
 3578 01b8 31       		.uleb128 0x31
 3579 01b9 13       		.uleb128 0x13
 3580 01ba 52       		.uleb128 0x52
 3581 01bb 01       		.uleb128 0x1
 3582 01bc 55       		.uleb128 0x55
 3583 01bd 17       		.uleb128 0x17
 3584 01be 58       		.uleb128 0x58
 3585 01bf 0B       		.uleb128 0xb
 3586 01c0 59       		.uleb128 0x59
 3587 01c1 05       		.uleb128 0x5
 3588 01c2 01       		.uleb128 0x1
 3589 01c3 13       		.uleb128 0x13
 3590 01c4 00       		.byte	0
 3591 01c5 00       		.byte	0
ARM GAS  /tmp/ccYFEdb7.s 			page 64


 3592 01c6 24       		.uleb128 0x24
 3593 01c7 1D       		.uleb128 0x1d
 3594 01c8 00       		.byte	0
 3595 01c9 31       		.uleb128 0x31
 3596 01ca 13       		.uleb128 0x13
 3597 01cb 11       		.uleb128 0x11
 3598 01cc 01       		.uleb128 0x1
 3599 01cd 12       		.uleb128 0x12
 3600 01ce 06       		.uleb128 0x6
 3601 01cf 58       		.uleb128 0x58
 3602 01d0 0B       		.uleb128 0xb
 3603 01d1 59       		.uleb128 0x59
 3604 01d2 0B       		.uleb128 0xb
 3605 01d3 00       		.byte	0
 3606 01d4 00       		.byte	0
 3607 01d5 25       		.uleb128 0x25
 3608 01d6 898201   		.uleb128 0x4109
 3609 01d9 01       		.byte	0x1
 3610 01da 11       		.uleb128 0x11
 3611 01db 01       		.uleb128 0x1
 3612 01dc 31       		.uleb128 0x31
 3613 01dd 13       		.uleb128 0x13
 3614 01de 01       		.uleb128 0x1
 3615 01df 13       		.uleb128 0x13
 3616 01e0 00       		.byte	0
 3617 01e1 00       		.byte	0
 3618 01e2 26       		.uleb128 0x26
 3619 01e3 8A8201   		.uleb128 0x410a
 3620 01e6 00       		.byte	0
 3621 01e7 02       		.uleb128 0x2
 3622 01e8 18       		.uleb128 0x18
 3623 01e9 9142     		.uleb128 0x2111
 3624 01eb 18       		.uleb128 0x18
 3625 01ec 00       		.byte	0
 3626 01ed 00       		.byte	0
 3627 01ee 27       		.uleb128 0x27
 3628 01ef 898201   		.uleb128 0x4109
 3629 01f2 01       		.byte	0x1
 3630 01f3 11       		.uleb128 0x11
 3631 01f4 01       		.uleb128 0x1
 3632 01f5 31       		.uleb128 0x31
 3633 01f6 13       		.uleb128 0x13
 3634 01f7 00       		.byte	0
 3635 01f8 00       		.byte	0
 3636 01f9 28       		.uleb128 0x28
 3637 01fa 1D       		.uleb128 0x1d
 3638 01fb 01       		.byte	0x1
 3639 01fc 31       		.uleb128 0x31
 3640 01fd 13       		.uleb128 0x13
 3641 01fe 11       		.uleb128 0x11
 3642 01ff 01       		.uleb128 0x1
 3643 0200 12       		.uleb128 0x12
 3644 0201 06       		.uleb128 0x6
 3645 0202 58       		.uleb128 0x58
 3646 0203 0B       		.uleb128 0xb
 3647 0204 59       		.uleb128 0x59
 3648 0205 05       		.uleb128 0x5
ARM GAS  /tmp/ccYFEdb7.s 			page 65


 3649 0206 01       		.uleb128 0x1
 3650 0207 13       		.uleb128 0x13
 3651 0208 00       		.byte	0
 3652 0209 00       		.byte	0
 3653 020a 29       		.uleb128 0x29
 3654 020b 1D       		.uleb128 0x1d
 3655 020c 01       		.byte	0x1
 3656 020d 31       		.uleb128 0x31
 3657 020e 13       		.uleb128 0x13
 3658 020f 11       		.uleb128 0x11
 3659 0210 01       		.uleb128 0x1
 3660 0211 12       		.uleb128 0x12
 3661 0212 06       		.uleb128 0x6
 3662 0213 58       		.uleb128 0x58
 3663 0214 0B       		.uleb128 0xb
 3664 0215 59       		.uleb128 0x59
 3665 0216 05       		.uleb128 0x5
 3666 0217 00       		.byte	0
 3667 0218 00       		.byte	0
 3668 0219 2A       		.uleb128 0x2a
 3669 021a 05       		.uleb128 0x5
 3670 021b 00       		.byte	0
 3671 021c 31       		.uleb128 0x31
 3672 021d 13       		.uleb128 0x13
 3673 021e 02       		.uleb128 0x2
 3674 021f 17       		.uleb128 0x17
 3675 0220 00       		.byte	0
 3676 0221 00       		.byte	0
 3677 0222 2B       		.uleb128 0x2b
 3678 0223 898201   		.uleb128 0x4109
 3679 0226 00       		.byte	0
 3680 0227 11       		.uleb128 0x11
 3681 0228 01       		.uleb128 0x1
 3682 0229 31       		.uleb128 0x31
 3683 022a 13       		.uleb128 0x13
 3684 022b 00       		.byte	0
 3685 022c 00       		.byte	0
 3686 022d 2C       		.uleb128 0x2c
 3687 022e 0B       		.uleb128 0xb
 3688 022f 01       		.byte	0x1
 3689 0230 11       		.uleb128 0x11
 3690 0231 01       		.uleb128 0x1
 3691 0232 12       		.uleb128 0x12
 3692 0233 06       		.uleb128 0x6
 3693 0234 00       		.byte	0
 3694 0235 00       		.byte	0
 3695 0236 2D       		.uleb128 0x2d
 3696 0237 34       		.uleb128 0x34
 3697 0238 00       		.byte	0
 3698 0239 31       		.uleb128 0x31
 3699 023a 13       		.uleb128 0x13
 3700 023b 00       		.byte	0
 3701 023c 00       		.byte	0
 3702 023d 2E       		.uleb128 0x2e
 3703 023e 2E       		.uleb128 0x2e
 3704 023f 01       		.byte	0x1
 3705 0240 3F       		.uleb128 0x3f
ARM GAS  /tmp/ccYFEdb7.s 			page 66


 3706 0241 19       		.uleb128 0x19
 3707 0242 03       		.uleb128 0x3
 3708 0243 0E       		.uleb128 0xe
 3709 0244 3A       		.uleb128 0x3a
 3710 0245 0B       		.uleb128 0xb
 3711 0246 3B       		.uleb128 0x3b
 3712 0247 0B       		.uleb128 0xb
 3713 0248 27       		.uleb128 0x27
 3714 0249 19       		.uleb128 0x19
 3715 024a 49       		.uleb128 0x49
 3716 024b 13       		.uleb128 0x13
 3717 024c 11       		.uleb128 0x11
 3718 024d 01       		.uleb128 0x1
 3719 024e 12       		.uleb128 0x12
 3720 024f 06       		.uleb128 0x6
 3721 0250 40       		.uleb128 0x40
 3722 0251 18       		.uleb128 0x18
 3723 0252 9742     		.uleb128 0x2117
 3724 0254 19       		.uleb128 0x19
 3725 0255 01       		.uleb128 0x1
 3726 0256 13       		.uleb128 0x13
 3727 0257 00       		.byte	0
 3728 0258 00       		.byte	0
 3729 0259 2F       		.uleb128 0x2f
 3730 025a 05       		.uleb128 0x5
 3731 025b 00       		.byte	0
 3732 025c 03       		.uleb128 0x3
 3733 025d 08       		.uleb128 0x8
 3734 025e 3A       		.uleb128 0x3a
 3735 025f 0B       		.uleb128 0xb
 3736 0260 3B       		.uleb128 0x3b
 3737 0261 0B       		.uleb128 0xb
 3738 0262 49       		.uleb128 0x49
 3739 0263 13       		.uleb128 0x13
 3740 0264 02       		.uleb128 0x2
 3741 0265 17       		.uleb128 0x17
 3742 0266 00       		.byte	0
 3743 0267 00       		.byte	0
 3744 0268 30       		.uleb128 0x30
 3745 0269 34       		.uleb128 0x34
 3746 026a 00       		.byte	0
 3747 026b 03       		.uleb128 0x3
 3748 026c 08       		.uleb128 0x8
 3749 026d 3A       		.uleb128 0x3a
 3750 026e 0B       		.uleb128 0xb
 3751 026f 3B       		.uleb128 0x3b
 3752 0270 0B       		.uleb128 0xb
 3753 0271 49       		.uleb128 0x49
 3754 0272 13       		.uleb128 0x13
 3755 0273 02       		.uleb128 0x2
 3756 0274 17       		.uleb128 0x17
 3757 0275 00       		.byte	0
 3758 0276 00       		.byte	0
 3759 0277 31       		.uleb128 0x31
 3760 0278 34       		.uleb128 0x34
 3761 0279 00       		.byte	0
 3762 027a 03       		.uleb128 0x3
ARM GAS  /tmp/ccYFEdb7.s 			page 67


 3763 027b 08       		.uleb128 0x8
 3764 027c 3A       		.uleb128 0x3a
 3765 027d 0B       		.uleb128 0xb
 3766 027e 3B       		.uleb128 0x3b
 3767 027f 0B       		.uleb128 0xb
 3768 0280 49       		.uleb128 0x49
 3769 0281 13       		.uleb128 0x13
 3770 0282 00       		.byte	0
 3771 0283 00       		.byte	0
 3772 0284 32       		.uleb128 0x32
 3773 0285 1D       		.uleb128 0x1d
 3774 0286 01       		.byte	0x1
 3775 0287 31       		.uleb128 0x31
 3776 0288 13       		.uleb128 0x13
 3777 0289 52       		.uleb128 0x52
 3778 028a 01       		.uleb128 0x1
 3779 028b 55       		.uleb128 0x55
 3780 028c 17       		.uleb128 0x17
 3781 028d 58       		.uleb128 0x58
 3782 028e 0B       		.uleb128 0xb
 3783 028f 59       		.uleb128 0x59
 3784 0290 0B       		.uleb128 0xb
 3785 0291 01       		.uleb128 0x1
 3786 0292 13       		.uleb128 0x13
 3787 0293 00       		.byte	0
 3788 0294 00       		.byte	0
 3789 0295 33       		.uleb128 0x33
 3790 0296 1D       		.uleb128 0x1d
 3791 0297 01       		.byte	0x1
 3792 0298 31       		.uleb128 0x31
 3793 0299 13       		.uleb128 0x13
 3794 029a 52       		.uleb128 0x52
 3795 029b 01       		.uleb128 0x1
 3796 029c 55       		.uleb128 0x55
 3797 029d 17       		.uleb128 0x17
 3798 029e 58       		.uleb128 0x58
 3799 029f 0B       		.uleb128 0xb
 3800 02a0 59       		.uleb128 0x59
 3801 02a1 05       		.uleb128 0x5
 3802 02a2 00       		.byte	0
 3803 02a3 00       		.byte	0
 3804 02a4 34       		.uleb128 0x34
 3805 02a5 1D       		.uleb128 0x1d
 3806 02a6 01       		.byte	0x1
 3807 02a7 31       		.uleb128 0x31
 3808 02a8 13       		.uleb128 0x13
 3809 02a9 11       		.uleb128 0x11
 3810 02aa 01       		.uleb128 0x1
 3811 02ab 12       		.uleb128 0x12
 3812 02ac 06       		.uleb128 0x6
 3813 02ad 58       		.uleb128 0x58
 3814 02ae 0B       		.uleb128 0xb
 3815 02af 59       		.uleb128 0x59
 3816 02b0 0B       		.uleb128 0xb
 3817 02b1 01       		.uleb128 0x1
 3818 02b2 13       		.uleb128 0x13
 3819 02b3 00       		.byte	0
ARM GAS  /tmp/ccYFEdb7.s 			page 68


 3820 02b4 00       		.byte	0
 3821 02b5 35       		.uleb128 0x35
 3822 02b6 2E       		.uleb128 0x2e
 3823 02b7 01       		.byte	0x1
 3824 02b8 3F       		.uleb128 0x3f
 3825 02b9 19       		.uleb128 0x19
 3826 02ba 03       		.uleb128 0x3
 3827 02bb 0E       		.uleb128 0xe
 3828 02bc 3A       		.uleb128 0x3a
 3829 02bd 0B       		.uleb128 0xb
 3830 02be 3B       		.uleb128 0x3b
 3831 02bf 0B       		.uleb128 0xb
 3832 02c0 27       		.uleb128 0x27
 3833 02c1 19       		.uleb128 0x19
 3834 02c2 11       		.uleb128 0x11
 3835 02c3 01       		.uleb128 0x1
 3836 02c4 12       		.uleb128 0x12
 3837 02c5 06       		.uleb128 0x6
 3838 02c6 40       		.uleb128 0x40
 3839 02c7 18       		.uleb128 0x18
 3840 02c8 9742     		.uleb128 0x2117
 3841 02ca 19       		.uleb128 0x19
 3842 02cb 01       		.uleb128 0x1
 3843 02cc 13       		.uleb128 0x13
 3844 02cd 00       		.byte	0
 3845 02ce 00       		.byte	0
 3846 02cf 36       		.uleb128 0x36
 3847 02d0 34       		.uleb128 0x34
 3848 02d1 00       		.byte	0
 3849 02d2 31       		.uleb128 0x31
 3850 02d3 13       		.uleb128 0x13
 3851 02d4 02       		.uleb128 0x2
 3852 02d5 17       		.uleb128 0x17
 3853 02d6 00       		.byte	0
 3854 02d7 00       		.byte	0
 3855 02d8 37       		.uleb128 0x37
 3856 02d9 0B       		.uleb128 0xb
 3857 02da 01       		.byte	0x1
 3858 02db 11       		.uleb128 0x11
 3859 02dc 01       		.uleb128 0x1
 3860 02dd 12       		.uleb128 0x12
 3861 02de 06       		.uleb128 0x6
 3862 02df 01       		.uleb128 0x1
 3863 02e0 13       		.uleb128 0x13
 3864 02e1 00       		.byte	0
 3865 02e2 00       		.byte	0
 3866 02e3 38       		.uleb128 0x38
 3867 02e4 898201   		.uleb128 0x4109
 3868 02e7 00       		.byte	0
 3869 02e8 11       		.uleb128 0x11
 3870 02e9 01       		.uleb128 0x1
 3871 02ea 9542     		.uleb128 0x2115
 3872 02ec 19       		.uleb128 0x19
 3873 02ed 31       		.uleb128 0x31
 3874 02ee 13       		.uleb128 0x13
 3875 02ef 00       		.byte	0
 3876 02f0 00       		.byte	0
ARM GAS  /tmp/ccYFEdb7.s 			page 69


 3877 02f1 39       		.uleb128 0x39
 3878 02f2 1D       		.uleb128 0x1d
 3879 02f3 01       		.byte	0x1
 3880 02f4 31       		.uleb128 0x31
 3881 02f5 13       		.uleb128 0x13
 3882 02f6 11       		.uleb128 0x11
 3883 02f7 01       		.uleb128 0x1
 3884 02f8 12       		.uleb128 0x12
 3885 02f9 06       		.uleb128 0x6
 3886 02fa 58       		.uleb128 0x58
 3887 02fb 0B       		.uleb128 0xb
 3888 02fc 59       		.uleb128 0x59
 3889 02fd 0B       		.uleb128 0xb
 3890 02fe 00       		.byte	0
 3891 02ff 00       		.byte	0
 3892 0300 3A       		.uleb128 0x3a
 3893 0301 0B       		.uleb128 0xb
 3894 0302 01       		.byte	0x1
 3895 0303 55       		.uleb128 0x55
 3896 0304 17       		.uleb128 0x17
 3897 0305 00       		.byte	0
 3898 0306 00       		.byte	0
 3899 0307 3B       		.uleb128 0x3b
 3900 0308 05       		.uleb128 0x5
 3901 0309 00       		.byte	0
 3902 030a 03       		.uleb128 0x3
 3903 030b 08       		.uleb128 0x8
 3904 030c 3A       		.uleb128 0x3a
 3905 030d 0B       		.uleb128 0xb
 3906 030e 3B       		.uleb128 0x3b
 3907 030f 0B       		.uleb128 0xb
 3908 0310 49       		.uleb128 0x49
 3909 0311 13       		.uleb128 0x13
 3910 0312 02       		.uleb128 0x2
 3911 0313 18       		.uleb128 0x18
 3912 0314 00       		.byte	0
 3913 0315 00       		.byte	0
 3914 0316 3C       		.uleb128 0x3c
 3915 0317 2E       		.uleb128 0x2e
 3916 0318 00       		.byte	0
 3917 0319 03       		.uleb128 0x3
 3918 031a 0E       		.uleb128 0xe
 3919 031b 3A       		.uleb128 0x3a
 3920 031c 0B       		.uleb128 0xb
 3921 031d 3B       		.uleb128 0x3b
 3922 031e 0B       		.uleb128 0xb
 3923 031f 27       		.uleb128 0x27
 3924 0320 19       		.uleb128 0x19
 3925 0321 49       		.uleb128 0x49
 3926 0322 13       		.uleb128 0x13
 3927 0323 20       		.uleb128 0x20
 3928 0324 0B       		.uleb128 0xb
 3929 0325 00       		.byte	0
 3930 0326 00       		.byte	0
 3931 0327 3D       		.uleb128 0x3d
 3932 0328 2E       		.uleb128 0x2e
 3933 0329 00       		.byte	0
ARM GAS  /tmp/ccYFEdb7.s 			page 70


 3934 032a 03       		.uleb128 0x3
 3935 032b 0E       		.uleb128 0xe
 3936 032c 3A       		.uleb128 0x3a
 3937 032d 0B       		.uleb128 0xb
 3938 032e 3B       		.uleb128 0x3b
 3939 032f 05       		.uleb128 0x5
 3940 0330 27       		.uleb128 0x27
 3941 0331 19       		.uleb128 0x19
 3942 0332 49       		.uleb128 0x49
 3943 0333 13       		.uleb128 0x13
 3944 0334 20       		.uleb128 0x20
 3945 0335 0B       		.uleb128 0xb
 3946 0336 00       		.byte	0
 3947 0337 00       		.byte	0
 3948 0338 3E       		.uleb128 0x3e
 3949 0339 2E       		.uleb128 0x2e
 3950 033a 01       		.byte	0x1
 3951 033b 03       		.uleb128 0x3
 3952 033c 0E       		.uleb128 0xe
 3953 033d 3A       		.uleb128 0x3a
 3954 033e 0B       		.uleb128 0xb
 3955 033f 3B       		.uleb128 0x3b
 3956 0340 05       		.uleb128 0x5
 3957 0341 27       		.uleb128 0x27
 3958 0342 19       		.uleb128 0x19
 3959 0343 20       		.uleb128 0x20
 3960 0344 0B       		.uleb128 0xb
 3961 0345 01       		.uleb128 0x1
 3962 0346 13       		.uleb128 0x13
 3963 0347 00       		.byte	0
 3964 0348 00       		.byte	0
 3965 0349 3F       		.uleb128 0x3f
 3966 034a 34       		.uleb128 0x34
 3967 034b 00       		.byte	0
 3968 034c 03       		.uleb128 0x3
 3969 034d 0E       		.uleb128 0xe
 3970 034e 49       		.uleb128 0x49
 3971 034f 13       		.uleb128 0x13
 3972 0350 34       		.uleb128 0x34
 3973 0351 19       		.uleb128 0x19
 3974 0352 1C       		.uleb128 0x1c
 3975 0353 0E       		.uleb128 0xe
 3976 0354 00       		.byte	0
 3977 0355 00       		.byte	0
 3978 0356 40       		.uleb128 0x40
 3979 0357 2E       		.uleb128 0x2e
 3980 0358 00       		.byte	0
 3981 0359 03       		.uleb128 0x3
 3982 035a 0E       		.uleb128 0xe
 3983 035b 3A       		.uleb128 0x3a
 3984 035c 0B       		.uleb128 0xb
 3985 035d 3B       		.uleb128 0x3b
 3986 035e 05       		.uleb128 0x5
 3987 035f 27       		.uleb128 0x27
 3988 0360 19       		.uleb128 0x19
 3989 0361 20       		.uleb128 0x20
 3990 0362 0B       		.uleb128 0xb
ARM GAS  /tmp/ccYFEdb7.s 			page 71


 3991 0363 00       		.byte	0
 3992 0364 00       		.byte	0
 3993 0365 41       		.uleb128 0x41
 3994 0366 2E       		.uleb128 0x2e
 3995 0367 01       		.byte	0x1
 3996 0368 03       		.uleb128 0x3
 3997 0369 0E       		.uleb128 0xe
 3998 036a 3A       		.uleb128 0x3a
 3999 036b 0B       		.uleb128 0xb
 4000 036c 3B       		.uleb128 0x3b
 4001 036d 05       		.uleb128 0x5
 4002 036e 27       		.uleb128 0x27
 4003 036f 19       		.uleb128 0x19
 4004 0370 49       		.uleb128 0x49
 4005 0371 13       		.uleb128 0x13
 4006 0372 20       		.uleb128 0x20
 4007 0373 0B       		.uleb128 0xb
 4008 0374 01       		.uleb128 0x1
 4009 0375 13       		.uleb128 0x13
 4010 0376 00       		.byte	0
 4011 0377 00       		.byte	0
 4012 0378 42       		.uleb128 0x42
 4013 0379 05       		.uleb128 0x5
 4014 037a 00       		.byte	0
 4015 037b 03       		.uleb128 0x3
 4016 037c 08       		.uleb128 0x8
 4017 037d 3A       		.uleb128 0x3a
 4018 037e 0B       		.uleb128 0xb
 4019 037f 3B       		.uleb128 0x3b
 4020 0380 05       		.uleb128 0x5
 4021 0381 49       		.uleb128 0x49
 4022 0382 13       		.uleb128 0x13
 4023 0383 00       		.byte	0
 4024 0384 00       		.byte	0
 4025 0385 43       		.uleb128 0x43
 4026 0386 2E       		.uleb128 0x2e
 4027 0387 01       		.byte	0x1
 4028 0388 03       		.uleb128 0x3
 4029 0389 0E       		.uleb128 0xe
 4030 038a 3A       		.uleb128 0x3a
 4031 038b 0B       		.uleb128 0xb
 4032 038c 3B       		.uleb128 0x3b
 4033 038d 05       		.uleb128 0x5
 4034 038e 27       		.uleb128 0x27
 4035 038f 19       		.uleb128 0x19
 4036 0390 11       		.uleb128 0x11
 4037 0391 01       		.uleb128 0x1
 4038 0392 12       		.uleb128 0x12
 4039 0393 06       		.uleb128 0x6
 4040 0394 40       		.uleb128 0x40
 4041 0395 18       		.uleb128 0x18
 4042 0396 9742     		.uleb128 0x2117
 4043 0398 19       		.uleb128 0x19
 4044 0399 01       		.uleb128 0x1
 4045 039a 13       		.uleb128 0x13
 4046 039b 00       		.byte	0
 4047 039c 00       		.byte	0
ARM GAS  /tmp/ccYFEdb7.s 			page 72


 4048 039d 44       		.uleb128 0x44
 4049 039e 05       		.uleb128 0x5
 4050 039f 00       		.byte	0
 4051 03a0 03       		.uleb128 0x3
 4052 03a1 08       		.uleb128 0x8
 4053 03a2 3A       		.uleb128 0x3a
 4054 03a3 0B       		.uleb128 0xb
 4055 03a4 3B       		.uleb128 0x3b
 4056 03a5 05       		.uleb128 0x5
 4057 03a6 49       		.uleb128 0x49
 4058 03a7 13       		.uleb128 0x13
 4059 03a8 02       		.uleb128 0x2
 4060 03a9 18       		.uleb128 0x18
 4061 03aa 00       		.byte	0
 4062 03ab 00       		.byte	0
 4063 03ac 45       		.uleb128 0x45
 4064 03ad 05       		.uleb128 0x5
 4065 03ae 00       		.byte	0
 4066 03af 03       		.uleb128 0x3
 4067 03b0 0E       		.uleb128 0xe
 4068 03b1 3A       		.uleb128 0x3a
 4069 03b2 0B       		.uleb128 0xb
 4070 03b3 3B       		.uleb128 0x3b
 4071 03b4 05       		.uleb128 0x5
 4072 03b5 49       		.uleb128 0x49
 4073 03b6 13       		.uleb128 0x13
 4074 03b7 00       		.byte	0
 4075 03b8 00       		.byte	0
 4076 03b9 46       		.uleb128 0x46
 4077 03ba 2E       		.uleb128 0x2e
 4078 03bb 00       		.byte	0
 4079 03bc 3F       		.uleb128 0x3f
 4080 03bd 19       		.uleb128 0x19
 4081 03be 3C       		.uleb128 0x3c
 4082 03bf 19       		.uleb128 0x19
 4083 03c0 6E       		.uleb128 0x6e
 4084 03c1 0E       		.uleb128 0xe
 4085 03c2 03       		.uleb128 0x3
 4086 03c3 0E       		.uleb128 0xe
 4087 03c4 3A       		.uleb128 0x3a
 4088 03c5 0B       		.uleb128 0xb
 4089 03c6 3B       		.uleb128 0x3b
 4090 03c7 0B       		.uleb128 0xb
 4091 03c8 00       		.byte	0
 4092 03c9 00       		.byte	0
 4093 03ca 47       		.uleb128 0x47
 4094 03cb 2E       		.uleb128 0x2e
 4095 03cc 00       		.byte	0
 4096 03cd 3F       		.uleb128 0x3f
 4097 03ce 19       		.uleb128 0x19
 4098 03cf 3C       		.uleb128 0x3c
 4099 03d0 19       		.uleb128 0x19
 4100 03d1 6E       		.uleb128 0x6e
 4101 03d2 0E       		.uleb128 0xe
 4102 03d3 03       		.uleb128 0x3
 4103 03d4 0E       		.uleb128 0xe
 4104 03d5 3A       		.uleb128 0x3a
ARM GAS  /tmp/ccYFEdb7.s 			page 73


 4105 03d6 0B       		.uleb128 0xb
 4106 03d7 3B       		.uleb128 0x3b
 4107 03d8 05       		.uleb128 0x5
 4108 03d9 00       		.byte	0
 4109 03da 00       		.byte	0
 4110 03db 00       		.byte	0
 4111              		.section	.debug_loc,"",%progbits
 4112              	.Ldebug_loc0:
 4113              	.LLST26:
 4114 0000 00000000 		.4byte	.LVL49
 4115 0004 0E000000 		.4byte	.LVL50
 4116 0008 0100     		.2byte	0x1
 4117 000a 50       		.byte	0x50
 4118 000b 0E000000 		.4byte	.LVL50
 4119 000f 28000000 		.4byte	.LVL54
 4120 0013 0100     		.2byte	0x1
 4121 0015 54       		.byte	0x54
 4122 0016 28000000 		.4byte	.LVL54
 4123 001a 38000000 		.4byte	.LFE309
 4124 001e 0400     		.2byte	0x4
 4125 0020 F3       		.byte	0xf3
 4126 0021 01       		.uleb128 0x1
 4127 0022 50       		.byte	0x50
 4128 0023 9F       		.byte	0x9f
 4129 0024 00000000 		.4byte	0
 4130 0028 00000000 		.4byte	0
 4131              	.LLST27:
 4132 002c 00000000 		.4byte	.LVL49
 4133 0030 11000000 		.4byte	.LVL51-1
 4134 0034 0100     		.2byte	0x1
 4135 0036 51       		.byte	0x51
 4136 0037 11000000 		.4byte	.LVL51-1
 4137 003b 34000000 		.4byte	.LVL57
 4138 003f 0100     		.2byte	0x1
 4139 0041 57       		.byte	0x57
 4140 0042 34000000 		.4byte	.LVL57
 4141 0046 38000000 		.4byte	.LFE309
 4142 004a 0400     		.2byte	0x4
 4143 004c F3       		.byte	0xf3
 4144 004d 01       		.uleb128 0x1
 4145 004e 51       		.byte	0x51
 4146 004f 9F       		.byte	0x9f
 4147 0050 00000000 		.4byte	0
 4148 0054 00000000 		.4byte	0
 4149              	.LLST28:
 4150 0058 28000000 		.4byte	.LVL54
 4151 005c 2C000000 		.4byte	.LVL55
 4152 0060 0100     		.2byte	0x1
 4153 0062 50       		.byte	0x50
 4154 0063 2C000000 		.4byte	.LVL55
 4155 0067 34000000 		.4byte	.LVL57
 4156 006b 0100     		.2byte	0x1
 4157 006d 54       		.byte	0x54
 4158 006e 34000000 		.4byte	.LVL57
 4159 0072 38000000 		.4byte	.LFE309
 4160 0076 0100     		.2byte	0x1
 4161 0078 50       		.byte	0x50
ARM GAS  /tmp/ccYFEdb7.s 			page 74


 4162 0079 00000000 		.4byte	0
 4163 007d 00000000 		.4byte	0
 4164              	.LLST29:
 4165 0081 00000000 		.4byte	.LVL58
 4166 0085 0F000000 		.4byte	.LVL60-1
 4167 0089 0100     		.2byte	0x1
 4168 008b 50       		.byte	0x50
 4169 008c 0F000000 		.4byte	.LVL60-1
 4170 0090 1A000000 		.4byte	.LVL62
 4171 0094 0100     		.2byte	0x1
 4172 0096 54       		.byte	0x54
 4173 0097 1A000000 		.4byte	.LVL62
 4174 009b 28000000 		.4byte	.LFE308
 4175 009f 0400     		.2byte	0x4
 4176 00a1 F3       		.byte	0xf3
 4177 00a2 01       		.uleb128 0x1
 4178 00a3 50       		.byte	0x50
 4179 00a4 9F       		.byte	0x9f
 4180 00a5 00000000 		.4byte	0
 4181 00a9 00000000 		.4byte	0
 4182              	.LLST30:
 4183 00ad 00000000 		.4byte	.LVL58
 4184 00b1 0F000000 		.4byte	.LVL60-1
 4185 00b5 0100     		.2byte	0x1
 4186 00b7 51       		.byte	0x51
 4187 00b8 0F000000 		.4byte	.LVL60-1
 4188 00bc 28000000 		.4byte	.LFE308
 4189 00c0 0100     		.2byte	0x1
 4190 00c2 55       		.byte	0x55
 4191 00c3 00000000 		.4byte	0
 4192 00c7 00000000 		.4byte	0
 4193              	.LLST31:
 4194 00cb 1A000000 		.4byte	.LVL62
 4195 00cf 1D000000 		.4byte	.LVL63-1
 4196 00d3 0100     		.2byte	0x1
 4197 00d5 50       		.byte	0x50
 4198 00d6 1D000000 		.4byte	.LVL63-1
 4199 00da 28000000 		.4byte	.LFE308
 4200 00de 0100     		.2byte	0x1
 4201 00e0 54       		.byte	0x54
 4202 00e1 00000000 		.4byte	0
 4203 00e5 00000000 		.4byte	0
 4204              	.LLST32:
 4205 00e9 00000000 		.4byte	.LVL58
 4206 00ed 0C000000 		.4byte	.LVL59
 4207 00f1 0300     		.2byte	0x3
 4208 00f3 08       		.byte	0x8
 4209 00f4 20       		.byte	0x20
 4210 00f5 9F       		.byte	0x9f
 4211 00f6 00000000 		.4byte	0
 4212 00fa 00000000 		.4byte	0
 4213              	.LLST33:
 4214 00fe 1E000000 		.4byte	.LVL63
 4215 0102 24000000 		.4byte	.LVL64
 4216 0106 0200     		.2byte	0x2
 4217 0108 30       		.byte	0x30
 4218 0109 9F       		.byte	0x9f
ARM GAS  /tmp/ccYFEdb7.s 			page 75


 4219 010a 00000000 		.4byte	0
 4220 010e 00000000 		.4byte	0
 4221              	.LLST19:
 4222 0112 00000000 		.4byte	.LVL33
 4223 0116 0C000000 		.4byte	.LVL35
 4224 011a 0100     		.2byte	0x1
 4225 011c 50       		.byte	0x50
 4226 011d 0C000000 		.4byte	.LVL35
 4227 0121 2C000000 		.4byte	.LVL41
 4228 0125 0100     		.2byte	0x1
 4229 0127 56       		.byte	0x56
 4230 0128 2C000000 		.4byte	.LVL41
 4231 012c 30000000 		.4byte	.LFE307
 4232 0130 0400     		.2byte	0x4
 4233 0132 F3       		.byte	0xf3
 4234 0133 01       		.uleb128 0x1
 4235 0134 50       		.byte	0x50
 4236 0135 9F       		.byte	0x9f
 4237 0136 00000000 		.4byte	0
 4238 013a 00000000 		.4byte	0
 4239              	.LLST20:
 4240 013e 06000000 		.4byte	.LVL34
 4241 0142 22000000 		.4byte	.LVL39
 4242 0146 0100     		.2byte	0x1
 4243 0148 54       		.byte	0x54
 4244 0149 00000000 		.4byte	0
 4245 014d 00000000 		.4byte	0
 4246              	.LLST21:
 4247 0151 22000000 		.4byte	.LVL39
 4248 0155 2C000000 		.4byte	.LVL41
 4249 0159 0100     		.2byte	0x1
 4250 015b 54       		.byte	0x54
 4251 015c 2C000000 		.4byte	.LVL41
 4252 0160 30000000 		.4byte	.LFE307
 4253 0164 0100     		.2byte	0x1
 4254 0166 50       		.byte	0x50
 4255 0167 00000000 		.4byte	0
 4256 016b 00000000 		.4byte	0
 4257              	.LLST22:
 4258 016f 00000000 		.4byte	.LVL42
 4259 0173 0D000000 		.4byte	.LVL44-1
 4260 0177 0100     		.2byte	0x1
 4261 0179 50       		.byte	0x50
 4262 017a 0D000000 		.4byte	.LVL44-1
 4263 017e 16000000 		.4byte	.LVL46
 4264 0182 0100     		.2byte	0x1
 4265 0184 54       		.byte	0x54
 4266 0185 16000000 		.4byte	.LVL46
 4267 0189 24000000 		.4byte	.LFE306
 4268 018d 0400     		.2byte	0x4
 4269 018f F3       		.byte	0xf3
 4270 0190 01       		.uleb128 0x1
 4271 0191 50       		.byte	0x50
 4272 0192 9F       		.byte	0x9f
 4273 0193 00000000 		.4byte	0
 4274 0197 00000000 		.4byte	0
 4275              	.LLST23:
ARM GAS  /tmp/ccYFEdb7.s 			page 76


 4276 019b 16000000 		.4byte	.LVL46
 4277 019f 19000000 		.4byte	.LVL47-1
 4278 01a3 0100     		.2byte	0x1
 4279 01a5 50       		.byte	0x50
 4280 01a6 19000000 		.4byte	.LVL47-1
 4281 01aa 24000000 		.4byte	.LFE306
 4282 01ae 0100     		.2byte	0x1
 4283 01b0 54       		.byte	0x54
 4284 01b1 00000000 		.4byte	0
 4285 01b5 00000000 		.4byte	0
 4286              	.LLST24:
 4287 01b9 00000000 		.4byte	.LVL42
 4288 01bd 0A000000 		.4byte	.LVL43
 4289 01c1 0300     		.2byte	0x3
 4290 01c3 08       		.byte	0x8
 4291 01c4 20       		.byte	0x20
 4292 01c5 9F       		.byte	0x9f
 4293 01c6 00000000 		.4byte	0
 4294 01ca 00000000 		.4byte	0
 4295              	.LLST25:
 4296 01ce 1A000000 		.4byte	.LVL47
 4297 01d2 20000000 		.4byte	.LVL48
 4298 01d6 0200     		.2byte	0x2
 4299 01d8 30       		.byte	0x30
 4300 01d9 9F       		.byte	0x9f
 4301 01da 00000000 		.4byte	0
 4302 01de 00000000 		.4byte	0
 4303              	.LLST12:
 4304 01e2 00000000 		.4byte	.LVL20
 4305 01e6 08000000 		.4byte	.LVL21
 4306 01ea 0100     		.2byte	0x1
 4307 01ec 50       		.byte	0x50
 4308 01ed 08000000 		.4byte	.LVL21
 4309 01f1 1E000000 		.4byte	.LFE305
 4310 01f5 0100     		.2byte	0x1
 4311 01f7 54       		.byte	0x54
 4312 01f8 00000000 		.4byte	0
 4313 01fc 00000000 		.4byte	0
 4314              	.LLST13:
 4315 0200 08000000 		.4byte	.LVL21
 4316 0204 0A000000 		.4byte	.LVL22
 4317 0208 0100     		.2byte	0x1
 4318 020a 54       		.byte	0x54
 4319 020b 00000000 		.4byte	0
 4320 020f 00000000 		.4byte	0
 4321              	.LLST14:
 4322 0213 10000000 		.4byte	.LVL23
 4323 0217 16000000 		.4byte	.LVL24
 4324 021b 0100     		.2byte	0x1
 4325 021d 54       		.byte	0x54
 4326 021e 00000000 		.4byte	0
 4327 0222 00000000 		.4byte	0
 4328              	.LLST15:
 4329 0226 10000000 		.4byte	.LVL23
 4330 022a 16000000 		.4byte	.LVL24
 4331 022e 0100     		.2byte	0x1
 4332 0230 50       		.byte	0x50
ARM GAS  /tmp/ccYFEdb7.s 			page 77


 4333 0231 00000000 		.4byte	0
 4334 0235 00000000 		.4byte	0
 4335              	.LLST16:
 4336 0239 00000000 		.4byte	.LVL26
 4337 023d 0D000000 		.4byte	.LVL28-1
 4338 0241 0100     		.2byte	0x1
 4339 0243 50       		.byte	0x50
 4340 0244 0D000000 		.4byte	.LVL28-1
 4341 0248 24000000 		.4byte	.LFE304
 4342 024c 0100     		.2byte	0x1
 4343 024e 54       		.byte	0x54
 4344 024f 00000000 		.4byte	0
 4345 0253 00000000 		.4byte	0
 4346              	.LLST17:
 4347 0257 00000000 		.4byte	.LVL26
 4348 025b 0A000000 		.4byte	.LVL27
 4349 025f 0300     		.2byte	0x3
 4350 0261 08       		.byte	0x8
 4351 0262 20       		.byte	0x20
 4352 0263 9F       		.byte	0x9f
 4353 0264 00000000 		.4byte	0
 4354 0268 00000000 		.4byte	0
 4355              	.LLST18:
 4356 026c 1C000000 		.4byte	.LVL31
 4357 0270 22000000 		.4byte	.LVL32
 4358 0274 0200     		.2byte	0x2
 4359 0276 30       		.byte	0x30
 4360 0277 9F       		.byte	0x9f
 4361 0278 00000000 		.4byte	0
 4362 027c 00000000 		.4byte	0
 4363              	.LLST8:
 4364 0280 00000000 		.4byte	.LVL14
 4365 0284 10000000 		.4byte	.LVL18
 4366 0288 0100     		.2byte	0x1
 4367 028a 50       		.byte	0x50
 4368 028b 10000000 		.4byte	.LVL18
 4369 028f 16000000 		.4byte	.LVL19
 4370 0293 0400     		.2byte	0x4
 4371 0295 F3       		.byte	0xf3
 4372 0296 01       		.uleb128 0x1
 4373 0297 50       		.byte	0x50
 4374 0298 9F       		.byte	0x9f
 4375 0299 16000000 		.4byte	.LVL19
 4376 029d 18000000 		.4byte	.LFE303
 4377 02a1 0100     		.2byte	0x1
 4378 02a3 50       		.byte	0x50
 4379 02a4 00000000 		.4byte	0
 4380 02a8 00000000 		.4byte	0
 4381              	.LLST10:
 4382 02ac 06000000 		.4byte	.LVL16
 4383 02b0 0C000000 		.4byte	.LVL17
 4384 02b4 0100     		.2byte	0x1
 4385 02b6 50       		.byte	0x50
 4386 02b7 00000000 		.4byte	0
 4387 02bb 00000000 		.4byte	0
 4388              	.LLST11:
 4389 02bf 06000000 		.4byte	.LVL16
ARM GAS  /tmp/ccYFEdb7.s 			page 78


 4390 02c3 0C000000 		.4byte	.LVL17
 4391 02c7 0100     		.2byte	0x1
 4392 02c9 53       		.byte	0x53
 4393 02ca 00000000 		.4byte	0
 4394 02ce 00000000 		.4byte	0
 4395              	.LLST9:
 4396 02d2 00000000 		.4byte	.LVL14
 4397 02d6 02000000 		.4byte	.LVL15
 4398 02da 0100     		.2byte	0x1
 4399 02dc 50       		.byte	0x50
 4400 02dd 00000000 		.4byte	0
 4401 02e1 00000000 		.4byte	0
 4402              	.LLST2:
 4403 02e5 00000000 		.4byte	.LVL5
 4404 02e9 0D000000 		.4byte	.LVL7-1
 4405 02ed 0100     		.2byte	0x1
 4406 02ef 50       		.byte	0x50
 4407 02f0 0D000000 		.4byte	.LVL7-1
 4408 02f4 2C000000 		.4byte	.LFE302
 4409 02f8 0100     		.2byte	0x1
 4410 02fa 54       		.byte	0x54
 4411 02fb 00000000 		.4byte	0
 4412 02ff 00000000 		.4byte	0
 4413              	.LLST3:
 4414 0303 00000000 		.4byte	.LVL5
 4415 0307 0A000000 		.4byte	.LVL6
 4416 030b 0300     		.2byte	0x3
 4417 030d 08       		.byte	0x8
 4418 030e 20       		.byte	0x20
 4419 030f 9F       		.byte	0x9f
 4420 0310 00000000 		.4byte	0
 4421 0314 00000000 		.4byte	0
 4422              	.LLST4:
 4423 0318 0E000000 		.4byte	.LVL7
 4424 031c 10000000 		.4byte	.LVL8
 4425 0320 0100     		.2byte	0x1
 4426 0322 54       		.byte	0x54
 4427 0323 00000000 		.4byte	0
 4428 0327 00000000 		.4byte	0
 4429              	.LLST5:
 4430 032b 14000000 		.4byte	.LVL9
 4431 032f 1C000000 		.4byte	.LVL10
 4432 0333 0100     		.2byte	0x1
 4433 0335 54       		.byte	0x54
 4434 0336 00000000 		.4byte	0
 4435 033a 00000000 		.4byte	0
 4436              	.LLST6:
 4437 033e 14000000 		.4byte	.LVL9
 4438 0342 1C000000 		.4byte	.LVL10
 4439 0346 0100     		.2byte	0x1
 4440 0348 50       		.byte	0x50
 4441 0349 00000000 		.4byte	0
 4442 034d 00000000 		.4byte	0
 4443              	.LLST7:
 4444 0351 24000000 		.4byte	.LVL12
 4445 0355 2A000000 		.4byte	.LVL13
 4446 0359 0200     		.2byte	0x2
ARM GAS  /tmp/ccYFEdb7.s 			page 79


 4447 035b 30       		.byte	0x30
 4448 035c 9F       		.byte	0x9f
 4449 035d 00000000 		.4byte	0
 4450 0361 00000000 		.4byte	0
 4451              	.LLST1:
 4452 0365 00000000 		.4byte	.LVL3
 4453 0369 04000000 		.4byte	.LVL4
 4454 036d 0100     		.2byte	0x1
 4455 036f 50       		.byte	0x50
 4456 0370 00000000 		.4byte	0
 4457 0374 00000000 		.4byte	0
 4458              	.LLST0:
 4459 0378 00000000 		.4byte	.LVL0
 4460 037c 04000000 		.4byte	.LVL1
 4461 0380 0100     		.2byte	0x1
 4462 0382 51       		.byte	0x51
 4463 0383 04000000 		.4byte	.LVL1
 4464 0387 20000000 		.4byte	.LFE183
 4465 038b 0100     		.2byte	0x1
 4466 038d 53       		.byte	0x53
 4467 038e 00000000 		.4byte	0
 4468 0392 00000000 		.4byte	0
 4469              		.section	.debug_aranges,"",%progbits
 4470 0000 64000000 		.4byte	0x64
 4471 0004 0200     		.2byte	0x2
 4472 0006 00000000 		.4byte	.Ldebug_info0
 4473 000a 04       		.byte	0x4
 4474 000b 00       		.byte	0
 4475 000c 0000     		.2byte	0
 4476 000e 0000     		.2byte	0
 4477 0010 00000000 		.4byte	.LFB183
 4478 0014 20000000 		.4byte	.LFE183-.LFB183
 4479 0018 00000000 		.4byte	.LFB301
 4480 001c 06000000 		.4byte	.LFE301-.LFB301
 4481 0020 00000000 		.4byte	.LFB302
 4482 0024 2C000000 		.4byte	.LFE302-.LFB302
 4483 0028 00000000 		.4byte	.LFB303
 4484 002c 18000000 		.4byte	.LFE303-.LFB303
 4485 0030 00000000 		.4byte	.LFB305
 4486 0034 1E000000 		.4byte	.LFE305-.LFB305
 4487 0038 00000000 		.4byte	.LFB304
 4488 003c 24000000 		.4byte	.LFE304-.LFB304
 4489 0040 00000000 		.4byte	.LFB307
 4490 0044 30000000 		.4byte	.LFE307-.LFB307
 4491 0048 00000000 		.4byte	.LFB306
 4492 004c 24000000 		.4byte	.LFE306-.LFB306
 4493 0050 00000000 		.4byte	.LFB309
 4494 0054 38000000 		.4byte	.LFE309-.LFB309
 4495 0058 00000000 		.4byte	.LFB308
 4496 005c 28000000 		.4byte	.LFE308-.LFB308
 4497 0060 00000000 		.4byte	0
 4498 0064 00000000 		.4byte	0
 4499              		.section	.debug_ranges,"",%progbits
 4500              	.Ldebug_ranges0:
 4501 0000 02000000 		.4byte	.LBB55
 4502 0004 04000000 		.4byte	.LBE55
 4503 0008 06000000 		.4byte	.LBB64
ARM GAS  /tmp/ccYFEdb7.s 			page 80


 4504 000c 0E000000 		.4byte	.LBE64
 4505 0010 00000000 		.4byte	0
 4506 0014 00000000 		.4byte	0
 4507 0018 02000000 		.4byte	.LBB57
 4508 001c 04000000 		.4byte	.LBE57
 4509 0020 06000000 		.4byte	.LBB62
 4510 0024 0A000000 		.4byte	.LBE62
 4511 0028 00000000 		.4byte	0
 4512 002c 00000000 		.4byte	0
 4513 0030 14000000 		.4byte	.LBB67
 4514 0034 16000000 		.4byte	.LBE67
 4515 0038 18000000 		.4byte	.LBB70
 4516 003c 1C000000 		.4byte	.LBE70
 4517 0040 00000000 		.4byte	0
 4518 0044 00000000 		.4byte	0
 4519 0048 02000000 		.4byte	.LBB95
 4520 004c 04000000 		.4byte	.LBE95
 4521 0050 06000000 		.4byte	.LBB104
 4522 0054 0E000000 		.4byte	.LBE104
 4523 0058 00000000 		.4byte	0
 4524 005c 00000000 		.4byte	0
 4525 0060 02000000 		.4byte	.LBB97
 4526 0064 04000000 		.4byte	.LBE97
 4527 0068 06000000 		.4byte	.LBB102
 4528 006c 0A000000 		.4byte	.LBE102
 4529 0070 00000000 		.4byte	0
 4530 0074 00000000 		.4byte	0
 4531 0078 02000000 		.4byte	.LBB122
 4532 007c 04000000 		.4byte	.LBE122
 4533 0080 06000000 		.4byte	.LBB131
 4534 0084 0E000000 		.4byte	.LBE131
 4535 0088 00000000 		.4byte	0
 4536 008c 00000000 		.4byte	0
 4537 0090 02000000 		.4byte	.LBB124
 4538 0094 04000000 		.4byte	.LBE124
 4539 0098 06000000 		.4byte	.LBB129
 4540 009c 0A000000 		.4byte	.LBE129
 4541 00a0 00000000 		.4byte	0
 4542 00a4 00000000 		.4byte	0
 4543 00a8 02000000 		.4byte	.LBB137
 4544 00ac 04000000 		.4byte	.LBE137
 4545 00b0 08000000 		.4byte	.LBB142
 4546 00b4 0C000000 		.4byte	.LBE142
 4547 00b8 00000000 		.4byte	0
 4548 00bc 00000000 		.4byte	0
 4549 00c0 00000000 		.4byte	.LFB183
 4550 00c4 20000000 		.4byte	.LFE183
 4551 00c8 00000000 		.4byte	.LFB301
 4552 00cc 06000000 		.4byte	.LFE301
 4553 00d0 00000000 		.4byte	.LFB302
 4554 00d4 2C000000 		.4byte	.LFE302
 4555 00d8 00000000 		.4byte	.LFB303
 4556 00dc 18000000 		.4byte	.LFE303
 4557 00e0 00000000 		.4byte	.LFB305
 4558 00e4 1E000000 		.4byte	.LFE305
 4559 00e8 00000000 		.4byte	.LFB304
 4560 00ec 24000000 		.4byte	.LFE304
ARM GAS  /tmp/ccYFEdb7.s 			page 81


 4561 00f0 00000000 		.4byte	.LFB307
 4562 00f4 30000000 		.4byte	.LFE307
 4563 00f8 00000000 		.4byte	.LFB306
 4564 00fc 24000000 		.4byte	.LFE306
 4565 0100 00000000 		.4byte	.LFB309
 4566 0104 38000000 		.4byte	.LFE309
 4567 0108 00000000 		.4byte	.LFB308
 4568 010c 28000000 		.4byte	.LFE308
 4569 0110 00000000 		.4byte	0
 4570 0114 00000000 		.4byte	0
 4571              		.section	.debug_line,"",%progbits
 4572              	.Ldebug_line0:
 4573 0000 80050000 		.section	.debug_str,"MS",%progbits,1
 4573      02007403 
 4573      00000201 
 4573      FB0E0D00 
 4573      01010101 
 4574              	.LASF56:
 4575 0000 72656164 		.ascii	"ready_list_t\000"
 4575      795F6C69 
 4575      73745F74 
 4575      00
 4576              	.LASF4:
 4577 000d 73697A65 		.ascii	"size_t\000"
 4577      5F7400
 4578              	.LASF62:
 4579 0014 64656C74 		.ascii	"delta\000"
 4579      6100
 4580              	.LASF99:
 4581 001a 7264796D 		.ascii	"rdymsg\000"
 4581      736700
 4582              	.LASF20:
 4583 0021 75696E74 		.ascii	"uint64_t\000"
 4583      36345F74 
 4583      00
 4584              	.LASF75:
 4585 002a 6B65726E 		.ascii	"kernel_stats\000"
 4585      656C5F73 
 4585      74617473 
 4585      00
 4586              	.LASF5:
 4587 0037 5F5F7569 		.ascii	"__uint8_t\000"
 4587      6E74385F 
 4587      7400
 4588              	.LASF55:
 4589 0041 70726576 		.ascii	"prev\000"
 4589      00
 4590              	.LASF86:
 4591 0046 706F7274 		.ascii	"port_intctx\000"
 4591      5F696E74 
 4591      63747800 
 4592              	.LASF54:
 4593 0052 63685F74 		.ascii	"ch_threads_queue\000"
 4593      68726561 
 4593      64735F71 
 4593      75657565 
 4593      00
ARM GAS  /tmp/ccYFEdb7.s 			page 82


 4594              	.LASF67:
 4595 0063 73797374 		.ascii	"system_debug_t\000"
 4595      656D5F64 
 4595      65627567 
 4595      5F7400
 4596              	.LASF144:
 4597 0072 70726F76 		.ascii	"provider\000"
 4597      69646572 
 4597      00
 4598              	.LASF176:
 4599 007b 71756575 		.ascii	"queue_init\000"
 4599      655F696E 
 4599      697400
 4600              	.LASF154:
 4601 0086 73656D5F 		.ascii	"sem_list\000"
 4601      6C697374 
 4601      00
 4602              	.LASF179:
 4603 008f 706F7274 		.ascii	"port_lock\000"
 4603      5F6C6F63 
 4603      6B00
 4604              	.LASF85:
 4605 0099 706F7274 		.ascii	"port_context\000"
 4605      5F636F6E 
 4605      74657874 
 4605      00
 4606              	.LASF90:
 4607 00a6 776F7273 		.ascii	"worst\000"
 4607      7400
 4608              	.LASF93:
 4609 00ac 74696D65 		.ascii	"time_measurement_t\000"
 4609      5F6D6561 
 4609      73757265 
 4609      6D656E74 
 4609      5F7400
 4610              	.LASF166:
 4611 00bf 6368436F 		.ascii	"chCondBroadcastI\000"
 4611      6E644272 
 4611      6F616463 
 4611      61737449 
 4611      00
 4612              	.LASF15:
 4613 00d0 6C6F6E67 		.ascii	"long long unsigned int\000"
 4613      206C6F6E 
 4613      6720756E 
 4613      7369676E 
 4613      65642069 
 4614              	.LASF100:
 4615 00e7 65786974 		.ascii	"exitcode\000"
 4615      636F6465 
 4615      00
 4616              	.LASF74:
 4617 00f0 6D61696E 		.ascii	"mainthread\000"
 4617      74687265 
 4617      616400
 4618              	.LASF103:
 4619 00fb 73656E74 		.ascii	"sentmsg\000"
ARM GAS  /tmp/ccYFEdb7.s 			page 83


 4619      6D736700 
 4620              	.LASF64:
 4621 0103 76697274 		.ascii	"virtual_timers_list_t\000"
 4621      75616C5F 
 4621      74696D65 
 4621      72735F6C 
 4621      6973745F 
 4622              	.LASF79:
 4623 0119 49544D5F 		.ascii	"ITM_RxBuffer\000"
 4623      52784275 
 4623      66666572 
 4623      00
 4624              	.LASF147:
 4625 0126 64796E5F 		.ascii	"dyn_element_t\000"
 4625      656C656D 
 4625      656E745F 
 4625      7400
 4626              	.LASF52:
 4627 0134 6E657874 		.ascii	"next\000"
 4627      00
 4628              	.LASF22:
 4629 0139 72747469 		.ascii	"rttime_t\000"
 4629      6D655F74 
 4629      00
 4630              	.LASF1:
 4631 0142 6C6F6E67 		.ascii	"long long int\000"
 4631      206C6F6E 
 4631      6720696E 
 4631      7400
 4632              	.LASF3:
 4633 0150 7369676E 		.ascii	"signed char\000"
 4633      65642063 
 4633      68617200 
 4634              	.LASF134:
 4635 015c 636F6E64 		.ascii	"condition_variable_t\000"
 4635      6974696F 
 4635      6E5F7661 
 4635      72696162 
 4635      6C655F74 
 4636              	.LASF114:
 4637 0171 73697A65 		.ascii	"size\000"
 4637      00
 4638              	.LASF72:
 4639 0176 726C6973 		.ascii	"rlist\000"
 4639      7400
 4640              	.LASF181:
 4641 017c 62617365 		.ascii	"basePri\000"
 4641      50726900 
 4642              	.LASF73:
 4643 0184 76746C69 		.ascii	"vtlist\000"
 4643      737400
 4644              	.LASF178:
 4645 018b 706F7274 		.ascii	"port_unlock\000"
 4645      5F756E6C 
 4645      6F636B00 
 4646              	.LASF42:
 4647 0197 6D736771 		.ascii	"msgqueue\000"
ARM GAS  /tmp/ccYFEdb7.s 			page 84


 4647      75657565 
 4647      00
 4648              	.LASF38:
 4649 01a0 73746174 		.ascii	"state\000"
 4649      6500
 4650              	.LASF11:
 4651 01a6 6C6F6E67 		.ascii	"long int\000"
 4651      20696E74 
 4651      00
 4652              	.LASF163:
 4653 01af 6368436F 		.ascii	"chCondWaitS\000"
 4653      6E645761 
 4653      69745300 
 4654              	.LASF24:
 4655 01bb 74737461 		.ascii	"tstate_t\000"
 4655      74655F74 
 4655      00
 4656              	.LASF174:
 4657 01c4 71756575 		.ascii	"queue_notempty\000"
 4657      655F6E6F 
 4657      74656D70 
 4657      747900
 4658              	.LASF63:
 4659 01d3 66756E63 		.ascii	"func\000"
 4659      00
 4660              	.LASF47:
 4661 01d8 73746174 		.ascii	"stats\000"
 4661      7300
 4662              	.LASF130:
 4663 01de 63686465 		.ascii	"chdebug_t\000"
 4663      6275675F 
 4663      7400
 4664              	.LASF128:
 4665 01e8 6F66665F 		.ascii	"off_preempt\000"
 4665      70726565 
 4665      6D707400 
 4666              	.LASF189:
 4667 01f4 63685363 		.ascii	"chSchRescheduleS\000"
 4667      68526573 
 4667      63686564 
 4667      756C6553 
 4667      00
 4668              	.LASF12:
 4669 0205 5F5F7569 		.ascii	"__uint32_t\000"
 4669      6E743332 
 4669      5F7400
 4670              	.LASF83:
 4671 0210 72656761 		.ascii	"regarm_t\000"
 4671      726D5F74 
 4671      00
 4672              	.LASF156:
 4673 0219 6D62785F 		.ascii	"mbx_list\000"
 4673      6C697374 
 4673      00
 4674              	.LASF68:
 4675 0222 63685F73 		.ascii	"ch_system_debug\000"
 4675      79737465 
ARM GAS  /tmp/ccYFEdb7.s 			page 85


 4675      6D5F6465 
 4675      62756700 
 4676              	.LASF41:
 4677 0232 77616974 		.ascii	"waiting\000"
 4677      696E6700 
 4678              	.LASF82:
 4679 023a 41504250 		.ascii	"APBPrescTable\000"
 4679      72657363 
 4679      5461626C 
 4679      6500
 4680              	.LASF113:
 4681 0248 7A65726F 		.ascii	"zero\000"
 4681      00
 4682              	.LASF132:
 4683 024d 6D757465 		.ascii	"mutex_t\000"
 4683      785F7400 
 4684              	.LASF143:
 4685 0255 616C6967 		.ascii	"align\000"
 4685      6E00
 4686              	.LASF169:
 4687 025b 6368436F 		.ascii	"chCondSignal\000"
 4687      6E645369 
 4687      676E616C 
 4687      00
 4688              	.LASF77:
 4689 0268 73797369 		.ascii	"sysinterval_t\000"
 4689      6E746572 
 4689      76616C5F 
 4689      7400
 4690              	.LASF29:
 4691 0276 636E745F 		.ascii	"cnt_t\000"
 4691      7400
 4692              	.LASF182:
 4693 027c 63684D74 		.ascii	"chMtxUnlockS\000"
 4693      78556E6C 
 4693      6F636B53 
 4693      00
 4694              	.LASF0:
 4695 0289 756E7369 		.ascii	"unsigned int\000"
 4695      676E6564 
 4695      20696E74 
 4695      00
 4696              	.LASF17:
 4697 0296 75696E74 		.ascii	"uint16_t\000"
 4697      31365F74 
 4697      00
 4698              	.LASF80:
 4699 029f 53797374 		.ascii	"SystemCoreClock\000"
 4699      656D436F 
 4699      7265436C 
 4699      6F636B00 
 4700              	.LASF104:
 4701 02af 77747365 		.ascii	"wtsemp\000"
 4701      6D7000
 4702              	.LASF140:
 4703 02b6 63685F6D 		.ascii	"ch_memcore\000"
 4703      656D636F 
ARM GAS  /tmp/ccYFEdb7.s 			page 86


 4703      726500
 4704              	.LASF102:
 4705 02c1 77747472 		.ascii	"wttrp\000"
 4705      7000
 4706              	.LASF131:
 4707 02c7 63685F64 		.ascii	"ch_debug\000"
 4707      65627567 
 4707      00
 4708              	.LASF160:
 4709 02d0 74696D65 		.ascii	"timeout\000"
 4709      6F757400 
 4710              	.LASF145:
 4711 02d8 6D656D6F 		.ascii	"memory_pool_t\000"
 4711      72795F70 
 4711      6F6F6C5F 
 4711      7400
 4712              	.LASF94:
 4713 02e6 6E5F6972 		.ascii	"n_irq\000"
 4713      7100
 4714              	.LASF32:
 4715 02ec 71756575 		.ascii	"queue\000"
 4715      6500
 4716              	.LASF46:
 4717 02f2 6D706F6F 		.ascii	"mpool\000"
 4717      6C00
 4718              	.LASF127:
 4719 02f8 6F66665F 		.ascii	"off_refs\000"
 4719      72656673 
 4719      00
 4720              	.LASF98:
 4721 0301 6B65726E 		.ascii	"kernel_stats_t\000"
 4721      656C5F73 
 4721      74617473 
 4721      5F7400
 4722              	.LASF50:
 4723 0310 63685F74 		.ascii	"ch_thread\000"
 4723      68726561 
 4723      6400
 4724              	.LASF27:
 4725 031a 6D73675F 		.ascii	"msg_t\000"
 4725      7400
 4726              	.LASF91:
 4727 0320 6C617374 		.ascii	"last\000"
 4727      00
 4728              	.LASF30:
 4729 0325 75636E74 		.ascii	"ucnt_t\000"
 4729      5F7400
 4730              	.LASF43:
 4731 032c 6570656E 		.ascii	"epending\000"
 4731      64696E67 
 4731      00
 4732              	.LASF36:
 4733 0335 6E616D65 		.ascii	"name\000"
 4733      00
 4734              	.LASF70:
 4735 033a 63685F73 		.ascii	"ch_system_t\000"
 4735      79737465 
ARM GAS  /tmp/ccYFEdb7.s 			page 87


 4735      6D5F7400 
 4736              	.LASF120:
 4737 0346 6F66665F 		.ascii	"off_ctx\000"
 4737      63747800 
 4738              	.LASF23:
 4739 034e 746D6F64 		.ascii	"tmode_t\000"
 4739      655F7400 
 4740              	.LASF97:
 4741 0356 6D5F6372 		.ascii	"m_crit_isr\000"
 4741      69745F69 
 4741      737200
 4742              	.LASF57:
 4743 0361 63685F72 		.ascii	"ch_ready_list\000"
 4743      65616479 
 4743      5F6C6973 
 4743      7400
 4744              	.LASF28:
 4745 036f 6576656E 		.ascii	"eventmask_t\000"
 4745      746D6173 
 4745      6B5F7400 
 4746              	.LASF81:
 4747 037b 41484250 		.ascii	"AHBPrescTable\000"
 4747      72657363 
 4747      5461626C 
 4747      6500
 4748              	.LASF138:
 4749 0389 656E646D 		.ascii	"endmem\000"
 4749      656D00
 4750              	.LASF10:
 4751 0390 5F5F696E 		.ascii	"__int32_t\000"
 4751      7433325F 
 4751      7400
 4752              	.LASF84:
 4753 039a 73746B61 		.ascii	"stkalign_t\000"
 4753      6C69676E 
 4753      5F7400
 4754              	.LASF34:
 4755 03a5 6E657765 		.ascii	"newer\000"
 4755      7200
 4756              	.LASF45:
 4757 03ab 7265616C 		.ascii	"realprio\000"
 4757      7072696F 
 4757      00
 4758              	.LASF115:
 4759 03b4 76657273 		.ascii	"version\000"
 4759      696F6E00 
 4760              	.LASF186:
 4761 03bc 5F737461 		.ascii	"_stats_stop_measure_crit_thd\000"
 4761      74735F73 
 4761      746F705F 
 4761      6D656173 
 4761      7572655F 
 4762              	.LASF78:
 4763 03d9 73697A65 		.ascii	"sizetype\000"
 4763      74797065 
 4763      00
 4764              	.LASF48:
ARM GAS  /tmp/ccYFEdb7.s 			page 88


 4765 03e2 74687265 		.ascii	"thread_reference_t\000"
 4765      61645F72 
 4765      65666572 
 4765      656E6365 
 4765      5F7400
 4766              	.LASF65:
 4767 03f5 63685F76 		.ascii	"ch_virtual_timers_list\000"
 4767      69727475 
 4767      616C5F74 
 4767      696D6572 
 4767      735F6C69 
 4768              	.LASF133:
 4769 040c 636F6E64 		.ascii	"condition_variable\000"
 4769      6974696F 
 4769      6E5F7661 
 4769      72696162 
 4769      6C6500
 4770              	.LASF161:
 4771 041f 6368436F 		.ascii	"chCondWaitTimeoutS\000"
 4771      6E645761 
 4771      69745469 
 4771      6D656F75 
 4771      745300
 4772              	.LASF148:
 4773 0432 63685F64 		.ascii	"ch_dyn_list\000"
 4773      796E5F6C 
 4773      69737400 
 4774              	.LASF185:
 4775 043e 5F737461 		.ascii	"_stats_start_measure_crit_thd\000"
 4775      74735F73 
 4775      74617274 
 4775      5F6D6561 
 4775      73757265 
 4776              	.LASF121:
 4777 045c 6F66665F 		.ascii	"off_newer\000"
 4777      6E657765 
 4777      7200
 4778              	.LASF95:
 4779 0466 6E5F6374 		.ascii	"n_ctxswc\000"
 4779      78737763 
 4779      00
 4780              	.LASF193:
 4781 046f 2F686F6D 		.ascii	"/home/incsl/ardupilot/build/CUAVv5\000"
 4781      652F696E 
 4781      63736C2F 
 4781      61726475 
 4781      70696C6F 
 4782              	.LASF149:
 4783 0492 64796E5F 		.ascii	"dyn_list_t\000"
 4783      6C697374 
 4783      5F7400
 4784              	.LASF88:
 4785 049d 746D5F63 		.ascii	"tm_calibration_t\000"
 4785      616C6962 
 4785      72617469 
 4785      6F6E5F74 
 4785      00
ARM GAS  /tmp/ccYFEdb7.s 			page 89


 4786              	.LASF33:
 4787 04ae 7072696F 		.ascii	"prio\000"
 4787      00
 4788              	.LASF167:
 4789 04b3 6368436F 		.ascii	"chCondBroadcast\000"
 4789      6E644272 
 4789      6F616463 
 4789      61737400 
 4790              	.LASF155:
 4791 04c3 73656D5F 		.ascii	"sem_pool\000"
 4791      706F6F6C 
 4791      00
 4792              	.LASF58:
 4793 04cc 63757272 		.ascii	"current\000"
 4793      656E7400 
 4794              	.LASF14:
 4795 04d4 5F5F7569 		.ascii	"__uint64_t\000"
 4795      6E743634 
 4795      5F7400
 4796              	.LASF139:
 4797 04df 6D656D63 		.ascii	"memcore_t\000"
 4797      6F72655F 
 4797      7400
 4798              	.LASF92:
 4799 04e9 63756D75 		.ascii	"cumulative\000"
 4799      6C617469 
 4799      766500
 4800              	.LASF25:
 4801 04f4 74726566 		.ascii	"trefs_t\000"
 4801      735F7400 
 4802              	.LASF118:
 4803 04fc 74687265 		.ascii	"threadsize\000"
 4803      61647369 
 4803      7A6500
 4804              	.LASF40:
 4805 0507 72656673 		.ascii	"refs\000"
 4805      00
 4806              	.LASF60:
 4807 050c 76697274 		.ascii	"virtual_timer_t\000"
 4807      75616C5F 
 4807      74696D65 
 4807      725F7400 
 4808              	.LASF146:
 4809 051c 63685F64 		.ascii	"ch_dyn_element\000"
 4809      796E5F65 
 4809      6C656D65 
 4809      6E7400
 4810              	.LASF26:
 4811 052b 74707269 		.ascii	"tprio_t\000"
 4811      6F5F7400 
 4812              	.LASF191:
 4813 0533 474E5520 		.ascii	"GNU C11 6.3.1 20170620 (release) [ARM/embedded-6-br"
 4813      43313120 
 4813      362E332E 
 4813      31203230 
 4813      31373036 
 4814 0566 616E6368 		.ascii	"anch revision 249437] -mcpu=cortex-m7 -mfloat-abi=h"
ARM GAS  /tmp/ccYFEdb7.s 			page 90


 4814      20726576 
 4814      6973696F 
 4814      6E203234 
 4814      39343337 
 4815 0599 61726420 		.ascii	"ard -mfpu=fpv4-sp-d16 -mno-thumb-interwork -mthumb "
 4815      2D6D6670 
 4815      753D6670 
 4815      76342D73 
 4815      702D6431 
 4816 05cc 2D67202D 		.ascii	"-g -Os -fomit-frame-pointer -falign-functions=16 -f"
 4816      4F73202D 
 4816      666F6D69 
 4816      742D6672 
 4816      616D652D 
 4817 05ff 66756E63 		.ascii	"function-sections -fdata-sections -fno-common -fsin"
 4817      74696F6E 
 4817      2D736563 
 4817      74696F6E 
 4817      73202D66 
 4818 0632 676C652D 		.ascii	"gle-precision-constant\000"
 4818      70726563 
 4818      6973696F 
 4818      6E2D636F 
 4818      6E737461 
 4819              	.LASF153:
 4820 0649 6275665F 		.ascii	"buf_list\000"
 4820      6C697374 
 4820      00
 4821              	.LASF187:
 4822 0652 63685363 		.ascii	"chSchGoSleepS\000"
 4822      68476F53 
 4822      6C656570 
 4822      5300
 4823              	.LASF168:
 4824 0660 6368436F 		.ascii	"chCondSignalI\000"
 4824      6E645369 
 4824      676E616C 
 4824      4900
 4825              	.LASF135:
 4826 066e 5F426F6F 		.ascii	"_Bool\000"
 4826      6C00
 4827              	.LASF18:
 4828 0674 696E7433 		.ascii	"int32_t\000"
 4828      325F7400 
 4829              	.LASF6:
 4830 067c 756E7369 		.ascii	"unsigned char\000"
 4830      676E6564 
 4830      20636861 
 4830      7200
 4831              	.LASF119:
 4832 068a 6F66665F 		.ascii	"off_prio\000"
 4832      7072696F 
 4832      00
 4833              	.LASF124:
 4834 0693 6F66665F 		.ascii	"off_stklimit\000"
 4834      73746B6C 
 4834      696D6974 
ARM GAS  /tmp/ccYFEdb7.s 			page 91


 4834      00
 4835              	.LASF7:
 4836 06a0 73686F72 		.ascii	"short int\000"
 4836      7420696E 
 4836      7400
 4837              	.LASF66:
 4838 06aa 6C617374 		.ascii	"lasttime\000"
 4838      74696D65 
 4838      00
 4839              	.LASF106:
 4840 06b3 65776D61 		.ascii	"ewmask\000"
 4840      736B00
 4841              	.LASF71:
 4842 06ba 63685F73 		.ascii	"ch_system\000"
 4842      79737465 
 4842      6D00
 4843              	.LASF164:
 4844 06c4 5F5F6675 		.ascii	"__func__\000"
 4844      6E635F5F 
 4844      00
 4845              	.LASF159:
 4846 06cd 63685F66 		.ascii	"ch_factory\000"
 4846      6163746F 
 4846      727900
 4847              	.LASF177:
 4848 06d8 63685379 		.ascii	"chSysLock\000"
 4848      734C6F63 
 4848      6B00
 4849              	.LASF152:
 4850 06e2 6F626A5F 		.ascii	"obj_pool\000"
 4850      706F6F6C 
 4850      00
 4851              	.LASF61:
 4852 06eb 63685F76 		.ascii	"ch_virtual_timer\000"
 4852      69727475 
 4852      616C5F74 
 4852      696D6572 
 4852      00
 4853              	.LASF107:
 4854 06fc 63685F73 		.ascii	"ch_semaphore\000"
 4854      656D6170 
 4854      686F7265 
 4854      00
 4855              	.LASF129:
 4856 0709 6F66665F 		.ascii	"off_time\000"
 4856      74696D65 
 4856      00
 4857              	.LASF111:
 4858 0712 63685F69 		.ascii	"ch_idle_thread_wa\000"
 4858      646C655F 
 4858      74687265 
 4858      61645F77 
 4858      6100
 4859              	.LASF117:
 4860 0724 74696D65 		.ascii	"timesize\000"
 4860      73697A65 
 4860      00
ARM GAS  /tmp/ccYFEdb7.s 			page 92


 4861              	.LASF19:
 4862 072d 75696E74 		.ascii	"uint32_t\000"
 4862      33325F74 
 4862      00
 4863              	.LASF105:
 4864 0736 77746D74 		.ascii	"wtmtxp\000"
 4864      787000
 4865              	.LASF188:
 4866 073d 63685363 		.ascii	"chSchReadyI\000"
 4866      68526561 
 4866      64794900 
 4867              	.LASF51:
 4868 0749 63685F74 		.ascii	"ch_threads_list\000"
 4868      68726561 
 4868      64735F6C 
 4868      69737400 
 4869              	.LASF109:
 4870 0759 6F776E65 		.ascii	"owner\000"
 4870      7200
 4871              	.LASF171:
 4872 075f 63684D74 		.ascii	"chMtxGetNextMutexX\000"
 4872      78476574 
 4872      4E657874 
 4872      4D757465 
 4872      785800
 4873              	.LASF13:
 4874 0772 6C6F6E67 		.ascii	"long unsigned int\000"
 4874      20756E73 
 4874      69676E65 
 4874      6420696E 
 4874      7400
 4875              	.LASF37:
 4876 0784 77616261 		.ascii	"wabase\000"
 4876      736500
 4877              	.LASF165:
 4878 078b 6368436F 		.ascii	"chCondWait\000"
 4878      6E645761 
 4878      697400
 4879              	.LASF110:
 4880 0796 63686172 		.ascii	"char\000"
 4880      00
 4881              	.LASF35:
 4882 079b 6F6C6465 		.ascii	"older\000"
 4882      7200
 4883              	.LASF151:
 4884 07a1 6F626A5F 		.ascii	"obj_list\000"
 4884      6C697374 
 4884      00
 4885              	.LASF8:
 4886 07aa 5F5F7569 		.ascii	"__uint16_t\000"
 4886      6E743136 
 4886      5F7400
 4887              	.LASF170:
 4888 07b5 6368436F 		.ascii	"chCondObjectInit\000"
 4888      6E644F62 
 4888      6A656374 
 4888      496E6974 
ARM GAS  /tmp/ccYFEdb7.s 			page 93


 4888      00
 4889              	.LASF89:
 4890 07c6 62657374 		.ascii	"best\000"
 4890      00
 4891              	.LASF2:
 4892 07cb 6C6F6E67 		.ascii	"long double\000"
 4892      20646F75 
 4892      626C6500 
 4893              	.LASF173:
 4894 07d7 71756575 		.ascii	"queue_fifo_remove\000"
 4894      655F6669 
 4894      666F5F72 
 4894      656D6F76 
 4894      6500
 4895              	.LASF76:
 4896 07e9 73797374 		.ascii	"systime_t\000"
 4896      696D655F 
 4896      7400
 4897              	.LASF59:
 4898 07f3 76746675 		.ascii	"vtfunc_t\000"
 4898      6E635F74 
 4898      00
 4899              	.LASF180:
 4900 07fc 5F5F7365 		.ascii	"__set_BASEPRI\000"
 4900      745F4241 
 4900      53455052 
 4900      4900
 4901              	.LASF69:
 4902 080a 70616E69 		.ascii	"panic_msg\000"
 4902      635F6D73 
 4902      6700
 4903              	.LASF87:
 4904 0814 6F666673 		.ascii	"offset\000"
 4904      657400
 4905              	.LASF108:
 4906 081b 63685F6D 		.ascii	"ch_mutex\000"
 4906      75746578 
 4906      00
 4907              	.LASF122:
 4908 0824 6F66665F 		.ascii	"off_older\000"
 4908      6F6C6465 
 4908      7200
 4909              	.LASF9:
 4910 082e 73686F72 		.ascii	"short unsigned int\000"
 4910      7420756E 
 4910      7369676E 
 4910      65642069 
 4910      6E7400
 4911              	.LASF112:
 4912 0841 6964656E 		.ascii	"identifier\000"
 4912      74696669 
 4912      657200
 4913              	.LASF21:
 4914 084c 7274636E 		.ascii	"rtcnt_t\000"
 4914      745F7400 
 4915              	.LASF136:
 4916 0854 6D656D67 		.ascii	"memgetfunc_t\000"
ARM GAS  /tmp/ccYFEdb7.s 			page 94


 4916      65746675 
 4916      6E635F74 
 4916      00
 4917              	.LASF190:
 4918 0861 63685363 		.ascii	"chSchWakeupS\000"
 4918      6857616B 
 4918      65757053 
 4918      00
 4919              	.LASF142:
 4920 086e 6F626A65 		.ascii	"object_size\000"
 4920      63745F73 
 4920      697A6500 
 4921              	.LASF116:
 4922 087a 70747273 		.ascii	"ptrsize\000"
 4922      697A6500 
 4923              	.LASF150:
 4924 0882 63685F6F 		.ascii	"ch_objects_factory\000"
 4924      626A6563 
 4924      74735F66 
 4924      6163746F 
 4924      727900
 4925              	.LASF53:
 4926 0895 74687265 		.ascii	"threads_queue_t\000"
 4926      6164735F 
 4926      71756575 
 4926      655F7400 
 4927              	.LASF141:
 4928 08a5 706F6F6C 		.ascii	"pool_header\000"
 4928      5F686561 
 4928      64657200 
 4929              	.LASF192:
 4930 08b1 2E2E2F2E 		.ascii	"../../modules/ChibiOS/os/rt/src/chcond.c\000"
 4930      2E2F6D6F 
 4930      64756C65 
 4930      732F4368 
 4930      6962694F 
 4931              	.LASF31:
 4932 08da 74687265 		.ascii	"thread_t\000"
 4932      61645F74 
 4932      00
 4933              	.LASF123:
 4934 08e3 6F66665F 		.ascii	"off_name\000"
 4934      6E616D65 
 4934      00
 4935              	.LASF172:
 4936 08ec 63685468 		.ascii	"chThdGetSelfX\000"
 4936      64476574 
 4936      53656C66 
 4936      5800
 4937              	.LASF16:
 4938 08fa 75696E74 		.ascii	"uint8_t\000"
 4938      385F7400 
 4939              	.LASF39:
 4940 0902 666C6167 		.ascii	"flags\000"
 4940      7300
 4941              	.LASF157:
 4942 0908 6669666F 		.ascii	"fifo_list\000"
ARM GAS  /tmp/ccYFEdb7.s 			page 95


 4942      5F6C6973 
 4942      7400
 4943              	.LASF101:
 4944 0912 77746F62 		.ascii	"wtobjp\000"
 4944      6A7000
 4945              	.LASF162:
 4946 0919 6368436F 		.ascii	"chCondWaitTimeout\000"
 4946      6E645761 
 4946      69745469 
 4946      6D656F75 
 4946      7400
 4947              	.LASF49:
 4948 092b 74687265 		.ascii	"threads_list_t\000"
 4948      6164735F 
 4948      6C697374 
 4948      5F7400
 4949              	.LASF125:
 4950 093a 6F66665F 		.ascii	"off_state\000"
 4950      73746174 
 4950      6500
 4951              	.LASF183:
 4952 0944 63685363 		.ascii	"chSchGoSleepTimeoutS\000"
 4952      68476F53 
 4952      6C656570 
 4952      54696D65 
 4952      6F757453 
 4953              	.LASF175:
 4954 0959 63685379 		.ascii	"chSysUnlock\000"
 4954      73556E6C 
 4954      6F636B00 
 4955              	.LASF158:
 4956 0965 6F626A65 		.ascii	"objects_factory_t\000"
 4956      6374735F 
 4956      66616374 
 4956      6F72795F 
 4956      7400
 4957              	.LASF184:
 4958 0977 63684D74 		.ascii	"chMtxLockS\000"
 4958      784C6F63 
 4958      6B5300
 4959              	.LASF194:
 4960 0982 71756575 		.ascii	"queue_prio_insert\000"
 4960      655F7072 
 4960      696F5F69 
 4960      6E736572 
 4960      7400
 4961              	.LASF126:
 4962 0994 6F66665F 		.ascii	"off_flags\000"
 4962      666C6167 
 4962      7300
 4963              	.LASF44:
 4964 099e 6D74786C 		.ascii	"mtxlist\000"
 4964      69737400 
 4965              	.LASF96:
 4966 09a6 6D5F6372 		.ascii	"m_crit_thd\000"
 4966      69745F74 
 4966      686400
ARM GAS  /tmp/ccYFEdb7.s 			page 96


 4967              	.LASF137:
 4968 09b1 6E657874 		.ascii	"nextmem\000"
 4968      6D656D00 
 4969              		.ident	"GCC: (GNU Tools for ARM Embedded Processors 6-2017-q2-update) 6.3.1 20170620 (release) [AR
ARM GAS  /tmp/ccYFEdb7.s 			page 97


DEFINED SYMBOLS
                            *ABS*:0000000000000000 chcond.c
     /tmp/ccYFEdb7.s:18     .text.queue_prio_insert:0000000000000000 $t
     /tmp/ccYFEdb7.s:24     .text.queue_prio_insert:0000000000000000 queue_prio_insert
     /tmp/ccYFEdb7.s:69     .text.chCondObjectInit:0000000000000000 $t
     /tmp/ccYFEdb7.s:76     .text.chCondObjectInit:0000000000000000 chCondObjectInit
     /tmp/ccYFEdb7.s:99     .text.chCondSignal:0000000000000000 $t
     /tmp/ccYFEdb7.s:106    .text.chCondSignal:0000000000000000 chCondSignal
     /tmp/ccYFEdb7.s:213    .text.chCondSignalI:0000000000000000 $t
     /tmp/ccYFEdb7.s:220    .text.chCondSignalI:0000000000000000 chCondSignalI
     /tmp/ccYFEdb7.s:267    .text.chCondBroadcastI:0000000000000000 $t
     /tmp/ccYFEdb7.s:274    .text.chCondBroadcastI:0000000000000000 chCondBroadcastI
     /tmp/ccYFEdb7.s:326    .text.chCondBroadcast:0000000000000000 $t
     /tmp/ccYFEdb7.s:333    .text.chCondBroadcast:0000000000000000 chCondBroadcast
     /tmp/ccYFEdb7.s:413    .text.chCondWaitS:0000000000000000 $t
     /tmp/ccYFEdb7.s:420    .text.chCondWaitS:0000000000000000 chCondWaitS
     /tmp/ccYFEdb7.s:479    .text.chCondWaitS:000000000000002c $d
     /tmp/ccYFEdb7.s:484    .text.chCondWait:0000000000000000 $t
     /tmp/ccYFEdb7.s:491    .text.chCondWait:0000000000000000 chCondWait
     /tmp/ccYFEdb7.s:572    .text.chCondWaitTimeoutS:0000000000000000 $t
     /tmp/ccYFEdb7.s:579    .text.chCondWaitTimeoutS:0000000000000000 chCondWaitTimeoutS
     /tmp/ccYFEdb7.s:654    .text.chCondWaitTimeoutS:0000000000000034 $d
     /tmp/ccYFEdb7.s:659    .text.chCondWaitTimeout:0000000000000000 $t
     /tmp/ccYFEdb7.s:666    .text.chCondWaitTimeout:0000000000000000 chCondWaitTimeout
                     .debug_frame:0000000000000010 $d

UNDEFINED SYMBOLS
_stats_start_measure_crit_thd
chSchWakeupS
_stats_stop_measure_crit_thd
chSchReadyI
chSchRescheduleS
chMtxUnlockS
chSchGoSleepS
chMtxLockS
ch
chSchGoSleepTimeoutS
