ARM GAS  /tmp/ccYFEdb7.s 			page 1


   1              		.cpu cortex-m7
   2              		.eabi_attribute 27, 1
   3              		.eabi_attribute 28, 1
   4              		.eabi_attribute 20, 1
   5              		.eabi_attribute 21, 1
   6              		.eabi_attribute 23, 3
   7              		.eabi_attribute 24, 1
   8              		.eabi_attribute 25, 1
   9              		.eabi_attribute 26, 1
  10              		.eabi_attribute 30, 4
  11              		.eabi_attribute 34, 1
  12              		.eabi_attribute 18, 4
  13              		.file	"chcond.c"
  14              		.text
  15              	.Ltext0:
  16              		.cfi_sections	.debug_frame
  17              		.section	.text.queue_prio_insert,"ax",%progbits
  18              		.align	1
  19              		.syntax unified
  20              		.thumb
  21              		.thumb_func
  22              		.fpu fpv4-sp-d16
  23              		.type	queue_prio_insert, %function
  24              	queue_prio_insert:
  25              	.LFB183:
  26              		.file 1 "../../modules/ChibiOS/os/rt/include/chschd.h"
  27              		.loc 1 586 0
  28              		.cfi_startproc
  29              		@ args = 0, pretend = 0, frame = 0
  30              		@ frame_needed = 0, uses_anonymous_args = 0
  31              	.LVL0:
  32 0000 0B46     		mov	r3, r1
  33 0002 10B5     		push	{r4, lr}
  34              		.cfi_def_cfa_offset 8
  35              		.cfi_offset 4, -8
  36              		.cfi_offset 14, -4
  37              	.LVL1:
  38              	.L3:
  39              		.loc 1 590 0 discriminator 2
  40 0004 1B68     		ldr	r3, [r3]
  41              	.LVL2:
  42              		.loc 1 591 0 discriminator 2
  43 0006 9942     		cmp	r1, r3
  44 0008 05D1     		bne	.L2
  45              	.L4:
  46              		.loc 1 593 0
  47 000a 5A68     		ldr	r2, [r3, #4]
  48              		.loc 1 592 0
  49 000c 0360     		str	r3, [r0]
  50              		.loc 1 593 0
  51 000e 4260     		str	r2, [r0, #4]
  52              		.loc 1 594 0
  53 0010 1060     		str	r0, [r2]
  54              		.loc 1 595 0
  55 0012 5860     		str	r0, [r3, #4]
  56              		.loc 1 596 0
  57 0014 10BD     		pop	{r4, pc}
ARM GAS  /tmp/ccYFEdb7.s 			page 2


  58              	.L2:
  59              		.loc 1 591 0 discriminator 1
  60 0016 9C68     		ldr	r4, [r3, #8]
  61 0018 8268     		ldr	r2, [r0, #8]
  62 001a 9442     		cmp	r4, r2
  63 001c F2D2     		bcs	.L3
  64 001e F4E7     		b	.L4
  65              		.cfi_endproc
  66              	.LFE183:
  67              		.size	queue_prio_insert, .-queue_prio_insert
  68              		.section	.text.chCondObjectInit,"ax",%progbits
  69              		.align	1
  70              		.global	chCondObjectInit
  71              		.syntax unified
  72              		.thumb
  73              		.thumb_func
  74              		.fpu fpv4-sp-d16
  75              		.type	chCondObjectInit, %function
  76              	chCondObjectInit:
  77              	.LFB301:
  78              		.file 2 "../../modules/ChibiOS/os/rt/src/chcond.c"
  79              		.loc 2 75 0
  80              		.cfi_startproc
  81              		@ args = 0, pretend = 0, frame = 0
  82              		@ frame_needed = 0, uses_anonymous_args = 0
  83              		@ link register save eliminated.
  84              	.LVL3:
  85              	.LBB39:
  86              	.LBB40:
  87              		.loc 1 539 0
  88 0000 0060     		str	r0, [r0]
  89              		.loc 1 540 0
  90 0002 4060     		str	r0, [r0, #4]
  91              	.LVL4:
  92 0004 7047     		bx	lr
  93              	.LBE40:
  94              	.LBE39:
  95              		.cfi_endproc
  96              	.LFE301:
  97              		.size	chCondObjectInit, .-chCondObjectInit
  98              		.section	.text.chCondSignal,"ax",%progbits
  99              		.align	1
 100              		.global	chCondSignal
 101              		.syntax unified
 102              		.thumb
 103              		.thumb_func
 104              		.fpu fpv4-sp-d16
 105              		.type	chCondSignal, %function
 106              	chCondSignal:
 107              	.LFB302:
 108              		.loc 2 89 0
 109              		.cfi_startproc
 110              		@ args = 0, pretend = 0, frame = 0
 111              		@ frame_needed = 0, uses_anonymous_args = 0
 112              	.LVL5:
 113 0000 10B5     		push	{r4, lr}
 114              		.cfi_def_cfa_offset 8
ARM GAS  /tmp/ccYFEdb7.s 			page 3


 115              		.cfi_offset 4, -8
 116              		.cfi_offset 14, -4
 117              	.LBB55:
 118              	.LBB56:
 119              	.LBB57:
 120              	.LBB58:
 121              	.LBB59:
 122              		.file 3 "../../modules/ChibiOS/os/common/ext/ARM/CMSIS/Core/Include/cmsis_gcc.h"
 123              		.loc 3 493 0
 124 0002 2023     		movs	r3, #32
 125              	.LBE59:
 126              	.LBE58:
 127              	.LBE57:
 128              	.LBE56:
 129              	.LBE55:
 130              		.loc 2 89 0
 131 0004 0446     		mov	r4, r0
 132              	.LBB64:
 133              	.LBB63:
 134              	.LBB62:
 135              	.LBB61:
 136              	.LBB60:
 137              		.loc 3 493 0
 138              		.syntax unified
 139              	@ 493 "../../modules/ChibiOS/os/common/ext/ARM/CMSIS/Core/Include/cmsis_gcc.h" 1
 140 0006 83F31188 		MSR basepri, r3
 141              	@ 0 "" 2
 142              	.LVL6:
 143              		.thumb
 144              		.syntax unified
 145              	.LBE60:
 146              	.LBE61:
 147              	.LBE62:
 148              		.file 4 "../../modules/ChibiOS/os/rt/include/chsys.h"
 149              		.loc 4 356 0
 150 000a FFF7FEFF 		bl	_stats_start_measure_crit_thd
 151              	.LVL7:
 152              	.LBE63:
 153              	.LBE64:
 154              	.LBB65:
 155              	.LBB66:
 156              		.loc 1 566 0
 157 000e 2068     		ldr	r0, [r4]
 158              	.LVL8:
 159              	.LBE66:
 160              	.LBE65:
 161              		.loc 2 94 0
 162 0010 8442     		cmp	r4, r0
 163 0012 05D0     		beq	.L9
 164              	.LVL9:
 165              	.LBB67:
 166              	.LBB68:
 167              		.loc 1 609 0
 168 0014 0368     		ldr	r3, [r0]
 169              	.LBE68:
 170              	.LBE67:
 171              		.loc 2 95 0
ARM GAS  /tmp/ccYFEdb7.s 			page 4


 172 0016 0021     		movs	r1, #0
 173              	.LBB70:
 174              	.LBB69:
 175              		.loc 1 609 0
 176 0018 2360     		str	r3, [r4]
 177              		.loc 1 610 0
 178 001a 5C60     		str	r4, [r3, #4]
 179              	.LVL10:
 180              	.LBE69:
 181              	.LBE70:
 182              		.loc 2 95 0
 183 001c FFF7FEFF 		bl	chSchWakeupS
 184              	.LVL11:
 185              	.L9:
 186              	.LBB71:
 187              	.LBB72:
 188              		.loc 4 368 0
 189 0020 FFF7FEFF 		bl	_stats_stop_measure_crit_thd
 190              	.LVL12:
 191              	.LBB73:
 192              	.LBB74:
 193              	.LBB75:
 194              		.loc 3 493 0
 195 0024 0023     		movs	r3, #0
 196              		.syntax unified
 197              	@ 493 "../../modules/ChibiOS/os/common/ext/ARM/CMSIS/Core/Include/cmsis_gcc.h" 1
 198 0026 83F31188 		MSR basepri, r3
 199              	@ 0 "" 2
 200              	.LVL13:
 201              		.thumb
 202              		.syntax unified
 203 002a 10BD     		pop	{r4, pc}
 204              	.LBE75:
 205              	.LBE74:
 206              	.LBE73:
 207              	.LBE72:
 208              	.LBE71:
 209              		.cfi_endproc
 210              	.LFE302:
 211              		.size	chCondSignal, .-chCondSignal
 212              		.section	.text.chCondSignalI,"ax",%progbits
 213              		.align	1
 214              		.global	chCondSignalI
 215              		.syntax unified
 216              		.thumb
 217              		.thumb_func
 218              		.fpu fpv4-sp-d16
 219              		.type	chCondSignalI, %function
 220              	chCondSignalI:
 221              	.LFB303:
 222              		.loc 2 111 0
 223              		.cfi_startproc
 224              		@ args = 0, pretend = 0, frame = 0
 225              		@ frame_needed = 0, uses_anonymous_args = 0
 226              		@ link register save eliminated.
 227              	.LVL14:
 228              	.LBB76:
ARM GAS  /tmp/ccYFEdb7.s 			page 5


 229              	.LBB77:
 230              		.loc 1 566 0
 231 0000 0368     		ldr	r3, [r0]
 232              	.LVL15:
 233              	.LBE77:
 234              	.LBE76:
 235              		.loc 2 116 0
 236 0002 9842     		cmp	r0, r3
 237 0004 07D0     		beq	.L10
 238              	.LVL16:
 239              	.LBB78:
 240              	.LBB79:
 241              	.LBB80:
 242              		.loc 1 609 0
 243 0006 1A68     		ldr	r2, [r3]
 244 0008 0260     		str	r2, [r0]
 245              		.loc 1 610 0
 246 000a 5060     		str	r0, [r2, #4]
 247              	.LVL17:
 248              	.LBE80:
 249              	.LBE79:
 250              		.loc 2 118 0
 251 000c 0022     		movs	r2, #0
 252              		.loc 2 119 0
 253 000e 1846     		mov	r0, r3
 254              	.LVL18:
 255              		.loc 2 118 0
 256 0010 5A62     		str	r2, [r3, #36]
 257              		.loc 2 119 0
 258 0012 FFF7FEBF 		b	chSchReadyI
 259              	.LVL19:
 260              	.L10:
 261 0016 7047     		bx	lr
 262              	.LBE78:
 263              		.cfi_endproc
 264              	.LFE303:
 265              		.size	chCondSignalI, .-chCondSignalI
 266              		.section	.text.chCondBroadcastI,"ax",%progbits
 267              		.align	1
 268              		.global	chCondBroadcastI
 269              		.syntax unified
 270              		.thumb
 271              		.thumb_func
 272              		.fpu fpv4-sp-d16
 273              		.type	chCondBroadcastI, %function
 274              	chCondBroadcastI:
 275              	.LFB305:
 276              		.loc 2 149 0
 277              		.cfi_startproc
 278              		@ args = 0, pretend = 0, frame = 0
 279              		@ frame_needed = 0, uses_anonymous_args = 0
 280              	.LVL20:
 281 0000 38B5     		push	{r3, r4, r5, lr}
 282              		.cfi_def_cfa_offset 16
 283              		.cfi_offset 3, -16
 284              		.cfi_offset 4, -12
 285              		.cfi_offset 5, -8
ARM GAS  /tmp/ccYFEdb7.s 			page 6


 286              		.cfi_offset 14, -4
 287              		.loc 2 149 0
 288 0002 0446     		mov	r4, r0
 289              		.loc 2 158 0
 290 0004 6FF00105 		mvn	r5, #1
 291              	.LVL21:
 292              	.L13:
 293              	.LBB81:
 294              	.LBB82:
 295              		.loc 1 566 0
 296 0008 2068     		ldr	r0, [r4]
 297              	.LVL22:
 298              	.LBE82:
 299              	.LBE81:
 300              		.loc 2 157 0
 301 000a 8442     		cmp	r4, r0
 302 000c 00D1     		bne	.L14
 303              		.loc 2 160 0
 304 000e 38BD     		pop	{r3, r4, r5, pc}
 305              	.LVL23:
 306              	.L14:
 307              	.LBB83:
 308              	.LBB84:
 309              		.loc 1 609 0
 310 0010 0368     		ldr	r3, [r0]
 311 0012 2360     		str	r3, [r4]
 312              		.loc 1 610 0
 313 0014 5C60     		str	r4, [r3, #4]
 314              	.LVL24:
 315              	.LBE84:
 316              	.LBE83:
 317              		.loc 2 158 0
 318 0016 FFF7FEFF 		bl	chSchReadyI
 319              	.LVL25:
 320 001a 4562     		str	r5, [r0, #36]
 321 001c F4E7     		b	.L13
 322              		.cfi_endproc
 323              	.LFE305:
 324              		.size	chCondBroadcastI, .-chCondBroadcastI
 325              		.section	.text.chCondBroadcast,"ax",%progbits
 326              		.align	1
 327              		.global	chCondBroadcast
 328              		.syntax unified
 329              		.thumb
 330              		.thumb_func
 331              		.fpu fpv4-sp-d16
 332              		.type	chCondBroadcast, %function
 333              	chCondBroadcast:
 334              	.LFB304:
 335              		.loc 2 130 0
 336              		.cfi_startproc
 337              		@ args = 0, pretend = 0, frame = 0
 338              		@ frame_needed = 0, uses_anonymous_args = 0
 339              	.LVL26:
 340 0000 10B5     		push	{r4, lr}
 341              		.cfi_def_cfa_offset 8
 342              		.cfi_offset 4, -8
ARM GAS  /tmp/ccYFEdb7.s 			page 7


 343              		.cfi_offset 14, -4
 344              	.LBB95:
 345              	.LBB96:
 346              	.LBB97:
 347              	.LBB98:
 348              	.LBB99:
 349              		.loc 3 493 0
 350 0002 2023     		movs	r3, #32
 351              	.LBE99:
 352              	.LBE98:
 353              	.LBE97:
 354              	.LBE96:
 355              	.LBE95:
 356              		.loc 2 130 0
 357 0004 0446     		mov	r4, r0
 358              	.LBB104:
 359              	.LBB103:
 360              	.LBB102:
 361              	.LBB101:
 362              	.LBB100:
 363              		.loc 3 493 0
 364              		.syntax unified
 365              	@ 493 "../../modules/ChibiOS/os/common/ext/ARM/CMSIS/Core/Include/cmsis_gcc.h" 1
 366 0006 83F31188 		MSR basepri, r3
 367              	@ 0 "" 2
 368              	.LVL27:
 369              		.thumb
 370              		.syntax unified
 371              	.LBE100:
 372              	.LBE101:
 373              	.LBE102:
 374              		.loc 4 356 0
 375 000a FFF7FEFF 		bl	_stats_start_measure_crit_thd
 376              	.LVL28:
 377              	.LBE103:
 378              	.LBE104:
 379              		.loc 2 133 0
 380 000e 2046     		mov	r0, r4
 381 0010 FFF7FEFF 		bl	chCondBroadcastI
 382              	.LVL29:
 383              		.loc 2 134 0
 384 0014 FFF7FEFF 		bl	chSchRescheduleS
 385              	.LVL30:
 386              	.LBB105:
 387              	.LBB106:
 388              		.loc 4 368 0
 389 0018 FFF7FEFF 		bl	_stats_stop_measure_crit_thd
 390              	.LVL31:
 391              	.LBB107:
 392              	.LBB108:
 393              	.LBB109:
 394              		.loc 3 493 0
 395 001c 0023     		movs	r3, #0
 396              		.syntax unified
 397              	@ 493 "../../modules/ChibiOS/os/common/ext/ARM/CMSIS/Core/Include/cmsis_gcc.h" 1
 398 001e 83F31188 		MSR basepri, r3
 399              	@ 0 "" 2
ARM GAS  /tmp/ccYFEdb7.s 			page 8


 400              	.LVL32:
 401              		.thumb
 402              		.syntax unified
 403 0022 10BD     		pop	{r4, pc}
 404              	.LBE109:
 405              	.LBE108:
 406              	.LBE107:
 407              	.LBE106:
 408              	.LBE105:
 409              		.cfi_endproc
 410              	.LFE304:
 411              		.size	chCondBroadcast, .-chCondBroadcast
 412              		.section	.text.chCondWaitS,"ax",%progbits
 413              		.align	1
 414              		.global	chCondWaitS
 415              		.syntax unified
 416              		.thumb
 417              		.thumb_func
 418              		.fpu fpv4-sp-d16
 419              		.type	chCondWaitS, %function
 420              	chCondWaitS:
 421              	.LFB307:
 422              		.loc 2 205 0
 423              		.cfi_startproc
 424              		@ args = 0, pretend = 0, frame = 0
 425              		@ frame_needed = 0, uses_anonymous_args = 0
 426              	.LVL33:
 427              		.loc 2 206 0
 428 0000 0A4B     		ldr	r3, .L17
 429              		.loc 2 205 0
 430 0002 70B5     		push	{r4, r5, r6, lr}
 431              		.cfi_def_cfa_offset 16
 432              		.cfi_offset 4, -16
 433              		.cfi_offset 5, -12
 434              		.cfi_offset 6, -8
 435              		.cfi_offset 14, -4
 436              		.loc 2 206 0
 437 0004 9C69     		ldr	r4, [r3, #24]
 438              	.LVL34:
 439              		.loc 2 205 0
 440 0006 0646     		mov	r6, r0
 441              	.LBB110:
 442              	.LBB111:
 443              		.file 5 "../../modules/ChibiOS/os/rt/include/chmtx.h"
 444              		.loc 5 161 0
 445 0008 A56B     		ldr	r5, [r4, #56]
 446              	.LBE111:
 447              	.LBE110:
 448              		.loc 2 215 0
 449 000a 2846     		mov	r0, r5
 450              	.LVL35:
 451 000c FFF7FEFF 		bl	chMtxUnlockS
 452              	.LVL36:
 453              		.loc 2 220 0
 454 0010 3146     		mov	r1, r6
 455              		.loc 2 219 0
 456 0012 6662     		str	r6, [r4, #36]
ARM GAS  /tmp/ccYFEdb7.s 			page 9


 457              		.loc 2 220 0
 458 0014 2046     		mov	r0, r4
 459 0016 FFF7FEFF 		bl	queue_prio_insert
 460              	.LVL37:
 461              		.loc 2 221 0
 462 001a 0720     		movs	r0, #7
 463 001c FFF7FEFF 		bl	chSchGoSleepS
 464              	.LVL38:
 465              		.loc 2 222 0
 466 0020 646A     		ldr	r4, [r4, #36]
 467              	.LVL39:
 468              		.loc 2 223 0
 469 0022 2846     		mov	r0, r5
 470 0024 FFF7FEFF 		bl	chMtxLockS
 471              	.LVL40:
 472              		.loc 2 226 0
 473 0028 2046     		mov	r0, r4
 474 002a 70BD     		pop	{r4, r5, r6, pc}
 475              	.LVL41:
 476              	.L18:
 477              		.align	2
 478              	.L17:
 479 002c 00000000 		.word	ch
 480              		.cfi_endproc
 481              	.LFE307:
 482              		.size	chCondWaitS, .-chCondWaitS
 483              		.section	.text.chCondWait,"ax",%progbits
 484              		.align	1
 485              		.global	chCondWait
 486              		.syntax unified
 487              		.thumb
 488              		.thumb_func
 489              		.fpu fpv4-sp-d16
 490              		.type	chCondWait, %function
 491              	chCondWait:
 492              	.LFB306:
 493              		.loc 2 179 0
 494              		.cfi_startproc
 495              		@ args = 0, pretend = 0, frame = 0
 496              		@ frame_needed = 0, uses_anonymous_args = 0
 497              	.LVL42:
 498 0000 10B5     		push	{r4, lr}
 499              		.cfi_def_cfa_offset 8
 500              		.cfi_offset 4, -8
 501              		.cfi_offset 14, -4
 502              	.LBB122:
 503              	.LBB123:
 504              	.LBB124:
 505              	.LBB125:
 506              	.LBB126:
 507              		.loc 3 493 0
 508 0002 2023     		movs	r3, #32
 509              	.LBE126:
 510              	.LBE125:
 511              	.LBE124:
 512              	.LBE123:
 513              	.LBE122:
ARM GAS  /tmp/ccYFEdb7.s 			page 10


 514              		.loc 2 179 0
 515 0004 0446     		mov	r4, r0
 516              	.LBB131:
 517              	.LBB130:
 518              	.LBB129:
 519              	.LBB128:
 520              	.LBB127:
 521              		.loc 3 493 0
 522              		.syntax unified
 523              	@ 493 "../../modules/ChibiOS/os/common/ext/ARM/CMSIS/Core/Include/cmsis_gcc.h" 1
 524 0006 83F31188 		MSR basepri, r3
 525              	@ 0 "" 2
 526              	.LVL43:
 527              		.thumb
 528              		.syntax unified
 529              	.LBE127:
 530              	.LBE128:
 531              	.LBE129:
 532              		.loc 4 356 0
 533 000a FFF7FEFF 		bl	_stats_start_measure_crit_thd
 534              	.LVL44:
 535              	.LBE130:
 536              	.LBE131:
 537              		.loc 2 183 0
 538 000e 2046     		mov	r0, r4
 539 0010 FFF7FEFF 		bl	chCondWaitS
 540              	.LVL45:
 541 0014 0446     		mov	r4, r0
 542              	.LVL46:
 543              	.LBB132:
 544              	.LBB133:
 545              		.loc 4 368 0
 546 0016 FFF7FEFF 		bl	_stats_stop_measure_crit_thd
 547              	.LVL47:
 548              	.LBB134:
 549              	.LBB135:
 550              	.LBB136:
 551              		.loc 3 493 0
 552 001a 0023     		movs	r3, #0
 553              		.syntax unified
 554              	@ 493 "../../modules/ChibiOS/os/common/ext/ARM/CMSIS/Core/Include/cmsis_gcc.h" 1
 555 001c 83F31188 		MSR basepri, r3
 556              	@ 0 "" 2
 557              	.LVL48:
 558              		.thumb
 559              		.syntax unified
 560              	.LBE136:
 561              	.LBE135:
 562              	.LBE134:
 563              	.LBE133:
 564              	.LBE132:
 565              		.loc 2 186 0
 566 0020 2046     		mov	r0, r4
 567 0022 10BD     		pop	{r4, pc}
 568              		.cfi_endproc
 569              	.LFE306:
 570              		.size	chCondWait, .-chCondWait
ARM GAS  /tmp/ccYFEdb7.s 			page 11


 571              		.section	.text.chCondWaitTimeoutS,"ax",%progbits
 572              		.align	1
 573              		.global	chCondWaitTimeoutS
 574              		.syntax unified
 575              		.thumb
 576              		.thumb_func
 577              		.fpu fpv4-sp-d16
 578              		.type	chCondWaitTimeoutS, %function
 579              	chCondWaitTimeoutS:
 580              	.LFB309:
 581              		.loc 2 295 0
 582              		.cfi_startproc
 583              		@ args = 0, pretend = 0, frame = 0
 584              		@ frame_needed = 0, uses_anonymous_args = 0
 585              	.LVL49:
 586 0000 F8B5     		push	{r3, r4, r5, r6, r7, lr}
 587              		.cfi_def_cfa_offset 24
 588              		.cfi_offset 3, -24
 589              		.cfi_offset 4, -20
 590              		.cfi_offset 5, -16
 591              		.cfi_offset 6, -12
 592              		.cfi_offset 7, -8
 593              		.cfi_offset 14, -4
 594              	.LBB137:
 595              	.LBB138:
 596              	.LBB139:
 597              	.LBB140:
 598              		.file 6 "../../modules/ChibiOS/os/rt/include/chthreads.h"
 599              		.loc 6 274 0
 600 0002 0C4E     		ldr	r6, .L25
 601              	.LBE140:
 602              	.LBE139:
 603              	.LBE138:
 604              	.LBE137:
 605              		.loc 2 295 0
 606 0004 0446     		mov	r4, r0
 607 0006 0F46     		mov	r7, r1
 608              	.LBB142:
 609              	.LBB141:
 610              		.loc 5 161 0
 611 0008 B369     		ldr	r3, [r6, #24]
 612 000a 9D6B     		ldr	r5, [r3, #56]
 613              	.LBE141:
 614              	.LBE142:
 615              		.loc 2 304 0
 616 000c 2846     		mov	r0, r5
 617              	.LVL50:
 618 000e FFF7FEFF 		bl	chMtxUnlockS
 619              	.LVL51:
 620              		.loc 2 308 0
 621 0012 B069     		ldr	r0, [r6, #24]
 622              		.loc 2 309 0
 623 0014 2146     		mov	r1, r4
 624              		.loc 2 308 0
 625 0016 4462     		str	r4, [r0, #36]
 626              		.loc 2 309 0
 627 0018 FFF7FEFF 		bl	queue_prio_insert
ARM GAS  /tmp/ccYFEdb7.s 			page 12


 628              	.LVL52:
 629              		.loc 2 310 0
 630 001c 3946     		mov	r1, r7
 631 001e 0720     		movs	r0, #7
 632 0020 FFF7FEFF 		bl	chSchGoSleepTimeoutS
 633              	.LVL53:
 634              		.loc 2 311 0
 635 0024 431C     		adds	r3, r0, #1
 636              		.loc 2 310 0
 637 0026 0446     		mov	r4, r0
 638              	.LVL54:
 639              		.loc 2 311 0
 640 0028 02D0     		beq	.L20
 641              		.loc 2 312 0
 642 002a 2846     		mov	r0, r5
 643              	.LVL55:
 644 002c FFF7FEFF 		bl	chMtxLockS
 645              	.LVL56:
 646              	.L20:
 647              		.loc 2 316 0
 648 0030 2046     		mov	r0, r4
 649 0032 F8BD     		pop	{r3, r4, r5, r6, r7, pc}
 650              	.LVL57:
 651              	.L26:
 652              		.align	2
 653              	.L25:
 654 0034 00000000 		.word	ch
 655              		.cfi_endproc
 656              	.LFE309:
 657              		.size	chCondWaitTimeoutS, .-chCondWaitTimeoutS
 658              		.section	.text.chCondWaitTimeout,"ax",%progbits
 659              		.align	1
 660              		.global	chCondWaitTimeout
 661              		.syntax unified
 662              		.thumb
 663              		.thumb_func
 664              		.fpu fpv4-sp-d16
 665              		.type	chCondWaitTimeout, %function
 666              	chCondWaitTimeout:
 667              	.LFB308:
 668              		.loc 2 257 0
 669              		.cfi_startproc
 670              		@ args = 0, pretend = 0, frame = 0
 671              		@ frame_needed = 0, uses_anonymous_args = 0
 672              	.LVL58:
 673 0000 38B5     		push	{r3, r4, r5, lr}
 674              		.cfi_def_cfa_offset 16
 675              		.cfi_offset 3, -16
 676              		.cfi_offset 4, -12
 677              		.cfi_offset 5, -8
 678              		.cfi_offset 14, -4
 679              		.loc 2 257 0
 680 0002 0446     		mov	r4, r0
 681 0004 0D46     		mov	r5, r1
 682              	.LBB153:
 683              	.LBB154:
 684              	.LBB155:
ARM GAS  /tmp/ccYFEdb7.s 			page 13


 685              	.LBB156:
 686              	.LBB157:
 687              		.loc 3 493 0
 688 0006 2023     		movs	r3, #32
 689              		.syntax unified
 690              	@ 493 "../../modules/ChibiOS/os/common/ext/ARM/CMSIS/Core/Include/cmsis_gcc.h" 1
 691 0008 83F31188 		MSR basepri, r3
 692              	@ 0 "" 2
 693              	.LVL59:
 694              		.thumb
 695              		.syntax unified
 696              	.LBE157:
 697              	.LBE156:
 698              	.LBE155:
 699              		.loc 4 356 0
 700 000c FFF7FEFF 		bl	_stats_start_measure_crit_thd
 701              	.LVL60:
 702              	.LBE154:
 703              	.LBE153:
 704              		.loc 2 261 0
 705 0010 2946     		mov	r1, r5
 706 0012 2046     		mov	r0, r4
 707 0014 FFF7FEFF 		bl	chCondWaitTimeoutS
 708              	.LVL61:
 709 0018 0446     		mov	r4, r0
 710              	.LVL62:
 711              	.LBB158:
 712              	.LBB159:
 713              		.loc 4 368 0
 714 001a FFF7FEFF 		bl	_stats_stop_measure_crit_thd
 715              	.LVL63:
 716              	.LBB160:
 717              	.LBB161:
 718              	.LBB162:
 719              		.loc 3 493 0
 720 001e 0023     		movs	r3, #0
 721              		.syntax unified
 722              	@ 493 "../../modules/ChibiOS/os/common/ext/ARM/CMSIS/Core/Include/cmsis_gcc.h" 1
 723 0020 83F31188 		MSR basepri, r3
 724              	@ 0 "" 2
 725              	.LVL64:
 726              		.thumb
 727              		.syntax unified
 728              	.LBE162:
 729              	.LBE161:
 730              	.LBE160:
 731              	.LBE159:
 732              	.LBE158:
 733              		.loc 2 265 0
 734 0024 2046     		mov	r0, r4
 735 0026 38BD     		pop	{r3, r4, r5, pc}
 736              		.cfi_endproc
 737              	.LFE308:
 738              		.size	chCondWaitTimeout, .-chCondWaitTimeout
 739              		.text
 740              	.Letext0:
 741              		.file 7 "/opt/gcc-arm-none-eabi-6-2017-q2-update/lib/gcc/arm-none-eabi/6.3.1/include/stddef.h"
ARM GAS  /tmp/ccYFEdb7.s 			page 14


 742              		.file 8 "/opt/gcc-arm-none-eabi-6-2017-q2-update/arm-none-eabi/include/machine/_default_types.h"
 743              		.file 9 "/opt/gcc-arm-none-eabi-6-2017-q2-update/arm-none-eabi/include/sys/_stdint.h"
 744              		.file 10 "../../modules/ChibiOS/os/common/ports/ARMCMx/compilers/GCC/chtypes.h"
 745              		.file 11 "../../modules/ChibiOS/os/rt/include/chsystypes.h"
 746              		.file 12 "../../modules/ChibiOS/os/rt/include/chtime.h"
 747              		.file 13 "../../modules/ChibiOS/os/common/ext/ARM/CMSIS/Core/Include/core_cm7.h"
 748              		.file 14 "../../modules/ChibiOS/os/common/ext/ST/STM32F7xx/system_stm32f7xx.h"
 749              		.file 15 "../../modules/ChibiOS/os/common/ports/ARMCMx/chcore.h"
 750              		.file 16 "../../modules/ChibiOS/os/common/ports/ARMCMx/chcore_v7m.h"
 751              		.file 17 "../../modules/ChibiOS/os/rt/include/chtm.h"
 752              		.file 18 "../../modules/ChibiOS/os/rt/include/chstats.h"
 753              		.file 19 "../../modules/ChibiOS/os/rt/include/chsem.h"
 754              		.file 20 "../../modules/ChibiOS/os/rt/include/chregistry.h"
 755              		.file 21 "../../modules/ChibiOS/os/rt/include/chcond.h"
 756              		.file 22 "../../modules/ChibiOS/os/oslib/include/chmemcore.h"
 757              		.file 23 "../../modules/ChibiOS/os/oslib/include/chmempools.h"
 758              		.file 24 "../../modules/ChibiOS/os/oslib/include/chfactory.h"