ARM GAS  /tmp/cc1XssKN.s 			page 1


   1              		.cpu cortex-m7
   2              		.eabi_attribute 27, 1
   3              		.eabi_attribute 28, 1
   4              		.eabi_attribute 20, 1
   5              		.eabi_attribute 21, 1
   6              		.eabi_attribute 23, 3
   7              		.eabi_attribute 24, 1
   8              		.eabi_attribute 25, 1
   9              		.eabi_attribute 26, 1
  10              		.eabi_attribute 30, 4
  11              		.eabi_attribute 34, 1
  12              		.eabi_attribute 18, 4
  13              		.file	"chfactory.c"
  14              		.text
  15              	.Ltext0:
  16              		.cfi_sections	.debug_frame
  17              		.section	.text.chCoreAllocAlignedI,"ax",%progbits
  18              		.align	1
  19              		.syntax unified
  20              		.thumb
  21              		.thumb_func
  22              		.fpu fpv4-sp-d16
  23              		.type	chCoreAllocAlignedI, %function
  24              	chCoreAllocAlignedI:
  25              	.LFB261:
  26              		.file 1 "../../modules/ChibiOS/os/oslib/include/chmemcore.h"
  27              		.loc 1 135 0
  28              		.cfi_startproc
  29              		@ args = 0, pretend = 0, frame = 0
  30              		@ frame_needed = 0, uses_anonymous_args = 0
  31              		@ link register save eliminated.
  32              	.LVL0:
  33              		.loc 1 137 0
  34 0000 0022     		movs	r2, #0
  35 0002 FFF7FEBF 		b	chCoreAllocAlignedWithOffsetI
  36              	.LVL1:
  37              		.cfi_endproc
  38              	.LFE261:
  39              		.size	chCoreAllocAlignedI, .-chCoreAllocAlignedI
  40              		.section	.text.dyn_list_find,"ax",%progbits
  41              		.align	1
  42              		.syntax unified
  43              		.thumb
  44              		.thumb_func
  45              		.fpu fpv4-sp-d16
  46              		.type	dyn_list_find, %function
  47              	dyn_list_find:
  48              	.LFB302:
  49              		.file 2 "../../modules/ChibiOS/os/oslib/src/chfactory.c"
  50              		.loc 2 91 0
  51              		.cfi_startproc
  52              		@ args = 0, pretend = 0, frame = 0
  53              		@ frame_needed = 0, uses_anonymous_args = 0
  54              	.LVL2:
  55 0000 70B5     		push	{r4, r5, r6, lr}
  56              		.cfi_def_cfa_offset 16
  57              		.cfi_offset 4, -16
ARM GAS  /tmp/cc1XssKN.s 			page 2


  58              		.cfi_offset 5, -12
  59              		.cfi_offset 6, -8
  60              		.cfi_offset 14, -4
  61              		.loc 2 91 0
  62 0002 0646     		mov	r6, r0
  63 0004 0D46     		mov	r5, r1
  64              		.loc 2 92 0
  65 0006 0C68     		ldr	r4, [r1]
  66              	.LVL3:
  67              	.L3:
  68              		.loc 2 94 0
  69 0008 AC42     		cmp	r4, r5
  70 000a 02D1     		bne	.L5
  71              		.loc 2 101 0
  72 000c 0024     		movs	r4, #0
  73              	.LVL4:
  74              	.L2:
  75              		.loc 2 102 0
  76 000e 2046     		mov	r0, r4
  77 0010 70BD     		pop	{r4, r5, r6, pc}
  78              	.LVL5:
  79              	.L5:
  80              		.loc 2 95 0
  81 0012 0822     		movs	r2, #8
  82 0014 3146     		mov	r1, r6
  83 0016 A018     		adds	r0, r4, r2
  84 0018 FFF7FEFF 		bl	strncmp
  85              	.LVL6:
  86 001c 0028     		cmp	r0, #0
  87 001e F6D0     		beq	.L2
  88              		.loc 2 98 0
  89 0020 2468     		ldr	r4, [r4]
  90              	.LVL7:
  91 0022 F1E7     		b	.L3
  92              		.cfi_endproc
  93              	.LFE302:
  94              		.size	dyn_list_find, .-dyn_list_find
  95              		.section	.text.dyn_find_object,"ax",%progbits
  96              		.align	1
  97              		.syntax unified
  98              		.thumb
  99              		.thumb_func
 100              		.fpu fpv4-sp-d16
 101              		.type	dyn_find_object, %function
 102              	dyn_find_object:
 103              	.LFB308:
 104              		.loc 2 221 0
 105              		.cfi_startproc
 106              		@ args = 0, pretend = 0, frame = 0
 107              		@ frame_needed = 0, uses_anonymous_args = 0
 108              	.LVL8:
 109 0000 08B5     		push	{r3, lr}
 110              		.cfi_def_cfa_offset 8
 111              		.cfi_offset 3, -8
 112              		.cfi_offset 14, -4
 113              		.loc 2 227 0
 114 0002 FFF7FEFF 		bl	dyn_list_find
ARM GAS  /tmp/cc1XssKN.s 			page 3


 115              	.LVL9:
 116              		.loc 2 228 0
 117 0006 10B1     		cbz	r0, .L9
 118              		.loc 2 230 0
 119 0008 4368     		ldr	r3, [r0, #4]
 120 000a 0133     		adds	r3, r3, #1
 121 000c 4360     		str	r3, [r0, #4]
 122              	.L9:
 123              		.loc 2 234 0
 124 000e 08BD     		pop	{r3, pc}
 125              		.cfi_endproc
 126              	.LFE308:
 127              		.size	dyn_find_object, .-dyn_find_object
 128              		.section	.text.dyn_create_object_heap,"ax",%progbits
 129              		.align	1
 130              		.syntax unified
 131              		.thumb
 132              		.thumb_func
 133              		.fpu fpv4-sp-d16
 134              		.type	dyn_create_object_heap, %function
 135              	dyn_create_object_heap:
 136              	.LFB304:
 137              		.loc 2 126 0
 138              		.cfi_startproc
 139              		@ args = 0, pretend = 0, frame = 0
 140              		@ frame_needed = 0, uses_anonymous_args = 0
 141              	.LVL10:
 142 0000 70B5     		push	{r4, r5, r6, lr}
 143              		.cfi_def_cfa_offset 16
 144              		.cfi_offset 4, -16
 145              		.cfi_offset 5, -12
 146              		.cfi_offset 6, -8
 147              		.cfi_offset 14, -4
 148              		.loc 2 126 0
 149 0002 0646     		mov	r6, r0
 150 0004 0D46     		mov	r5, r1
 151 0006 1446     		mov	r4, r2
 152              		.loc 2 132 0
 153 0008 FFF7FEFF 		bl	dyn_list_find
 154              	.LVL11:
 155              		.loc 2 133 0
 156 000c 88B9     		cbnz	r0, .L16
 157              	.LVL12:
 158              	.LBB16:
 159              	.LBB17:
 160              	.LBB18:
 161              	.LBB19:
 162              		.file 3 "../../modules/ChibiOS/os/oslib/include/chmemheaps.h"
 163              		.loc 3 156 0
 164 000e 2146     		mov	r1, r4
 165 0010 0822     		movs	r2, #8
 166 0012 FFF7FEFF 		bl	chHeapAllocAligned
 167              	.LVL13:
 168              	.LBE19:
 169              	.LBE18:
 170              		.loc 2 141 0
 171 0016 0446     		mov	r4, r0
ARM GAS  /tmp/cc1XssKN.s 			page 4


 172              	.LVL14:
 173 0018 48B1     		cbz	r0, .L17
 174              		.loc 2 146 0
 175 001a 0822     		movs	r2, #8
 176 001c 3146     		mov	r1, r6
 177 001e 1044     		add	r0, r0, r2
 178 0020 FFF7FEFF 		bl	strncpy
 179              	.LVL15:
 180              		.loc 2 148 0
 181 0024 0123     		movs	r3, #1
 182 0026 6360     		str	r3, [r4, #4]
 183              		.loc 2 149 0
 184 0028 2B68     		ldr	r3, [r5]
 185 002a 2360     		str	r3, [r4]
 186              		.loc 2 152 0
 187 002c 2C60     		str	r4, [r5]
 188              	.L17:
 189              		.loc 2 142 0
 190 002e 2046     		mov	r0, r4
 191              	.LBE17:
 192              	.LBE16:
 193              		.loc 2 155 0
 194 0030 70BD     		pop	{r4, r5, r6, pc}
 195              	.LVL16:
 196              	.L16:
 197              		.loc 2 134 0
 198 0032 0020     		movs	r0, #0
 199              	.LVL17:
 200 0034 70BD     		pop	{r4, r5, r6, pc}
 201              		.cfi_endproc
 202              	.LFE304:
 203              		.size	dyn_create_object_heap, .-dyn_create_object_heap
 204              		.section	.text.dyn_release_object_heap,"ax",%progbits
 205              		.align	1
 206              		.syntax unified
 207              		.thumb
 208              		.thumb_func
 209              		.fpu fpv4-sp-d16
 210              		.type	dyn_release_object_heap, %function
 211              	dyn_release_object_heap:
 212              	.LFB305:
 213              		.loc 2 158 0
 214              		.cfi_startproc
 215              		@ args = 0, pretend = 0, frame = 0
 216              		@ frame_needed = 0, uses_anonymous_args = 0
 217              		@ link register save eliminated.
 218              	.LVL18:
 219              		.loc 2 164 0
 220 0000 4368     		ldr	r3, [r0, #4]
 221 0002 013B     		subs	r3, r3, #1
 222 0004 4360     		str	r3, [r0, #4]
 223              		.loc 2 165 0
 224 0006 6BB9     		cbnz	r3, .L25
 225 0008 0A46     		mov	r2, r1
 226              	.L21:
 227              	.LVL19:
 228              	.LBB24:
ARM GAS  /tmp/cc1XssKN.s 			page 5


 229              	.LBB25:
 230              	.LBB26:
 231              	.LBB27:
 232              		.loc 2 109 0
 233 000a 1368     		ldr	r3, [r2]
 234 000c 9942     		cmp	r1, r3
 235 000e 01D1     		bne	.L23
 236              		.loc 2 120 0
 237 0010 0020     		movs	r0, #0
 238              	.LVL20:
 239 0012 03E0     		b	.L22
 240              	.LVL21:
 241              	.L23:
 242              		.loc 2 110 0
 243 0014 9842     		cmp	r0, r3
 244 0016 03D1     		bne	.L24
 245              		.loc 2 112 0
 246 0018 0368     		ldr	r3, [r0]
 247 001a 1360     		str	r3, [r2]
 248              	.LVL22:
 249              	.L22:
 250              	.LBE27:
 251              	.LBE26:
 252              		.loc 2 167 0
 253 001c FFF7FEBF 		b	chHeapFree
 254              	.LVL23:
 255              	.L24:
 256              	.LBB29:
 257              	.LBB28:
 258              		.loc 2 110 0
 259 0020 1A46     		mov	r2, r3
 260              	.LVL24:
 261 0022 F2E7     		b	.L21
 262              	.L25:
 263 0024 7047     		bx	lr
 264              	.LBE28:
 265              	.LBE29:
 266              	.LBE25:
 267              	.LBE24:
 268              		.cfi_endproc
 269              	.LFE305:
 270              		.size	dyn_release_object_heap, .-dyn_release_object_heap
 271              		.section	.text._factory_init,"ax",%progbits
 272              		.align	1
 273              		.global	_factory_init
 274              		.syntax unified
 275              		.thumb
 276              		.thumb_func
 277              		.fpu fpv4-sp-d16
 278              		.type	_factory_init, %function
 279              	_factory_init:
 280              	.LFB309:
 281              		.loc 2 245 0
 282              		.cfi_startproc
 283              		@ args = 0, pretend = 0, frame = 0
 284              		@ frame_needed = 0, uses_anonymous_args = 0
 285 0000 38B5     		push	{r3, r4, r5, lr}
ARM GAS  /tmp/cc1XssKN.s 			page 6


 286              		.cfi_def_cfa_offset 16
 287              		.cfi_offset 3, -16
 288              		.cfi_offset 4, -12
 289              		.cfi_offset 5, -8
 290              		.cfi_offset 14, -4
 291              		.loc 2 248 0
 292 0002 114C     		ldr	r4, .L27
 293              	.LBB44:
 294              	.LBB45:
 295              		.file 4 "../../modules/ChibiOS/os/oslib/include/chmempools.h"
 296              		.loc 4 193 0
 297 0004 114D     		ldr	r5, .L27+4
 298              	.LBE45:
 299              	.LBE44:
 300              		.loc 2 248 0
 301 0006 2046     		mov	r0, r4
 302 0008 FFF7FEFF 		bl	chMtxObjectInit
 303              	.LVL25:
 304              	.LBB48:
 305              	.LBB49:
 306              		.loc 2 88 0
 307 000c 04F11403 		add	r3, r4, #20
 308              	.LBE49:
 309              	.LBE48:
 310              	.LBB51:
 311              	.LBB46:
 312              		.loc 4 193 0
 313 0010 0422     		movs	r2, #4
 314 0012 1421     		movs	r1, #20
 315              	.LBE46:
 316              	.LBE51:
 317              	.LBB52:
 318              	.LBB50:
 319              		.loc 2 88 0
 320 0014 6361     		str	r3, [r4, #20]
 321              	.LVL26:
 322              	.LBE50:
 323              	.LBE52:
 324              	.LBB53:
 325              	.LBB47:
 326              		.loc 4 193 0
 327 0016 04F11800 		add	r0, r4, #24
 328 001a 2B46     		mov	r3, r5
 329 001c FFF7FEFF 		bl	chPoolObjectInitAligned
 330              	.LVL27:
 331              	.LBE47:
 332              	.LBE53:
 333              	.LBB54:
 334              	.LBB55:
 335              		.loc 2 88 0
 336 0020 04F12803 		add	r3, r4, #40
 337              	.LBE55:
 338              	.LBE54:
 339              	.LBB57:
 340              	.LBB58:
 341              		.loc 4 193 0
 342 0024 0422     		movs	r2, #4
ARM GAS  /tmp/cc1XssKN.s 			page 7


 343 0026 1C21     		movs	r1, #28
 344              	.LBE58:
 345              	.LBE57:
 346              	.LBB61:
 347              	.LBB56:
 348              		.loc 2 88 0
 349 0028 A362     		str	r3, [r4, #40]
 350              	.LVL28:
 351              	.LBE56:
 352              	.LBE61:
 353              	.LBB62:
 354              	.LBB63:
 355 002a 04F12C03 		add	r3, r4, #44
 356              	.LBE63:
 357              	.LBE62:
 358              	.LBB65:
 359              	.LBB59:
 360              		.loc 4 193 0
 361 002e 04F13000 		add	r0, r4, #48
 362              	.LBE59:
 363              	.LBE65:
 364              	.LBB66:
 365              	.LBB64:
 366              		.loc 2 88 0
 367 0032 E362     		str	r3, [r4, #44]
 368              	.LVL29:
 369              	.LBE64:
 370              	.LBE66:
 371              	.LBB67:
 372              	.LBB60:
 373              		.loc 4 193 0
 374 0034 2B46     		mov	r3, r5
 375 0036 FFF7FEFF 		bl	chPoolObjectInitAligned
 376              	.LVL30:
 377              	.LBE60:
 378              	.LBE67:
 379              	.LBB68:
 380              	.LBB69:
 381              		.loc 2 88 0
 382 003a 04F14003 		add	r3, r4, #64
 383 003e 2364     		str	r3, [r4, #64]
 384              	.LVL31:
 385              	.LBE69:
 386              	.LBE68:
 387              	.LBB70:
 388              	.LBB71:
 389 0040 04F14403 		add	r3, r4, #68
 390 0044 6364     		str	r3, [r4, #68]
 391              	.LVL32:
 392 0046 38BD     		pop	{r3, r4, r5, pc}
 393              	.L28:
 394              		.align	2
 395              	.L27:
 396 0048 00000000 		.word	.LANCHOR0
 397 004c 00000000 		.word	chCoreAllocAlignedI
 398              	.LBE71:
 399              	.LBE70:
ARM GAS  /tmp/cc1XssKN.s 			page 8


 400              		.cfi_endproc
 401              	.LFE309:
 402              		.size	_factory_init, .-_factory_init
 403              		.section	.text.chFactoryRegisterObject,"ax",%progbits
 404              		.align	1
 405              		.global	chFactoryRegisterObject
 406              		.syntax unified
 407              		.thumb
 408              		.thumb_func
 409              		.fpu fpv4-sp-d16
 410              		.type	chFactoryRegisterObject, %function
 411              	chFactoryRegisterObject:
 412              	.LFB310:
 413              		.loc 2 295 0
 414              		.cfi_startproc
 415              		@ args = 0, pretend = 0, frame = 0
 416              		@ frame_needed = 0, uses_anonymous_args = 0
 417              	.LVL33:
 418 0000 F8B5     		push	{r3, r4, r5, r6, r7, lr}
 419              		.cfi_def_cfa_offset 24
 420              		.cfi_offset 3, -24
 421              		.cfi_offset 4, -20
 422              		.cfi_offset 5, -16
 423              		.cfi_offset 6, -12
 424              		.cfi_offset 7, -8
 425              		.cfi_offset 14, -4
 426              		.loc 2 298 0
 427 0002 124D     		ldr	r5, .L35
 428              		.loc 2 295 0
 429 0004 0646     		mov	r6, r0
 430 0006 0F46     		mov	r7, r1
 431              		.loc 2 298 0
 432 0008 2846     		mov	r0, r5
 433              	.LVL34:
 434 000a FFF7FEFF 		bl	chMtxLock
 435              	.LVL35:
 436              	.LBB76:
 437              	.LBB77:
 438              		.loc 2 181 0
 439 000e 05F11401 		add	r1, r5, #20
 440 0012 3046     		mov	r0, r6
 441 0014 FFF7FEFF 		bl	dyn_list_find
 442              	.LVL36:
 443              		.loc 2 182 0
 444 0018 A8B9     		cbnz	r0, .L31
 445              	.LVL37:
 446              	.LBB78:
 447              	.LBB79:
 448              		.loc 2 187 0
 449 001a 05F11800 		add	r0, r5, #24
 450              	.LVL38:
 451 001e FFF7FEFF 		bl	chPoolAlloc
 452              	.LVL39:
 453              		.loc 2 188 0
 454 0022 0446     		mov	r4, r0
 455 0024 50B1     		cbz	r0, .L30
 456              		.loc 2 195 0
ARM GAS  /tmp/cc1XssKN.s 			page 9


 457 0026 0822     		movs	r2, #8
 458 0028 3146     		mov	r1, r6
 459 002a 1044     		add	r0, r0, r2
 460              	.LVL40:
 461 002c FFF7FEFF 		bl	strncpy
 462              	.LVL41:
 463              		.loc 2 197 0
 464 0030 0123     		movs	r3, #1
 465 0032 6360     		str	r3, [r4, #4]
 466              		.loc 2 198 0
 467 0034 6B69     		ldr	r3, [r5, #20]
 468 0036 2360     		str	r3, [r4]
 469              		.loc 2 201 0
 470 0038 6C61     		str	r4, [r5, #20]
 471              	.LVL42:
 472              	.LBE79:
 473              	.LBE78:
 474              	.LBE77:
 475              	.LBE76:
 476              		.loc 2 305 0
 477 003a 2761     		str	r7, [r4, #16]
 478              	.LVL43:
 479              	.L30:
 480              		.loc 2 308 0
 481 003c 0348     		ldr	r0, .L35
 482 003e FFF7FEFF 		bl	chMtxUnlock
 483              	.LVL44:
 484              		.loc 2 311 0
 485 0042 2046     		mov	r0, r4
 486 0044 F8BD     		pop	{r3, r4, r5, r6, r7, pc}
 487              	.LVL45:
 488              	.L31:
 489              	.LBB81:
 490              	.LBB80:
 491              		.loc 2 182 0
 492 0046 0024     		movs	r4, #0
 493 0048 F8E7     		b	.L30
 494              	.L36:
 495 004a 00BF     		.align	2
 496              	.L35:
 497 004c 00000000 		.word	.LANCHOR0
 498              	.LBE80:
 499              	.LBE81:
 500              		.cfi_endproc
 501              	.LFE310:
 502              		.size	chFactoryRegisterObject, .-chFactoryRegisterObject
 503              		.section	.text.chFactoryFindObject,"ax",%progbits
 504              		.align	1
 505              		.global	chFactoryFindObject
 506              		.syntax unified
 507              		.thumb
 508              		.thumb_func
 509              		.fpu fpv4-sp-d16
 510              		.type	chFactoryFindObject, %function
 511              	chFactoryFindObject:
 512              	.LFB311:
 513              		.loc 2 326 0
ARM GAS  /tmp/cc1XssKN.s 			page 10


 514              		.cfi_startproc
 515              		@ args = 0, pretend = 0, frame = 0
 516              		@ frame_needed = 0, uses_anonymous_args = 0
 517              	.LVL46:
 518 0000 38B5     		push	{r3, r4, r5, lr}
 519              		.cfi_def_cfa_offset 16
 520              		.cfi_offset 3, -16
 521              		.cfi_offset 4, -12
 522              		.cfi_offset 5, -8
 523              		.cfi_offset 14, -4
 524              		.loc 2 329 0
 525 0002 084C     		ldr	r4, .L38
 526              		.loc 2 326 0
 527 0004 0546     		mov	r5, r0
 528              		.loc 2 329 0
 529 0006 2046     		mov	r0, r4
 530              	.LVL47:
 531 0008 FFF7FEFF 		bl	chMtxLock
 532              	.LVL48:
 533              		.loc 2 331 0
 534 000c 04F11401 		add	r1, r4, #20
 535 0010 2846     		mov	r0, r5
 536 0012 FFF7FEFF 		bl	dyn_find_object
 537              	.LVL49:
 538 0016 0546     		mov	r5, r0
 539              	.LVL50:
 540              		.loc 2 333 0
 541 0018 2046     		mov	r0, r4
 542              	.LVL51:
 543 001a FFF7FEFF 		bl	chMtxUnlock
 544              	.LVL52:
 545              		.loc 2 336 0
 546 001e 2846     		mov	r0, r5
 547 0020 38BD     		pop	{r3, r4, r5, pc}
 548              	.LVL53:
 549              	.L39:
 550 0022 00BF     		.align	2
 551              	.L38:
 552 0024 00000000 		.word	.LANCHOR0
 553              		.cfi_endproc
 554              	.LFE311:
 555              		.size	chFactoryFindObject, .-chFactoryFindObject
 556              		.section	.text.chFactoryFindObjectByPointer,"ax",%progbits
 557              		.align	1
 558              		.global	chFactoryFindObjectByPointer
 559              		.syntax unified
 560              		.thumb
 561              		.thumb_func
 562              		.fpu fpv4-sp-d16
 563              		.type	chFactoryFindObjectByPointer, %function
 564              	chFactoryFindObjectByPointer:
 565              	.LFB312:
 566              		.loc 2 351 0
 567              		.cfi_startproc
 568              		@ args = 0, pretend = 0, frame = 0
 569              		@ frame_needed = 0, uses_anonymous_args = 0
 570              	.LVL54:
ARM GAS  /tmp/cc1XssKN.s 			page 11


 571 0000 70B5     		push	{r4, r5, r6, lr}
 572              		.cfi_def_cfa_offset 16
 573              		.cfi_offset 4, -16
 574              		.cfi_offset 5, -12
 575              		.cfi_offset 6, -8
 576              		.cfi_offset 14, -4
 577              		.loc 2 352 0
 578 0002 0D4D     		ldr	r5, .L45
 579              		.loc 2 351 0
 580 0004 0646     		mov	r6, r0
 581              		.loc 2 352 0
 582 0006 6C69     		ldr	r4, [r5, #20]
 583              	.LVL55:
 584              		.loc 2 354 0
 585 0008 2846     		mov	r0, r5
 586              	.LVL56:
 587              		.loc 2 356 0
 588 000a 1435     		adds	r5, r5, #20
 589              		.loc 2 354 0
 590 000c FFF7FEFF 		bl	chMtxLock
 591              	.LVL57:
 592              	.L41:
 593              		.loc 2 356 0
 594 0010 AC42     		cmp	r4, r5
 595 0012 04D1     		bne	.L44
 596              		.loc 2 367 0
 597 0014 0848     		ldr	r0, .L45
 598              		.loc 2 369 0
 599 0016 0024     		movs	r4, #0
 600              	.LVL58:
 601              		.loc 2 367 0
 602 0018 FFF7FEFF 		bl	chMtxUnlock
 603              	.LVL59:
 604              		.loc 2 369 0
 605 001c 08E0     		b	.L40
 606              	.LVL60:
 607              	.L44:
 608              		.loc 2 357 0
 609 001e 2369     		ldr	r3, [r4, #16]
 610 0020 B342     		cmp	r3, r6
 611 0022 07D1     		bne	.L42
 612              		.loc 2 358 0
 613 0024 6368     		ldr	r3, [r4, #4]
 614              		.loc 2 360 0
 615 0026 0448     		ldr	r0, .L45
 616              		.loc 2 358 0
 617 0028 0133     		adds	r3, r3, #1
 618 002a 6360     		str	r3, [r4, #4]
 619              		.loc 2 360 0
 620 002c FFF7FEFF 		bl	chMtxUnlock
 621              	.LVL61:
 622              	.L40:
 623              		.loc 2 370 0
 624 0030 2046     		mov	r0, r4
 625 0032 70BD     		pop	{r4, r5, r6, pc}
 626              	.LVL62:
 627              	.L42:
ARM GAS  /tmp/cc1XssKN.s 			page 12


 628              		.loc 2 364 0
 629 0034 2468     		ldr	r4, [r4]
 630              	.LVL63:
 631 0036 EBE7     		b	.L41
 632              	.L46:
 633              		.align	2
 634              	.L45:
 635 0038 00000000 		.word	.LANCHOR0
 636              		.cfi_endproc
 637              	.LFE312:
 638              		.size	chFactoryFindObjectByPointer, .-chFactoryFindObjectByPointer
 639              		.section	.text.chFactoryReleaseObject,"ax",%progbits
 640              		.align	1
 641              		.global	chFactoryReleaseObject
 642              		.syntax unified
 643              		.thumb
 644              		.thumb_func
 645              		.fpu fpv4-sp-d16
 646              		.type	chFactoryReleaseObject, %function
 647              	chFactoryReleaseObject:
 648              	.LFB313:
 649              		.loc 2 384 0
 650              		.cfi_startproc
 651              		@ args = 0, pretend = 0, frame = 0
 652              		@ frame_needed = 0, uses_anonymous_args = 0
 653              	.LVL64:
 654 0000 10B5     		push	{r4, lr}
 655              		.cfi_def_cfa_offset 8
 656              		.cfi_offset 4, -8
 657              		.cfi_offset 14, -4
 658              		.loc 2 384 0
 659 0002 0446     		mov	r4, r0
 660              		.loc 2 386 0
 661 0004 0E48     		ldr	r0, .L54
 662              	.LVL65:
 663 0006 FFF7FEFF 		bl	chMtxLock
 664              	.LVL66:
 665              	.LBB88:
 666              	.LBB89:
 667              		.loc 2 213 0
 668 000a 6368     		ldr	r3, [r4, #4]
 669 000c 013B     		subs	r3, r3, #1
 670 000e 6360     		str	r3, [r4, #4]
 671              		.loc 2 214 0
 672 0010 73B9     		cbnz	r3, .L49
 673 0012 0C4B     		ldr	r3, .L54+4
 674 0014 1846     		mov	r0, r3
 675              	.L50:
 676              	.LVL67:
 677              	.LBB90:
 678              	.LBB91:
 679              	.LBB92:
 680              	.LBB93:
 681              		.loc 2 109 0
 682 0016 1A68     		ldr	r2, [r3]
 683 0018 8242     		cmp	r2, r0
 684 001a 01D1     		bne	.L52
ARM GAS  /tmp/cc1XssKN.s 			page 13


 685              		.loc 2 120 0
 686 001c 0021     		movs	r1, #0
 687 001e 04E0     		b	.L51
 688              	.L52:
 689              		.loc 2 110 0
 690 0020 9442     		cmp	r4, r2
 691              	.LBE93:
 692              	.LBE92:
 693              	.LBE91:
 694              	.LBE90:
 695              	.LBE89:
 696              	.LBE88:
 697              		.loc 2 388 0
 698 0022 2146     		mov	r1, r4
 699              	.LBB104:
 700              	.LBB102:
 701              	.LBB100:
 702              	.LBB98:
 703              	.LBB96:
 704              	.LBB94:
 705              		.loc 2 110 0
 706 0024 09D1     		bne	.L53
 707              	.LVL68:
 708              		.loc 2 112 0
 709 0026 2268     		ldr	r2, [r4]
 710 0028 1A60     		str	r2, [r3]
 711              	.LVL69:
 712              	.L51:
 713              	.LBE94:
 714              	.LBE96:
 715              		.loc 2 216 0
 716 002a 0748     		ldr	r0, .L54+8
 717 002c FFF7FEFF 		bl	chPoolFree
 718              	.LVL70:
 719              	.L49:
 720              	.LBE98:
 721              	.LBE100:
 722              	.LBE102:
 723              	.LBE104:
 724              		.loc 2 392 0
 725 0030 0348     		ldr	r0, .L54
 726              		.loc 2 393 0
 727 0032 BDE81040 		pop	{r4, lr}
 728              		.cfi_remember_state
 729              		.cfi_restore 14
 730              		.cfi_restore 4
 731              		.cfi_def_cfa_offset 0
 732              	.LVL71:
 733              		.loc 2 392 0
 734 0036 FFF7FEBF 		b	chMtxUnlock
 735              	.LVL72:
 736              	.L53:
 737              		.cfi_restore_state
 738              	.LBB105:
 739              	.LBB103:
 740              	.LBB101:
 741              	.LBB99:
ARM GAS  /tmp/cc1XssKN.s 			page 14


 742              	.LBB97:
 743              	.LBB95:
 744              		.loc 2 110 0
 745 003a 1346     		mov	r3, r2
 746              	.LVL73:
 747 003c EBE7     		b	.L50
 748              	.L55:
 749 003e 00BF     		.align	2
 750              	.L54:
 751 0040 00000000 		.word	.LANCHOR0
 752 0044 14000000 		.word	.LANCHOR0+20
 753 0048 18000000 		.word	.LANCHOR0+24
 754              	.LBE95:
 755              	.LBE97:
 756              	.LBE99:
 757              	.LBE101:
 758              	.LBE103:
 759              	.LBE105:
 760              		.cfi_endproc
 761              	.LFE313:
 762              		.size	chFactoryReleaseObject, .-chFactoryReleaseObject
 763              		.section	.text.chFactoryCreateBuffer,"ax",%progbits
 764              		.align	1
 765              		.global	chFactoryCreateBuffer
 766              		.syntax unified
 767              		.thumb
 768              		.thumb_func
 769              		.fpu fpv4-sp-d16
 770              		.type	chFactoryCreateBuffer, %function
 771              	chFactoryCreateBuffer:
 772              	.LFB314:
 773              		.loc 2 412 0
 774              		.cfi_startproc
 775              		@ args = 0, pretend = 0, frame = 0
 776              		@ frame_needed = 0, uses_anonymous_args = 0
 777              	.LVL74:
 778 0000 38B5     		push	{r3, r4, r5, lr}
 779              		.cfi_def_cfa_offset 16
 780              		.cfi_offset 3, -16
 781              		.cfi_offset 4, -12
 782              		.cfi_offset 5, -8
 783              		.cfi_offset 14, -4
 784              		.loc 2 412 0
 785 0002 0446     		mov	r4, r0
 786 0004 0D46     		mov	r5, r1
 787              		.loc 2 415 0
 788 0006 0A48     		ldr	r0, .L61
 789              	.LVL75:
 790 0008 FFF7FEFF 		bl	chMtxLock
 791              	.LVL76:
 792              		.loc 2 417 0
 793 000c 2046     		mov	r0, r4
 794 000e 2A46     		mov	r2, r5
 795 0010 0849     		ldr	r1, .L61+4
 796 0012 FFF7FEFF 		bl	dyn_create_object_heap
 797              	.LVL77:
 798              		.loc 2 420 0
ARM GAS  /tmp/cc1XssKN.s 			page 15


 799 0016 0446     		mov	r4, r0
 800              	.LVL78:
 801 0018 20B1     		cbz	r0, .L57
 802              		.loc 2 422 0
 803 001a 2A46     		mov	r2, r5
 804 001c 0021     		movs	r1, #0
 805 001e 1030     		adds	r0, r0, #16
 806              	.LVL79:
 807 0020 FFF7FEFF 		bl	memset
 808              	.LVL80:
 809              	.L57:
 810              		.loc 2 425 0
 811 0024 0248     		ldr	r0, .L61
 812 0026 FFF7FEFF 		bl	chMtxUnlock
 813              	.LVL81:
 814              		.loc 2 428 0
 815 002a 2046     		mov	r0, r4
 816 002c 38BD     		pop	{r3, r4, r5, pc}
 817              	.LVL82:
 818              	.L62:
 819 002e 00BF     		.align	2
 820              	.L61:
 821 0030 00000000 		.word	.LANCHOR0
 822 0034 28000000 		.word	.LANCHOR0+40
 823              		.cfi_endproc
 824              	.LFE314:
 825              		.size	chFactoryCreateBuffer, .-chFactoryCreateBuffer
 826              		.section	.text.chFactoryFindBuffer,"ax",%progbits
 827              		.align	1
 828              		.global	chFactoryFindBuffer
 829              		.syntax unified
 830              		.thumb
 831              		.thumb_func
 832              		.fpu fpv4-sp-d16
 833              		.type	chFactoryFindBuffer, %function
 834              	chFactoryFindBuffer:
 835              	.LFB315:
 836              		.loc 2 443 0
 837              		.cfi_startproc
 838              		@ args = 0, pretend = 0, frame = 0
 839              		@ frame_needed = 0, uses_anonymous_args = 0
 840              	.LVL83:
 841 0000 38B5     		push	{r3, r4, r5, lr}
 842              		.cfi_def_cfa_offset 16
 843              		.cfi_offset 3, -16
 844              		.cfi_offset 4, -12
 845              		.cfi_offset 5, -8
 846              		.cfi_offset 14, -4
 847              		.loc 2 446 0
 848 0002 084C     		ldr	r4, .L64
 849              		.loc 2 443 0
 850 0004 0546     		mov	r5, r0
 851              		.loc 2 446 0
 852 0006 2046     		mov	r0, r4
 853              	.LVL84:
 854 0008 FFF7FEFF 		bl	chMtxLock
 855              	.LVL85:
ARM GAS  /tmp/cc1XssKN.s 			page 16


 856              		.loc 2 448 0
 857 000c 04F12801 		add	r1, r4, #40
 858 0010 2846     		mov	r0, r5
 859 0012 FFF7FEFF 		bl	dyn_find_object
 860              	.LVL86:
 861 0016 0546     		mov	r5, r0
 862              	.LVL87:
 863              		.loc 2 450 0
 864 0018 2046     		mov	r0, r4
 865              	.LVL88:
 866 001a FFF7FEFF 		bl	chMtxUnlock
 867              	.LVL89:
 868              		.loc 2 453 0
 869 001e 2846     		mov	r0, r5
 870 0020 38BD     		pop	{r3, r4, r5, pc}
 871              	.LVL90:
 872              	.L65:
 873 0022 00BF     		.align	2
 874              	.L64:
 875 0024 00000000 		.word	.LANCHOR0
 876              		.cfi_endproc
 877              	.LFE315:
 878              		.size	chFactoryFindBuffer, .-chFactoryFindBuffer
 879              		.section	.text.chFactoryReleaseBuffer,"ax",%progbits
 880              		.align	1
 881              		.global	chFactoryReleaseBuffer
 882              		.syntax unified
 883              		.thumb
 884              		.thumb_func
 885              		.fpu fpv4-sp-d16
 886              		.type	chFactoryReleaseBuffer, %function
 887              	chFactoryReleaseBuffer:
 888              	.LFB316:
 889              		.loc 2 465 0
 890              		.cfi_startproc
 891              		@ args = 0, pretend = 0, frame = 0
 892              		@ frame_needed = 0, uses_anonymous_args = 0
 893              	.LVL91:
 894 0000 38B5     		push	{r3, r4, r5, lr}
 895              		.cfi_def_cfa_offset 16
 896              		.cfi_offset 3, -16
 897              		.cfi_offset 4, -12
 898              		.cfi_offset 5, -8
 899              		.cfi_offset 14, -4
 900              		.loc 2 467 0
 901 0002 074C     		ldr	r4, .L67
 902              		.loc 2 465 0
 903 0004 0546     		mov	r5, r0
 904              		.loc 2 467 0
 905 0006 2046     		mov	r0, r4
 906              	.LVL92:
 907 0008 FFF7FEFF 		bl	chMtxLock
 908              	.LVL93:
 909              		.loc 2 469 0
 910 000c 2846     		mov	r0, r5
 911 000e 04F12801 		add	r1, r4, #40
 912 0012 FFF7FEFF 		bl	dyn_release_object_heap
ARM GAS  /tmp/cc1XssKN.s 			page 17


 913              	.LVL94:
 914              		.loc 2 471 0
 915 0016 2046     		mov	r0, r4
 916              		.loc 2 472 0
 917 0018 BDE83840 		pop	{r3, r4, r5, lr}
 918              		.cfi_restore 14
 919              		.cfi_restore 5
 920              		.cfi_restore 4
 921              		.cfi_restore 3
 922              		.cfi_def_cfa_offset 0
 923              	.LVL95:
 924              		.loc 2 471 0
 925 001c FFF7FEBF 		b	chMtxUnlock
 926              	.LVL96:
 927              	.L68:
 928              		.align	2
 929              	.L67:
 930 0020 00000000 		.word	.LANCHOR0
 931              		.cfi_endproc
 932              	.LFE316:
 933              		.size	chFactoryReleaseBuffer, .-chFactoryReleaseBuffer
 934              		.section	.text.chFactoryCreateSemaphore,"ax",%progbits
 935              		.align	1
 936              		.global	chFactoryCreateSemaphore
 937              		.syntax unified
 938              		.thumb
 939              		.thumb_func
 940              		.fpu fpv4-sp-d16
 941              		.type	chFactoryCreateSemaphore, %function
 942              	chFactoryCreateSemaphore:
 943              	.LFB317:
 944              		.loc 2 491 0
 945              		.cfi_startproc
 946              		@ args = 0, pretend = 0, frame = 0
 947              		@ frame_needed = 0, uses_anonymous_args = 0
 948              	.LVL97:
 949 0000 F8B5     		push	{r3, r4, r5, r6, r7, lr}
 950              		.cfi_def_cfa_offset 24
 951              		.cfi_offset 3, -24
 952              		.cfi_offset 4, -20
 953              		.cfi_offset 5, -16
 954              		.cfi_offset 6, -12
 955              		.cfi_offset 7, -8
 956              		.cfi_offset 14, -4
 957              		.loc 2 494 0
 958 0002 144D     		ldr	r5, .L75
 959              		.loc 2 491 0
 960 0004 0646     		mov	r6, r0
 961 0006 0F46     		mov	r7, r1
 962              		.loc 2 494 0
 963 0008 2846     		mov	r0, r5
 964              	.LVL98:
 965 000a FFF7FEFF 		bl	chMtxLock
 966              	.LVL99:
 967              	.LBB110:
 968              	.LBB111:
 969              		.loc 2 181 0
ARM GAS  /tmp/cc1XssKN.s 			page 18


 970 000e 05F12C01 		add	r1, r5, #44
 971 0012 3046     		mov	r0, r6
 972 0014 FFF7FEFF 		bl	dyn_list_find
 973              	.LVL100:
 974              		.loc 2 182 0
 975 0018 C8B9     		cbnz	r0, .L71
 976              	.LVL101:
 977              	.LBB112:
 978              	.LBB113:
 979              		.loc 2 187 0
 980 001a 05F13000 		add	r0, r5, #48
 981              	.LVL102:
 982 001e FFF7FEFF 		bl	chPoolAlloc
 983              	.LVL103:
 984              		.loc 2 188 0
 985 0022 0446     		mov	r4, r0
 986 0024 70B1     		cbz	r0, .L70
 987              		.loc 2 195 0
 988 0026 0822     		movs	r2, #8
 989 0028 3146     		mov	r1, r6
 990 002a 1044     		add	r0, r0, r2
 991              	.LVL104:
 992 002c FFF7FEFF 		bl	strncpy
 993              	.LVL105:
 994              		.loc 2 197 0
 995 0030 0123     		movs	r3, #1
 996              	.LBE113:
 997              	.LBE112:
 998              	.LBE111:
 999              	.LBE110:
 1000              		.loc 2 501 0
 1001 0032 3946     		mov	r1, r7
 1002 0034 04F11000 		add	r0, r4, #16
 1003              	.LBB118:
 1004              	.LBB116:
 1005              	.LBB115:
 1006              	.LBB114:
 1007              		.loc 2 197 0
 1008 0038 6360     		str	r3, [r4, #4]
 1009              		.loc 2 198 0
 1010 003a EB6A     		ldr	r3, [r5, #44]
 1011 003c 2360     		str	r3, [r4]
 1012              		.loc 2 201 0
 1013 003e EC62     		str	r4, [r5, #44]
 1014              	.LVL106:
 1015              	.LBE114:
 1016              	.LBE115:
 1017              	.LBE116:
 1018              	.LBE118:
 1019              		.loc 2 501 0
 1020 0040 FFF7FEFF 		bl	chSemObjectInit
 1021              	.LVL107:
 1022              	.L70:
 1023              		.loc 2 504 0
 1024 0044 0348     		ldr	r0, .L75
 1025 0046 FFF7FEFF 		bl	chMtxUnlock
 1026              	.LVL108:
ARM GAS  /tmp/cc1XssKN.s 			page 19


 1027              		.loc 2 507 0
 1028 004a 2046     		mov	r0, r4
 1029 004c F8BD     		pop	{r3, r4, r5, r6, r7, pc}
 1030              	.LVL109:
 1031              	.L71:
 1032              	.LBB119:
 1033              	.LBB117:
 1034              		.loc 2 182 0
 1035 004e 0024     		movs	r4, #0
 1036 0050 F8E7     		b	.L70
 1037              	.L76:
 1038 0052 00BF     		.align	2
 1039              	.L75:
 1040 0054 00000000 		.word	.LANCHOR0
 1041              	.LBE117:
 1042              	.LBE119:
 1043              		.cfi_endproc
 1044              	.LFE317:
 1045              		.size	chFactoryCreateSemaphore, .-chFactoryCreateSemaphore
 1046              		.section	.text.chFactoryFindSemaphore,"ax",%progbits
 1047              		.align	1
 1048              		.global	chFactoryFindSemaphore
 1049              		.syntax unified
 1050              		.thumb
 1051              		.thumb_func
 1052              		.fpu fpv4-sp-d16
 1053              		.type	chFactoryFindSemaphore, %function
 1054              	chFactoryFindSemaphore:
 1055              	.LFB318:
 1056              		.loc 2 522 0
 1057              		.cfi_startproc
 1058              		@ args = 0, pretend = 0, frame = 0
 1059              		@ frame_needed = 0, uses_anonymous_args = 0
 1060              	.LVL110:
 1061 0000 38B5     		push	{r3, r4, r5, lr}
 1062              		.cfi_def_cfa_offset 16
 1063              		.cfi_offset 3, -16
 1064              		.cfi_offset 4, -12
 1065              		.cfi_offset 5, -8
 1066              		.cfi_offset 14, -4
 1067              		.loc 2 525 0
 1068 0002 084C     		ldr	r4, .L78
 1069              		.loc 2 522 0
 1070 0004 0546     		mov	r5, r0
 1071              		.loc 2 525 0
 1072 0006 2046     		mov	r0, r4
 1073              	.LVL111:
 1074 0008 FFF7FEFF 		bl	chMtxLock
 1075              	.LVL112:
 1076              		.loc 2 527 0
 1077 000c 04F12C01 		add	r1, r4, #44
 1078 0010 2846     		mov	r0, r5
 1079 0012 FFF7FEFF 		bl	dyn_find_object
 1080              	.LVL113:
 1081 0016 0546     		mov	r5, r0
 1082              	.LVL114:
 1083              		.loc 2 529 0
ARM GAS  /tmp/cc1XssKN.s 			page 20


 1084 0018 2046     		mov	r0, r4
 1085              	.LVL115:
 1086 001a FFF7FEFF 		bl	chMtxUnlock
 1087              	.LVL116:
 1088              		.loc 2 532 0
 1089 001e 2846     		mov	r0, r5
 1090 0020 38BD     		pop	{r3, r4, r5, pc}
 1091              	.LVL117:
 1092              	.L79:
 1093 0022 00BF     		.align	2
 1094              	.L78:
 1095 0024 00000000 		.word	.LANCHOR0
 1096              		.cfi_endproc
 1097              	.LFE318:
 1098              		.size	chFactoryFindSemaphore, .-chFactoryFindSemaphore
 1099              		.section	.text.chFactoryReleaseSemaphore,"ax",%progbits
 1100              		.align	1
 1101              		.global	chFactoryReleaseSemaphore
 1102              		.syntax unified
 1103              		.thumb
 1104              		.thumb_func
 1105              		.fpu fpv4-sp-d16
 1106              		.type	chFactoryReleaseSemaphore, %function
 1107              	chFactoryReleaseSemaphore:
 1108              	.LFB319:
 1109              		.loc 2 544 0
 1110              		.cfi_startproc
 1111              		@ args = 0, pretend = 0, frame = 0
 1112              		@ frame_needed = 0, uses_anonymous_args = 0
 1113              	.LVL118:
 1114 0000 10B5     		push	{r4, lr}
 1115              		.cfi_def_cfa_offset 8
 1116              		.cfi_offset 4, -8
 1117              		.cfi_offset 14, -4
 1118              		.loc 2 544 0
 1119 0002 0446     		mov	r4, r0
 1120              		.loc 2 546 0
 1121 0004 0E48     		ldr	r0, .L87
 1122              	.LVL119:
 1123 0006 FFF7FEFF 		bl	chMtxLock
 1124              	.LVL120:
 1125              	.LBB126:
 1126              	.LBB127:
 1127              		.loc 2 213 0
 1128 000a 6368     		ldr	r3, [r4, #4]
 1129 000c 013B     		subs	r3, r3, #1
 1130 000e 6360     		str	r3, [r4, #4]
 1131              		.loc 2 214 0
 1132 0010 73B9     		cbnz	r3, .L82
 1133 0012 0C4B     		ldr	r3, .L87+4
 1134 0014 1846     		mov	r0, r3
 1135              	.L83:
 1136              	.LVL121:
 1137              	.LBB128:
 1138              	.LBB129:
 1139              	.LBB130:
 1140              	.LBB131:
ARM GAS  /tmp/cc1XssKN.s 			page 21


 1141              		.loc 2 109 0
 1142 0016 1A68     		ldr	r2, [r3]
 1143 0018 8242     		cmp	r2, r0
 1144 001a 01D1     		bne	.L85
 1145              		.loc 2 120 0
 1146 001c 0021     		movs	r1, #0
 1147 001e 04E0     		b	.L84
 1148              	.L85:
 1149              		.loc 2 110 0
 1150 0020 9442     		cmp	r4, r2
 1151              	.LBE131:
 1152              	.LBE130:
 1153              	.LBE129:
 1154              	.LBE128:
 1155              	.LBE127:
 1156              	.LBE126:
 1157              		.loc 2 548 0
 1158 0022 2146     		mov	r1, r4
 1159              	.LBB142:
 1160              	.LBB140:
 1161              	.LBB138:
 1162              	.LBB136:
 1163              	.LBB134:
 1164              	.LBB132:
 1165              		.loc 2 110 0
 1166 0024 09D1     		bne	.L86
 1167              	.LVL122:
 1168              		.loc 2 112 0
 1169 0026 2268     		ldr	r2, [r4]
 1170 0028 1A60     		str	r2, [r3]
 1171              	.LVL123:
 1172              	.L84:
 1173              	.LBE132:
 1174              	.LBE134:
 1175              		.loc 2 216 0
 1176 002a 0748     		ldr	r0, .L87+8
 1177 002c FFF7FEFF 		bl	chPoolFree
 1178              	.LVL124:
 1179              	.L82:
 1180              	.LBE136:
 1181              	.LBE138:
 1182              	.LBE140:
 1183              	.LBE142:
 1184              		.loc 2 552 0
 1185 0030 0348     		ldr	r0, .L87
 1186              		.loc 2 553 0
 1187 0032 BDE81040 		pop	{r4, lr}
 1188              		.cfi_remember_state
 1189              		.cfi_restore 14
 1190              		.cfi_restore 4
 1191              		.cfi_def_cfa_offset 0
 1192              	.LVL125:
 1193              		.loc 2 552 0
 1194 0036 FFF7FEBF 		b	chMtxUnlock
 1195              	.LVL126:
 1196              	.L86:
 1197              		.cfi_restore_state
ARM GAS  /tmp/cc1XssKN.s 			page 22


 1198              	.LBB143:
 1199              	.LBB141:
 1200              	.LBB139:
 1201              	.LBB137:
 1202              	.LBB135:
 1203              	.LBB133:
 1204              		.loc 2 110 0
 1205 003a 1346     		mov	r3, r2
 1206              	.LVL127:
 1207 003c EBE7     		b	.L83
 1208              	.L88:
 1209 003e 00BF     		.align	2
 1210              	.L87:
 1211 0040 00000000 		.word	.LANCHOR0
 1212 0044 2C000000 		.word	.LANCHOR0+44
 1213 0048 30000000 		.word	.LANCHOR0+48
 1214              	.LBE133:
 1215              	.LBE135:
 1216              	.LBE137:
 1217              	.LBE139:
 1218              	.LBE141:
 1219              	.LBE143:
 1220              		.cfi_endproc
 1221              	.LFE319:
 1222              		.size	chFactoryReleaseSemaphore, .-chFactoryReleaseSemaphore
 1223              		.section	.text.chFactoryCreateMailbox,"ax",%progbits
 1224              		.align	1
 1225              		.global	chFactoryCreateMailbox
 1226              		.syntax unified
 1227              		.thumb
 1228              		.thumb_func
 1229              		.fpu fpv4-sp-d16
 1230              		.type	chFactoryCreateMailbox, %function
 1231              	chFactoryCreateMailbox:
 1232              	.LFB320:
 1233              		.loc 2 572 0
 1234              		.cfi_startproc
 1235              		@ args = 0, pretend = 0, frame = 0
 1236              		@ frame_needed = 0, uses_anonymous_args = 0
 1237              	.LVL128:
 1238 0000 38B5     		push	{r3, r4, r5, lr}
 1239              		.cfi_def_cfa_offset 16
 1240              		.cfi_offset 3, -16
 1241              		.cfi_offset 4, -12
 1242              		.cfi_offset 5, -8
 1243              		.cfi_offset 14, -4
 1244              		.loc 2 572 0
 1245 0002 0D46     		mov	r5, r1
 1246 0004 0446     		mov	r4, r0
 1247              		.loc 2 575 0
 1248 0006 0B48     		ldr	r0, .L94
 1249              	.LVL129:
 1250 0008 FFF7FEFF 		bl	chMtxLock
 1251              	.LVL130:
 1252              		.loc 2 577 0
 1253 000c 05F10E02 		add	r2, r5, #14
 1254 0010 2046     		mov	r0, r4
ARM GAS  /tmp/cc1XssKN.s 			page 23


 1255 0012 0949     		ldr	r1, .L94+4
 1256 0014 9200     		lsls	r2, r2, #2
 1257 0016 FFF7FEFF 		bl	dyn_create_object_heap
 1258              	.LVL131:
 1259              		.loc 2 581 0
 1260 001a 0446     		mov	r4, r0
 1261              	.LVL132:
 1262 001c 28B1     		cbz	r0, .L90
 1263              		.loc 2 583 0
 1264 001e 00F13801 		add	r1, r0, #56
 1265 0022 2A46     		mov	r2, r5
 1266 0024 1030     		adds	r0, r0, #16
 1267              	.LVL133:
 1268 0026 FFF7FEFF 		bl	chMBObjectInit
 1269              	.LVL134:
 1270              	.L90:
 1271              		.loc 2 586 0
 1272 002a 0248     		ldr	r0, .L94
 1273 002c FFF7FEFF 		bl	chMtxUnlock
 1274              	.LVL135:
 1275              		.loc 2 589 0
 1276 0030 2046     		mov	r0, r4
 1277 0032 38BD     		pop	{r3, r4, r5, pc}
 1278              	.LVL136:
 1279              	.L95:
 1280              		.align	2
 1281              	.L94:
 1282 0034 00000000 		.word	.LANCHOR0
 1283 0038 40000000 		.word	.LANCHOR0+64
 1284              		.cfi_endproc
 1285              	.LFE320:
 1286              		.size	chFactoryCreateMailbox, .-chFactoryCreateMailbox
 1287              		.section	.text.chFactoryFindMailbox,"ax",%progbits
 1288              		.align	1
 1289              		.global	chFactoryFindMailbox
 1290              		.syntax unified
 1291              		.thumb
 1292              		.thumb_func
 1293              		.fpu fpv4-sp-d16
 1294              		.type	chFactoryFindMailbox, %function
 1295              	chFactoryFindMailbox:
 1296              	.LFB321:
 1297              		.loc 2 604 0
 1298              		.cfi_startproc
 1299              		@ args = 0, pretend = 0, frame = 0
 1300              		@ frame_needed = 0, uses_anonymous_args = 0
 1301              	.LVL137:
 1302 0000 38B5     		push	{r3, r4, r5, lr}
 1303              		.cfi_def_cfa_offset 16
 1304              		.cfi_offset 3, -16
 1305              		.cfi_offset 4, -12
 1306              		.cfi_offset 5, -8
 1307              		.cfi_offset 14, -4
 1308              		.loc 2 607 0
 1309 0002 084C     		ldr	r4, .L97
 1310              		.loc 2 604 0
 1311 0004 0546     		mov	r5, r0
ARM GAS  /tmp/cc1XssKN.s 			page 24


 1312              		.loc 2 607 0
 1313 0006 2046     		mov	r0, r4
 1314              	.LVL138:
 1315 0008 FFF7FEFF 		bl	chMtxLock
 1316              	.LVL139:
 1317              		.loc 2 609 0
 1318 000c 04F14001 		add	r1, r4, #64
 1319 0010 2846     		mov	r0, r5
 1320 0012 FFF7FEFF 		bl	dyn_find_object
 1321              	.LVL140:
 1322 0016 0546     		mov	r5, r0
 1323              	.LVL141:
 1324              		.loc 2 611 0
 1325 0018 2046     		mov	r0, r4
 1326              	.LVL142:
 1327 001a FFF7FEFF 		bl	chMtxUnlock
 1328              	.LVL143:
 1329              		.loc 2 614 0
 1330 001e 2846     		mov	r0, r5
 1331 0020 38BD     		pop	{r3, r4, r5, pc}
 1332              	.LVL144:
 1333              	.L98:
 1334 0022 00BF     		.align	2
 1335              	.L97:
 1336 0024 00000000 		.word	.LANCHOR0
 1337              		.cfi_endproc
 1338              	.LFE321:
 1339              		.size	chFactoryFindMailbox, .-chFactoryFindMailbox
 1340              		.section	.text.chFactoryReleaseMailbox,"ax",%progbits
 1341              		.align	1
 1342              		.global	chFactoryReleaseMailbox
 1343              		.syntax unified
 1344              		.thumb
 1345              		.thumb_func
 1346              		.fpu fpv4-sp-d16
 1347              		.type	chFactoryReleaseMailbox, %function
 1348              	chFactoryReleaseMailbox:
 1349              	.LFB322:
 1350              		.loc 2 626 0
 1351              		.cfi_startproc
 1352              		@ args = 0, pretend = 0, frame = 0
 1353              		@ frame_needed = 0, uses_anonymous_args = 0
 1354              	.LVL145:
 1355 0000 38B5     		push	{r3, r4, r5, lr}
 1356              		.cfi_def_cfa_offset 16
 1357              		.cfi_offset 3, -16
 1358              		.cfi_offset 4, -12
 1359              		.cfi_offset 5, -8
 1360              		.cfi_offset 14, -4
 1361              		.loc 2 628 0
 1362 0002 074C     		ldr	r4, .L100
 1363              		.loc 2 626 0
 1364 0004 0546     		mov	r5, r0
 1365              		.loc 2 628 0
 1366 0006 2046     		mov	r0, r4
 1367              	.LVL146:
 1368 0008 FFF7FEFF 		bl	chMtxLock
ARM GAS  /tmp/cc1XssKN.s 			page 25


 1369              	.LVL147:
 1370              		.loc 2 630 0
 1371 000c 2846     		mov	r0, r5
 1372 000e 04F14001 		add	r1, r4, #64
 1373 0012 FFF7FEFF 		bl	dyn_release_object_heap
 1374              	.LVL148:
 1375              		.loc 2 632 0
 1376 0016 2046     		mov	r0, r4
 1377              		.loc 2 633 0
 1378 0018 BDE83840 		pop	{r3, r4, r5, lr}
 1379              		.cfi_restore 14
 1380              		.cfi_restore 5
 1381              		.cfi_restore 4
 1382              		.cfi_restore 3
 1383              		.cfi_def_cfa_offset 0
 1384              	.LVL149:
 1385              		.loc 2 632 0
 1386 001c FFF7FEBF 		b	chMtxUnlock
 1387              	.LVL150:
 1388              	.L101:
 1389              		.align	2
 1390              	.L100:
 1391 0020 00000000 		.word	.LANCHOR0
 1392              		.cfi_endproc
 1393              	.LFE322:
 1394              		.size	chFactoryReleaseMailbox, .-chFactoryReleaseMailbox
 1395              		.section	.text.chFactoryCreateObjectsFIFO,"ax",%progbits
 1396              		.align	1
 1397              		.global	chFactoryCreateObjectsFIFO
 1398              		.syntax unified
 1399              		.thumb
 1400              		.thumb_func
 1401              		.fpu fpv4-sp-d16
 1402              		.type	chFactoryCreateObjectsFIFO, %function
 1403              	chFactoryCreateObjectsFIFO:
 1404              	.LFB323:
 1405              		.loc 2 659 0
 1406              		.cfi_startproc
 1407              		@ args = 0, pretend = 0, frame = 0
 1408              		@ frame_needed = 0, uses_anonymous_args = 0
 1409              	.LVL151:
 1410 0000 2DE9F843 		push	{r3, r4, r5, r6, r7, r8, r9, lr}
 1411              		.cfi_def_cfa_offset 32
 1412              		.cfi_offset 3, -32
 1413              		.cfi_offset 4, -28
 1414              		.cfi_offset 5, -24
 1415              		.cfi_offset 6, -20
 1416              		.cfi_offset 7, -16
 1417              		.cfi_offset 8, -12
 1418              		.cfi_offset 9, -8
 1419              		.cfi_offset 14, -4
 1420              		.loc 2 659 0
 1421 0004 1646     		mov	r6, r2
 1422 0006 0446     		mov	r4, r0
 1423 0008 8846     		mov	r8, r1
 1424              		.loc 2 662 0
 1425 000a 1448     		ldr	r0, .L107
ARM GAS  /tmp/cc1XssKN.s 			page 26


 1426              	.LVL152:
 1427              		.loc 2 666 0
 1428 000c 06F11505 		add	r5, r6, #21
 1429              		.loc 2 659 0
 1430 0010 9946     		mov	r9, r3
 1431              		.loc 2 662 0
 1432 0012 FFF7FEFF 		bl	chMtxLock
 1433              	.LVL153:
 1434              		.loc 2 664 0
 1435 0016 2046     		mov	r0, r4
 1436              		.loc 2 666 0
 1437 0018 AD00     		lsls	r5, r5, #2
 1438              		.loc 2 664 0
 1439 001a 1149     		ldr	r1, .L107+4
 1440 001c 08FB0652 		mla	r2, r8, r6, r5
 1441 0020 FFF7FEFF 		bl	dyn_create_object_heap
 1442              	.LVL154:
 1443              		.loc 2 669 0
 1444 0024 0446     		mov	r4, r0
 1445              	.LVL155:
 1446 0026 98B1     		cbz	r0, .L103
 1447              	.LBB146:
 1448              	.LBB147:
 1449              		.file 5 "../../modules/ChibiOS/os/oslib/include/chobjfifos.h"
 1450              		.loc 5 134 0
 1451 0028 00F11007 		add	r7, r0, #16
 1452              	.LBE147:
 1453              	.LBE146:
 1454              		.loc 2 672 0
 1455 002c 0544     		add	r5, r5, r0
 1456              	.LVL156:
 1457              	.LBB149:
 1458              	.LBB148:
 1459              		.loc 5 134 0
 1460 002e 4A46     		mov	r2, r9
 1461 0030 4146     		mov	r1, r8
 1462 0032 3846     		mov	r0, r7
 1463              	.LVL157:
 1464 0034 FFF7FEFF 		bl	chGuardedPoolObjectInitAligned
 1465              	.LVL158:
 1466              		.loc 5 135 0
 1467 0038 3246     		mov	r2, r6
 1468 003a 2946     		mov	r1, r5
 1469 003c 3846     		mov	r0, r7
 1470 003e FFF7FEFF 		bl	chGuardedPoolLoadArray
 1471              	.LVL159:
 1472              		.loc 5 136 0
 1473 0042 3246     		mov	r2, r6
 1474 0044 04F15401 		add	r1, r4, #84
 1475              	.LVL160:
 1476 0048 04F12C00 		add	r0, r4, #44
 1477 004c FFF7FEFF 		bl	chMBObjectInit
 1478              	.LVL161:
 1479              	.L103:
 1480              	.LBE148:
 1481              	.LBE149:
 1482              		.loc 2 675 0
ARM GAS  /tmp/cc1XssKN.s 			page 27


 1483 0050 0248     		ldr	r0, .L107
 1484 0052 FFF7FEFF 		bl	chMtxUnlock
 1485              	.LVL162:
 1486              		.loc 2 678 0
 1487 0056 2046     		mov	r0, r4
 1488 0058 BDE8F883 		pop	{r3, r4, r5, r6, r7, r8, r9, pc}
 1489              	.LVL163:
 1490              	.L108:
 1491              		.align	2
 1492              	.L107:
 1493 005c 00000000 		.word	.LANCHOR0
 1494 0060 44000000 		.word	.LANCHOR0+68
 1495              		.cfi_endproc
 1496              	.LFE323:
 1497              		.size	chFactoryCreateObjectsFIFO, .-chFactoryCreateObjectsFIFO
 1498              		.section	.text.chFactoryFindObjectsFIFO,"ax",%progbits
 1499              		.align	1
 1500              		.global	chFactoryFindObjectsFIFO
 1501              		.syntax unified
 1502              		.thumb
 1503              		.thumb_func
 1504              		.fpu fpv4-sp-d16
 1505              		.type	chFactoryFindObjectsFIFO, %function
 1506              	chFactoryFindObjectsFIFO:
 1507              	.LFB324:
 1508              		.loc 2 694 0
 1509              		.cfi_startproc
 1510              		@ args = 0, pretend = 0, frame = 0
 1511              		@ frame_needed = 0, uses_anonymous_args = 0
 1512              	.LVL164:
 1513 0000 38B5     		push	{r3, r4, r5, lr}
 1514              		.cfi_def_cfa_offset 16
 1515              		.cfi_offset 3, -16
 1516              		.cfi_offset 4, -12
 1517              		.cfi_offset 5, -8
 1518              		.cfi_offset 14, -4
 1519              		.loc 2 697 0
 1520 0002 084C     		ldr	r4, .L110
 1521              		.loc 2 694 0
 1522 0004 0546     		mov	r5, r0
 1523              		.loc 2 697 0
 1524 0006 2046     		mov	r0, r4
 1525              	.LVL165:
 1526 0008 FFF7FEFF 		bl	chMtxLock
 1527              	.LVL166:
 1528              		.loc 2 699 0
 1529 000c 04F14401 		add	r1, r4, #68
 1530 0010 2846     		mov	r0, r5
 1531 0012 FFF7FEFF 		bl	dyn_find_object
 1532              	.LVL167:
 1533 0016 0546     		mov	r5, r0
 1534              	.LVL168:
 1535              		.loc 2 701 0
 1536 0018 2046     		mov	r0, r4
 1537              	.LVL169:
 1538 001a FFF7FEFF 		bl	chMtxUnlock
 1539              	.LVL170:
ARM GAS  /tmp/cc1XssKN.s 			page 28


 1540              		.loc 2 704 0
 1541 001e 2846     		mov	r0, r5
 1542 0020 38BD     		pop	{r3, r4, r5, pc}
 1543              	.LVL171:
 1544              	.L111:
 1545 0022 00BF     		.align	2
 1546              	.L110:
 1547 0024 00000000 		.word	.LANCHOR0
 1548              		.cfi_endproc
 1549              	.LFE324:
 1550              		.size	chFactoryFindObjectsFIFO, .-chFactoryFindObjectsFIFO
 1551              		.section	.text.chFactoryReleaseObjectsFIFO,"ax",%progbits
 1552              		.align	1
 1553              		.global	chFactoryReleaseObjectsFIFO
 1554              		.syntax unified
 1555              		.thumb
 1556              		.thumb_func
 1557              		.fpu fpv4-sp-d16
 1558              		.type	chFactoryReleaseObjectsFIFO, %function
 1559              	chFactoryReleaseObjectsFIFO:
 1560              	.LFB325:
 1561              		.loc 2 716 0
 1562              		.cfi_startproc
 1563              		@ args = 0, pretend = 0, frame = 0
 1564              		@ frame_needed = 0, uses_anonymous_args = 0
 1565              	.LVL172:
 1566 0000 38B5     		push	{r3, r4, r5, lr}
 1567              		.cfi_def_cfa_offset 16
 1568              		.cfi_offset 3, -16
 1569              		.cfi_offset 4, -12
 1570              		.cfi_offset 5, -8
 1571              		.cfi_offset 14, -4
 1572              		.loc 2 718 0
 1573 0002 074C     		ldr	r4, .L113
 1574              		.loc 2 716 0
 1575 0004 0546     		mov	r5, r0
 1576              		.loc 2 718 0
 1577 0006 2046     		mov	r0, r4
 1578              	.LVL173:
 1579 0008 FFF7FEFF 		bl	chMtxLock
 1580              	.LVL174:
 1581              		.loc 2 720 0
 1582 000c 2846     		mov	r0, r5
 1583 000e 04F14401 		add	r1, r4, #68
 1584 0012 FFF7FEFF 		bl	dyn_release_object_heap
 1585              	.LVL175:
 1586              		.loc 2 722 0
 1587 0016 2046     		mov	r0, r4
 1588              		.loc 2 723 0
 1589 0018 BDE83840 		pop	{r3, r4, r5, lr}
 1590              		.cfi_restore 14
 1591              		.cfi_restore 5
 1592              		.cfi_restore 4
 1593              		.cfi_restore 3
 1594              		.cfi_def_cfa_offset 0
 1595              	.LVL176:
 1596              		.loc 2 722 0
ARM GAS  /tmp/cc1XssKN.s 			page 29


 1597 001c FFF7FEBF 		b	chMtxUnlock
 1598              	.LVL177:
 1599              	.L114:
 1600              		.align	2
 1601              	.L113:
 1602 0020 00000000 		.word	.LANCHOR0
 1603              		.cfi_endproc
 1604              	.LFE325:
 1605              		.size	chFactoryReleaseObjectsFIFO, .-chFactoryReleaseObjectsFIFO
 1606              		.global	ch_factory
 1607              		.section	.bss.ch_factory,"aw",%nobits
 1608              		.align	2
 1609              		.set	.LANCHOR0,. + 0
 1610              		.type	ch_factory, %object
 1611              		.size	ch_factory, 72
 1612              	ch_factory:
 1613 0000 00000000 		.space	72
 1613      00000000 
 1613      00000000 
 1613      00000000 
 1613      00000000 
 1614              		.text
 1615              	.Letext0:
 1616              		.file 6 "/opt/gcc-arm-none-eabi-6-2017-q2-update/lib/gcc/arm-none-eabi/6.3.1/include/stddef.h"
 1617              		.file 7 "/opt/gcc-arm-none-eabi-6-2017-q2-update/arm-none-eabi/include/machine/_default_types.h"
 1618              		.file 8 "/opt/gcc-arm-none-eabi-6-2017-q2-update/arm-none-eabi/include/sys/lock.h"
 1619              		.file 9 "/opt/gcc-arm-none-eabi-6-2017-q2-update/arm-none-eabi/include/sys/_types.h"
 1620              		.file 10 "/opt/gcc-arm-none-eabi-6-2017-q2-update/arm-none-eabi/include/sys/reent.h"
 1621              		.file 11 "/opt/gcc-arm-none-eabi-6-2017-q2-update/arm-none-eabi/include/sys/_stdint.h"
 1622              		.file 12 "../../modules/ChibiOS/os/common/ports/ARMCMx/compilers/GCC/chtypes.h"
 1623              		.file 13 "../../modules/ChibiOS/os/rt/include/chsystypes.h"
 1624              		.file 14 "../../modules/ChibiOS/os/rt/include/chschd.h"
 1625              		.file 15 "../../modules/ChibiOS/os/rt/include/chtime.h"
 1626              		.file 16 "../../modules/ChibiOS/os/common/ext/ARM/CMSIS/Core/Include/core_cm7.h"
 1627              		.file 17 "../../modules/ChibiOS/os/common/ext/ST/STM32F7xx/system_stm32f7xx.h"
 1628              		.file 18 "../../modules/ChibiOS/os/common/ports/ARMCMx/chcore.h"
 1629              		.file 19 "../../modules/ChibiOS/os/common/ports/ARMCMx/chcore_v7m.h"
 1630              		.file 20 "../../modules/ChibiOS/os/rt/include/chtm.h"
 1631              		.file 21 "../../modules/ChibiOS/os/rt/include/chstats.h"
 1632              		.file 22 "../../modules/ChibiOS/os/rt/include/chsem.h"
 1633              		.file 23 "../../modules/ChibiOS/os/rt/include/chmtx.h"
 1634              		.file 24 "../../modules/ChibiOS/os/rt/include/chsys.h"
 1635              		.file 25 "../../modules/ChibiOS/os/rt/include/chregistry.h"
 1636              		.file 26 "../../modules/ChibiOS/os/oslib/include/chmboxes.h"
 1637              		.file 27 "../../modules/ChibiOS/os/oslib/include/chfactory.h"
 1638              		.file 28 "/opt/gcc-arm-none-eabi-6-2017-q2-update/arm-none-eabi/include/string.h"