ARM GAS  /tmp/ccJUU6b3.s 			page 1


   1              		.cpu cortex-m7
   2              		.eabi_attribute 27, 1
   3              		.eabi_attribute 28, 1
   4              		.eabi_attribute 20, 1
   5              		.eabi_attribute 21, 1
   6              		.eabi_attribute 23, 3
   7              		.eabi_attribute 24, 1
   8              		.eabi_attribute 25, 1
   9              		.eabi_attribute 26, 1
  10              		.eabi_attribute 30, 4
  11              		.eabi_attribute 34, 1
  12              		.eabi_attribute 18, 4
  13              		.file	"chmempools.c"
  14              		.text
  15              	.Ltext0:
  16              		.cfi_sections	.debug_frame
  17              		.section	.text.chPoolObjectInitAligned,"ax",%progbits
  18              		.align	1
  19              		.global	chPoolObjectInitAligned
  20              		.syntax unified
  21              		.thumb
  22              		.thumb_func
  23              		.fpu fpv4-sp-d16
  24              		.type	chPoolObjectInitAligned, %function
  25              	chPoolObjectInitAligned:
  26              	.LFB301:
  27              		.file 1 "../../modules/ChibiOS/os/oslib/src/chmempools.c"
  28              		.loc 1 78 0
  29              		.cfi_startproc
  30              		@ args = 0, pretend = 0, frame = 0
  31              		@ frame_needed = 0, uses_anonymous_args = 0
  32              	.LVL0:
  33 0000 10B5     		push	{r4, lr}
  34              		.cfi_def_cfa_offset 8
  35              		.cfi_offset 4, -8
  36              		.cfi_offset 14, -4
  37              		.loc 1 85 0
  38 0002 0024     		movs	r4, #0
  39              		.loc 1 86 0
  40 0004 4160     		str	r1, [r0, #4]
  41              		.loc 1 87 0
  42 0006 8260     		str	r2, [r0, #8]
  43              		.loc 1 85 0
  44 0008 0460     		str	r4, [r0]
  45              		.loc 1 88 0
  46 000a C360     		str	r3, [r0, #12]
  47 000c 10BD     		pop	{r4, pc}
  48              		.cfi_endproc
  49              	.LFE301:
  50              		.size	chPoolObjectInitAligned, .-chPoolObjectInitAligned
  51              		.section	.text.chPoolAllocI,"ax",%progbits
  52              		.align	1
  53              		.global	chPoolAllocI
  54              		.syntax unified
  55              		.thumb
  56              		.thumb_func
  57              		.fpu fpv4-sp-d16
ARM GAS  /tmp/ccJUU6b3.s 			page 2


  58              		.type	chPoolAllocI, %function
  59              	chPoolAllocI:
  60              	.LFB303:
  61              		.loc 1 129 0
  62              		.cfi_startproc
  63              		@ args = 0, pretend = 0, frame = 0
  64              		@ frame_needed = 0, uses_anonymous_args = 0
  65              		@ link register save eliminated.
  66              	.LVL1:
  67              		.loc 1 129 0
  68 0000 0346     		mov	r3, r0
  69              		.loc 1 135 0
  70 0002 0068     		ldr	r0, [r0]
  71              	.LVL2:
  72              		.loc 1 137 0
  73 0004 10B1     		cbz	r0, .L3
  74              		.loc 1 138 0
  75 0006 0268     		ldr	r2, [r0]
  76 0008 1A60     		str	r2, [r3]
  77 000a 7047     		bx	lr
  78              	.L3:
  79              		.loc 1 140 0
  80 000c DA68     		ldr	r2, [r3, #12]
  81 000e 12B1     		cbz	r2, .L2
  82              		.loc 1 141 0
  83 0010 9968     		ldr	r1, [r3, #8]
  84 0012 5868     		ldr	r0, [r3, #4]
  85              	.LVL3:
  86 0014 1047     		bx	r2
  87              	.LVL4:
  88              	.L2:
  89              		.loc 1 149 0
  90 0016 7047     		bx	lr
  91              		.cfi_endproc
  92              	.LFE303:
  93              		.size	chPoolAllocI, .-chPoolAllocI
  94              		.section	.text.chPoolAlloc,"ax",%progbits
  95              		.align	1
  96              		.global	chPoolAlloc
  97              		.syntax unified
  98              		.thumb
  99              		.thumb_func
 100              		.fpu fpv4-sp-d16
 101              		.type	chPoolAlloc, %function
 102              	chPoolAlloc:
 103              	.LFB304:
 104              		.loc 1 161 0
 105              		.cfi_startproc
 106              		@ args = 0, pretend = 0, frame = 0
 107              		@ frame_needed = 0, uses_anonymous_args = 0
 108              	.LVL5:
 109 0000 10B5     		push	{r4, lr}
 110              		.cfi_def_cfa_offset 8
 111              		.cfi_offset 4, -8
 112              		.cfi_offset 14, -4
 113              	.LBB34:
 114              	.LBB35:
ARM GAS  /tmp/ccJUU6b3.s 			page 3


 115              	.LBB36:
 116              	.LBB37:
 117              	.LBB38:
 118              		.file 2 "../../modules/ChibiOS/os/common/ext/ARM/CMSIS/Core/Include/cmsis_gcc.h"
 119              		.loc 2 493 0
 120 0002 2023     		movs	r3, #32
 121              	.LBE38:
 122              	.LBE37:
 123              	.LBE36:
 124              	.LBE35:
 125              	.LBE34:
 126              		.loc 1 161 0
 127 0004 0446     		mov	r4, r0
 128              	.LBB43:
 129              	.LBB42:
 130              	.LBB41:
 131              	.LBB40:
 132              	.LBB39:
 133              		.loc 2 493 0
 134              		.syntax unified
 135              	@ 493 "../../modules/ChibiOS/os/common/ext/ARM/CMSIS/Core/Include/cmsis_gcc.h" 1
 136 0006 83F31188 		MSR basepri, r3
 137              	@ 0 "" 2
 138              	.LVL6:
 139              		.thumb
 140              		.syntax unified
 141              	.LBE39:
 142              	.LBE40:
 143              	.LBE41:
 144              		.file 3 "../../modules/ChibiOS/os/rt/include/chsys.h"
 145              		.loc 3 356 0
 146 000a FFF7FEFF 		bl	_stats_start_measure_crit_thd
 147              	.LVL7:
 148              	.LBE42:
 149              	.LBE43:
 150              		.loc 1 165 0
 151 000e 2046     		mov	r0, r4
 152 0010 FFF7FEFF 		bl	chPoolAllocI
 153              	.LVL8:
 154 0014 0446     		mov	r4, r0
 155              	.LVL9:
 156              	.LBB44:
 157              	.LBB45:
 158              		.loc 3 368 0
 159 0016 FFF7FEFF 		bl	_stats_stop_measure_crit_thd
 160              	.LVL10:
 161              	.LBB46:
 162              	.LBB47:
 163              	.LBB48:
 164              		.loc 2 493 0
 165 001a 0023     		movs	r3, #0
 166              		.syntax unified
 167              	@ 493 "../../modules/ChibiOS/os/common/ext/ARM/CMSIS/Core/Include/cmsis_gcc.h" 1
 168 001c 83F31188 		MSR basepri, r3
 169              	@ 0 "" 2
 170              	.LVL11:
 171              		.thumb
ARM GAS  /tmp/ccJUU6b3.s 			page 4


 172              		.syntax unified
 173              	.LBE48:
 174              	.LBE47:
 175              	.LBE46:
 176              	.LBE45:
 177              	.LBE44:
 178              		.loc 1 169 0
 179 0020 2046     		mov	r0, r4
 180 0022 10BD     		pop	{r4, pc}
 181              		.cfi_endproc
 182              	.LFE304:
 183              		.size	chPoolAlloc, .-chPoolAlloc
 184              		.section	.text.chPoolFreeI,"ax",%progbits
 185              		.align	1
 186              		.global	chPoolFreeI
 187              		.syntax unified
 188              		.thumb
 189              		.thumb_func
 190              		.fpu fpv4-sp-d16
 191              		.type	chPoolFreeI, %function
 192              	chPoolFreeI:
 193              	.LFB305:
 194              		.loc 1 183 0
 195              		.cfi_startproc
 196              		@ args = 0, pretend = 0, frame = 0
 197              		@ frame_needed = 0, uses_anonymous_args = 0
 198              		@ link register save eliminated.
 199              	.LVL12:
 200              		.loc 1 191 0
 201 0000 0368     		ldr	r3, [r0]
 202 0002 0B60     		str	r3, [r1]
 203              		.loc 1 192 0
 204 0004 0160     		str	r1, [r0]
 205 0006 7047     		bx	lr
 206              		.cfi_endproc
 207              	.LFE305:
 208              		.size	chPoolFreeI, .-chPoolFreeI
 209              		.section	.text.chPoolFree,"ax",%progbits
 210              		.align	1
 211              		.global	chPoolFree
 212              		.syntax unified
 213              		.thumb
 214              		.thumb_func
 215              		.fpu fpv4-sp-d16
 216              		.type	chPoolFree, %function
 217              	chPoolFree:
 218              	.LFB306:
 219              		.loc 1 207 0
 220              		.cfi_startproc
 221              		@ args = 0, pretend = 0, frame = 0
 222              		@ frame_needed = 0, uses_anonymous_args = 0
 223              	.LVL13:
 224 0000 38B5     		push	{r3, r4, r5, lr}
 225              		.cfi_def_cfa_offset 16
 226              		.cfi_offset 3, -16
 227              		.cfi_offset 4, -12
 228              		.cfi_offset 5, -8
ARM GAS  /tmp/ccJUU6b3.s 			page 5


 229              		.cfi_offset 14, -4
 230              		.loc 1 207 0
 231 0002 0446     		mov	r4, r0
 232 0004 0D46     		mov	r5, r1
 233              	.LBB61:
 234              	.LBB62:
 235              	.LBB63:
 236              	.LBB64:
 237              	.LBB65:
 238              		.loc 2 493 0
 239 0006 2023     		movs	r3, #32
 240              		.syntax unified
 241              	@ 493 "../../modules/ChibiOS/os/common/ext/ARM/CMSIS/Core/Include/cmsis_gcc.h" 1
 242 0008 83F31188 		MSR basepri, r3
 243              	@ 0 "" 2
 244              	.LVL14:
 245              		.thumb
 246              		.syntax unified
 247              	.LBE65:
 248              	.LBE64:
 249              	.LBE63:
 250              		.loc 3 356 0
 251 000c FFF7FEFF 		bl	_stats_start_measure_crit_thd
 252              	.LVL15:
 253              	.LBE62:
 254              	.LBE61:
 255              	.LBB66:
 256              	.LBB67:
 257              		.loc 1 191 0
 258 0010 2368     		ldr	r3, [r4]
 259 0012 2B60     		str	r3, [r5]
 260              		.loc 1 192 0
 261 0014 2560     		str	r5, [r4]
 262              	.LVL16:
 263              	.LBE67:
 264              	.LBE66:
 265              	.LBB68:
 266              	.LBB69:
 267              		.loc 3 368 0
 268 0016 FFF7FEFF 		bl	_stats_stop_measure_crit_thd
 269              	.LVL17:
 270              	.LBB70:
 271              	.LBB71:
 272              	.LBB72:
 273              		.loc 2 493 0
 274 001a 0023     		movs	r3, #0
 275              		.syntax unified
 276              	@ 493 "../../modules/ChibiOS/os/common/ext/ARM/CMSIS/Core/Include/cmsis_gcc.h" 1
 277 001c 83F31188 		MSR basepri, r3
 278              	@ 0 "" 2
 279              	.LVL18:
 280              		.thumb
 281              		.syntax unified
 282 0020 38BD     		pop	{r3, r4, r5, pc}
 283              	.LBE72:
 284              	.LBE71:
 285              	.LBE70:
ARM GAS  /tmp/ccJUU6b3.s 			page 6


 286              	.LBE69:
 287              	.LBE68:
 288              		.cfi_endproc
 289              	.LFE306:
 290              		.size	chPoolFree, .-chPoolFree
 291              		.section	.text.chPoolLoadArray,"ax",%progbits
 292              		.align	1
 293              		.global	chPoolLoadArray
 294              		.syntax unified
 295              		.thumb
 296              		.thumb_func
 297              		.fpu fpv4-sp-d16
 298              		.type	chPoolLoadArray, %function
 299              	chPoolLoadArray:
 300              	.LFB302:
 301              		.loc 1 106 0
 302              		.cfi_startproc
 303              		@ args = 0, pretend = 0, frame = 0
 304              		@ frame_needed = 0, uses_anonymous_args = 0
 305              	.LVL19:
 306 0000 70B5     		push	{r4, r5, r6, lr}
 307              		.cfi_def_cfa_offset 16
 308              		.cfi_offset 4, -16
 309              		.cfi_offset 5, -12
 310              		.cfi_offset 6, -8
 311              		.cfi_offset 14, -4
 312 0002 0646     		mov	r6, r0
 313 0004 0D46     		mov	r5, r1
 314 0006 1446     		mov	r4, r2
 315              	.LVL20:
 316              	.L12:
 317              		.loc 1 110 0
 318 0008 04B9     		cbnz	r4, .L13
 319              		.loc 1 117 0
 320 000a 70BD     		pop	{r4, r5, r6, pc}
 321              	.LVL21:
 322              	.L13:
 323              	.LBB73:
 324              	.LBB74:
 325              		.file 4 "../../modules/ChibiOS/os/oslib/include/chmempools.h"
 326              		.loc 4 212 0
 327 000c 2946     		mov	r1, r5
 328 000e 3046     		mov	r0, r6
 329 0010 FFF7FEFF 		bl	chPoolFree
 330              	.LVL22:
 331              	.LBE74:
 332              	.LBE73:
 333              		.loc 1 113 0
 334 0014 7368     		ldr	r3, [r6, #4]
 335              		.loc 1 115 0
 336 0016 013C     		subs	r4, r4, #1
 337              	.LVL23:
 338              		.loc 1 113 0
 339 0018 1D44     		add	r5, r5, r3
 340              	.LVL24:
 341 001a F5E7     		b	.L12
 342              		.cfi_endproc
ARM GAS  /tmp/ccJUU6b3.s 			page 7


 343              	.LFE302:
 344              		.size	chPoolLoadArray, .-chPoolLoadArray
 345              		.section	.text.chGuardedPoolObjectInitAligned,"ax",%progbits
 346              		.align	1
 347              		.global	chGuardedPoolObjectInitAligned
 348              		.syntax unified
 349              		.thumb
 350              		.thumb_func
 351              		.fpu fpv4-sp-d16
 352              		.type	chGuardedPoolObjectInitAligned, %function
 353              	chGuardedPoolObjectInitAligned:
 354              	.LFB307:
 355              		.loc 1 228 0
 356              		.cfi_startproc
 357              		@ args = 0, pretend = 0, frame = 0
 358              		@ frame_needed = 0, uses_anonymous_args = 0
 359              		@ link register save eliminated.
 360              	.LVL25:
 361 0000 10B4     		push	{r4}
 362              		.cfi_def_cfa_offset 4
 363              		.cfi_offset 4, -4
 364              	.LBB75:
 365              	.LBB76:
 366              		.loc 1 85 0
 367 0002 0024     		movs	r4, #0
 368              		.loc 1 86 0
 369 0004 0161     		str	r1, [r0, #16]
 370              		.loc 1 87 0
 371 0006 4261     		str	r2, [r0, #20]
 372              		.loc 1 85 0
 373 0008 C460     		str	r4, [r0, #12]
 374              	.LBE76:
 375              	.LBE75:
 376              		.loc 1 231 0
 377 000a 2146     		mov	r1, r4
 378              	.LVL26:
 379              	.LBB78:
 380              	.LBB77:
 381              		.loc 1 88 0
 382 000c 8461     		str	r4, [r0, #24]
 383              	.LVL27:
 384              	.LBE77:
 385              	.LBE78:
 386              		.loc 1 232 0
 387 000e 5DF8044B 		ldr	r4, [sp], #4
 388              		.cfi_restore 4
 389              		.cfi_def_cfa_offset 0
 390              		.loc 1 231 0
 391 0012 FFF7FEBF 		b	chSemObjectInit
 392              	.LVL28:
 393              		.cfi_endproc
 394              	.LFE307:
 395              		.size	chGuardedPoolObjectInitAligned, .-chGuardedPoolObjectInitAligned
 396              		.section	.text.chGuardedPoolAllocTimeoutS,"ax",%progbits
 397              		.align	1
 398              		.global	chGuardedPoolAllocTimeoutS
 399              		.syntax unified
ARM GAS  /tmp/ccJUU6b3.s 			page 8


 400              		.thumb
 401              		.thumb_func
 402              		.fpu fpv4-sp-d16
 403              		.type	chGuardedPoolAllocTimeoutS, %function
 404              	chGuardedPoolAllocTimeoutS:
 405              	.LFB309:
 406              		.loc 1 276 0
 407              		.cfi_startproc
 408              		@ args = 0, pretend = 0, frame = 0
 409              		@ frame_needed = 0, uses_anonymous_args = 0
 410              	.LVL29:
 411 0000 10B5     		push	{r4, lr}
 412              		.cfi_def_cfa_offset 8
 413              		.cfi_offset 4, -8
 414              		.cfi_offset 14, -4
 415              		.loc 1 276 0
 416 0002 0446     		mov	r4, r0
 417              		.loc 1 279 0
 418 0004 FFF7FEFF 		bl	chSemWaitTimeoutS
 419              	.LVL30:
 420              		.loc 1 280 0
 421 0008 28B9     		cbnz	r0, .L16
 422              		.loc 1 284 0
 423 000a 04F10C00 		add	r0, r4, #12
 424              	.LVL31:
 425              		.loc 1 285 0
 426 000e BDE81040 		pop	{r4, lr}
 427              		.cfi_remember_state
 428              		.cfi_restore 14
 429              		.cfi_restore 4
 430              		.cfi_def_cfa_offset 0
 431              	.LVL32:
 432              		.loc 1 284 0
 433 0012 FFF7FEBF 		b	chPoolAllocI
 434              	.LVL33:
 435              	.L16:
 436              		.cfi_restore_state
 437              		.loc 1 285 0
 438 0016 0020     		movs	r0, #0
 439              	.LVL34:
 440 0018 10BD     		pop	{r4, pc}
 441              		.cfi_endproc
 442              	.LFE309:
 443              		.size	chGuardedPoolAllocTimeoutS, .-chGuardedPoolAllocTimeoutS
 444              		.section	.text.chGuardedPoolAllocTimeout,"ax",%progbits
 445              		.align	1
 446              		.global	chGuardedPoolAllocTimeout
 447              		.syntax unified
 448              		.thumb
 449              		.thumb_func
 450              		.fpu fpv4-sp-d16
 451              		.type	chGuardedPoolAllocTimeout, %function
 452              	chGuardedPoolAllocTimeout:
 453              	.LFB310:
 454              		.loc 1 303 0
 455              		.cfi_startproc
 456              		@ args = 0, pretend = 0, frame = 0
ARM GAS  /tmp/ccJUU6b3.s 			page 9


 457              		@ frame_needed = 0, uses_anonymous_args = 0
 458              	.LVL35:
 459 0000 38B5     		push	{r3, r4, r5, lr}
 460              		.cfi_def_cfa_offset 16
 461              		.cfi_offset 3, -16
 462              		.cfi_offset 4, -12
 463              		.cfi_offset 5, -8
 464              		.cfi_offset 14, -4
 465              		.loc 1 303 0
 466 0002 0446     		mov	r4, r0
 467 0004 0D46     		mov	r5, r1
 468              	.LBB89:
 469              	.LBB90:
 470              	.LBB91:
 471              	.LBB92:
 472              	.LBB93:
 473              		.loc 2 493 0
 474 0006 2023     		movs	r3, #32
 475              		.syntax unified
 476              	@ 493 "../../modules/ChibiOS/os/common/ext/ARM/CMSIS/Core/Include/cmsis_gcc.h" 1
 477 0008 83F31188 		MSR basepri, r3
 478              	@ 0 "" 2
 479              	.LVL36:
 480              		.thumb
 481              		.syntax unified
 482              	.LBE93:
 483              	.LBE92:
 484              	.LBE91:
 485              		.loc 3 356 0
 486 000c FFF7FEFF 		bl	_stats_start_measure_crit_thd
 487              	.LVL37:
 488              	.LBE90:
 489              	.LBE89:
 490              		.loc 1 307 0
 491 0010 2946     		mov	r1, r5
 492 0012 2046     		mov	r0, r4
 493 0014 FFF7FEFF 		bl	chGuardedPoolAllocTimeoutS
 494              	.LVL38:
 495 0018 0446     		mov	r4, r0
 496              	.LVL39:
 497              	.LBB94:
 498              	.LBB95:
 499              		.loc 3 368 0
 500 001a FFF7FEFF 		bl	_stats_stop_measure_crit_thd
 501              	.LVL40:
 502              	.LBB96:
 503              	.LBB97:
 504              	.LBB98:
 505              		.loc 2 493 0
 506 001e 0023     		movs	r3, #0
 507              		.syntax unified
 508              	@ 493 "../../modules/ChibiOS/os/common/ext/ARM/CMSIS/Core/Include/cmsis_gcc.h" 1
 509 0020 83F31188 		MSR basepri, r3
 510              	@ 0 "" 2
 511              	.LVL41:
 512              		.thumb
 513              		.syntax unified
ARM GAS  /tmp/ccJUU6b3.s 			page 10


 514              	.LBE98:
 515              	.LBE97:
 516              	.LBE96:
 517              	.LBE95:
 518              	.LBE94:
 519              		.loc 1 311 0
 520 0024 2046     		mov	r0, r4
 521 0026 38BD     		pop	{r3, r4, r5, pc}
 522              		.cfi_endproc
 523              	.LFE310:
 524              		.size	chGuardedPoolAllocTimeout, .-chGuardedPoolAllocTimeout
 525              		.section	.text.chGuardedPoolFree,"ax",%progbits
 526              		.align	1
 527              		.global	chGuardedPoolFree
 528              		.syntax unified
 529              		.thumb
 530              		.thumb_func
 531              		.fpu fpv4-sp-d16
 532              		.type	chGuardedPoolFree, %function
 533              	chGuardedPoolFree:
 534              	.LFB311:
 535              		.loc 1 325 0
 536              		.cfi_startproc
 537              		@ args = 0, pretend = 0, frame = 0
 538              		@ frame_needed = 0, uses_anonymous_args = 0
 539              	.LVL42:
 540 0000 38B5     		push	{r3, r4, r5, lr}
 541              		.cfi_def_cfa_offset 16
 542              		.cfi_offset 3, -16
 543              		.cfi_offset 4, -12
 544              		.cfi_offset 5, -8
 545              		.cfi_offset 14, -4
 546              		.loc 1 325 0
 547 0002 0446     		mov	r4, r0
 548 0004 0D46     		mov	r5, r1
 549              	.LBB113:
 550              	.LBB114:
 551              	.LBB115:
 552              	.LBB116:
 553              	.LBB117:
 554              		.loc 2 493 0
 555 0006 2023     		movs	r3, #32
 556              		.syntax unified
 557              	@ 493 "../../modules/ChibiOS/os/common/ext/ARM/CMSIS/Core/Include/cmsis_gcc.h" 1
 558 0008 83F31188 		MSR basepri, r3
 559              	@ 0 "" 2
 560              	.LVL43:
 561              		.thumb
 562              		.syntax unified
 563              	.LBE117:
 564              	.LBE116:
 565              	.LBE115:
 566              		.loc 3 356 0
 567 000c FFF7FEFF 		bl	_stats_start_measure_crit_thd
 568              	.LVL44:
 569              	.LBE114:
 570              	.LBE113:
ARM GAS  /tmp/ccJUU6b3.s 			page 11


 571              	.LBB118:
 572              	.LBB119:
 573              	.LBB120:
 574              	.LBB121:
 575              		.loc 1 191 0
 576 0010 E368     		ldr	r3, [r4, #12]
 577              	.LBE121:
 578              	.LBE120:
 579              		.loc 4 288 0
 580 0012 2046     		mov	r0, r4
 581              	.LBB123:
 582              	.LBB122:
 583              		.loc 1 191 0
 584 0014 2B60     		str	r3, [r5]
 585              		.loc 1 192 0
 586 0016 E560     		str	r5, [r4, #12]
 587              	.LVL45:
 588              	.LBE122:
 589              	.LBE123:
 590              		.loc 4 288 0
 591 0018 FFF7FEFF 		bl	chSemSignalI
 592              	.LVL46:
 593              	.LBE119:
 594              	.LBE118:
 595              		.loc 1 329 0
 596 001c FFF7FEFF 		bl	chSchRescheduleS
 597              	.LVL47:
 598              	.LBB124:
 599              	.LBB125:
 600              		.loc 3 368 0
 601 0020 FFF7FEFF 		bl	_stats_stop_measure_crit_thd
 602              	.LVL48:
 603              	.LBB126:
 604              	.LBB127:
 605              	.LBB128:
 606              		.loc 2 493 0
 607 0024 0023     		movs	r3, #0
 608              		.syntax unified
 609              	@ 493 "../../modules/ChibiOS/os/common/ext/ARM/CMSIS/Core/Include/cmsis_gcc.h" 1
 610 0026 83F31188 		MSR basepri, r3
 611              	@ 0 "" 2
 612              	.LVL49:
 613              		.thumb
 614              		.syntax unified
 615 002a 38BD     		pop	{r3, r4, r5, pc}
 616              	.LBE128:
 617              	.LBE127:
 618              	.LBE126:
 619              	.LBE125:
 620              	.LBE124:
 621              		.cfi_endproc
 622              	.LFE311:
 623              		.size	chGuardedPoolFree, .-chGuardedPoolFree
 624              		.section	.text.chGuardedPoolLoadArray,"ax",%progbits
 625              		.align	1
 626              		.global	chGuardedPoolLoadArray
 627              		.syntax unified
ARM GAS  /tmp/ccJUU6b3.s 			page 12


 628              		.thumb
 629              		.thumb_func
 630              		.fpu fpv4-sp-d16
 631              		.type	chGuardedPoolLoadArray, %function
 632              	chGuardedPoolLoadArray:
 633              	.LFB308:
 634              		.loc 1 247 0
 635              		.cfi_startproc
 636              		@ args = 0, pretend = 0, frame = 0
 637              		@ frame_needed = 0, uses_anonymous_args = 0
 638              	.LVL50:
 639 0000 70B5     		push	{r4, r5, r6, lr}
 640              		.cfi_def_cfa_offset 16
 641              		.cfi_offset 4, -16
 642              		.cfi_offset 5, -12
 643              		.cfi_offset 6, -8
 644              		.cfi_offset 14, -4
 645 0002 0646     		mov	r6, r0
 646 0004 0D46     		mov	r5, r1
 647 0006 1446     		mov	r4, r2
 648              	.LVL51:
 649              	.L20:
 650              		.loc 1 251 0
 651 0008 04B9     		cbnz	r4, .L21
 652              		.loc 1 258 0
 653 000a 70BD     		pop	{r4, r5, r6, pc}
 654              	.LVL52:
 655              	.L21:
 656              	.LBB129:
 657              	.LBB130:
 658              		.loc 4 325 0
 659 000c 2946     		mov	r1, r5
 660 000e 3046     		mov	r0, r6
 661 0010 FFF7FEFF 		bl	chGuardedPoolFree
 662              	.LVL53:
 663              	.LBE130:
 664              	.LBE129:
 665              		.loc 1 254 0
 666 0014 3369     		ldr	r3, [r6, #16]
 667              		.loc 1 256 0
 668 0016 013C     		subs	r4, r4, #1
 669              	.LVL54:
 670              		.loc 1 254 0
 671 0018 1D44     		add	r5, r5, r3
 672              	.LVL55:
 673 001a F5E7     		b	.L20
 674              		.cfi_endproc
 675              	.LFE308:
 676              		.size	chGuardedPoolLoadArray, .-chGuardedPoolLoadArray
 677              		.text
 678              	.Letext0:
 679              		.file 5 "/opt/gcc-arm-none-eabi-6-2017-q2-update/lib/gcc/arm-none-eabi/6.3.1/include/stddef.h"
 680              		.file 6 "/opt/gcc-arm-none-eabi-6-2017-q2-update/arm-none-eabi/include/machine/_default_types.h"
 681              		.file 7 "/opt/gcc-arm-none-eabi-6-2017-q2-update/arm-none-eabi/include/sys/_stdint.h"
 682              		.file 8 "../../modules/ChibiOS/os/common/ports/ARMCMx/compilers/GCC/chtypes.h"
 683              		.file 9 "../../modules/ChibiOS/os/rt/include/chsystypes.h"
 684              		.file 10 "../../modules/ChibiOS/os/rt/include/chschd.h"
ARM GAS  /tmp/ccJUU6b3.s 			page 13


 685              		.file 11 "../../modules/ChibiOS/os/rt/include/chtime.h"
 686              		.file 12 "../../modules/ChibiOS/os/common/ext/ARM/CMSIS/Core/Include/core_cm7.h"
 687              		.file 13 "../../modules/ChibiOS/os/common/ext/ST/STM32F7xx/system_stm32f7xx.h"
 688              		.file 14 "../../modules/ChibiOS/os/common/ports/ARMCMx/chcore.h"
 689              		.file 15 "../../modules/ChibiOS/os/common/ports/ARMCMx/chcore_v7m.h"
 690              		.file 16 "../../modules/ChibiOS/os/rt/include/chtm.h"
 691              		.file 17 "../../modules/ChibiOS/os/rt/include/chstats.h"
 692              		.file 18 "../../modules/ChibiOS/os/rt/include/chsem.h"
 693              		.file 19 "../../modules/ChibiOS/os/rt/include/chmtx.h"
 694              		.file 20 "../../modules/ChibiOS/os/rt/include/chregistry.h"
 695              		.file 21 "../../modules/ChibiOS/os/oslib/include/chmemcore.h"
 696              		.file 22 "../../modules/ChibiOS/os/oslib/include/chfactory.h"
 697              		.section	.debug_info,"",%progbits
 698              	.Ldebug_info0:
 699 0000 67140000 		.4byte	0x1467
 700 0004 0400     		.2byte	0x4
 701 0006 00000000 		.4byte	.Ldebug_abbrev0
 702 000a 04       		.byte	0x4
 703 000b 01       		.uleb128 0x1
 704 000c 9D050000 		.4byte	.LASF190
 705 0010 0C       		.byte	0xc
 706 0011 A7000000 		.4byte	.LASF191
 707 0015 9E040000 		.4byte	.LASF192
 708 0019 60000000 		.4byte	.Ldebug_ranges0+0x60
 709 001d 00000000 		.4byte	0
 710 0021 00000000 		.4byte	.Ldebug_line0
 711 0025 02       		.uleb128 0x2
 712 0026 04       		.byte	0x4
 713 0027 05       		.byte	0x5
 714 0028 696E7400 		.ascii	"int\000"
 715 002c 03       		.uleb128 0x3
 716 002d 30000000 		.4byte	.LASF4
 717 0031 05       		.byte	0x5
 718 0032 D8       		.byte	0xd8
 719 0033 37000000 		.4byte	0x37
 720 0037 04       		.uleb128 0x4
 721 0038 04       		.byte	0x4
 722 0039 07       		.byte	0x7
 723 003a B6020000 		.4byte	.LASF0
 724 003e 04       		.uleb128 0x4
 725 003f 08       		.byte	0x8
 726 0040 05       		.byte	0x5
 727 0041 75010000 		.4byte	.LASF1
 728 0045 04       		.uleb128 0x4
 729 0046 08       		.byte	0x8
 730 0047 04       		.byte	0x4
 731 0048 6F040000 		.4byte	.LASF2
 732 004c 04       		.uleb128 0x4
 733 004d 01       		.byte	0x1
 734 004e 06       		.byte	0x6
 735 004f 83010000 		.4byte	.LASF3
 736 0053 03       		.uleb128 0x3
 737 0054 5A000000 		.4byte	.LASF5
 738 0058 06       		.byte	0x6
 739 0059 2B       		.byte	0x2b
 740 005a 5E000000 		.4byte	0x5e
 741 005e 04       		.uleb128 0x4
ARM GAS  /tmp/ccJUU6b3.s 			page 14


 742 005f 01       		.byte	0x1
 743 0060 08       		.byte	0x8
 744 0061 D3060000 		.4byte	.LASF6
 745 0065 04       		.uleb128 0x4
 746 0066 02       		.byte	0x2
 747 0067 05       		.byte	0x5
 748 0068 F7060000 		.4byte	.LASF7
 749 006c 03       		.uleb128 0x3
 750 006d EF070000 		.4byte	.LASF8
 751 0071 06       		.byte	0x6
 752 0072 39       		.byte	0x39
 753 0073 77000000 		.4byte	0x77
 754 0077 04       		.uleb128 0x4
 755 0078 02       		.byte	0x2
 756 0079 07       		.byte	0x7
 757 007a 6F080000 		.4byte	.LASF9
 758 007e 03       		.uleb128 0x3
 759 007f F3030000 		.4byte	.LASF10
 760 0083 06       		.byte	0x6
 761 0084 4D       		.byte	0x4d
 762 0085 89000000 		.4byte	0x89
 763 0089 04       		.uleb128 0x4
 764 008a 04       		.byte	0x4
 765 008b 05       		.byte	0x5
 766 008c C4010000 		.4byte	.LASF11
 767 0090 03       		.uleb128 0x3
 768 0091 16020000 		.4byte	.LASF12
 769 0095 06       		.byte	0x6
 770 0096 4F       		.byte	0x4f
 771 0097 9B000000 		.4byte	0x9b
 772 009b 04       		.uleb128 0x4
 773 009c 04       		.byte	0x4
 774 009d 07       		.byte	0x7
 775 009e B0070000 		.4byte	.LASF13
 776 00a2 03       		.uleb128 0x3
 777 00a3 15050000 		.4byte	.LASF14
 778 00a7 06       		.byte	0x6
 779 00a8 69       		.byte	0x69
 780 00a9 AD000000 		.4byte	0xad
 781 00ad 04       		.uleb128 0x4
 782 00ae 08       		.byte	0x8
 783 00af 07       		.byte	0x7
 784 00b0 F0000000 		.4byte	.LASF15
 785 00b4 03       		.uleb128 0x3
 786 00b5 04090000 		.4byte	.LASF16
 787 00b9 07       		.byte	0x7
 788 00ba 18       		.byte	0x18
 789 00bb 53000000 		.4byte	0x53
 790 00bf 05       		.uleb128 0x5
 791 00c0 B4000000 		.4byte	0xb4
 792 00c4 03       		.uleb128 0x3
 793 00c5 E1020000 		.4byte	.LASF17
 794 00c9 07       		.byte	0x7
 795 00ca 24       		.byte	0x24
 796 00cb 6C000000 		.4byte	0x6c
 797 00cf 03       		.uleb128 0x3
 798 00d0 CB060000 		.4byte	.LASF18
ARM GAS  /tmp/ccJUU6b3.s 			page 15


 799 00d4 07       		.byte	0x7
 800 00d5 2C       		.byte	0x2c
 801 00d6 7E000000 		.4byte	0x7e
 802 00da 06       		.uleb128 0x6
 803 00db CF000000 		.4byte	0xcf
 804 00df 03       		.uleb128 0x3
 805 00e0 8A070000 		.4byte	.LASF19
 806 00e4 07       		.byte	0x7
 807 00e5 30       		.byte	0x30
 808 00e6 90000000 		.4byte	0x90
 809 00ea 03       		.uleb128 0x3
 810 00eb 44000000 		.4byte	.LASF20
 811 00ef 07       		.byte	0x7
 812 00f0 3C       		.byte	0x3c
 813 00f1 A2000000 		.4byte	0xa2
 814 00f5 03       		.uleb128 0x3
 815 00f6 8D080000 		.4byte	.LASF21
 816 00fa 08       		.byte	0x8
 817 00fb 27       		.byte	0x27
 818 00fc DF000000 		.4byte	0xdf
 819 0100 03       		.uleb128 0x3
 820 0101 6C010000 		.4byte	.LASF22
 821 0105 08       		.byte	0x8
 822 0106 28       		.byte	0x28
 823 0107 EA000000 		.4byte	0xea
 824 010b 03       		.uleb128 0x3
 825 010c B1030000 		.4byte	.LASF23
 826 0110 08       		.byte	0x8
 827 0111 2A       		.byte	0x2a
 828 0112 B4000000 		.4byte	0xb4
 829 0116 03       		.uleb128 0x3
 830 0117 CD010000 		.4byte	.LASF24
 831 011b 08       		.byte	0x8
 832 011c 2B       		.byte	0x2b
 833 011d B4000000 		.4byte	0xb4
 834 0121 03       		.uleb128 0x3
 835 0122 54050000 		.4byte	.LASF25
 836 0126 08       		.byte	0x8
 837 0127 2C       		.byte	0x2c
 838 0128 B4000000 		.4byte	0xb4
 839 012c 03       		.uleb128 0x3
 840 012d 95050000 		.4byte	.LASF26
 841 0131 08       		.byte	0x8
 842 0132 2E       		.byte	0x2e
 843 0133 DF000000 		.4byte	0xdf
 844 0137 03       		.uleb128 0x3
 845 0138 6A030000 		.4byte	.LASF27
 846 013c 08       		.byte	0x8
 847 013d 2F       		.byte	0x2f
 848 013e CF000000 		.4byte	0xcf
 849 0142 03       		.uleb128 0x3
 850 0143 D2030000 		.4byte	.LASF28
 851 0147 08       		.byte	0x8
 852 0148 31       		.byte	0x31
 853 0149 DF000000 		.4byte	0xdf
 854 014d 03       		.uleb128 0x3
 855 014e B0020000 		.4byte	.LASF29
ARM GAS  /tmp/ccJUU6b3.s 			page 16


 856 0152 08       		.byte	0x8
 857 0153 33       		.byte	0x33
 858 0154 CF000000 		.4byte	0xcf
 859 0158 03       		.uleb128 0x3
 860 0159 82030000 		.4byte	.LASF30
 861 015d 08       		.byte	0x8
 862 015e 34       		.byte	0x34
 863 015f DF000000 		.4byte	0xdf
 864 0163 03       		.uleb128 0x3
 865 0164 FA070000 		.4byte	.LASF31
 866 0168 09       		.byte	0x9
 867 0169 34       		.byte	0x34
 868 016a 6E010000 		.4byte	0x16e
 869 016e 07       		.uleb128 0x7
 870 016f 60030000 		.4byte	.LASF50
 871 0173 60       		.byte	0x60
 872 0174 0A       		.byte	0xa
 873 0175 8E       		.byte	0x8e
 874 0176 59020000 		.4byte	0x259
 875 017a 08       		.uleb128 0x8
 876 017b 37030000 		.4byte	.LASF32
 877 017f 0A       		.byte	0xa
 878 0180 8F       		.byte	0x8f
 879 0181 8E020000 		.4byte	0x28e
 880 0185 00       		.byte	0
 881 0186 08       		.uleb128 0x8
 882 0187 FA040000 		.4byte	.LASF33
 883 018b 0A       		.byte	0xa
 884 018c 90       		.byte	0x90
 885 018d 2C010000 		.4byte	0x12c
 886 0191 08       		.byte	0x8
 887 0192 09       		.uleb128 0x9
 888 0193 63747800 		.ascii	"ctx\000"
 889 0197 0A       		.byte	0xa
 890 0198 91       		.byte	0x91
 891 0199 00050000 		.4byte	0x500
 892 019d 0C       		.byte	0xc
 893 019e 08       		.uleb128 0x8
 894 019f 08040000 		.4byte	.LASF34
 895 01a3 0A       		.byte	0xa
 896 01a4 93       		.byte	0x93
 897 01a5 64020000 		.4byte	0x264
 898 01a9 10       		.byte	0x10
 899 01aa 08       		.uleb128 0x8
 900 01ab CE070000 		.4byte	.LASF35
 901 01af 0A       		.byte	0xa
 902 01b0 94       		.byte	0x94
 903 01b1 64020000 		.4byte	0x264
 904 01b5 14       		.byte	0x14
 905 01b6 08       		.uleb128 0x8
 906 01b7 5B030000 		.4byte	.LASF36
 907 01bb 0A       		.byte	0xa
 908 01bc 9B       		.byte	0x9b
 909 01bd F2070000 		.4byte	0x7f2
 910 01c1 18       		.byte	0x18
 911 01c2 08       		.uleb128 0x8
 912 01c3 C2070000 		.4byte	.LASF37
ARM GAS  /tmp/ccJUU6b3.s 			page 17


 913 01c7 0A       		.byte	0xa
 914 01c8 A4       		.byte	0xa4
 915 01c9 09080000 		.4byte	0x809
 916 01cd 1C       		.byte	0x1c
 917 01ce 08       		.uleb128 0x8
 918 01cf BE010000 		.4byte	.LASF38
 919 01d3 0A       		.byte	0xa
 920 01d4 A9       		.byte	0xa9
 921 01d5 16010000 		.4byte	0x116
 922 01d9 20       		.byte	0x20
 923 01da 08       		.uleb128 0x8
 924 01db 23090000 		.4byte	.LASF39
 925 01df 0A       		.byte	0xa
 926 01e0 AD       		.byte	0xad
 927 01e1 0B010000 		.4byte	0x10b
 928 01e5 21       		.byte	0x21
 929 01e6 08       		.uleb128 0x8
 930 01e7 71050000 		.4byte	.LASF40
 931 01eb 0A       		.byte	0xa
 932 01ec B2       		.byte	0xb2
 933 01ed 21010000 		.4byte	0x121
 934 01f1 22       		.byte	0x22
 935 01f2 0A       		.uleb128 0xa
 936 01f3 7500     		.ascii	"u\000"
 937 01f5 0A       		.byte	0xa
 938 01f6 0301     		.2byte	0x103
 939 01f8 1C070000 		.4byte	0x71c
 940 01fc 24       		.byte	0x24
 941 01fd 0B       		.uleb128 0xb
 942 01fe 4F020000 		.4byte	.LASF41
 943 0202 0A       		.byte	0xa
 944 0203 0801     		.2byte	0x108
 945 0205 6A020000 		.4byte	0x26a
 946 0209 28       		.byte	0x28
 947 020a 0B       		.uleb128 0xb
 948 020b B5010000 		.4byte	.LASF42
 949 020f 0A       		.byte	0xa
 950 0210 0E01     		.2byte	0x10e
 951 0212 8E020000 		.4byte	0x28e
 952 0216 2C       		.byte	0x2c
 953 0217 0B       		.uleb128 0xb
 954 0218 89030000 		.4byte	.LASF43
 955 021c 0A       		.byte	0xa
 956 021d 1401     		.2byte	0x114
 957 021f 42010000 		.4byte	0x142
 958 0223 34       		.byte	0x34
 959 0224 0B       		.uleb128 0xb
 960 0225 9F090000 		.4byte	.LASF44
 961 0229 0A       		.byte	0xa
 962 022a 1B01     		.2byte	0x11b
 963 022c EC070000 		.4byte	0x7ec
 964 0230 38       		.byte	0x38
 965 0231 0B       		.uleb128 0xb
 966 0232 0E040000 		.4byte	.LASF45
 967 0236 0A       		.byte	0xa
 968 0237 1F01     		.2byte	0x11f
 969 0239 2C010000 		.4byte	0x12c
ARM GAS  /tmp/ccJUU6b3.s 			page 18


 970 023d 3C       		.byte	0x3c
 971 023e 0B       		.uleb128 0xb
 972 023f 3D030000 		.4byte	.LASF46
 973 0243 0A       		.byte	0xa
 974 0244 2601     		.2byte	0x126
 975 0246 41030000 		.4byte	0x341
 976 024a 40       		.byte	0x40
 977 024b 0B       		.uleb128 0xb
 978 024c DB010000 		.4byte	.LASF47
 979 0250 0A       		.byte	0xa
 980 0251 2C01     		.2byte	0x12c
 981 0253 CD060000 		.4byte	0x6cd
 982 0257 48       		.byte	0x48
 983 0258 00       		.byte	0
 984 0259 03       		.uleb128 0x3
 985 025a 45040000 		.4byte	.LASF48
 986 025e 09       		.byte	0x9
 987 025f 39       		.byte	0x39
 988 0260 64020000 		.4byte	0x264
 989 0264 0C       		.uleb128 0xc
 990 0265 04       		.byte	0x4
 991 0266 63010000 		.4byte	0x163
 992 026a 03       		.uleb128 0x3
 993 026b 4E090000 		.4byte	.LASF49
 994 026f 09       		.byte	0x9
 995 0270 3E       		.byte	0x3e
 996 0271 75020000 		.4byte	0x275
 997 0275 07       		.uleb128 0x7
 998 0276 9A070000 		.4byte	.LASF51
 999 027a 04       		.byte	0x4
 1000 027b 0A       		.byte	0xa
 1001 027c 7C       		.byte	0x7c
 1002 027d 8E020000 		.4byte	0x28e
 1003 0281 08       		.uleb128 0x8
 1004 0282 67010000 		.4byte	.LASF52
 1005 0286 0A       		.byte	0xa
 1006 0287 7D       		.byte	0x7d
 1007 0288 64020000 		.4byte	0x264
 1008 028c 00       		.byte	0
 1009 028d 00       		.byte	0
 1010 028e 03       		.uleb128 0x3
 1011 028f DA080000 		.4byte	.LASF53
 1012 0293 09       		.byte	0x9
 1013 0294 45       		.byte	0x45
 1014 0295 99020000 		.4byte	0x299
 1015 0299 07       		.uleb128 0x7
 1016 029a 75000000 		.4byte	.LASF54
 1017 029e 08       		.byte	0x8
 1018 029f 0A       		.byte	0xa
 1019 02a0 83       		.byte	0x83
 1020 02a1 BE020000 		.4byte	0x2be
 1021 02a5 08       		.uleb128 0x8
 1022 02a6 67010000 		.4byte	.LASF52
 1023 02aa 0A       		.byte	0xa
 1024 02ab 84       		.byte	0x84
 1025 02ac 64020000 		.4byte	0x264
 1026 02b0 00       		.byte	0
ARM GAS  /tmp/ccJUU6b3.s 			page 19


 1027 02b1 08       		.uleb128 0x8
 1028 02b2 64000000 		.4byte	.LASF55
 1029 02b6 0A       		.byte	0xa
 1030 02b7 85       		.byte	0x85
 1031 02b8 64020000 		.4byte	0x264
 1032 02bc 04       		.byte	0x4
 1033 02bd 00       		.byte	0
 1034 02be 03       		.uleb128 0x3
 1035 02bf 16000000 		.4byte	.LASF56
 1036 02c3 09       		.byte	0x9
 1037 02c4 4C       		.byte	0x4c
 1038 02c5 C9020000 		.4byte	0x2c9
 1039 02c9 0D       		.uleb128 0xd
 1040 02ca C4030000 		.4byte	.LASF57
 1041 02ce 1C       		.byte	0x1c
 1042 02cf 0A       		.byte	0xa
 1043 02d0 5E01     		.2byte	0x15e
 1044 02d2 25030000 		.4byte	0x325
 1045 02d6 0B       		.uleb128 0xb
 1046 02d7 37030000 		.4byte	.LASF32
 1047 02db 0A       		.byte	0xa
 1048 02dc 5F01     		.2byte	0x15f
 1049 02de 8E020000 		.4byte	0x28e
 1050 02e2 00       		.byte	0
 1051 02e3 0B       		.uleb128 0xb
 1052 02e4 FA040000 		.4byte	.LASF33
 1053 02e8 0A       		.byte	0xa
 1054 02e9 6001     		.2byte	0x160
 1055 02eb 2C010000 		.4byte	0x12c
 1056 02ef 08       		.byte	0x8
 1057 02f0 0A       		.uleb128 0xa
 1058 02f1 63747800 		.ascii	"ctx\000"
 1059 02f5 0A       		.byte	0xa
 1060 02f6 6201     		.2byte	0x162
 1061 02f8 00050000 		.4byte	0x500
 1062 02fc 0C       		.byte	0xc
 1063 02fd 0B       		.uleb128 0xb
 1064 02fe 08040000 		.4byte	.LASF34
 1065 0302 0A       		.byte	0xa
 1066 0303 6501     		.2byte	0x165
 1067 0305 64020000 		.4byte	0x264
 1068 0309 10       		.byte	0x10
 1069 030a 0B       		.uleb128 0xb
 1070 030b CE070000 		.4byte	.LASF35
 1071 030f 0A       		.byte	0xa
 1072 0310 6601     		.2byte	0x166
 1073 0312 64020000 		.4byte	0x264
 1074 0316 14       		.byte	0x14
 1075 0317 0B       		.uleb128 0xb
 1076 0318 08050000 		.4byte	.LASF58
 1077 031c 0A       		.byte	0xa
 1078 031d 6901     		.2byte	0x169
 1079 031f 64020000 		.4byte	0x264
 1080 0323 18       		.byte	0x18
 1081 0324 00       		.byte	0
 1082 0325 03       		.uleb128 0x3
 1083 0326 1D080000 		.4byte	.LASF59
ARM GAS  /tmp/ccJUU6b3.s 			page 20


 1084 032a 09       		.byte	0x9
 1085 032b 51       		.byte	0x51
 1086 032c 30030000 		.4byte	0x330
 1087 0330 0C       		.uleb128 0xc
 1088 0331 04       		.byte	0x4
 1089 0332 36030000 		.4byte	0x336
 1090 0336 0E       		.uleb128 0xe
 1091 0337 41030000 		.4byte	0x341
 1092 033b 0F       		.uleb128 0xf
 1093 033c 41030000 		.4byte	0x341
 1094 0340 00       		.byte	0
 1095 0341 10       		.uleb128 0x10
 1096 0342 04       		.byte	0x4
 1097 0343 03       		.uleb128 0x3
 1098 0344 76050000 		.4byte	.LASF60
 1099 0348 09       		.byte	0x9
 1100 0349 56       		.byte	0x56
 1101 034a 4E030000 		.4byte	0x34e
 1102 034e 0D       		.uleb128 0xd
 1103 034f 48070000 		.4byte	.LASF61
 1104 0353 14       		.byte	0x14
 1105 0354 0A       		.byte	0xa
 1106 0355 3901     		.2byte	0x139
 1107 0357 9D030000 		.4byte	0x39d
 1108 035b 0B       		.uleb128 0xb
 1109 035c 67010000 		.4byte	.LASF52
 1110 0360 0A       		.byte	0xa
 1111 0361 3A01     		.2byte	0x13a
 1112 0363 0F080000 		.4byte	0x80f
 1113 0367 00       		.byte	0
 1114 0368 0B       		.uleb128 0xb
 1115 0369 64000000 		.4byte	.LASF55
 1116 036d 0A       		.byte	0xa
 1117 036e 3B01     		.2byte	0x13b
 1118 0370 0F080000 		.4byte	0x80f
 1119 0374 04       		.byte	0x4
 1120 0375 0B       		.uleb128 0xb
 1121 0376 37000000 		.4byte	.LASF62
 1122 037a 0A       		.byte	0xa
 1123 037b 3C01     		.2byte	0x13c
 1124 037d 81040000 		.4byte	0x481
 1125 0381 08       		.byte	0x8
 1126 0382 0B       		.uleb128 0xb
 1127 0383 D6010000 		.4byte	.LASF63
 1128 0387 0A       		.byte	0xa
 1129 0388 3D01     		.2byte	0x13d
 1130 038a 25030000 		.4byte	0x325
 1131 038e 0C       		.byte	0xc
 1132 038f 0A       		.uleb128 0xa
 1133 0390 70617200 		.ascii	"par\000"
 1134 0394 0A       		.byte	0xa
 1135 0395 3F01     		.2byte	0x13f
 1136 0397 41030000 		.4byte	0x341
 1137 039b 10       		.byte	0x10
 1138 039c 00       		.byte	0
 1139 039d 03       		.uleb128 0x3
 1140 039e 36010000 		.4byte	.LASF64
ARM GAS  /tmp/ccJUU6b3.s 			page 21


 1141 03a2 09       		.byte	0x9
 1142 03a3 5B       		.byte	0x5b
 1143 03a4 A8030000 		.4byte	0x3a8
 1144 03a8 0D       		.uleb128 0xd
 1145 03a9 58040000 		.4byte	.LASF65
 1146 03ad 10       		.byte	0x10
 1147 03ae 0A       		.byte	0xa
 1148 03af 4901     		.2byte	0x149
 1149 03b1 EA030000 		.4byte	0x3ea
 1150 03b5 0B       		.uleb128 0xb
 1151 03b6 67010000 		.4byte	.LASF52
 1152 03ba 0A       		.byte	0xa
 1153 03bb 4A01     		.2byte	0x14a
 1154 03bd 0F080000 		.4byte	0x80f
 1155 03c1 00       		.byte	0
 1156 03c2 0B       		.uleb128 0xb
 1157 03c3 64000000 		.4byte	.LASF55
 1158 03c7 0A       		.byte	0xa
 1159 03c8 4C01     		.2byte	0x14c
 1160 03ca 0F080000 		.4byte	0x80f
 1161 03ce 04       		.byte	0x4
 1162 03cf 0B       		.uleb128 0xb
 1163 03d0 37000000 		.4byte	.LASF62
 1164 03d4 0A       		.byte	0xa
 1165 03d5 4E01     		.2byte	0x14e
 1166 03d7 81040000 		.4byte	0x481
 1167 03db 08       		.byte	0x8
 1168 03dc 0B       		.uleb128 0xb
 1169 03dd 01070000 		.4byte	.LASF66
 1170 03e1 0A       		.byte	0xa
 1171 03e2 5601     		.2byte	0x156
 1172 03e4 76040000 		.4byte	0x476
 1173 03e8 0C       		.byte	0xc
 1174 03e9 00       		.byte	0
 1175 03ea 03       		.uleb128 0x3
 1176 03eb 86000000 		.4byte	.LASF67
 1177 03ef 09       		.byte	0x9
 1178 03f0 60       		.byte	0x60
 1179 03f1 F5030000 		.4byte	0x3f5
 1180 03f5 0D       		.uleb128 0xd
 1181 03f6 3F020000 		.4byte	.LASF68
 1182 03fa 04       		.byte	0x4
 1183 03fb 0A       		.byte	0xa
 1184 03fc 7001     		.2byte	0x170
 1185 03fe 10040000 		.4byte	0x410
 1186 0402 0B       		.uleb128 0xb
 1187 0403 34080000 		.4byte	.LASF69
 1188 0407 0A       		.byte	0xa
 1189 0408 7801     		.2byte	0x178
 1190 040a F8070000 		.4byte	0x7f8
 1191 040e 00       		.byte	0
 1192 040f 00       		.byte	0
 1193 0410 03       		.uleb128 0x3
 1194 0411 9D030000 		.4byte	.LASF70
 1195 0415 09       		.byte	0x9
 1196 0416 65       		.byte	0x65
 1197 0417 1B040000 		.4byte	0x41b
ARM GAS  /tmp/ccJUU6b3.s 			page 22


 1198 041b 0D       		.uleb128 0xd
 1199 041c 11070000 		.4byte	.LASF71
 1200 0420 D0       		.byte	0xd0
 1201 0421 0A       		.byte	0xa
 1202 0422 9001     		.2byte	0x190
 1203 0424 76040000 		.4byte	0x476
 1204 0428 0B       		.uleb128 0xb
 1205 0429 94010000 		.4byte	.LASF72
 1206 042d 0A       		.byte	0xa
 1207 042e 9401     		.2byte	0x194
 1208 0430 BE020000 		.4byte	0x2be
 1209 0434 00       		.byte	0
 1210 0435 0B       		.uleb128 0xb
 1211 0436 A2010000 		.4byte	.LASF73
 1212 043a 0A       		.byte	0xa
 1213 043b 9801     		.2byte	0x198
 1214 043d 9D030000 		.4byte	0x39d
 1215 0441 1C       		.byte	0x1c
 1216 0442 0A       		.uleb128 0xa
 1217 0443 64626700 		.ascii	"dbg\000"
 1218 0447 0A       		.byte	0xa
 1219 0448 9C01     		.2byte	0x19c
 1220 044a EA030000 		.4byte	0x3ea
 1221 044e 2C       		.byte	0x2c
 1222 044f 0B       		.uleb128 0xb
 1223 0450 23010000 		.4byte	.LASF74
 1224 0454 0A       		.byte	0xa
 1225 0455 A001     		.2byte	0x1a0
 1226 0457 63010000 		.4byte	0x163
 1227 045b 30       		.byte	0x30
 1228 045c 0A       		.uleb128 0xa
 1229 045d 746D00   		.ascii	"tm\000"
 1230 0460 0A       		.byte	0xa
 1231 0461 A501     		.2byte	0x1a5
 1232 0463 7F060000 		.4byte	0x67f
 1233 0467 90       		.byte	0x90
 1234 0468 0B       		.uleb128 0xb
 1235 0469 4D000000 		.4byte	.LASF75
 1236 046d 0A       		.byte	0xa
 1237 046e AB01     		.2byte	0x1ab
 1238 0470 11070000 		.4byte	0x711
 1239 0474 98       		.byte	0x98
 1240 0475 00       		.byte	0
 1241 0476 03       		.uleb128 0x3
 1242 0477 13080000 		.4byte	.LASF76
 1243 047b 0B       		.byte	0xb
 1244 047c 6D       		.byte	0x6d
 1245 047d DF000000 		.4byte	0xdf
 1246 0481 03       		.uleb128 0x3
 1247 0482 92020000 		.4byte	.LASF77
 1248 0486 0B       		.byte	0xb
 1249 0487 79       		.byte	0x79
 1250 0488 DF000000 		.4byte	0xdf
 1251 048c 04       		.uleb128 0x4
 1252 048d 04       		.byte	0x4
 1253 048e 07       		.byte	0x7
 1254 048f 3C040000 		.4byte	.LASF78
ARM GAS  /tmp/ccJUU6b3.s 			page 23


 1255 0493 11       		.uleb128 0x11
 1256 0494 4C010000 		.4byte	.LASF79
 1257 0498 0C       		.byte	0xc
 1258 0499 220A     		.2byte	0xa22
 1259 049b DA000000 		.4byte	0xda
 1260 049f 12       		.uleb128 0x12
 1261 04a0 EA020000 		.4byte	.LASF80
 1262 04a4 0D       		.byte	0xd
 1263 04a5 4C       		.byte	0x4c
 1264 04a6 DF000000 		.4byte	0xdf
 1265 04aa 13       		.uleb128 0x13
 1266 04ab BF000000 		.4byte	0xbf
 1267 04af BA040000 		.4byte	0x4ba
 1268 04b3 14       		.uleb128 0x14
 1269 04b4 8C040000 		.4byte	0x48c
 1270 04b8 0F       		.byte	0xf
 1271 04b9 00       		.byte	0
 1272 04ba 05       		.uleb128 0x5
 1273 04bb AA040000 		.4byte	0x4aa
 1274 04bf 12       		.uleb128 0x12
 1275 04c0 DE030000 		.4byte	.LASF81
 1276 04c4 0D       		.byte	0xd
 1277 04c5 4E       		.byte	0x4e
 1278 04c6 BA040000 		.4byte	0x4ba
 1279 04ca 13       		.uleb128 0x13
 1280 04cb BF000000 		.4byte	0xbf
 1281 04cf DA040000 		.4byte	0x4da
 1282 04d3 14       		.uleb128 0x14
 1283 04d4 8C040000 		.4byte	0x48c
 1284 04d8 07       		.byte	0x7
 1285 04d9 00       		.byte	0
 1286 04da 05       		.uleb128 0x5
 1287 04db CA040000 		.4byte	0x4ca
 1288 04df 12       		.uleb128 0x12
 1289 04e0 57020000 		.4byte	.LASF82
 1290 04e4 0D       		.byte	0xd
 1291 04e5 4F       		.byte	0x4f
 1292 04e6 DA040000 		.4byte	0x4da
 1293 04ea 03       		.uleb128 0x3
 1294 04eb 21020000 		.4byte	.LASF83
 1295 04ef 0E       		.byte	0xe
 1296 04f0 65       		.byte	0x65
 1297 04f1 41030000 		.4byte	0x341
 1298 04f5 03       		.uleb128 0x3
 1299 04f6 FD030000 		.4byte	.LASF84
 1300 04fa 0E       		.byte	0xe
 1301 04fb 6D       		.byte	0x6d
 1302 04fc EA000000 		.4byte	0xea
 1303 0500 07       		.uleb128 0x7
 1304 0501 C1040000 		.4byte	.LASF85
 1305 0505 04       		.byte	0x4
 1306 0506 0E       		.byte	0xe
 1307 0507 89       		.byte	0x89
 1308 0508 18050000 		.4byte	0x518
 1309 050c 09       		.uleb128 0x9
 1310 050d 737000   		.ascii	"sp\000"
 1311 0510 0E       		.byte	0xe
ARM GAS  /tmp/ccJUU6b3.s 			page 24


 1312 0511 8A       		.byte	0x8a
 1313 0512 64060000 		.4byte	0x664
 1314 0516 00       		.byte	0
 1315 0517 00       		.byte	0
 1316 0518 0D       		.uleb128 0xd
 1317 0519 69000000 		.4byte	.LASF86
 1318 051d 64       		.byte	0x64
 1319 051e 0F       		.byte	0xf
 1320 051f 5901     		.2byte	0x159
 1321 0521 64060000 		.4byte	0x664
 1322 0525 0A       		.uleb128 0xa
 1323 0526 73313600 		.ascii	"s16\000"
 1324 052a 0F       		.byte	0xf
 1325 052b 5B01     		.2byte	0x15b
 1326 052d EA040000 		.4byte	0x4ea
 1327 0531 00       		.byte	0
 1328 0532 0A       		.uleb128 0xa
 1329 0533 73313700 		.ascii	"s17\000"
 1330 0537 0F       		.byte	0xf
 1331 0538 5C01     		.2byte	0x15c
 1332 053a EA040000 		.4byte	0x4ea
 1333 053e 04       		.byte	0x4
 1334 053f 0A       		.uleb128 0xa
 1335 0540 73313800 		.ascii	"s18\000"
 1336 0544 0F       		.byte	0xf
 1337 0545 5D01     		.2byte	0x15d
 1338 0547 EA040000 		.4byte	0x4ea
 1339 054b 08       		.byte	0x8
 1340 054c 0A       		.uleb128 0xa
 1341 054d 73313900 		.ascii	"s19\000"
 1342 0551 0F       		.byte	0xf
 1343 0552 5E01     		.2byte	0x15e
 1344 0554 EA040000 		.4byte	0x4ea
 1345 0558 0C       		.byte	0xc
 1346 0559 0A       		.uleb128 0xa
 1347 055a 73323000 		.ascii	"s20\000"
 1348 055e 0F       		.byte	0xf
 1349 055f 5F01     		.2byte	0x15f
 1350 0561 EA040000 		.4byte	0x4ea
 1351 0565 10       		.byte	0x10
 1352 0566 0A       		.uleb128 0xa
 1353 0567 73323100 		.ascii	"s21\000"
 1354 056b 0F       		.byte	0xf
 1355 056c 6001     		.2byte	0x160
 1356 056e EA040000 		.4byte	0x4ea
 1357 0572 14       		.byte	0x14
 1358 0573 0A       		.uleb128 0xa
 1359 0574 73323200 		.ascii	"s22\000"
 1360 0578 0F       		.byte	0xf
 1361 0579 6101     		.2byte	0x161
 1362 057b EA040000 		.4byte	0x4ea
 1363 057f 18       		.byte	0x18
 1364 0580 0A       		.uleb128 0xa
 1365 0581 73323300 		.ascii	"s23\000"
 1366 0585 0F       		.byte	0xf
 1367 0586 6201     		.2byte	0x162
 1368 0588 EA040000 		.4byte	0x4ea
ARM GAS  /tmp/ccJUU6b3.s 			page 25


 1369 058c 1C       		.byte	0x1c
 1370 058d 0A       		.uleb128 0xa
 1371 058e 73323400 		.ascii	"s24\000"
 1372 0592 0F       		.byte	0xf
 1373 0593 6301     		.2byte	0x163
 1374 0595 EA040000 		.4byte	0x4ea
 1375 0599 20       		.byte	0x20
 1376 059a 0A       		.uleb128 0xa
 1377 059b 73323500 		.ascii	"s25\000"
 1378 059f 0F       		.byte	0xf
 1379 05a0 6401     		.2byte	0x164
 1380 05a2 EA040000 		.4byte	0x4ea
 1381 05a6 24       		.byte	0x24
 1382 05a7 0A       		.uleb128 0xa
 1383 05a8 73323600 		.ascii	"s26\000"
 1384 05ac 0F       		.byte	0xf
 1385 05ad 6501     		.2byte	0x165
 1386 05af EA040000 		.4byte	0x4ea
 1387 05b3 28       		.byte	0x28
 1388 05b4 0A       		.uleb128 0xa
 1389 05b5 73323700 		.ascii	"s27\000"
 1390 05b9 0F       		.byte	0xf
 1391 05ba 6601     		.2byte	0x166
 1392 05bc EA040000 		.4byte	0x4ea
 1393 05c0 2C       		.byte	0x2c
 1394 05c1 0A       		.uleb128 0xa
 1395 05c2 73323800 		.ascii	"s28\000"
 1396 05c6 0F       		.byte	0xf
 1397 05c7 6701     		.2byte	0x167
 1398 05c9 EA040000 		.4byte	0x4ea
 1399 05cd 30       		.byte	0x30
 1400 05ce 0A       		.uleb128 0xa
 1401 05cf 73323900 		.ascii	"s29\000"
 1402 05d3 0F       		.byte	0xf
 1403 05d4 6801     		.2byte	0x168
 1404 05d6 EA040000 		.4byte	0x4ea
 1405 05da 34       		.byte	0x34
 1406 05db 0A       		.uleb128 0xa
 1407 05dc 73333000 		.ascii	"s30\000"
 1408 05e0 0F       		.byte	0xf
 1409 05e1 6901     		.2byte	0x169
 1410 05e3 EA040000 		.4byte	0x4ea
 1411 05e7 38       		.byte	0x38
 1412 05e8 0A       		.uleb128 0xa
 1413 05e9 73333100 		.ascii	"s31\000"
 1414 05ed 0F       		.byte	0xf
 1415 05ee 6A01     		.2byte	0x16a
 1416 05f0 EA040000 		.4byte	0x4ea
 1417 05f4 3C       		.byte	0x3c
 1418 05f5 0A       		.uleb128 0xa
 1419 05f6 723400   		.ascii	"r4\000"
 1420 05f9 0F       		.byte	0xf
 1421 05fa 6C01     		.2byte	0x16c
 1422 05fc EA040000 		.4byte	0x4ea
 1423 0600 40       		.byte	0x40
 1424 0601 0A       		.uleb128 0xa
 1425 0602 723500   		.ascii	"r5\000"
ARM GAS  /tmp/ccJUU6b3.s 			page 26


 1426 0605 0F       		.byte	0xf
 1427 0606 6D01     		.2byte	0x16d
 1428 0608 EA040000 		.4byte	0x4ea
 1429 060c 44       		.byte	0x44
 1430 060d 0A       		.uleb128 0xa
 1431 060e 723600   		.ascii	"r6\000"
 1432 0611 0F       		.byte	0xf
 1433 0612 6E01     		.2byte	0x16e
 1434 0614 EA040000 		.4byte	0x4ea
 1435 0618 48       		.byte	0x48
 1436 0619 0A       		.uleb128 0xa
 1437 061a 723700   		.ascii	"r7\000"
 1438 061d 0F       		.byte	0xf
 1439 061e 6F01     		.2byte	0x16f
 1440 0620 EA040000 		.4byte	0x4ea
 1441 0624 4C       		.byte	0x4c
 1442 0625 0A       		.uleb128 0xa
 1443 0626 723800   		.ascii	"r8\000"
 1444 0629 0F       		.byte	0xf
 1445 062a 7001     		.2byte	0x170
 1446 062c EA040000 		.4byte	0x4ea
 1447 0630 50       		.byte	0x50
 1448 0631 0A       		.uleb128 0xa
 1449 0632 723900   		.ascii	"r9\000"
 1450 0635 0F       		.byte	0xf
 1451 0636 7101     		.2byte	0x171
 1452 0638 EA040000 		.4byte	0x4ea
 1453 063c 54       		.byte	0x54
 1454 063d 0A       		.uleb128 0xa
 1455 063e 72313000 		.ascii	"r10\000"
 1456 0642 0F       		.byte	0xf
 1457 0643 7201     		.2byte	0x172
 1458 0645 EA040000 		.4byte	0x4ea
 1459 0649 58       		.byte	0x58
 1460 064a 0A       		.uleb128 0xa
 1461 064b 72313100 		.ascii	"r11\000"
 1462 064f 0F       		.byte	0xf
 1463 0650 7301     		.2byte	0x173
 1464 0652 EA040000 		.4byte	0x4ea
 1465 0656 5C       		.byte	0x5c
 1466 0657 0A       		.uleb128 0xa
 1467 0658 6C7200   		.ascii	"lr\000"
 1468 065b 0F       		.byte	0xf
 1469 065c 7401     		.2byte	0x174
 1470 065e EA040000 		.4byte	0x4ea
 1471 0662 60       		.byte	0x60
 1472 0663 00       		.byte	0
 1473 0664 0C       		.uleb128 0xc
 1474 0665 04       		.byte	0x4
 1475 0666 18050000 		.4byte	0x518
 1476 066a 15       		.uleb128 0x15
 1477 066b 04       		.byte	0x4
 1478 066c 10       		.byte	0x10
 1479 066d 38       		.byte	0x38
 1480 066e 7F060000 		.4byte	0x67f
 1481 0672 08       		.uleb128 0x8
 1482 0673 3E080000 		.4byte	.LASF87
ARM GAS  /tmp/ccJUU6b3.s 			page 27


 1483 0677 10       		.byte	0x10
 1484 0678 3C       		.byte	0x3c
 1485 0679 F5000000 		.4byte	0xf5
 1486 067d 00       		.byte	0
 1487 067e 00       		.byte	0
 1488 067f 03       		.uleb128 0x3
 1489 0680 CE040000 		.4byte	.LASF88
 1490 0684 10       		.byte	0x10
 1491 0685 3D       		.byte	0x3d
 1492 0686 6A060000 		.4byte	0x66a
 1493 068a 15       		.uleb128 0x15
 1494 068b 18       		.byte	0x18
 1495 068c 10       		.byte	0x10
 1496 068d 48       		.byte	0x48
 1497 068e CD060000 		.4byte	0x6cd
 1498 0692 08       		.uleb128 0x8
 1499 0693 03080000 		.4byte	.LASF89
 1500 0697 10       		.byte	0x10
 1501 0698 49       		.byte	0x49
 1502 0699 F5000000 		.4byte	0xf5
 1503 069d 00       		.byte	0
 1504 069e 08       		.uleb128 0x8
 1505 069f D7000000 		.4byte	.LASF90
 1506 06a3 10       		.byte	0x10
 1507 06a4 4A       		.byte	0x4a
 1508 06a5 F5000000 		.4byte	0xf5
 1509 06a9 04       		.byte	0x4
 1510 06aa 08       		.uleb128 0x8
 1511 06ab 10050000 		.4byte	.LASF91
 1512 06af 10       		.byte	0x10
 1513 06b0 4B       		.byte	0x4b
 1514 06b1 F5000000 		.4byte	0xf5
 1515 06b5 08       		.byte	0x8
 1516 06b6 09       		.uleb128 0x9
 1517 06b7 6E00     		.ascii	"n\000"
 1518 06b9 10       		.byte	0x10
 1519 06ba 4C       		.byte	0x4c
 1520 06bb 58010000 		.4byte	0x158
 1521 06bf 0C       		.byte	0xc
 1522 06c0 08       		.uleb128 0x8
 1523 06c1 2A050000 		.4byte	.LASF92
 1524 06c5 10       		.byte	0x10
 1525 06c6 4D       		.byte	0x4d
 1526 06c7 00010000 		.4byte	0x100
 1527 06cb 10       		.byte	0x10
 1528 06cc 00       		.byte	0
 1529 06cd 03       		.uleb128 0x3
 1530 06ce DD000000 		.4byte	.LASF93
 1531 06d2 10       		.byte	0x10
 1532 06d3 4E       		.byte	0x4e
 1533 06d4 8A060000 		.4byte	0x68a
 1534 06d8 15       		.uleb128 0x15
 1535 06d9 38       		.byte	0x38
 1536 06da 11       		.byte	0x11
 1537 06db 38       		.byte	0x38
 1538 06dc 11070000 		.4byte	0x711
 1539 06e0 08       		.uleb128 0x8
ARM GAS  /tmp/ccJUU6b3.s 			page 28


 1540 06e1 31030000 		.4byte	.LASF94
 1541 06e5 11       		.byte	0x11
 1542 06e6 39       		.byte	0x39
 1543 06e7 58010000 		.4byte	0x158
 1544 06eb 00       		.byte	0
 1545 06ec 08       		.uleb128 0x8
 1546 06ed BC060000 		.4byte	.LASF95
 1547 06f1 11       		.byte	0x11
 1548 06f2 3A       		.byte	0x3a
 1549 06f3 58010000 		.4byte	0x158
 1550 06f7 04       		.byte	0x4
 1551 06f8 08       		.uleb128 0x8
 1552 06f9 A7090000 		.4byte	.LASF96
 1553 06fd 11       		.byte	0x11
 1554 06fe 3B       		.byte	0x3b
 1555 06ff CD060000 		.4byte	0x6cd
 1556 0703 08       		.byte	0x8
 1557 0704 08       		.uleb128 0x8
 1558 0705 B9030000 		.4byte	.LASF97
 1559 0709 11       		.byte	0x11
 1560 070a 3D       		.byte	0x3d
 1561 070b CD060000 		.4byte	0x6cd
 1562 070f 20       		.byte	0x20
 1563 0710 00       		.byte	0
 1564 0711 03       		.uleb128 0x3
 1565 0712 4C030000 		.4byte	.LASF98
 1566 0716 11       		.byte	0x11
 1567 0717 3F       		.byte	0x3f
 1568 0718 D8060000 		.4byte	0x6d8
 1569 071c 16       		.uleb128 0x16
 1570 071d 04       		.byte	0x4
 1571 071e 0A       		.byte	0xa
 1572 071f C6       		.byte	0xc6
 1573 0720 7E070000 		.4byte	0x77e
 1574 0724 17       		.uleb128 0x17
 1575 0725 3D000000 		.4byte	.LASF99
 1576 0729 0A       		.byte	0xa
 1577 072a CD       		.byte	0xcd
 1578 072b 37010000 		.4byte	0x137
 1579 072f 17       		.uleb128 0x17
 1580 0730 1A010000 		.4byte	.LASF100
 1581 0734 0A       		.byte	0xa
 1582 0735 D4       		.byte	0xd4
 1583 0736 37010000 		.4byte	0x137
 1584 073a 17       		.uleb128 0x17
 1585 073b 47090000 		.4byte	.LASF101
 1586 073f 0A       		.byte	0xa
 1587 0740 DB       		.byte	0xdb
 1588 0741 41030000 		.4byte	0x341
 1589 0745 17       		.uleb128 0x17
 1590 0746 01030000 		.4byte	.LASF102
 1591 074a 0A       		.byte	0xa
 1592 074b E2       		.byte	0xe2
 1593 074c 7E070000 		.4byte	0x77e
 1594 0750 17       		.uleb128 0x17
 1595 0751 2E010000 		.4byte	.LASF103
 1596 0755 0A       		.byte	0xa
ARM GAS  /tmp/ccJUU6b3.s 			page 29


 1597 0756 E7       		.byte	0xe7
 1598 0757 37010000 		.4byte	0x137
 1599 075b 17       		.uleb128 0x17
 1600 075c FA020000 		.4byte	.LASF104
 1601 0760 0A       		.byte	0xa
 1602 0761 F0       		.byte	0xf0
 1603 0762 A9070000 		.4byte	0x7a9
 1604 0766 17       		.uleb128 0x17
 1605 0767 93070000 		.4byte	.LASF105
 1606 076b 0A       		.byte	0xa
 1607 076c F9       		.byte	0xf9
 1608 076d EC070000 		.4byte	0x7ec
 1609 0771 18       		.uleb128 0x18
 1610 0772 0A070000 		.4byte	.LASF106
 1611 0776 0A       		.byte	0xa
 1612 0777 0101     		.2byte	0x101
 1613 0779 42010000 		.4byte	0x142
 1614 077d 00       		.byte	0
 1615 077e 0C       		.uleb128 0xc
 1616 077f 04       		.byte	0x4
 1617 0780 59020000 		.4byte	0x259
 1618 0784 07       		.uleb128 0x7
 1619 0785 59070000 		.4byte	.LASF107
 1620 0789 0C       		.byte	0xc
 1621 078a 12       		.byte	0x12
 1622 078b 34       		.byte	0x34
 1623 078c A9070000 		.4byte	0x7a9
 1624 0790 08       		.uleb128 0x8
 1625 0791 37030000 		.4byte	.LASF32
 1626 0795 12       		.byte	0x12
 1627 0796 35       		.byte	0x35
 1628 0797 8E020000 		.4byte	0x28e
 1629 079b 00       		.byte	0
 1630 079c 09       		.uleb128 0x9
 1631 079d 636E7400 		.ascii	"cnt\000"
 1632 07a1 12       		.byte	0x12
 1633 07a2 37       		.byte	0x37
 1634 07a3 4D010000 		.4byte	0x14d
 1635 07a7 08       		.byte	0x8
 1636 07a8 00       		.byte	0
 1637 07a9 0C       		.uleb128 0xc
 1638 07aa 04       		.byte	0x4
 1639 07ab 84070000 		.4byte	0x784
 1640 07af 07       		.uleb128 0x7
 1641 07b0 5C080000 		.4byte	.LASF108
 1642 07b4 14       		.byte	0x14
 1643 07b5 13       		.byte	0x13
 1644 07b6 39       		.byte	0x39
 1645 07b7 EC070000 		.4byte	0x7ec
 1646 07bb 08       		.uleb128 0x8
 1647 07bc 37030000 		.4byte	.LASF32
 1648 07c0 13       		.byte	0x13
 1649 07c1 3A       		.byte	0x3a
 1650 07c2 8E020000 		.4byte	0x28e
 1651 07c6 00       		.byte	0
 1652 07c7 08       		.uleb128 0x8
 1653 07c8 AA070000 		.4byte	.LASF109
ARM GAS  /tmp/ccJUU6b3.s 			page 30


 1654 07cc 13       		.byte	0x13
 1655 07cd 3C       		.byte	0x3c
 1656 07ce 64020000 		.4byte	0x264
 1657 07d2 08       		.byte	0x8
 1658 07d3 08       		.uleb128 0x8
 1659 07d4 67010000 		.4byte	.LASF52
 1660 07d8 13       		.byte	0x13
 1661 07d9 3E       		.byte	0x3e
 1662 07da 59090000 		.4byte	0x959
 1663 07de 0C       		.byte	0xc
 1664 07df 09       		.uleb128 0x9
 1665 07e0 636E7400 		.ascii	"cnt\000"
 1666 07e4 13       		.byte	0x13
 1667 07e5 41       		.byte	0x41
 1668 07e6 4D010000 		.4byte	0x14d
 1669 07ea 10       		.byte	0x10
 1670 07eb 00       		.byte	0
 1671 07ec 0C       		.uleb128 0xc
 1672 07ed 04       		.byte	0x4
 1673 07ee AF070000 		.4byte	0x7af
 1674 07f2 0C       		.uleb128 0xc
 1675 07f3 04       		.byte	0x4
 1676 07f4 04080000 		.4byte	0x804
 1677 07f8 06       		.uleb128 0x6
 1678 07f9 F2070000 		.4byte	0x7f2
 1679 07fd 04       		.uleb128 0x4
 1680 07fe 01       		.byte	0x1
 1681 07ff 08       		.byte	0x8
 1682 0800 C9070000 		.4byte	.LASF110
 1683 0804 05       		.uleb128 0x5
 1684 0805 FD070000 		.4byte	0x7fd
 1685 0809 0C       		.uleb128 0xc
 1686 080a 04       		.byte	0x4
 1687 080b F5040000 		.4byte	0x4f5
 1688 080f 0C       		.uleb128 0xc
 1689 0810 04       		.byte	0x4
 1690 0811 43030000 		.4byte	0x343
 1691 0815 19       		.uleb128 0x19
 1692 0816 636800   		.ascii	"ch\000"
 1693 0819 0A       		.byte	0xa
 1694 081a C701     		.2byte	0x1c7
 1695 081c 10040000 		.4byte	0x410
 1696 0820 13       		.uleb128 0x13
 1697 0821 F5040000 		.4byte	0x4f5
 1698 0825 2B080000 		.4byte	0x82b
 1699 0829 1A       		.uleb128 0x1a
 1700 082a 00       		.byte	0
 1701 082b 11       		.uleb128 0x11
 1702 082c 6F070000 		.4byte	.LASF111
 1703 0830 03       		.byte	0x3
 1704 0831 1701     		.2byte	0x117
 1705 0833 20080000 		.4byte	0x820
 1706 0837 15       		.uleb128 0x15
 1707 0838 16       		.byte	0x16
 1708 0839 14       		.byte	0x14
 1709 083a 34       		.byte	0x34
 1710 083b 18090000 		.4byte	0x918
ARM GAS  /tmp/ccJUU6b3.s 			page 31


 1711 083f 08       		.uleb128 0x8
 1712 0840 82080000 		.4byte	.LASF112
 1713 0844 14       		.byte	0x14
 1714 0845 35       		.byte	0x35
 1715 0846 18090000 		.4byte	0x918
 1716 084a 00       		.byte	0
 1717 084b 08       		.uleb128 0x8
 1718 084c 7F020000 		.4byte	.LASF113
 1719 0850 14       		.byte	0x14
 1720 0851 36       		.byte	0x36
 1721 0852 B4000000 		.4byte	0xb4
 1722 0856 04       		.byte	0x4
 1723 0857 08       		.uleb128 0x8
 1724 0858 8F010000 		.4byte	.LASF114
 1725 085c 14       		.byte	0x14
 1726 085d 37       		.byte	0x37
 1727 085e B4000000 		.4byte	0xb4
 1728 0862 05       		.byte	0x5
 1729 0863 08       		.uleb128 0x8
 1730 0864 17040000 		.4byte	.LASF115
 1731 0868 14       		.byte	0x14
 1732 0869 38       		.byte	0x38
 1733 086a C4000000 		.4byte	0xc4
 1734 086e 06       		.byte	0x6
 1735 086f 08       		.uleb128 0x8
 1736 0870 BF080000 		.4byte	.LASF116
 1737 0874 14       		.byte	0x14
 1738 0875 39       		.byte	0x39
 1739 0876 B4000000 		.4byte	0xb4
 1740 087a 08       		.byte	0x8
 1741 087b 08       		.uleb128 0x8
 1742 087c 81070000 		.4byte	.LASF117
 1743 0880 14       		.byte	0x14
 1744 0881 3A       		.byte	0x3a
 1745 0882 B4000000 		.4byte	0xb4
 1746 0886 09       		.byte	0x9
 1747 0887 08       		.uleb128 0x8
 1748 0888 66050000 		.4byte	.LASF118
 1749 088c 14       		.byte	0x14
 1750 088d 3B       		.byte	0x3b
 1751 088e B4000000 		.4byte	0xb4
 1752 0892 0A       		.byte	0xa
 1753 0893 08       		.uleb128 0x8
 1754 0894 E1060000 		.4byte	.LASF119
 1755 0898 14       		.byte	0x14
 1756 0899 3C       		.byte	0x3c
 1757 089a B4000000 		.4byte	0xb4
 1758 089e 0B       		.byte	0xb
 1759 089f 08       		.uleb128 0x8
 1760 08a0 A9030000 		.4byte	.LASF120
 1761 08a4 14       		.byte	0x14
 1762 08a5 3D       		.byte	0x3d
 1763 08a6 B4000000 		.4byte	0xb4
 1764 08aa 0C       		.byte	0xc
 1765 08ab 08       		.uleb128 0x8
 1766 08ac 94040000 		.4byte	.LASF121
 1767 08b0 14       		.byte	0x14
ARM GAS  /tmp/ccJUU6b3.s 			page 32


 1768 08b1 3E       		.byte	0x3e
 1769 08b2 B4000000 		.4byte	0xb4
 1770 08b6 0D       		.byte	0xd
 1771 08b7 08       		.uleb128 0x8
 1772 08b8 65080000 		.4byte	.LASF122
 1773 08bc 14       		.byte	0x14
 1774 08bd 3F       		.byte	0x3f
 1775 08be B4000000 		.4byte	0xb4
 1776 08c2 0E       		.byte	0xe
 1777 08c3 08       		.uleb128 0x8
 1778 08c4 F6080000 		.4byte	.LASF123
 1779 08c8 14       		.byte	0x14
 1780 08c9 40       		.byte	0x40
 1781 08ca B4000000 		.4byte	0xb4
 1782 08ce 0F       		.byte	0xf
 1783 08cf 08       		.uleb128 0x8
 1784 08d0 EA060000 		.4byte	.LASF124
 1785 08d4 14       		.byte	0x14
 1786 08d5 41       		.byte	0x41
 1787 08d6 B4000000 		.4byte	0xb4
 1788 08da 10       		.byte	0x10
 1789 08db 08       		.uleb128 0x8
 1790 08dc 5D090000 		.4byte	.LASF125
 1791 08e0 14       		.byte	0x14
 1792 08e1 42       		.byte	0x42
 1793 08e2 B4000000 		.4byte	0xb4
 1794 08e6 11       		.byte	0x11
 1795 08e7 08       		.uleb128 0x8
 1796 08e8 33090000 		.4byte	.LASF126
 1797 08ec 14       		.byte	0x14
 1798 08ed 43       		.byte	0x43
 1799 08ee B4000000 		.4byte	0xb4
 1800 08f2 12       		.byte	0x12
 1801 08f3 08       		.uleb128 0x8
 1802 08f4 43030000 		.4byte	.LASF127
 1803 08f8 14       		.byte	0x14
 1804 08f9 44       		.byte	0x44
 1805 08fa B4000000 		.4byte	0xb4
 1806 08fe 13       		.byte	0x13
 1807 08ff 08       		.uleb128 0x8
 1808 0900 E1010000 		.4byte	.LASF128
 1809 0904 14       		.byte	0x14
 1810 0905 45       		.byte	0x45
 1811 0906 B4000000 		.4byte	0xb4
 1812 090a 14       		.byte	0x14
 1813 090b 08       		.uleb128 0x8
 1814 090c 66070000 		.4byte	.LASF129
 1815 0910 14       		.byte	0x14
 1816 0911 46       		.byte	0x46
 1817 0912 B4000000 		.4byte	0xb4
 1818 0916 15       		.byte	0x15
 1819 0917 00       		.byte	0
 1820 0918 13       		.uleb128 0x13
 1821 0919 FD070000 		.4byte	0x7fd
 1822 091d 28090000 		.4byte	0x928
 1823 0921 14       		.uleb128 0x14
 1824 0922 8C040000 		.4byte	0x48c
ARM GAS  /tmp/ccJUU6b3.s 			page 33


 1825 0926 03       		.byte	0x3
 1826 0927 00       		.byte	0
 1827 0928 03       		.uleb128 0x3
 1828 0929 5C050000 		.4byte	.LASF130
 1829 092d 14       		.byte	0x14
 1830 092e 47       		.byte	0x47
 1831 092f 37080000 		.4byte	0x837
 1832 0933 05       		.uleb128 0x5
 1833 0934 28090000 		.4byte	0x928
 1834 0938 12       		.uleb128 0x12
 1835 0939 07030000 		.4byte	.LASF131
 1836 093d 14       		.byte	0x14
 1837 093e 6C       		.byte	0x6c
 1838 093f 33090000 		.4byte	0x933
 1839 0943 03       		.uleb128 0x3
 1840 0944 3C070000 		.4byte	.LASF132
 1841 0948 12       		.byte	0x12
 1842 0949 38       		.byte	0x38
 1843 094a 84070000 		.4byte	0x784
 1844 094e 03       		.uleb128 0x3
 1845 094f 84020000 		.4byte	.LASF133
 1846 0953 13       		.byte	0x13
 1847 0954 34       		.byte	0x34
 1848 0955 AF070000 		.4byte	0x7af
 1849 0959 0C       		.uleb128 0xc
 1850 095a 04       		.byte	0x4
 1851 095b 4E090000 		.4byte	0x94e
 1852 095f 04       		.uleb128 0x4
 1853 0960 01       		.byte	0x1
 1854 0961 02       		.byte	0x2
 1855 0962 C5060000 		.4byte	.LASF134
 1856 0966 03       		.uleb128 0x3
 1857 0967 95080000 		.4byte	.LASF135
 1858 096b 15       		.byte	0x15
 1859 096c 47       		.byte	0x47
 1860 096d 71090000 		.4byte	0x971
 1861 0971 0C       		.uleb128 0xc
 1862 0972 04       		.byte	0x4
 1863 0973 77090000 		.4byte	0x977
 1864 0977 1B       		.uleb128 0x1b
 1865 0978 41030000 		.4byte	0x341
 1866 097c 8B090000 		.4byte	0x98b
 1867 0980 0F       		.uleb128 0xf
 1868 0981 2C000000 		.4byte	0x2c
 1869 0985 0F       		.uleb128 0xf
 1870 0986 37000000 		.4byte	0x37
 1871 098a 00       		.byte	0
 1872 098b 15       		.uleb128 0x15
 1873 098c 08       		.byte	0x8
 1874 098d 15       		.byte	0x15
 1875 098e 51       		.byte	0x51
 1876 098f AC090000 		.4byte	0x9ac
 1877 0993 08       		.uleb128 0x8
 1878 0994 B2090000 		.4byte	.LASF136
 1879 0998 15       		.byte	0x15
 1880 0999 55       		.byte	0x55
 1881 099a AC090000 		.4byte	0x9ac
ARM GAS  /tmp/ccJUU6b3.s 			page 34


 1882 099e 00       		.byte	0
 1883 099f 08       		.uleb128 0x8
 1884 09a0 EC030000 		.4byte	.LASF137
 1885 09a4 15       		.byte	0x15
 1886 09a5 59       		.byte	0x59
 1887 09a6 AC090000 		.4byte	0x9ac
 1888 09aa 04       		.byte	0x4
 1889 09ab 00       		.byte	0
 1890 09ac 0C       		.uleb128 0xc
 1891 09ad 04       		.byte	0x4
 1892 09ae B4000000 		.4byte	0xb4
 1893 09b2 03       		.uleb128 0x3
 1894 09b3 20050000 		.4byte	.LASF138
 1895 09b7 15       		.byte	0x15
 1896 09b8 5A       		.byte	0x5a
 1897 09b9 8B090000 		.4byte	0x98b
 1898 09bd 12       		.uleb128 0x12
 1899 09be 08080000 		.4byte	.LASF139
 1900 09c2 15       		.byte	0x15
 1901 09c3 65       		.byte	0x65
 1902 09c4 B2090000 		.4byte	0x9b2
 1903 09c8 07       		.uleb128 0x7
 1904 09c9 EA080000 		.4byte	.LASF140
 1905 09cd 04       		.byte	0x4
 1906 09ce 04       		.byte	0x4
 1907 09cf 38       		.byte	0x38
 1908 09d0 E1090000 		.4byte	0x9e1
 1909 09d4 08       		.uleb128 0x8
 1910 09d5 67010000 		.4byte	.LASF52
 1911 09d9 04       		.byte	0x4
 1912 09da 39       		.byte	0x39
 1913 09db E1090000 		.4byte	0x9e1
 1914 09df 00       		.byte	0
 1915 09e0 00       		.byte	0
 1916 09e1 0C       		.uleb128 0xc
 1917 09e2 04       		.byte	0x4
 1918 09e3 C8090000 		.4byte	0x9c8
 1919 09e7 15       		.uleb128 0x15
 1920 09e8 10       		.byte	0x10
 1921 09e9 04       		.byte	0x4
 1922 09ea 40       		.byte	0x40
 1923 09eb 200A0000 		.4byte	0xa20
 1924 09ef 08       		.uleb128 0x8
 1925 09f0 67010000 		.4byte	.LASF52
 1926 09f4 04       		.byte	0x4
 1927 09f5 41       		.byte	0x41
 1928 09f6 E1090000 		.4byte	0x9e1
 1929 09fa 00       		.byte	0
 1930 09fb 08       		.uleb128 0x8
 1931 09fc B3080000 		.4byte	.LASF141
 1932 0a00 04       		.byte	0x4
 1933 0a01 42       		.byte	0x42
 1934 0a02 2C000000 		.4byte	0x2c
 1935 0a06 04       		.byte	0x4
 1936 0a07 08       		.uleb128 0x8
 1937 0a08 8C020000 		.4byte	.LASF142
 1938 0a0c 04       		.byte	0x4
ARM GAS  /tmp/ccJUU6b3.s 			page 35


 1939 0a0d 44       		.byte	0x44
 1940 0a0e 37000000 		.4byte	0x37
 1941 0a12 08       		.byte	0x8
 1942 0a13 08       		.uleb128 0x8
 1943 0a14 95000000 		.4byte	.LASF143
 1944 0a18 04       		.byte	0x4
 1945 0a19 45       		.byte	0x45
 1946 0a1a 66090000 		.4byte	0x966
 1947 0a1e 0C       		.byte	0xc
 1948 0a1f 00       		.byte	0
 1949 0a20 03       		.uleb128 0x3
 1950 0a21 23030000 		.4byte	.LASF144
 1951 0a25 04       		.byte	0x4
 1952 0a26 47       		.byte	0x47
 1953 0a27 E7090000 		.4byte	0x9e7
 1954 0a2b 15       		.uleb128 0x15
 1955 0a2c 1C       		.byte	0x1c
 1956 0a2d 04       		.byte	0x4
 1957 0a2e 4D       		.byte	0x4d
 1958 0a2f 4C0A0000 		.4byte	0xa4c
 1959 0a33 09       		.uleb128 0x9
 1960 0a34 73656D00 		.ascii	"sem\000"
 1961 0a38 04       		.byte	0x4
 1962 0a39 4E       		.byte	0x4e
 1963 0a3a 43090000 		.4byte	0x943
 1964 0a3e 00       		.byte	0
 1965 0a3f 08       		.uleb128 0x8
 1966 0a40 FF080000 		.4byte	.LASF145
 1967 0a44 04       		.byte	0x4
 1968 0a45 50       		.byte	0x50
 1969 0a46 200A0000 		.4byte	0xa20
 1970 0a4a 0C       		.byte	0xc
 1971 0a4b 00       		.byte	0
 1972 0a4c 03       		.uleb128 0x3
 1973 0a4d 00000000 		.4byte	.LASF146
 1974 0a51 04       		.byte	0x4
 1975 0a52 51       		.byte	0x51
 1976 0a53 2B0A0000 		.4byte	0xa2b
 1977 0a57 07       		.uleb128 0x7
 1978 0a58 86050000 		.4byte	.LASF147
 1979 0a5c 10       		.byte	0x10
 1980 0a5d 16       		.byte	0x16
 1981 0a5e A9       		.byte	0xa9
 1982 0a5f 880A0000 		.4byte	0xa88
 1983 0a63 08       		.uleb128 0x8
 1984 0a64 67010000 		.4byte	.LASF52
 1985 0a68 16       		.byte	0x16
 1986 0a69 AD       		.byte	0xad
 1987 0a6a 880A0000 		.4byte	0xa88
 1988 0a6e 00       		.byte	0
 1989 0a6f 08       		.uleb128 0x8
 1990 0a70 71050000 		.4byte	.LASF40
 1991 0a74 16       		.byte	0x16
 1992 0a75 B1       		.byte	0xb1
 1993 0a76 58010000 		.4byte	0x158
 1994 0a7a 04       		.byte	0x4
 1995 0a7b 08       		.uleb128 0x8
ARM GAS  /tmp/ccJUU6b3.s 			page 36


 1996 0a7c 5B030000 		.4byte	.LASF36
 1997 0a80 16       		.byte	0x16
 1998 0a81 B3       		.byte	0xb3
 1999 0a82 8E0A0000 		.4byte	0xa8e
 2000 0a86 08       		.byte	0x8
 2001 0a87 00       		.byte	0
 2002 0a88 0C       		.uleb128 0xc
 2003 0a89 04       		.byte	0x4
 2004 0a8a 570A0000 		.4byte	0xa57
 2005 0a8e 13       		.uleb128 0x13
 2006 0a8f FD070000 		.4byte	0x7fd
 2007 0a93 9E0A0000 		.4byte	0xa9e
 2008 0a97 14       		.uleb128 0x14
 2009 0a98 8C040000 		.4byte	0x48c
 2010 0a9c 07       		.byte	0x7
 2011 0a9d 00       		.byte	0
 2012 0a9e 03       		.uleb128 0x3
 2013 0a9f 59010000 		.4byte	.LASF148
 2014 0aa3 16       		.byte	0x16
 2015 0aa4 B7       		.byte	0xb7
 2016 0aa5 570A0000 		.4byte	0xa57
 2017 0aa9 07       		.uleb128 0x7
 2018 0aaa 7B040000 		.4byte	.LASF149
 2019 0aae 04       		.byte	0x4
 2020 0aaf 16       		.byte	0x16
 2021 0ab0 BC       		.byte	0xbc
 2022 0ab1 C20A0000 		.4byte	0xac2
 2023 0ab5 08       		.uleb128 0x8
 2024 0ab6 67010000 		.4byte	.LASF52
 2025 0aba 16       		.byte	0x16
 2026 0abb BD       		.byte	0xbd
 2027 0abc C20A0000 		.4byte	0xac2
 2028 0ac0 00       		.byte	0
 2029 0ac1 00       		.byte	0
 2030 0ac2 0C       		.uleb128 0xc
 2031 0ac3 04       		.byte	0x4
 2032 0ac4 9E0A0000 		.4byte	0xa9e
 2033 0ac8 03       		.uleb128 0x3
 2034 0ac9 92030000 		.4byte	.LASF150
 2035 0acd 16       		.byte	0x16
 2036 0ace BE       		.byte	0xbe
 2037 0acf A90A0000 		.4byte	0xaa9
 2038 0ad3 0D       		.uleb128 0xd
 2039 0ad4 C7080000 		.4byte	.LASF151
 2040 0ad8 48       		.byte	0x48
 2041 0ad9 16       		.byte	0x16
 2042 0ada 3E01     		.2byte	0x13e
 2043 0adc 490B0000 		.4byte	0xb49
 2044 0ae0 0A       		.uleb128 0xa
 2045 0ae1 6D747800 		.ascii	"mtx\000"
 2046 0ae5 16       		.byte	0x16
 2047 0ae6 4301     		.2byte	0x143
 2048 0ae8 4E090000 		.4byte	0x94e
 2049 0aec 00       		.byte	0
 2050 0aed 0B       		.uleb128 0xb
 2051 0aee D4070000 		.4byte	.LASF152
 2052 0af2 16       		.byte	0x16
ARM GAS  /tmp/ccJUU6b3.s 			page 37


 2053 0af3 4A01     		.2byte	0x14a
 2054 0af5 C80A0000 		.4byte	0xac8
 2055 0af9 14       		.byte	0x14
 2056 0afa 0B       		.uleb128 0xb
 2057 0afb 2E070000 		.4byte	.LASF153
 2058 0aff 16       		.byte	0x16
 2059 0b00 4E01     		.2byte	0x14e
 2060 0b02 200A0000 		.4byte	0xa20
 2061 0b06 18       		.byte	0x18
 2062 0b07 0B       		.uleb128 0xb
 2063 0b08 B3060000 		.4byte	.LASF154
 2064 0b0c 16       		.byte	0x16
 2065 0b0d 5301     		.2byte	0x153
 2066 0b0f C80A0000 		.4byte	0xac8
 2067 0b13 28       		.byte	0x28
 2068 0b14 0B       		.uleb128 0xb
 2069 0b15 9E000000 		.4byte	.LASF155
 2070 0b19 16       		.byte	0x16
 2071 0b1a 5901     		.2byte	0x159
 2072 0b1c C80A0000 		.4byte	0xac8
 2073 0b20 2C       		.byte	0x2c
 2074 0b21 0B       		.uleb128 0xb
 2075 0b22 FF040000 		.4byte	.LASF156
 2076 0b26 16       		.byte	0x16
 2077 0b27 5D01     		.2byte	0x15d
 2078 0b29 200A0000 		.4byte	0xa20
 2079 0b2d 30       		.byte	0x30
 2080 0b2e 0B       		.uleb128 0xb
 2081 0b2f 36020000 		.4byte	.LASF157
 2082 0b33 16       		.byte	0x16
 2083 0b34 6301     		.2byte	0x163
 2084 0b36 C80A0000 		.4byte	0xac8
 2085 0b3a 40       		.byte	0x40
 2086 0b3b 0B       		.uleb128 0xb
 2087 0b3c 29090000 		.4byte	.LASF158
 2088 0b40 16       		.byte	0x16
 2089 0b41 6901     		.2byte	0x169
 2090 0b43 C80A0000 		.4byte	0xac8
 2091 0b47 44       		.byte	0x44
 2092 0b48 00       		.byte	0
 2093 0b49 1C       		.uleb128 0x1c
 2094 0b4a 83090000 		.4byte	.LASF159
 2095 0b4e 16       		.byte	0x16
 2096 0b4f 7101     		.2byte	0x171
 2097 0b51 D30A0000 		.4byte	0xad3
 2098 0b55 11       		.uleb128 0x11
 2099 0b56 10030000 		.4byte	.LASF160
 2100 0b5a 16       		.byte	0x16
 2101 0b5b 7C01     		.2byte	0x17c
 2102 0b5d 490B0000 		.4byte	0xb49
 2103 0b61 1D       		.uleb128 0x1d
 2104 0b62 70030000 		.4byte	.LASF165
 2105 0b66 01       		.byte	0x1
 2106 0b67 4501     		.2byte	0x145
 2107 0b69 00000000 		.4byte	.LFB311
 2108 0b6d 2C000000 		.4byte	.LFE311-.LFB311
 2109 0b71 01       		.uleb128 0x1
ARM GAS  /tmp/ccJUU6b3.s 			page 38


 2110 0b72 9C       		.byte	0x9c
 2111 0b73 B80C0000 		.4byte	0xcb8
 2112 0b77 1E       		.uleb128 0x1e
 2113 0b78 676D7000 		.ascii	"gmp\000"
 2114 0b7c 01       		.byte	0x1
 2115 0b7d 4501     		.2byte	0x145
 2116 0b7f B80C0000 		.4byte	0xcb8
 2117 0b83 00000000 		.4byte	.LLST32
 2118 0b87 1F       		.uleb128 0x1f
 2119 0b88 37070000 		.4byte	.LASF161
 2120 0b8c 01       		.byte	0x1
 2121 0b8d 4501     		.2byte	0x145
 2122 0b8f 41030000 		.4byte	0x341
 2123 0b93 1E000000 		.4byte	.LLST33
 2124 0b97 20       		.uleb128 0x20
 2125 0b98 8F130000 		.4byte	0x138f
 2126 0b9c 06000000 		.4byte	.LBB113
 2127 0ba0 0A000000 		.4byte	.LBE113-.LBB113
 2128 0ba4 01       		.byte	0x1
 2129 0ba5 4701     		.2byte	0x147
 2130 0ba7 E40B0000 		.4byte	0xbe4
 2131 0bab 20       		.uleb128 0x20
 2132 0bac A1130000 		.4byte	0x13a1
 2133 0bb0 06000000 		.4byte	.LBB115
 2134 0bb4 06000000 		.4byte	.LBE115-.LBB115
 2135 0bb8 03       		.byte	0x3
 2136 0bb9 6301     		.2byte	0x163
 2137 0bbb DA0B0000 		.4byte	0xbda
 2138 0bbf 21       		.uleb128 0x21
 2139 0bc0 AA130000 		.4byte	0x13aa
 2140 0bc4 06000000 		.4byte	.LBB116
 2141 0bc8 06000000 		.4byte	.LBE116-.LBB116
 2142 0bcc 0F       		.byte	0xf
 2143 0bcd 6202     		.2byte	0x262
 2144 0bcf 22       		.uleb128 0x22
 2145 0bd0 B7130000 		.4byte	0x13b7
 2146 0bd4 3C000000 		.4byte	.LLST34
 2147 0bd8 00       		.byte	0
 2148 0bd9 00       		.byte	0
 2149 0bda 23       		.uleb128 0x23
 2150 0bdb 10000000 		.4byte	.LVL44
 2151 0bdf 27140000 		.4byte	0x1427
 2152 0be3 00       		.byte	0
 2153 0be4 20       		.uleb128 0x20
 2154 0be5 2C130000 		.4byte	0x132c
 2155 0be9 10000000 		.4byte	.LBB118
 2156 0bed 0C000000 		.4byte	.LBE118-.LBB118
 2157 0bf1 01       		.byte	0x1
 2158 0bf2 4801     		.2byte	0x148
 2159 0bf4 520C0000 		.4byte	0xc52
 2160 0bf8 22       		.uleb128 0x22
 2161 0bf9 45130000 		.4byte	0x1345
 2162 0bfd 51000000 		.4byte	.LLST35
 2163 0c01 22       		.uleb128 0x22
 2164 0c02 39130000 		.4byte	0x1339
 2165 0c06 64000000 		.4byte	.LLST36
 2166 0c0a 24       		.uleb128 0x24
ARM GAS  /tmp/ccJUU6b3.s 			page 39


 2167 0c0b 86100000 		.4byte	0x1086
 2168 0c0f 10000000 		.4byte	.LBB120
 2169 0c13 48000000 		.4byte	.Ldebug_ranges0+0x48
 2170 0c17 04       		.byte	0x4
 2171 0c18 1F01     		.2byte	0x11f
 2172 0c1a 410C0000 		.4byte	0xc41
 2173 0c1e 22       		.uleb128 0x22
 2174 0c1f 9C100000 		.4byte	0x109c
 2175 0c23 77000000 		.4byte	.LLST37
 2176 0c27 22       		.uleb128 0x22
 2177 0c28 92100000 		.4byte	0x1092
 2178 0c2c 8A000000 		.4byte	.LLST38
 2179 0c30 25       		.uleb128 0x25
 2180 0c31 48000000 		.4byte	.Ldebug_ranges0+0x48
 2181 0c35 26       		.uleb128 0x26
 2182 0c36 1A140000 		.4byte	0x141a
 2183 0c3a 26       		.uleb128 0x26
 2184 0c3b 21140000 		.4byte	0x1421
 2185 0c3f 00       		.byte	0
 2186 0c40 00       		.byte	0
 2187 0c41 27       		.uleb128 0x27
 2188 0c42 1C000000 		.4byte	.LVL46
 2189 0c46 32140000 		.4byte	0x1432
 2190 0c4a 28       		.uleb128 0x28
 2191 0c4b 01       		.uleb128 0x1
 2192 0c4c 50       		.byte	0x50
 2193 0c4d 02       		.uleb128 0x2
 2194 0c4e 74       		.byte	0x74
 2195 0c4f 00       		.sleb128 0
 2196 0c50 00       		.byte	0
 2197 0c51 00       		.byte	0
 2198 0c52 20       		.uleb128 0x20
 2199 0c53 74130000 		.4byte	0x1374
 2200 0c57 20000000 		.4byte	.LBB124
 2201 0c5b 0C000000 		.4byte	.LBE124-.LBB124
 2202 0c5f 01       		.byte	0x1
 2203 0c60 4A01     		.2byte	0x14a
 2204 0c62 AE0C0000 		.4byte	0xcae
 2205 0c66 29       		.uleb128 0x29
 2206 0c67 20000000 		.4byte	.LBB125
 2207 0c6b 0C000000 		.4byte	.LBE125-.LBB125
 2208 0c6f 26       		.uleb128 0x26
 2209 0c70 81130000 		.4byte	0x1381
 2210 0c74 20       		.uleb128 0x20
 2211 0c75 98130000 		.4byte	0x1398
 2212 0c79 24000000 		.4byte	.LBB126
 2213 0c7d 08000000 		.4byte	.LBE126-.LBB126
 2214 0c81 03       		.byte	0x3
 2215 0c82 7A01     		.2byte	0x17a
 2216 0c84 A30C0000 		.4byte	0xca3
 2217 0c88 21       		.uleb128 0x21
 2218 0c89 AA130000 		.4byte	0x13aa
 2219 0c8d 24000000 		.4byte	.LBB127
 2220 0c91 08000000 		.4byte	.LBE127-.LBB127
 2221 0c95 0F       		.byte	0xf
 2222 0c96 7502     		.2byte	0x275
 2223 0c98 22       		.uleb128 0x22
ARM GAS  /tmp/ccJUU6b3.s 			page 40


 2224 0c99 B7130000 		.4byte	0x13b7
 2225 0c9d 9F000000 		.4byte	.LLST39
 2226 0ca1 00       		.byte	0
 2227 0ca2 00       		.byte	0
 2228 0ca3 23       		.uleb128 0x23
 2229 0ca4 24000000 		.4byte	.LVL48
 2230 0ca8 3D140000 		.4byte	0x143d
 2231 0cac 00       		.byte	0
 2232 0cad 00       		.byte	0
 2233 0cae 23       		.uleb128 0x23
 2234 0caf 20000000 		.4byte	.LVL47
 2235 0cb3 48140000 		.4byte	0x1448
 2236 0cb7 00       		.byte	0
 2237 0cb8 0C       		.uleb128 0xc
 2238 0cb9 04       		.byte	0x4
 2239 0cba 4C0A0000 		.4byte	0xa4c
 2240 0cbe 2A       		.uleb128 0x2a
 2241 0cbf 65020000 		.4byte	.LASF163
 2242 0cc3 01       		.byte	0x1
 2243 0cc4 2E01     		.2byte	0x12e
 2244 0cc6 41030000 		.4byte	0x341
 2245 0cca 00000000 		.4byte	.LFB310
 2246 0cce 28000000 		.4byte	.LFE310-.LFB310
 2247 0cd2 01       		.uleb128 0x1
 2248 0cd3 9C       		.byte	0x9c
 2249 0cd4 C60D0000 		.4byte	0xdc6
 2250 0cd8 1E       		.uleb128 0x1e
 2251 0cd9 676D7000 		.ascii	"gmp\000"
 2252 0cdd 01       		.byte	0x1
 2253 0cde 2E01     		.2byte	0x12e
 2254 0ce0 B80C0000 		.4byte	0xcb8
 2255 0ce4 B3000000 		.4byte	.LLST27
 2256 0ce8 1F       		.uleb128 0x1f
 2257 0ce9 1B030000 		.4byte	.LASF162
 2258 0ced 01       		.byte	0x1
 2259 0cee 2F01     		.2byte	0x12f
 2260 0cf0 81040000 		.4byte	0x481
 2261 0cf4 DF000000 		.4byte	.LLST28
 2262 0cf8 2B       		.uleb128 0x2b
 2263 0cf9 7000     		.ascii	"p\000"
 2264 0cfb 01       		.byte	0x1
 2265 0cfc 3001     		.2byte	0x130
 2266 0cfe 41030000 		.4byte	0x341
 2267 0d02 FD000000 		.4byte	.LLST29
 2268 0d06 20       		.uleb128 0x20
 2269 0d07 8F130000 		.4byte	0x138f
 2270 0d0b 06000000 		.4byte	.LBB89
 2271 0d0f 0A000000 		.4byte	.LBE89-.LBB89
 2272 0d13 01       		.byte	0x1
 2273 0d14 3201     		.2byte	0x132
 2274 0d16 530D0000 		.4byte	0xd53
 2275 0d1a 20       		.uleb128 0x20
 2276 0d1b A1130000 		.4byte	0x13a1
 2277 0d1f 06000000 		.4byte	.LBB91
 2278 0d23 06000000 		.4byte	.LBE91-.LBB91
 2279 0d27 03       		.byte	0x3
 2280 0d28 6301     		.2byte	0x163
ARM GAS  /tmp/ccJUU6b3.s 			page 41


 2281 0d2a 490D0000 		.4byte	0xd49
 2282 0d2e 21       		.uleb128 0x21
 2283 0d2f AA130000 		.4byte	0x13aa
 2284 0d33 06000000 		.4byte	.LBB92
 2285 0d37 06000000 		.4byte	.LBE92-.LBB92
 2286 0d3b 0F       		.byte	0xf
 2287 0d3c 6202     		.2byte	0x262
 2288 0d3e 22       		.uleb128 0x22
 2289 0d3f B7130000 		.4byte	0x13b7
 2290 0d43 1B010000 		.4byte	.LLST30
 2291 0d47 00       		.byte	0
 2292 0d48 00       		.byte	0
 2293 0d49 23       		.uleb128 0x23
 2294 0d4a 10000000 		.4byte	.LVL37
 2295 0d4e 27140000 		.4byte	0x1427
 2296 0d52 00       		.byte	0
 2297 0d53 20       		.uleb128 0x20
 2298 0d54 74130000 		.4byte	0x1374
 2299 0d58 1A000000 		.4byte	.LBB94
 2300 0d5c 0A000000 		.4byte	.LBE94-.LBB94
 2301 0d60 01       		.byte	0x1
 2302 0d61 3401     		.2byte	0x134
 2303 0d63 AF0D0000 		.4byte	0xdaf
 2304 0d67 29       		.uleb128 0x29
 2305 0d68 1A000000 		.4byte	.LBB95
 2306 0d6c 0A000000 		.4byte	.LBE95-.LBB95
 2307 0d70 26       		.uleb128 0x26
 2308 0d71 81130000 		.4byte	0x1381
 2309 0d75 20       		.uleb128 0x20
 2310 0d76 98130000 		.4byte	0x1398
 2311 0d7a 1E000000 		.4byte	.LBB96
 2312 0d7e 06000000 		.4byte	.LBE96-.LBB96
 2313 0d82 03       		.byte	0x3
 2314 0d83 7A01     		.2byte	0x17a
 2315 0d85 A40D0000 		.4byte	0xda4
 2316 0d89 21       		.uleb128 0x21
 2317 0d8a AA130000 		.4byte	0x13aa
 2318 0d8e 1E000000 		.4byte	.LBB97
 2319 0d92 06000000 		.4byte	.LBE97-.LBB97
 2320 0d96 0F       		.byte	0xf
 2321 0d97 7502     		.2byte	0x275
 2322 0d99 22       		.uleb128 0x22
 2323 0d9a B7130000 		.4byte	0x13b7
 2324 0d9e 30010000 		.4byte	.LLST31
 2325 0da2 00       		.byte	0
 2326 0da3 00       		.byte	0
 2327 0da4 23       		.uleb128 0x23
 2328 0da5 1E000000 		.4byte	.LVL40
 2329 0da9 3D140000 		.4byte	0x143d
 2330 0dad 00       		.byte	0
 2331 0dae 00       		.byte	0
 2332 0daf 27       		.uleb128 0x27
 2333 0db0 18000000 		.4byte	.LVL38
 2334 0db4 C60D0000 		.4byte	0xdc6
 2335 0db8 28       		.uleb128 0x28
 2336 0db9 01       		.uleb128 0x1
 2337 0dba 50       		.byte	0x50
ARM GAS  /tmp/ccJUU6b3.s 			page 42


 2338 0dbb 02       		.uleb128 0x2
 2339 0dbc 74       		.byte	0x74
 2340 0dbd 00       		.sleb128 0
 2341 0dbe 28       		.uleb128 0x28
 2342 0dbf 01       		.uleb128 0x1
 2343 0dc0 51       		.byte	0x51
 2344 0dc1 02       		.uleb128 0x2
 2345 0dc2 75       		.byte	0x75
 2346 0dc3 00       		.sleb128 0
 2347 0dc4 00       		.byte	0
 2348 0dc5 00       		.byte	0
 2349 0dc6 2A       		.uleb128 0x2a
 2350 0dc7 DF040000 		.4byte	.LASF164
 2351 0dcb 01       		.byte	0x1
 2352 0dcc 1301     		.2byte	0x113
 2353 0dce 41030000 		.4byte	0x341
 2354 0dd2 00000000 		.4byte	.LFB309
 2355 0dd6 1A000000 		.4byte	.LFE309-.LFB309
 2356 0dda 01       		.uleb128 0x1
 2357 0ddb 9C       		.byte	0x9c
 2358 0ddc 3F0E0000 		.4byte	0xe3f
 2359 0de0 1E       		.uleb128 0x1e
 2360 0de1 676D7000 		.ascii	"gmp\000"
 2361 0de5 01       		.byte	0x1
 2362 0de6 1301     		.2byte	0x113
 2363 0de8 B80C0000 		.4byte	0xcb8
 2364 0dec 44010000 		.4byte	.LLST24
 2365 0df0 1F       		.uleb128 0x1f
 2366 0df1 1B030000 		.4byte	.LASF162
 2367 0df5 01       		.byte	0x1
 2368 0df6 1401     		.2byte	0x114
 2369 0df8 81040000 		.4byte	0x481
 2370 0dfc 88010000 		.4byte	.LLST25
 2371 0e00 2B       		.uleb128 0x2b
 2372 0e01 6D736700 		.ascii	"msg\000"
 2373 0e05 01       		.byte	0x1
 2374 0e06 1501     		.2byte	0x115
 2375 0e08 37010000 		.4byte	0x137
 2376 0e0c A9010000 		.4byte	.LLST26
 2377 0e10 2C       		.uleb128 0x2c
 2378 0e11 08000000 		.4byte	.LVL30
 2379 0e15 54140000 		.4byte	0x1454
 2380 0e19 2B0E0000 		.4byte	0xe2b
 2381 0e1d 28       		.uleb128 0x28
 2382 0e1e 01       		.uleb128 0x1
 2383 0e1f 50       		.byte	0x50
 2384 0e20 02       		.uleb128 0x2
 2385 0e21 74       		.byte	0x74
 2386 0e22 00       		.sleb128 0
 2387 0e23 28       		.uleb128 0x28
 2388 0e24 01       		.uleb128 0x1
 2389 0e25 51       		.byte	0x51
 2390 0e26 03       		.uleb128 0x3
 2391 0e27 F3       		.byte	0xf3
 2392 0e28 01       		.uleb128 0x1
 2393 0e29 51       		.byte	0x51
 2394 0e2a 00       		.byte	0
ARM GAS  /tmp/ccJUU6b3.s 			page 43


 2395 0e2b 2D       		.uleb128 0x2d
 2396 0e2c 16000000 		.4byte	.LVL33
 2397 0e30 C3110000 		.4byte	0x11c3
 2398 0e34 28       		.uleb128 0x28
 2399 0e35 01       		.uleb128 0x1
 2400 0e36 50       		.byte	0x50
 2401 0e37 05       		.uleb128 0x5
 2402 0e38 F3       		.byte	0xf3
 2403 0e39 01       		.uleb128 0x1
 2404 0e3a 50       		.byte	0x50
 2405 0e3b 23       		.byte	0x23
 2406 0e3c 0C       		.uleb128 0xc
 2407 0e3d 00       		.byte	0
 2408 0e3e 00       		.byte	0
 2409 0e3f 2E       		.uleb128 0x2e
 2410 0e40 45080000 		.4byte	.LASF166
 2411 0e44 01       		.byte	0x1
 2412 0e45 F7       		.byte	0xf7
 2413 0e46 00000000 		.4byte	.LFB308
 2414 0e4a 1C000000 		.4byte	.LFE308-.LFB308
 2415 0e4e 01       		.uleb128 0x1
 2416 0e4f 9C       		.byte	0x9c
 2417 0e50 BF0E0000 		.4byte	0xebf
 2418 0e54 2F       		.uleb128 0x2f
 2419 0e55 676D7000 		.ascii	"gmp\000"
 2420 0e59 01       		.byte	0x1
 2421 0e5a F7       		.byte	0xf7
 2422 0e5b B80C0000 		.4byte	0xcb8
 2423 0e5f C7010000 		.4byte	.LLST40
 2424 0e63 2F       		.uleb128 0x2f
 2425 0e64 7000     		.ascii	"p\000"
 2426 0e66 01       		.byte	0x1
 2427 0e67 F7       		.byte	0xf7
 2428 0e68 41030000 		.4byte	0x341
 2429 0e6c E5010000 		.4byte	.LLST41
 2430 0e70 2F       		.uleb128 0x2f
 2431 0e71 6E00     		.ascii	"n\000"
 2432 0e73 01       		.byte	0x1
 2433 0e74 F7       		.byte	0xf7
 2434 0e75 2C000000 		.4byte	0x2c
 2435 0e79 03020000 		.4byte	.LLST42
 2436 0e7d 30       		.uleb128 0x30
 2437 0e7e 1B070000 		.4byte	.LASF169
 2438 0e82 CF0E0000 		.4byte	0xecf
 2439 0e86 31       		.uleb128 0x31
 2440 0e87 06130000 		.4byte	0x1306
 2441 0e8b 0C000000 		.4byte	.LBB129
 2442 0e8f 08000000 		.4byte	.LBE129-.LBB129
 2443 0e93 01       		.byte	0x1
 2444 0e94 FC       		.byte	0xfc
 2445 0e95 22       		.uleb128 0x22
 2446 0e96 1F130000 		.4byte	0x131f
 2447 0e9a 39020000 		.4byte	.LLST43
 2448 0e9e 22       		.uleb128 0x22
 2449 0e9f 13130000 		.4byte	0x1313
 2450 0ea3 4C020000 		.4byte	.LLST44
 2451 0ea7 27       		.uleb128 0x27
ARM GAS  /tmp/ccJUU6b3.s 			page 44


 2452 0ea8 14000000 		.4byte	.LVL53
 2453 0eac 610B0000 		.4byte	0xb61
 2454 0eb0 28       		.uleb128 0x28
 2455 0eb1 01       		.uleb128 0x1
 2456 0eb2 50       		.byte	0x50
 2457 0eb3 02       		.uleb128 0x2
 2458 0eb4 76       		.byte	0x76
 2459 0eb5 00       		.sleb128 0
 2460 0eb6 28       		.uleb128 0x28
 2461 0eb7 01       		.uleb128 0x1
 2462 0eb8 51       		.byte	0x51
 2463 0eb9 02       		.uleb128 0x2
 2464 0eba 75       		.byte	0x75
 2465 0ebb 00       		.sleb128 0
 2466 0ebc 00       		.byte	0
 2467 0ebd 00       		.byte	0
 2468 0ebe 00       		.byte	0
 2469 0ebf 13       		.uleb128 0x13
 2470 0ec0 04080000 		.4byte	0x804
 2471 0ec4 CF0E0000 		.4byte	0xecf
 2472 0ec8 14       		.uleb128 0x14
 2473 0ec9 8C040000 		.4byte	0x48c
 2474 0ecd 16       		.byte	0x16
 2475 0ece 00       		.byte	0
 2476 0ecf 05       		.uleb128 0x5
 2477 0ed0 BF0E0000 		.4byte	0xebf
 2478 0ed4 2E       		.uleb128 0x2e
 2479 0ed5 35050000 		.4byte	.LASF167
 2480 0ed9 01       		.byte	0x1
 2481 0eda E2       		.byte	0xe2
 2482 0edb 00000000 		.4byte	.LFB307
 2483 0edf 16000000 		.4byte	.LFE307-.LFB307
 2484 0ee3 01       		.uleb128 0x1
 2485 0ee4 9C       		.byte	0x9c
 2486 0ee5 700F0000 		.4byte	0xf70
 2487 0ee9 2F       		.uleb128 0x2f
 2488 0eea 676D7000 		.ascii	"gmp\000"
 2489 0eee 01       		.byte	0x1
 2490 0eef E2       		.byte	0xe2
 2491 0ef0 B80C0000 		.4byte	0xcb8
 2492 0ef4 5F020000 		.4byte	.LLST17
 2493 0ef8 32       		.uleb128 0x32
 2494 0ef9 8F010000 		.4byte	.LASF114
 2495 0efd 01       		.byte	0x1
 2496 0efe E3       		.byte	0xe3
 2497 0eff 2C000000 		.4byte	0x2c
 2498 0f03 80020000 		.4byte	.LLST18
 2499 0f07 32       		.uleb128 0x32
 2500 0f08 8C020000 		.4byte	.LASF142
 2501 0f0c 01       		.byte	0x1
 2502 0f0d E4       		.byte	0xe4
 2503 0f0e 37000000 		.4byte	0x37
 2504 0f12 AD020000 		.4byte	.LLST19
 2505 0f16 33       		.uleb128 0x33
 2506 0f17 AC120000 		.4byte	0x12ac
 2507 0f1b 02000000 		.4byte	.LBB75
 2508 0f1f 30000000 		.4byte	.Ldebug_ranges0+0x30
ARM GAS  /tmp/ccJUU6b3.s 			page 45


 2509 0f23 01       		.byte	0x1
 2510 0f24 E6       		.byte	0xe6
 2511 0f25 590F0000 		.4byte	0xf59
 2512 0f29 22       		.uleb128 0x22
 2513 0f2a D8120000 		.4byte	0x12d8
 2514 0f2e CE020000 		.4byte	.LLST20
 2515 0f32 22       		.uleb128 0x22
 2516 0f33 CD120000 		.4byte	0x12cd
 2517 0f37 E2020000 		.4byte	.LLST21
 2518 0f3b 22       		.uleb128 0x22
 2519 0f3c C2120000 		.4byte	0x12c2
 2520 0f40 F5020000 		.4byte	.LLST22
 2521 0f44 22       		.uleb128 0x22
 2522 0f45 B8120000 		.4byte	0x12b8
 2523 0f49 14030000 		.4byte	.LLST23
 2524 0f4d 25       		.uleb128 0x25
 2525 0f4e 30000000 		.4byte	.Ldebug_ranges0+0x30
 2526 0f52 26       		.uleb128 0x26
 2527 0f53 F3130000 		.4byte	0x13f3
 2528 0f57 00       		.byte	0
 2529 0f58 00       		.byte	0
 2530 0f59 2D       		.uleb128 0x2d
 2531 0f5a 16000000 		.4byte	.LVL28
 2532 0f5e 5F140000 		.4byte	0x145f
 2533 0f62 28       		.uleb128 0x28
 2534 0f63 01       		.uleb128 0x1
 2535 0f64 50       		.byte	0x50
 2536 0f65 03       		.uleb128 0x3
 2537 0f66 F3       		.byte	0xf3
 2538 0f67 01       		.uleb128 0x1
 2539 0f68 50       		.byte	0x50
 2540 0f69 28       		.uleb128 0x28
 2541 0f6a 01       		.uleb128 0x1
 2542 0f6b 51       		.byte	0x51
 2543 0f6c 01       		.uleb128 0x1
 2544 0f6d 30       		.byte	0x30
 2545 0f6e 00       		.byte	0
 2546 0f6f 00       		.byte	0
 2547 0f70 2E       		.uleb128 0x2e
 2548 0f71 18090000 		.4byte	.LASF168
 2549 0f75 01       		.byte	0x1
 2550 0f76 CF       		.byte	0xcf
 2551 0f77 00000000 		.4byte	.LFB306
 2552 0f7b 22000000 		.4byte	.LFE306-.LFB306
 2553 0f7f 01       		.uleb128 0x1
 2554 0f80 9C       		.byte	0x9c
 2555 0f81 80100000 		.4byte	0x1080
 2556 0f85 2F       		.uleb128 0x2f
 2557 0f86 6D7000   		.ascii	"mp\000"
 2558 0f89 01       		.byte	0x1
 2559 0f8a CF       		.byte	0xcf
 2560 0f8b 80100000 		.4byte	0x1080
 2561 0f8f 29030000 		.4byte	.LLST6
 2562 0f93 32       		.uleb128 0x32
 2563 0f94 37070000 		.4byte	.LASF161
 2564 0f98 01       		.byte	0x1
 2565 0f99 CF       		.byte	0xcf
ARM GAS  /tmp/ccJUU6b3.s 			page 46


 2566 0f9a 41030000 		.4byte	0x341
 2567 0f9e 47030000 		.4byte	.LLST7
 2568 0fa2 34       		.uleb128 0x34
 2569 0fa3 8F130000 		.4byte	0x138f
 2570 0fa7 06000000 		.4byte	.LBB61
 2571 0fab 0A000000 		.4byte	.LBE61-.LBB61
 2572 0faf 01       		.byte	0x1
 2573 0fb0 D1       		.byte	0xd1
 2574 0fb1 EE0F0000 		.4byte	0xfee
 2575 0fb5 20       		.uleb128 0x20
 2576 0fb6 A1130000 		.4byte	0x13a1
 2577 0fba 06000000 		.4byte	.LBB63
 2578 0fbe 06000000 		.4byte	.LBE63-.LBB63
 2579 0fc2 03       		.byte	0x3
 2580 0fc3 6301     		.2byte	0x163
 2581 0fc5 E40F0000 		.4byte	0xfe4
 2582 0fc9 21       		.uleb128 0x21
 2583 0fca AA130000 		.4byte	0x13aa
 2584 0fce 06000000 		.4byte	.LBB64
 2585 0fd2 06000000 		.4byte	.LBE64-.LBB64
 2586 0fd6 0F       		.byte	0xf
 2587 0fd7 6202     		.2byte	0x262
 2588 0fd9 22       		.uleb128 0x22
 2589 0fda B7130000 		.4byte	0x13b7
 2590 0fde 65030000 		.4byte	.LLST8
 2591 0fe2 00       		.byte	0
 2592 0fe3 00       		.byte	0
 2593 0fe4 23       		.uleb128 0x23
 2594 0fe5 10000000 		.4byte	.LVL15
 2595 0fe9 27140000 		.4byte	0x1427
 2596 0fed 00       		.byte	0
 2597 0fee 34       		.uleb128 0x34
 2598 0fef 86100000 		.4byte	0x1086
 2599 0ff3 10000000 		.4byte	.LBB66
 2600 0ff7 06000000 		.4byte	.LBE66-.LBB66
 2601 0ffb 01       		.byte	0x1
 2602 0ffc D2       		.byte	0xd2
 2603 0ffd 28100000 		.4byte	0x1028
 2604 1001 22       		.uleb128 0x22
 2605 1002 9C100000 		.4byte	0x109c
 2606 1006 7A030000 		.4byte	.LLST9
 2607 100a 22       		.uleb128 0x22
 2608 100b 92100000 		.4byte	0x1092
 2609 100f 8D030000 		.4byte	.LLST10
 2610 1013 29       		.uleb128 0x29
 2611 1014 10000000 		.4byte	.LBB67
 2612 1018 06000000 		.4byte	.LBE67-.LBB67
 2613 101c 26       		.uleb128 0x26
 2614 101d 1A140000 		.4byte	0x141a
 2615 1021 26       		.uleb128 0x26
 2616 1022 21140000 		.4byte	0x1421
 2617 1026 00       		.byte	0
 2618 1027 00       		.byte	0
 2619 1028 31       		.uleb128 0x31
 2620 1029 74130000 		.4byte	0x1374
 2621 102d 16000000 		.4byte	.LBB68
 2622 1031 0C000000 		.4byte	.LBE68-.LBB68
ARM GAS  /tmp/ccJUU6b3.s 			page 47


 2623 1035 01       		.byte	0x1
 2624 1036 D3       		.byte	0xd3
 2625 1037 29       		.uleb128 0x29
 2626 1038 16000000 		.4byte	.LBB69
 2627 103c 0C000000 		.4byte	.LBE69-.LBB69
 2628 1040 26       		.uleb128 0x26
 2629 1041 81130000 		.4byte	0x1381
 2630 1045 20       		.uleb128 0x20
 2631 1046 98130000 		.4byte	0x1398
 2632 104a 1A000000 		.4byte	.LBB70
 2633 104e 08000000 		.4byte	.LBE70-.LBB70
 2634 1052 03       		.byte	0x3
 2635 1053 7A01     		.2byte	0x17a
 2636 1055 74100000 		.4byte	0x1074
 2637 1059 21       		.uleb128 0x21
 2638 105a AA130000 		.4byte	0x13aa
 2639 105e 1A000000 		.4byte	.LBB71
 2640 1062 08000000 		.4byte	.LBE71-.LBB71
 2641 1066 0F       		.byte	0xf
 2642 1067 7502     		.2byte	0x275
 2643 1069 22       		.uleb128 0x22
 2644 106a B7130000 		.4byte	0x13b7
 2645 106e A0030000 		.4byte	.LLST11
 2646 1072 00       		.byte	0
 2647 1073 00       		.byte	0
 2648 1074 23       		.uleb128 0x23
 2649 1075 1A000000 		.4byte	.LVL17
 2650 1079 3D140000 		.4byte	0x143d
 2651 107d 00       		.byte	0
 2652 107e 00       		.byte	0
 2653 107f 00       		.byte	0
 2654 1080 0C       		.uleb128 0xc
 2655 1081 04       		.byte	0x4
 2656 1082 200A0000 		.4byte	0xa20
 2657 1086 35       		.uleb128 0x35
 2658 1087 2A020000 		.4byte	.LASF173
 2659 108b 01       		.byte	0x1
 2660 108c B7       		.byte	0xb7
 2661 108d 01       		.byte	0x1
 2662 108e C0100000 		.4byte	0x10c0
 2663 1092 36       		.uleb128 0x36
 2664 1093 6D7000   		.ascii	"mp\000"
 2665 1096 01       		.byte	0x1
 2666 1097 B7       		.byte	0xb7
 2667 1098 80100000 		.4byte	0x1080
 2668 109c 37       		.uleb128 0x37
 2669 109d 37070000 		.4byte	.LASF161
 2670 10a1 01       		.byte	0x1
 2671 10a2 B7       		.byte	0xb7
 2672 10a3 41030000 		.4byte	0x341
 2673 10a7 38       		.uleb128 0x38
 2674 10a8 70687000 		.ascii	"php\000"
 2675 10ac 01       		.byte	0x1
 2676 10ad B8       		.byte	0xb8
 2677 10ae E1090000 		.4byte	0x9e1
 2678 10b2 39       		.uleb128 0x39
 2679 10b3 1B070000 		.4byte	.LASF169
ARM GAS  /tmp/ccJUU6b3.s 			page 48


 2680 10b7 D0100000 		.4byte	0x10d0
 2681 10bb 2A020000 		.4byte	.LASF173
 2682 10bf 00       		.byte	0
 2683 10c0 13       		.uleb128 0x13
 2684 10c1 04080000 		.4byte	0x804
 2685 10c5 D0100000 		.4byte	0x10d0
 2686 10c9 14       		.uleb128 0x14
 2687 10ca 8C040000 		.4byte	0x48c
 2688 10ce 0B       		.byte	0xb
 2689 10cf 00       		.byte	0
 2690 10d0 05       		.uleb128 0x5
 2691 10d1 C0100000 		.4byte	0x10c0
 2692 10d5 3A       		.uleb128 0x3a
 2693 10d6 0C090000 		.4byte	.LASF170
 2694 10da 01       		.byte	0x1
 2695 10db A1       		.byte	0xa1
 2696 10dc 41030000 		.4byte	0x341
 2697 10e0 00000000 		.4byte	.LFB304
 2698 10e4 24000000 		.4byte	.LFE304-.LFB304
 2699 10e8 01       		.uleb128 0x1
 2700 10e9 9C       		.byte	0x9c
 2701 10ea C3110000 		.4byte	0x11c3
 2702 10ee 2F       		.uleb128 0x2f
 2703 10ef 6D7000   		.ascii	"mp\000"
 2704 10f2 01       		.byte	0x1
 2705 10f3 A1       		.byte	0xa1
 2706 10f4 80100000 		.4byte	0x1080
 2707 10f8 B4030000 		.4byte	.LLST2
 2708 10fc 3B       		.uleb128 0x3b
 2709 10fd 37070000 		.4byte	.LASF161
 2710 1101 01       		.byte	0x1
 2711 1102 A2       		.byte	0xa2
 2712 1103 41030000 		.4byte	0x341
 2713 1107 E0030000 		.4byte	.LLST3
 2714 110b 33       		.uleb128 0x33
 2715 110c 8F130000 		.4byte	0x138f
 2716 1110 02000000 		.4byte	.LBB34
 2717 1114 00000000 		.4byte	.Ldebug_ranges0+0
 2718 1118 01       		.byte	0x1
 2719 1119 A4       		.byte	0xa4
 2720 111a 57110000 		.4byte	0x1157
 2721 111e 24       		.uleb128 0x24
 2722 111f A1130000 		.4byte	0x13a1
 2723 1123 02000000 		.4byte	.LBB36
 2724 1127 18000000 		.4byte	.Ldebug_ranges0+0x18
 2725 112b 03       		.byte	0x3
 2726 112c 6301     		.2byte	0x163
 2727 112e 4D110000 		.4byte	0x114d
 2728 1132 3C       		.uleb128 0x3c
 2729 1133 AA130000 		.4byte	0x13aa
 2730 1137 02000000 		.4byte	.LBB37
 2731 113b 18000000 		.4byte	.Ldebug_ranges0+0x18
 2732 113f 0F       		.byte	0xf
 2733 1140 6202     		.2byte	0x262
 2734 1142 22       		.uleb128 0x22
 2735 1143 B7130000 		.4byte	0x13b7
 2736 1147 FE030000 		.4byte	.LLST4
ARM GAS  /tmp/ccJUU6b3.s 			page 49


 2737 114b 00       		.byte	0
 2738 114c 00       		.byte	0
 2739 114d 23       		.uleb128 0x23
 2740 114e 0E000000 		.4byte	.LVL7
 2741 1152 27140000 		.4byte	0x1427
 2742 1156 00       		.byte	0
 2743 1157 34       		.uleb128 0x34
 2744 1158 74130000 		.4byte	0x1374
 2745 115c 16000000 		.4byte	.LBB44
 2746 1160 0A000000 		.4byte	.LBE44-.LBB44
 2747 1164 01       		.byte	0x1
 2748 1165 A6       		.byte	0xa6
 2749 1166 B2110000 		.4byte	0x11b2
 2750 116a 29       		.uleb128 0x29
 2751 116b 16000000 		.4byte	.LBB45
 2752 116f 0A000000 		.4byte	.LBE45-.LBB45
 2753 1173 26       		.uleb128 0x26
 2754 1174 81130000 		.4byte	0x1381
 2755 1178 20       		.uleb128 0x20
 2756 1179 98130000 		.4byte	0x1398
 2757 117d 1A000000 		.4byte	.LBB46
 2758 1181 06000000 		.4byte	.LBE46-.LBB46
 2759 1185 03       		.byte	0x3
 2760 1186 7A01     		.2byte	0x17a
 2761 1188 A7110000 		.4byte	0x11a7
 2762 118c 21       		.uleb128 0x21
 2763 118d AA130000 		.4byte	0x13aa
 2764 1191 1A000000 		.4byte	.LBB47
 2765 1195 06000000 		.4byte	.LBE47-.LBB47
 2766 1199 0F       		.byte	0xf
 2767 119a 7502     		.2byte	0x275
 2768 119c 22       		.uleb128 0x22
 2769 119d B7130000 		.4byte	0x13b7
 2770 11a1 13040000 		.4byte	.LLST5
 2771 11a5 00       		.byte	0
 2772 11a6 00       		.byte	0
 2773 11a7 23       		.uleb128 0x23
 2774 11a8 1A000000 		.4byte	.LVL10
 2775 11ac 3D140000 		.4byte	0x143d
 2776 11b0 00       		.byte	0
 2777 11b1 00       		.byte	0
 2778 11b2 27       		.uleb128 0x27
 2779 11b3 14000000 		.4byte	.LVL8
 2780 11b7 C3110000 		.4byte	0x11c3
 2781 11bb 28       		.uleb128 0x28
 2782 11bc 01       		.uleb128 0x1
 2783 11bd 50       		.byte	0x50
 2784 11be 02       		.uleb128 0x2
 2785 11bf 74       		.byte	0x74
 2786 11c0 00       		.sleb128 0
 2787 11c1 00       		.byte	0
 2788 11c2 00       		.byte	0
 2789 11c3 3D       		.uleb128 0x3d
 2790 11c4 87040000 		.4byte	.LASF171
 2791 11c8 01       		.byte	0x1
 2792 11c9 81       		.byte	0x81
 2793 11ca 41030000 		.4byte	0x341
ARM GAS  /tmp/ccJUU6b3.s 			page 50


 2794 11ce 00000000 		.4byte	.LFB303
 2795 11d2 18000000 		.4byte	.LFE303-.LFB303
 2796 11d6 01       		.uleb128 0x1
 2797 11d7 9C       		.byte	0x9c
 2798 11d8 03120000 		.4byte	0x1203
 2799 11dc 2F       		.uleb128 0x2f
 2800 11dd 6D7000   		.ascii	"mp\000"
 2801 11e0 01       		.byte	0x1
 2802 11e1 81       		.byte	0x81
 2803 11e2 80100000 		.4byte	0x1080
 2804 11e6 27040000 		.4byte	.LLST0
 2805 11ea 3B       		.uleb128 0x3b
 2806 11eb 37070000 		.4byte	.LASF161
 2807 11ef 01       		.byte	0x1
 2808 11f0 82       		.byte	0x82
 2809 11f1 41030000 		.4byte	0x341
 2810 11f5 5E040000 		.4byte	.LLST1
 2811 11f9 30       		.uleb128 0x30
 2812 11fa 1B070000 		.4byte	.LASF169
 2813 11fe 13120000 		.4byte	0x1213
 2814 1202 00       		.byte	0
 2815 1203 13       		.uleb128 0x13
 2816 1204 04080000 		.4byte	0x804
 2817 1208 13120000 		.4byte	0x1213
 2818 120c 14       		.uleb128 0x14
 2819 120d 8C040000 		.4byte	0x48c
 2820 1211 0C       		.byte	0xc
 2821 1212 00       		.byte	0
 2822 1213 05       		.uleb128 0x5
 2823 1214 03120000 		.4byte	0x1203
 2824 1218 2E       		.uleb128 0x2e
 2825 1219 73090000 		.4byte	.LASF172
 2826 121d 01       		.byte	0x1
 2827 121e 6A       		.byte	0x6a
 2828 121f 00000000 		.4byte	.LFB302
 2829 1223 1C000000 		.4byte	.LFE302-.LFB302
 2830 1227 01       		.uleb128 0x1
 2831 1228 9C       		.byte	0x9c
 2832 1229 97120000 		.4byte	0x1297
 2833 122d 2F       		.uleb128 0x2f
 2834 122e 6D7000   		.ascii	"mp\000"
 2835 1231 01       		.byte	0x1
 2836 1232 6A       		.byte	0x6a
 2837 1233 80100000 		.4byte	0x1080
 2838 1237 88040000 		.4byte	.LLST12
 2839 123b 2F       		.uleb128 0x2f
 2840 123c 7000     		.ascii	"p\000"
 2841 123e 01       		.byte	0x1
 2842 123f 6A       		.byte	0x6a
 2843 1240 41030000 		.4byte	0x341
 2844 1244 A6040000 		.4byte	.LLST13
 2845 1248 2F       		.uleb128 0x2f
 2846 1249 6E00     		.ascii	"n\000"
 2847 124b 01       		.byte	0x1
 2848 124c 6A       		.byte	0x6a
 2849 124d 2C000000 		.4byte	0x2c
 2850 1251 C4040000 		.4byte	.LLST14
ARM GAS  /tmp/ccJUU6b3.s 			page 51


 2851 1255 30       		.uleb128 0x30
 2852 1256 1B070000 		.4byte	.LASF169
 2853 125a A7120000 		.4byte	0x12a7
 2854 125e 31       		.uleb128 0x31
 2855 125f 52130000 		.4byte	0x1352
 2856 1263 0C000000 		.4byte	.LBB73
 2857 1267 08000000 		.4byte	.LBE73-.LBB73
 2858 126b 01       		.byte	0x1
 2859 126c 6F       		.byte	0x6f
 2860 126d 22       		.uleb128 0x22
 2861 126e 68130000 		.4byte	0x1368
 2862 1272 FA040000 		.4byte	.LLST15
 2863 1276 22       		.uleb128 0x22
 2864 1277 5E130000 		.4byte	0x135e
 2865 127b 0D050000 		.4byte	.LLST16
 2866 127f 27       		.uleb128 0x27
 2867 1280 14000000 		.4byte	.LVL22
 2868 1284 700F0000 		.4byte	0xf70
 2869 1288 28       		.uleb128 0x28
 2870 1289 01       		.uleb128 0x1
 2871 128a 50       		.byte	0x50
 2872 128b 02       		.uleb128 0x2
 2873 128c 76       		.byte	0x76
 2874 128d 00       		.sleb128 0
 2875 128e 28       		.uleb128 0x28
 2876 128f 01       		.uleb128 0x1
 2877 1290 51       		.byte	0x51
 2878 1291 02       		.uleb128 0x2
 2879 1292 75       		.byte	0x75
 2880 1293 00       		.sleb128 0
 2881 1294 00       		.byte	0
 2882 1295 00       		.byte	0
 2883 1296 00       		.byte	0
 2884 1297 13       		.uleb128 0x13
 2885 1298 04080000 		.4byte	0x804
 2886 129c A7120000 		.4byte	0x12a7
 2887 12a0 14       		.uleb128 0x14
 2888 12a1 8C040000 		.4byte	0x48c
 2889 12a5 0F       		.byte	0xf
 2890 12a6 00       		.byte	0
 2891 12a7 05       		.uleb128 0x5
 2892 12a8 97120000 		.4byte	0x1297
 2893 12ac 35       		.uleb128 0x35
 2894 12ad ED010000 		.4byte	.LASF174
 2895 12b1 01       		.byte	0x1
 2896 12b2 4D       		.byte	0x4d
 2897 12b3 01       		.byte	0x1
 2898 12b4 F1120000 		.4byte	0x12f1
 2899 12b8 36       		.uleb128 0x36
 2900 12b9 6D7000   		.ascii	"mp\000"
 2901 12bc 01       		.byte	0x1
 2902 12bd 4D       		.byte	0x4d
 2903 12be 80100000 		.4byte	0x1080
 2904 12c2 37       		.uleb128 0x37
 2905 12c3 8F010000 		.4byte	.LASF114
 2906 12c7 01       		.byte	0x1
 2907 12c8 4D       		.byte	0x4d
ARM GAS  /tmp/ccJUU6b3.s 			page 52


 2908 12c9 2C000000 		.4byte	0x2c
 2909 12cd 37       		.uleb128 0x37
 2910 12ce 8C020000 		.4byte	.LASF142
 2911 12d2 01       		.byte	0x1
 2912 12d3 4E       		.byte	0x4e
 2913 12d4 37000000 		.4byte	0x37
 2914 12d8 37       		.uleb128 0x37
 2915 12d9 95000000 		.4byte	.LASF143
 2916 12dd 01       		.byte	0x1
 2917 12de 4E       		.byte	0x4e
 2918 12df 66090000 		.4byte	0x966
 2919 12e3 39       		.uleb128 0x39
 2920 12e4 1B070000 		.4byte	.LASF169
 2921 12e8 01130000 		.4byte	0x1301
 2922 12ec ED010000 		.4byte	.LASF174
 2923 12f0 00       		.byte	0
 2924 12f1 13       		.uleb128 0x13
 2925 12f2 04080000 		.4byte	0x804
 2926 12f6 01130000 		.4byte	0x1301
 2927 12fa 14       		.uleb128 0x14
 2928 12fb 8C040000 		.4byte	0x48c
 2929 12ff 17       		.byte	0x17
 2930 1300 00       		.byte	0
 2931 1301 05       		.uleb128 0x5
 2932 1302 F1120000 		.4byte	0x12f1
 2933 1306 3E       		.uleb128 0x3e
 2934 1307 A2080000 		.4byte	.LASF175
 2935 130b 04       		.byte	0x4
 2936 130c 4301     		.2byte	0x143
 2937 130e 03       		.byte	0x3
 2938 130f 2C130000 		.4byte	0x132c
 2939 1313 3F       		.uleb128 0x3f
 2940 1314 676D7000 		.ascii	"gmp\000"
 2941 1318 04       		.byte	0x4
 2942 1319 4301     		.2byte	0x143
 2943 131b B80C0000 		.4byte	0xcb8
 2944 131f 40       		.uleb128 0x40
 2945 1320 37070000 		.4byte	.LASF161
 2946 1324 04       		.byte	0x4
 2947 1325 4301     		.2byte	0x143
 2948 1327 41030000 		.4byte	0x341
 2949 132b 00       		.byte	0
 2950 132c 3E       		.uleb128 0x3e
 2951 132d 07010000 		.4byte	.LASF176
 2952 1331 04       		.byte	0x4
 2953 1332 1D01     		.2byte	0x11d
 2954 1334 03       		.byte	0x3
 2955 1335 52130000 		.4byte	0x1352
 2956 1339 3F       		.uleb128 0x3f
 2957 133a 676D7000 		.ascii	"gmp\000"
 2958 133e 04       		.byte	0x4
 2959 133f 1D01     		.2byte	0x11d
 2960 1341 B80C0000 		.4byte	0xcb8
 2961 1345 40       		.uleb128 0x40
 2962 1346 37070000 		.4byte	.LASF161
 2963 134a 04       		.byte	0x4
 2964 134b 1D01     		.2byte	0x11d
ARM GAS  /tmp/ccJUU6b3.s 			page 53


 2965 134d 41030000 		.4byte	0x341
 2966 1351 00       		.byte	0
 2967 1352 41       		.uleb128 0x41
 2968 1353 3D090000 		.4byte	.LASF177
 2969 1357 04       		.byte	0x4
 2970 1358 D2       		.byte	0xd2
 2971 1359 03       		.byte	0x3
 2972 135a 74130000 		.4byte	0x1374
 2973 135e 36       		.uleb128 0x36
 2974 135f 6D7000   		.ascii	"mp\000"
 2975 1362 04       		.byte	0x4
 2976 1363 D2       		.byte	0xd2
 2977 1364 80100000 		.4byte	0x1080
 2978 1368 37       		.uleb128 0x37
 2979 1369 37070000 		.4byte	.LASF161
 2980 136d 04       		.byte	0x4
 2981 136e D2       		.byte	0xd2
 2982 136f 41030000 		.4byte	0x341
 2983 1373 00       		.byte	0
 2984 1374 3E       		.uleb128 0x3e
 2985 1375 67090000 		.4byte	.LASF178
 2986 1379 03       		.byte	0x3
 2987 137a 6D01     		.2byte	0x16d
 2988 137c 03       		.byte	0x3
 2989 137d 8F130000 		.4byte	0x138f
 2990 1381 39       		.uleb128 0x39
 2991 1382 1B070000 		.4byte	.LASF169
 2992 1386 D0100000 		.4byte	0x10d0
 2993 138a 67090000 		.4byte	.LASF178
 2994 138e 00       		.byte	0
 2995 138f 42       		.uleb128 0x42
 2996 1390 24070000 		.4byte	.LASF179
 2997 1394 03       		.byte	0x3
 2998 1395 6101     		.2byte	0x161
 2999 1397 03       		.byte	0x3
 3000 1398 42       		.uleb128 0x42
 3001 1399 A9010000 		.4byte	.LASF180
 3002 139d 0F       		.byte	0xf
 3003 139e 7202     		.2byte	0x272
 3004 13a0 03       		.byte	0x3
 3005 13a1 42       		.uleb128 0x42
 3006 13a2 95090000 		.4byte	.LASF181
 3007 13a6 0F       		.byte	0xf
 3008 13a7 5A02     		.2byte	0x25a
 3009 13a9 03       		.byte	0x3
 3010 13aa 3E       		.uleb128 0x3e
 3011 13ab 26080000 		.4byte	.LASF182
 3012 13af 02       		.byte	0x2
 3013 13b0 EB01     		.2byte	0x1eb
 3014 13b2 03       		.byte	0x3
 3015 13b3 C4130000 		.4byte	0x13c4
 3016 13b7 40       		.uleb128 0x40
 3017 13b8 9A010000 		.4byte	.LASF183
 3018 13bc 02       		.byte	0x2
 3019 13bd EB01     		.2byte	0x1eb
 3020 13bf DF000000 		.4byte	0xdf
 3021 13c3 00       		.byte	0
ARM GAS  /tmp/ccJUU6b3.s 			page 54


 3022 13c4 43       		.uleb128 0x43
 3023 13c5 AC120000 		.4byte	0x12ac
 3024 13c9 00000000 		.4byte	.LFB301
 3025 13cd 0E000000 		.4byte	.LFE301-.LFB301
 3026 13d1 01       		.uleb128 0x1
 3027 13d2 9C       		.byte	0x9c
 3028 13d3 F9130000 		.4byte	0x13f9
 3029 13d7 44       		.uleb128 0x44
 3030 13d8 B8120000 		.4byte	0x12b8
 3031 13dc 01       		.uleb128 0x1
 3032 13dd 50       		.byte	0x50
 3033 13de 44       		.uleb128 0x44
 3034 13df C2120000 		.4byte	0x12c2
 3035 13e3 01       		.uleb128 0x1
 3036 13e4 51       		.byte	0x51
 3037 13e5 44       		.uleb128 0x44
 3038 13e6 CD120000 		.4byte	0x12cd
 3039 13ea 01       		.uleb128 0x1
 3040 13eb 52       		.byte	0x52
 3041 13ec 44       		.uleb128 0x44
 3042 13ed D8120000 		.4byte	0x12d8
 3043 13f1 01       		.uleb128 0x1
 3044 13f2 53       		.byte	0x53
 3045 13f3 26       		.uleb128 0x26
 3046 13f4 E3120000 		.4byte	0x12e3
 3047 13f8 00       		.byte	0
 3048 13f9 43       		.uleb128 0x43
 3049 13fa 86100000 		.4byte	0x1086
 3050 13fe 00000000 		.4byte	.LFB305
 3051 1402 08000000 		.4byte	.LFE305-.LFB305
 3052 1406 01       		.uleb128 0x1
 3053 1407 9C       		.byte	0x9c
 3054 1408 27140000 		.4byte	0x1427
 3055 140c 44       		.uleb128 0x44
 3056 140d 92100000 		.4byte	0x1092
 3057 1411 01       		.uleb128 0x1
 3058 1412 50       		.byte	0x50
 3059 1413 44       		.uleb128 0x44
 3060 1414 9C100000 		.4byte	0x109c
 3061 1418 01       		.uleb128 0x1
 3062 1419 51       		.byte	0x51
 3063 141a 45       		.uleb128 0x45
 3064 141b A7100000 		.4byte	0x10a7
 3065 141f 01       		.uleb128 0x1
 3066 1420 51       		.byte	0x51
 3067 1421 26       		.uleb128 0x26
 3068 1422 B2100000 		.4byte	0x10b2
 3069 1426 00       		.byte	0
 3070 1427 46       		.uleb128 0x46
 3071 1428 C3020000 		.4byte	.LASF184
 3072 142c C3020000 		.4byte	.LASF184
 3073 1430 11       		.byte	0x11
 3074 1431 4F       		.byte	0x4f
 3075 1432 46       		.uleb128 0x46
 3076 1433 23000000 		.4byte	.LASF185
 3077 1437 23000000 		.4byte	.LASF185
 3078 143b 12       		.byte	0x12
ARM GAS  /tmp/ccJUU6b3.s 			page 55


 3079 143c 63       		.byte	0x63
 3080 143d 46       		.uleb128 0x46
 3081 143e 1F040000 		.4byte	.LASF186
 3082 1442 1F040000 		.4byte	.LASF186
 3083 1446 11       		.byte	0x11
 3084 1447 50       		.byte	0x50
 3085 1448 47       		.uleb128 0x47
 3086 1449 05020000 		.4byte	.LASF187
 3087 144d 05020000 		.4byte	.LASF187
 3088 1451 0A       		.byte	0xa
 3089 1452 D601     		.2byte	0x1d6
 3090 1454 46       		.uleb128 0x46
 3091 1455 DD070000 		.4byte	.LASF188
 3092 1459 DD070000 		.4byte	.LASF188
 3093 145d 12       		.byte	0x12
 3094 145e 61       		.byte	0x61
 3095 145f 46       		.uleb128 0x46
 3096 1460 A0020000 		.4byte	.LASF189
 3097 1464 A0020000 		.4byte	.LASF189
 3098 1468 12       		.byte	0x12
 3099 1469 5B       		.byte	0x5b
 3100 146a 00       		.byte	0
 3101              		.section	.debug_abbrev,"",%progbits
 3102              	.Ldebug_abbrev0:
 3103 0000 01       		.uleb128 0x1
 3104 0001 11       		.uleb128 0x11
 3105 0002 01       		.byte	0x1
 3106 0003 25       		.uleb128 0x25
 3107 0004 0E       		.uleb128 0xe
 3108 0005 13       		.uleb128 0x13
 3109 0006 0B       		.uleb128 0xb
 3110 0007 03       		.uleb128 0x3
 3111 0008 0E       		.uleb128 0xe
 3112 0009 1B       		.uleb128 0x1b
 3113 000a 0E       		.uleb128 0xe
 3114 000b 55       		.uleb128 0x55
 3115 000c 17       		.uleb128 0x17
 3116 000d 11       		.uleb128 0x11
 3117 000e 01       		.uleb128 0x1
 3118 000f 10       		.uleb128 0x10
 3119 0010 17       		.uleb128 0x17
 3120 0011 00       		.byte	0
 3121 0012 00       		.byte	0
 3122 0013 02       		.uleb128 0x2
 3123 0014 24       		.uleb128 0x24
 3124 0015 00       		.byte	0
 3125 0016 0B       		.uleb128 0xb
 3126 0017 0B       		.uleb128 0xb
 3127 0018 3E       		.uleb128 0x3e
 3128 0019 0B       		.uleb128 0xb
 3129 001a 03       		.uleb128 0x3
 3130 001b 08       		.uleb128 0x8
 3131 001c 00       		.byte	0
 3132 001d 00       		.byte	0
 3133 001e 03       		.uleb128 0x3
 3134 001f 16       		.uleb128 0x16
 3135 0020 00       		.byte	0
ARM GAS  /tmp/ccJUU6b3.s 			page 56


 3136 0021 03       		.uleb128 0x3
 3137 0022 0E       		.uleb128 0xe
 3138 0023 3A       		.uleb128 0x3a
 3139 0024 0B       		.uleb128 0xb
 3140 0025 3B       		.uleb128 0x3b
 3141 0026 0B       		.uleb128 0xb
 3142 0027 49       		.uleb128 0x49
 3143 0028 13       		.uleb128 0x13
 3144 0029 00       		.byte	0
 3145 002a 00       		.byte	0
 3146 002b 04       		.uleb128 0x4
 3147 002c 24       		.uleb128 0x24
 3148 002d 00       		.byte	0
 3149 002e 0B       		.uleb128 0xb
 3150 002f 0B       		.uleb128 0xb
 3151 0030 3E       		.uleb128 0x3e
 3152 0031 0B       		.uleb128 0xb
 3153 0032 03       		.uleb128 0x3
 3154 0033 0E       		.uleb128 0xe
 3155 0034 00       		.byte	0
 3156 0035 00       		.byte	0
 3157 0036 05       		.uleb128 0x5
 3158 0037 26       		.uleb128 0x26
 3159 0038 00       		.byte	0
 3160 0039 49       		.uleb128 0x49
 3161 003a 13       		.uleb128 0x13
 3162 003b 00       		.byte	0
 3163 003c 00       		.byte	0
 3164 003d 06       		.uleb128 0x6
 3165 003e 35       		.uleb128 0x35
 3166 003f 00       		.byte	0
 3167 0040 49       		.uleb128 0x49
 3168 0041 13       		.uleb128 0x13
 3169 0042 00       		.byte	0
 3170 0043 00       		.byte	0
 3171 0044 07       		.uleb128 0x7
 3172 0045 13       		.uleb128 0x13
 3173 0046 01       		.byte	0x1
 3174 0047 03       		.uleb128 0x3
 3175 0048 0E       		.uleb128 0xe
 3176 0049 0B       		.uleb128 0xb
 3177 004a 0B       		.uleb128 0xb
 3178 004b 3A       		.uleb128 0x3a
 3179 004c 0B       		.uleb128 0xb
 3180 004d 3B       		.uleb128 0x3b
 3181 004e 0B       		.uleb128 0xb
 3182 004f 01       		.uleb128 0x1
 3183 0050 13       		.uleb128 0x13
 3184 0051 00       		.byte	0
 3185 0052 00       		.byte	0
 3186 0053 08       		.uleb128 0x8
 3187 0054 0D       		.uleb128 0xd
 3188 0055 00       		.byte	0
 3189 0056 03       		.uleb128 0x3
 3190 0057 0E       		.uleb128 0xe
 3191 0058 3A       		.uleb128 0x3a
 3192 0059 0B       		.uleb128 0xb
ARM GAS  /tmp/ccJUU6b3.s 			page 57


 3193 005a 3B       		.uleb128 0x3b
 3194 005b 0B       		.uleb128 0xb
 3195 005c 49       		.uleb128 0x49
 3196 005d 13       		.uleb128 0x13
 3197 005e 38       		.uleb128 0x38
 3198 005f 0B       		.uleb128 0xb
 3199 0060 00       		.byte	0
 3200 0061 00       		.byte	0
 3201 0062 09       		.uleb128 0x9
 3202 0063 0D       		.uleb128 0xd
 3203 0064 00       		.byte	0
 3204 0065 03       		.uleb128 0x3
 3205 0066 08       		.uleb128 0x8
 3206 0067 3A       		.uleb128 0x3a
 3207 0068 0B       		.uleb128 0xb
 3208 0069 3B       		.uleb128 0x3b
 3209 006a 0B       		.uleb128 0xb
 3210 006b 49       		.uleb128 0x49
 3211 006c 13       		.uleb128 0x13
 3212 006d 38       		.uleb128 0x38
 3213 006e 0B       		.uleb128 0xb
 3214 006f 00       		.byte	0
 3215 0070 00       		.byte	0
 3216 0071 0A       		.uleb128 0xa
 3217 0072 0D       		.uleb128 0xd
 3218 0073 00       		.byte	0
 3219 0074 03       		.uleb128 0x3
 3220 0075 08       		.uleb128 0x8
 3221 0076 3A       		.uleb128 0x3a
 3222 0077 0B       		.uleb128 0xb
 3223 0078 3B       		.uleb128 0x3b
 3224 0079 05       		.uleb128 0x5
 3225 007a 49       		.uleb128 0x49
 3226 007b 13       		.uleb128 0x13
 3227 007c 38       		.uleb128 0x38
 3228 007d 0B       		.uleb128 0xb
 3229 007e 00       		.byte	0
 3230 007f 00       		.byte	0
 3231 0080 0B       		.uleb128 0xb
 3232 0081 0D       		.uleb128 0xd
 3233 0082 00       		.byte	0
 3234 0083 03       		.uleb128 0x3
 3235 0084 0E       		.uleb128 0xe
 3236 0085 3A       		.uleb128 0x3a
 3237 0086 0B       		.uleb128 0xb
 3238 0087 3B       		.uleb128 0x3b
 3239 0088 05       		.uleb128 0x5
 3240 0089 49       		.uleb128 0x49
 3241 008a 13       		.uleb128 0x13
 3242 008b 38       		.uleb128 0x38
 3243 008c 0B       		.uleb128 0xb
 3244 008d 00       		.byte	0
 3245 008e 00       		.byte	0
 3246 008f 0C       		.uleb128 0xc
 3247 0090 0F       		.uleb128 0xf
 3248 0091 00       		.byte	0
 3249 0092 0B       		.uleb128 0xb
ARM GAS  /tmp/ccJUU6b3.s 			page 58


 3250 0093 0B       		.uleb128 0xb
 3251 0094 49       		.uleb128 0x49
 3252 0095 13       		.uleb128 0x13
 3253 0096 00       		.byte	0
 3254 0097 00       		.byte	0
 3255 0098 0D       		.uleb128 0xd
 3256 0099 13       		.uleb128 0x13
 3257 009a 01       		.byte	0x1
 3258 009b 03       		.uleb128 0x3
 3259 009c 0E       		.uleb128 0xe
 3260 009d 0B       		.uleb128 0xb
 3261 009e 0B       		.uleb128 0xb
 3262 009f 3A       		.uleb128 0x3a
 3263 00a0 0B       		.uleb128 0xb
 3264 00a1 3B       		.uleb128 0x3b
 3265 00a2 05       		.uleb128 0x5
 3266 00a3 01       		.uleb128 0x1
 3267 00a4 13       		.uleb128 0x13
 3268 00a5 00       		.byte	0
 3269 00a6 00       		.byte	0
 3270 00a7 0E       		.uleb128 0xe
 3271 00a8 15       		.uleb128 0x15
 3272 00a9 01       		.byte	0x1
 3273 00aa 27       		.uleb128 0x27
 3274 00ab 19       		.uleb128 0x19
 3275 00ac 01       		.uleb128 0x1
 3276 00ad 13       		.uleb128 0x13
 3277 00ae 00       		.byte	0
 3278 00af 00       		.byte	0
 3279 00b0 0F       		.uleb128 0xf
 3280 00b1 05       		.uleb128 0x5
 3281 00b2 00       		.byte	0
 3282 00b3 49       		.uleb128 0x49
 3283 00b4 13       		.uleb128 0x13
 3284 00b5 00       		.byte	0
 3285 00b6 00       		.byte	0
 3286 00b7 10       		.uleb128 0x10
 3287 00b8 0F       		.uleb128 0xf
 3288 00b9 00       		.byte	0
 3289 00ba 0B       		.uleb128 0xb
 3290 00bb 0B       		.uleb128 0xb
 3291 00bc 00       		.byte	0
 3292 00bd 00       		.byte	0
 3293 00be 11       		.uleb128 0x11
 3294 00bf 34       		.uleb128 0x34
 3295 00c0 00       		.byte	0
 3296 00c1 03       		.uleb128 0x3
 3297 00c2 0E       		.uleb128 0xe
 3298 00c3 3A       		.uleb128 0x3a
 3299 00c4 0B       		.uleb128 0xb
 3300 00c5 3B       		.uleb128 0x3b
 3301 00c6 05       		.uleb128 0x5
 3302 00c7 49       		.uleb128 0x49
 3303 00c8 13       		.uleb128 0x13
 3304 00c9 3F       		.uleb128 0x3f
 3305 00ca 19       		.uleb128 0x19
 3306 00cb 3C       		.uleb128 0x3c
ARM GAS  /tmp/ccJUU6b3.s 			page 59


 3307 00cc 19       		.uleb128 0x19
 3308 00cd 00       		.byte	0
 3309 00ce 00       		.byte	0
 3310 00cf 12       		.uleb128 0x12
 3311 00d0 34       		.uleb128 0x34
 3312 00d1 00       		.byte	0
 3313 00d2 03       		.uleb128 0x3
 3314 00d3 0E       		.uleb128 0xe
 3315 00d4 3A       		.uleb128 0x3a
 3316 00d5 0B       		.uleb128 0xb
 3317 00d6 3B       		.uleb128 0x3b
 3318 00d7 0B       		.uleb128 0xb
 3319 00d8 49       		.uleb128 0x49
 3320 00d9 13       		.uleb128 0x13
 3321 00da 3F       		.uleb128 0x3f
 3322 00db 19       		.uleb128 0x19
 3323 00dc 3C       		.uleb128 0x3c
 3324 00dd 19       		.uleb128 0x19
 3325 00de 00       		.byte	0
 3326 00df 00       		.byte	0
 3327 00e0 13       		.uleb128 0x13
 3328 00e1 01       		.uleb128 0x1
 3329 00e2 01       		.byte	0x1
 3330 00e3 49       		.uleb128 0x49
 3331 00e4 13       		.uleb128 0x13
 3332 00e5 01       		.uleb128 0x1
 3333 00e6 13       		.uleb128 0x13
 3334 00e7 00       		.byte	0
 3335 00e8 00       		.byte	0
 3336 00e9 14       		.uleb128 0x14
 3337 00ea 21       		.uleb128 0x21
 3338 00eb 00       		.byte	0
 3339 00ec 49       		.uleb128 0x49
 3340 00ed 13       		.uleb128 0x13
 3341 00ee 2F       		.uleb128 0x2f
 3342 00ef 0B       		.uleb128 0xb
 3343 00f0 00       		.byte	0
 3344 00f1 00       		.byte	0
 3345 00f2 15       		.uleb128 0x15
 3346 00f3 13       		.uleb128 0x13
 3347 00f4 01       		.byte	0x1
 3348 00f5 0B       		.uleb128 0xb
 3349 00f6 0B       		.uleb128 0xb
 3350 00f7 3A       		.uleb128 0x3a
 3351 00f8 0B       		.uleb128 0xb
 3352 00f9 3B       		.uleb128 0x3b
 3353 00fa 0B       		.uleb128 0xb
 3354 00fb 01       		.uleb128 0x1
 3355 00fc 13       		.uleb128 0x13
 3356 00fd 00       		.byte	0
 3357 00fe 00       		.byte	0
 3358 00ff 16       		.uleb128 0x16
 3359 0100 17       		.uleb128 0x17
 3360 0101 01       		.byte	0x1
 3361 0102 0B       		.uleb128 0xb
 3362 0103 0B       		.uleb128 0xb
 3363 0104 3A       		.uleb128 0x3a
ARM GAS  /tmp/ccJUU6b3.s 			page 60


 3364 0105 0B       		.uleb128 0xb
 3365 0106 3B       		.uleb128 0x3b
 3366 0107 0B       		.uleb128 0xb
 3367 0108 01       		.uleb128 0x1
 3368 0109 13       		.uleb128 0x13
 3369 010a 00       		.byte	0
 3370 010b 00       		.byte	0
 3371 010c 17       		.uleb128 0x17
 3372 010d 0D       		.uleb128 0xd
 3373 010e 00       		.byte	0
 3374 010f 03       		.uleb128 0x3
 3375 0110 0E       		.uleb128 0xe
 3376 0111 3A       		.uleb128 0x3a
 3377 0112 0B       		.uleb128 0xb
 3378 0113 3B       		.uleb128 0x3b
 3379 0114 0B       		.uleb128 0xb
 3380 0115 49       		.uleb128 0x49
 3381 0116 13       		.uleb128 0x13
 3382 0117 00       		.byte	0
 3383 0118 00       		.byte	0
 3384 0119 18       		.uleb128 0x18
 3385 011a 0D       		.uleb128 0xd
 3386 011b 00       		.byte	0
 3387 011c 03       		.uleb128 0x3
 3388 011d 0E       		.uleb128 0xe
 3389 011e 3A       		.uleb128 0x3a
 3390 011f 0B       		.uleb128 0xb
 3391 0120 3B       		.uleb128 0x3b
 3392 0121 05       		.uleb128 0x5
 3393 0122 49       		.uleb128 0x49
 3394 0123 13       		.uleb128 0x13
 3395 0124 00       		.byte	0
 3396 0125 00       		.byte	0
 3397 0126 19       		.uleb128 0x19
 3398 0127 34       		.uleb128 0x34
 3399 0128 00       		.byte	0
 3400 0129 03       		.uleb128 0x3
 3401 012a 08       		.uleb128 0x8
 3402 012b 3A       		.uleb128 0x3a
 3403 012c 0B       		.uleb128 0xb
 3404 012d 3B       		.uleb128 0x3b
 3405 012e 05       		.uleb128 0x5
 3406 012f 49       		.uleb128 0x49
 3407 0130 13       		.uleb128 0x13
 3408 0131 3F       		.uleb128 0x3f
 3409 0132 19       		.uleb128 0x19
 3410 0133 3C       		.uleb128 0x3c
 3411 0134 19       		.uleb128 0x19
 3412 0135 00       		.byte	0
 3413 0136 00       		.byte	0
 3414 0137 1A       		.uleb128 0x1a
 3415 0138 21       		.uleb128 0x21
 3416 0139 00       		.byte	0
 3417 013a 00       		.byte	0
 3418 013b 00       		.byte	0
 3419 013c 1B       		.uleb128 0x1b
 3420 013d 15       		.uleb128 0x15
ARM GAS  /tmp/ccJUU6b3.s 			page 61


 3421 013e 01       		.byte	0x1
 3422 013f 27       		.uleb128 0x27
 3423 0140 19       		.uleb128 0x19
 3424 0141 49       		.uleb128 0x49
 3425 0142 13       		.uleb128 0x13
 3426 0143 01       		.uleb128 0x1
 3427 0144 13       		.uleb128 0x13
 3428 0145 00       		.byte	0
 3429 0146 00       		.byte	0
 3430 0147 1C       		.uleb128 0x1c
 3431 0148 16       		.uleb128 0x16
 3432 0149 00       		.byte	0
 3433 014a 03       		.uleb128 0x3
 3434 014b 0E       		.uleb128 0xe
 3435 014c 3A       		.uleb128 0x3a
 3436 014d 0B       		.uleb128 0xb
 3437 014e 3B       		.uleb128 0x3b
 3438 014f 05       		.uleb128 0x5
 3439 0150 49       		.uleb128 0x49
 3440 0151 13       		.uleb128 0x13
 3441 0152 00       		.byte	0
 3442 0153 00       		.byte	0
 3443 0154 1D       		.uleb128 0x1d
 3444 0155 2E       		.uleb128 0x2e
 3445 0156 01       		.byte	0x1
 3446 0157 3F       		.uleb128 0x3f
 3447 0158 19       		.uleb128 0x19
 3448 0159 03       		.uleb128 0x3
 3449 015a 0E       		.uleb128 0xe
 3450 015b 3A       		.uleb128 0x3a
 3451 015c 0B       		.uleb128 0xb
 3452 015d 3B       		.uleb128 0x3b
 3453 015e 05       		.uleb128 0x5
 3454 015f 27       		.uleb128 0x27
 3455 0160 19       		.uleb128 0x19
 3456 0161 11       		.uleb128 0x11
 3457 0162 01       		.uleb128 0x1
 3458 0163 12       		.uleb128 0x12
 3459 0164 06       		.uleb128 0x6
 3460 0165 40       		.uleb128 0x40
 3461 0166 18       		.uleb128 0x18
 3462 0167 9742     		.uleb128 0x2117
 3463 0169 19       		.uleb128 0x19
 3464 016a 01       		.uleb128 0x1
 3465 016b 13       		.uleb128 0x13
 3466 016c 00       		.byte	0
 3467 016d 00       		.byte	0
 3468 016e 1E       		.uleb128 0x1e
 3469 016f 05       		.uleb128 0x5
 3470 0170 00       		.byte	0
 3471 0171 03       		.uleb128 0x3
 3472 0172 08       		.uleb128 0x8
 3473 0173 3A       		.uleb128 0x3a
 3474 0174 0B       		.uleb128 0xb
 3475 0175 3B       		.uleb128 0x3b
 3476 0176 05       		.uleb128 0x5
 3477 0177 49       		.uleb128 0x49
ARM GAS  /tmp/ccJUU6b3.s 			page 62


 3478 0178 13       		.uleb128 0x13
 3479 0179 02       		.uleb128 0x2
 3480 017a 17       		.uleb128 0x17
 3481 017b 00       		.byte	0
 3482 017c 00       		.byte	0
 3483 017d 1F       		.uleb128 0x1f
 3484 017e 05       		.uleb128 0x5
 3485 017f 00       		.byte	0
 3486 0180 03       		.uleb128 0x3
 3487 0181 0E       		.uleb128 0xe
 3488 0182 3A       		.uleb128 0x3a
 3489 0183 0B       		.uleb128 0xb
 3490 0184 3B       		.uleb128 0x3b
 3491 0185 05       		.uleb128 0x5
 3492 0186 49       		.uleb128 0x49
 3493 0187 13       		.uleb128 0x13
 3494 0188 02       		.uleb128 0x2
 3495 0189 17       		.uleb128 0x17
 3496 018a 00       		.byte	0
 3497 018b 00       		.byte	0
 3498 018c 20       		.uleb128 0x20
 3499 018d 1D       		.uleb128 0x1d
 3500 018e 01       		.byte	0x1
 3501 018f 31       		.uleb128 0x31
 3502 0190 13       		.uleb128 0x13
 3503 0191 11       		.uleb128 0x11
 3504 0192 01       		.uleb128 0x1
 3505 0193 12       		.uleb128 0x12
 3506 0194 06       		.uleb128 0x6
 3507 0195 58       		.uleb128 0x58
 3508 0196 0B       		.uleb128 0xb
 3509 0197 59       		.uleb128 0x59
 3510 0198 05       		.uleb128 0x5
 3511 0199 01       		.uleb128 0x1
 3512 019a 13       		.uleb128 0x13
 3513 019b 00       		.byte	0
 3514 019c 00       		.byte	0
 3515 019d 21       		.uleb128 0x21
 3516 019e 1D       		.uleb128 0x1d
 3517 019f 01       		.byte	0x1
 3518 01a0 31       		.uleb128 0x31
 3519 01a1 13       		.uleb128 0x13
 3520 01a2 11       		.uleb128 0x11
 3521 01a3 01       		.uleb128 0x1
 3522 01a4 12       		.uleb128 0x12
 3523 01a5 06       		.uleb128 0x6
 3524 01a6 58       		.uleb128 0x58
 3525 01a7 0B       		.uleb128 0xb
 3526 01a8 59       		.uleb128 0x59
 3527 01a9 05       		.uleb128 0x5
 3528 01aa 00       		.byte	0
 3529 01ab 00       		.byte	0
 3530 01ac 22       		.uleb128 0x22
 3531 01ad 05       		.uleb128 0x5
 3532 01ae 00       		.byte	0
 3533 01af 31       		.uleb128 0x31
 3534 01b0 13       		.uleb128 0x13
ARM GAS  /tmp/ccJUU6b3.s 			page 63


 3535 01b1 02       		.uleb128 0x2
 3536 01b2 17       		.uleb128 0x17
 3537 01b3 00       		.byte	0
 3538 01b4 00       		.byte	0
 3539 01b5 23       		.uleb128 0x23
 3540 01b6 898201   		.uleb128 0x4109
 3541 01b9 00       		.byte	0
 3542 01ba 11       		.uleb128 0x11
 3543 01bb 01       		.uleb128 0x1
 3544 01bc 31       		.uleb128 0x31
 3545 01bd 13       		.uleb128 0x13
 3546 01be 00       		.byte	0
 3547 01bf 00       		.byte	0
 3548 01c0 24       		.uleb128 0x24
 3549 01c1 1D       		.uleb128 0x1d
 3550 01c2 01       		.byte	0x1
 3551 01c3 31       		.uleb128 0x31
 3552 01c4 13       		.uleb128 0x13
 3553 01c5 52       		.uleb128 0x52
 3554 01c6 01       		.uleb128 0x1
 3555 01c7 55       		.uleb128 0x55
 3556 01c8 17       		.uleb128 0x17
 3557 01c9 58       		.uleb128 0x58
 3558 01ca 0B       		.uleb128 0xb
 3559 01cb 59       		.uleb128 0x59
 3560 01cc 05       		.uleb128 0x5
 3561 01cd 01       		.uleb128 0x1
 3562 01ce 13       		.uleb128 0x13
 3563 01cf 00       		.byte	0
 3564 01d0 00       		.byte	0
 3565 01d1 25       		.uleb128 0x25
 3566 01d2 0B       		.uleb128 0xb
 3567 01d3 01       		.byte	0x1
 3568 01d4 55       		.uleb128 0x55
 3569 01d5 17       		.uleb128 0x17
 3570 01d6 00       		.byte	0
 3571 01d7 00       		.byte	0
 3572 01d8 26       		.uleb128 0x26
 3573 01d9 34       		.uleb128 0x34
 3574 01da 00       		.byte	0
 3575 01db 31       		.uleb128 0x31
 3576 01dc 13       		.uleb128 0x13
 3577 01dd 00       		.byte	0
 3578 01de 00       		.byte	0
 3579 01df 27       		.uleb128 0x27
 3580 01e0 898201   		.uleb128 0x4109
 3581 01e3 01       		.byte	0x1
 3582 01e4 11       		.uleb128 0x11
 3583 01e5 01       		.uleb128 0x1
 3584 01e6 31       		.uleb128 0x31
 3585 01e7 13       		.uleb128 0x13
 3586 01e8 00       		.byte	0
 3587 01e9 00       		.byte	0
 3588 01ea 28       		.uleb128 0x28
 3589 01eb 8A8201   		.uleb128 0x410a
 3590 01ee 00       		.byte	0
 3591 01ef 02       		.uleb128 0x2
ARM GAS  /tmp/ccJUU6b3.s 			page 64


 3592 01f0 18       		.uleb128 0x18
 3593 01f1 9142     		.uleb128 0x2111
 3594 01f3 18       		.uleb128 0x18
 3595 01f4 00       		.byte	0
 3596 01f5 00       		.byte	0
 3597 01f6 29       		.uleb128 0x29
 3598 01f7 0B       		.uleb128 0xb
 3599 01f8 01       		.byte	0x1
 3600 01f9 11       		.uleb128 0x11
 3601 01fa 01       		.uleb128 0x1
 3602 01fb 12       		.uleb128 0x12
 3603 01fc 06       		.uleb128 0x6
 3604 01fd 00       		.byte	0
 3605 01fe 00       		.byte	0
 3606 01ff 2A       		.uleb128 0x2a
 3607 0200 2E       		.uleb128 0x2e
 3608 0201 01       		.byte	0x1
 3609 0202 3F       		.uleb128 0x3f
 3610 0203 19       		.uleb128 0x19
 3611 0204 03       		.uleb128 0x3
 3612 0205 0E       		.uleb128 0xe
 3613 0206 3A       		.uleb128 0x3a
 3614 0207 0B       		.uleb128 0xb
 3615 0208 3B       		.uleb128 0x3b
 3616 0209 05       		.uleb128 0x5
 3617 020a 27       		.uleb128 0x27
 3618 020b 19       		.uleb128 0x19
 3619 020c 49       		.uleb128 0x49
 3620 020d 13       		.uleb128 0x13
 3621 020e 11       		.uleb128 0x11
 3622 020f 01       		.uleb128 0x1
 3623 0210 12       		.uleb128 0x12
 3624 0211 06       		.uleb128 0x6
 3625 0212 40       		.uleb128 0x40
 3626 0213 18       		.uleb128 0x18
 3627 0214 9742     		.uleb128 0x2117
 3628 0216 19       		.uleb128 0x19
 3629 0217 01       		.uleb128 0x1
 3630 0218 13       		.uleb128 0x13
 3631 0219 00       		.byte	0
 3632 021a 00       		.byte	0
 3633 021b 2B       		.uleb128 0x2b
 3634 021c 34       		.uleb128 0x34
 3635 021d 00       		.byte	0
 3636 021e 03       		.uleb128 0x3
 3637 021f 08       		.uleb128 0x8
 3638 0220 3A       		.uleb128 0x3a
 3639 0221 0B       		.uleb128 0xb
 3640 0222 3B       		.uleb128 0x3b
 3641 0223 05       		.uleb128 0x5
 3642 0224 49       		.uleb128 0x49
 3643 0225 13       		.uleb128 0x13
 3644 0226 02       		.uleb128 0x2
 3645 0227 17       		.uleb128 0x17
 3646 0228 00       		.byte	0
 3647 0229 00       		.byte	0
 3648 022a 2C       		.uleb128 0x2c
ARM GAS  /tmp/ccJUU6b3.s 			page 65


 3649 022b 898201   		.uleb128 0x4109
 3650 022e 01       		.byte	0x1
 3651 022f 11       		.uleb128 0x11
 3652 0230 01       		.uleb128 0x1
 3653 0231 31       		.uleb128 0x31
 3654 0232 13       		.uleb128 0x13
 3655 0233 01       		.uleb128 0x1
 3656 0234 13       		.uleb128 0x13
 3657 0235 00       		.byte	0
 3658 0236 00       		.byte	0
 3659 0237 2D       		.uleb128 0x2d
 3660 0238 898201   		.uleb128 0x4109
 3661 023b 01       		.byte	0x1
 3662 023c 11       		.uleb128 0x11
 3663 023d 01       		.uleb128 0x1
 3664 023e 9542     		.uleb128 0x2115
 3665 0240 19       		.uleb128 0x19
 3666 0241 31       		.uleb128 0x31
 3667 0242 13       		.uleb128 0x13
 3668 0243 00       		.byte	0
 3669 0244 00       		.byte	0
 3670 0245 2E       		.uleb128 0x2e
 3671 0246 2E       		.uleb128 0x2e
 3672 0247 01       		.byte	0x1
 3673 0248 3F       		.uleb128 0x3f
 3674 0249 19       		.uleb128 0x19
 3675 024a 03       		.uleb128 0x3
 3676 024b 0E       		.uleb128 0xe
 3677 024c 3A       		.uleb128 0x3a
 3678 024d 0B       		.uleb128 0xb
 3679 024e 3B       		.uleb128 0x3b
 3680 024f 0B       		.uleb128 0xb
 3681 0250 27       		.uleb128 0x27
 3682 0251 19       		.uleb128 0x19
 3683 0252 11       		.uleb128 0x11
 3684 0253 01       		.uleb128 0x1
 3685 0254 12       		.uleb128 0x12
 3686 0255 06       		.uleb128 0x6
 3687 0256 40       		.uleb128 0x40
 3688 0257 18       		.uleb128 0x18
 3689 0258 9742     		.uleb128 0x2117
 3690 025a 19       		.uleb128 0x19
 3691 025b 01       		.uleb128 0x1
 3692 025c 13       		.uleb128 0x13
 3693 025d 00       		.byte	0
 3694 025e 00       		.byte	0
 3695 025f 2F       		.uleb128 0x2f
 3696 0260 05       		.uleb128 0x5
 3697 0261 00       		.byte	0
 3698 0262 03       		.uleb128 0x3
 3699 0263 08       		.uleb128 0x8
 3700 0264 3A       		.uleb128 0x3a
 3701 0265 0B       		.uleb128 0xb
 3702 0266 3B       		.uleb128 0x3b
 3703 0267 0B       		.uleb128 0xb
 3704 0268 49       		.uleb128 0x49
 3705 0269 13       		.uleb128 0x13
ARM GAS  /tmp/ccJUU6b3.s 			page 66


 3706 026a 02       		.uleb128 0x2
 3707 026b 17       		.uleb128 0x17
 3708 026c 00       		.byte	0
 3709 026d 00       		.byte	0
 3710 026e 30       		.uleb128 0x30
 3711 026f 34       		.uleb128 0x34
 3712 0270 00       		.byte	0
 3713 0271 03       		.uleb128 0x3
 3714 0272 0E       		.uleb128 0xe
 3715 0273 49       		.uleb128 0x49
 3716 0274 13       		.uleb128 0x13
 3717 0275 34       		.uleb128 0x34
 3718 0276 19       		.uleb128 0x19
 3719 0277 00       		.byte	0
 3720 0278 00       		.byte	0
 3721 0279 31       		.uleb128 0x31
 3722 027a 1D       		.uleb128 0x1d
 3723 027b 01       		.byte	0x1
 3724 027c 31       		.uleb128 0x31
 3725 027d 13       		.uleb128 0x13
 3726 027e 11       		.uleb128 0x11
 3727 027f 01       		.uleb128 0x1
 3728 0280 12       		.uleb128 0x12
 3729 0281 06       		.uleb128 0x6
 3730 0282 58       		.uleb128 0x58
 3731 0283 0B       		.uleb128 0xb
 3732 0284 59       		.uleb128 0x59
 3733 0285 0B       		.uleb128 0xb
 3734 0286 00       		.byte	0
 3735 0287 00       		.byte	0
 3736 0288 32       		.uleb128 0x32
 3737 0289 05       		.uleb128 0x5
 3738 028a 00       		.byte	0
 3739 028b 03       		.uleb128 0x3
 3740 028c 0E       		.uleb128 0xe
 3741 028d 3A       		.uleb128 0x3a
 3742 028e 0B       		.uleb128 0xb
 3743 028f 3B       		.uleb128 0x3b
 3744 0290 0B       		.uleb128 0xb
 3745 0291 49       		.uleb128 0x49
 3746 0292 13       		.uleb128 0x13
 3747 0293 02       		.uleb128 0x2
 3748 0294 17       		.uleb128 0x17
 3749 0295 00       		.byte	0
 3750 0296 00       		.byte	0
 3751 0297 33       		.uleb128 0x33
 3752 0298 1D       		.uleb128 0x1d
 3753 0299 01       		.byte	0x1
 3754 029a 31       		.uleb128 0x31
 3755 029b 13       		.uleb128 0x13
 3756 029c 52       		.uleb128 0x52
 3757 029d 01       		.uleb128 0x1
 3758 029e 55       		.uleb128 0x55
 3759 029f 17       		.uleb128 0x17
 3760 02a0 58       		.uleb128 0x58
 3761 02a1 0B       		.uleb128 0xb
 3762 02a2 59       		.uleb128 0x59
ARM GAS  /tmp/ccJUU6b3.s 			page 67


 3763 02a3 0B       		.uleb128 0xb
 3764 02a4 01       		.uleb128 0x1
 3765 02a5 13       		.uleb128 0x13
 3766 02a6 00       		.byte	0
 3767 02a7 00       		.byte	0
 3768 02a8 34       		.uleb128 0x34
 3769 02a9 1D       		.uleb128 0x1d
 3770 02aa 01       		.byte	0x1
 3771 02ab 31       		.uleb128 0x31
 3772 02ac 13       		.uleb128 0x13
 3773 02ad 11       		.uleb128 0x11
 3774 02ae 01       		.uleb128 0x1
 3775 02af 12       		.uleb128 0x12
 3776 02b0 06       		.uleb128 0x6
 3777 02b1 58       		.uleb128 0x58
 3778 02b2 0B       		.uleb128 0xb
 3779 02b3 59       		.uleb128 0x59
 3780 02b4 0B       		.uleb128 0xb
 3781 02b5 01       		.uleb128 0x1
 3782 02b6 13       		.uleb128 0x13
 3783 02b7 00       		.byte	0
 3784 02b8 00       		.byte	0
 3785 02b9 35       		.uleb128 0x35
 3786 02ba 2E       		.uleb128 0x2e
 3787 02bb 01       		.byte	0x1
 3788 02bc 3F       		.uleb128 0x3f
 3789 02bd 19       		.uleb128 0x19
 3790 02be 03       		.uleb128 0x3
 3791 02bf 0E       		.uleb128 0xe
 3792 02c0 3A       		.uleb128 0x3a
 3793 02c1 0B       		.uleb128 0xb
 3794 02c2 3B       		.uleb128 0x3b
 3795 02c3 0B       		.uleb128 0xb
 3796 02c4 27       		.uleb128 0x27
 3797 02c5 19       		.uleb128 0x19
 3798 02c6 20       		.uleb128 0x20
 3799 02c7 0B       		.uleb128 0xb
 3800 02c8 01       		.uleb128 0x1
 3801 02c9 13       		.uleb128 0x13
 3802 02ca 00       		.byte	0
 3803 02cb 00       		.byte	0
 3804 02cc 36       		.uleb128 0x36
 3805 02cd 05       		.uleb128 0x5
 3806 02ce 00       		.byte	0
 3807 02cf 03       		.uleb128 0x3
 3808 02d0 08       		.uleb128 0x8
 3809 02d1 3A       		.uleb128 0x3a
 3810 02d2 0B       		.uleb128 0xb
 3811 02d3 3B       		.uleb128 0x3b
 3812 02d4 0B       		.uleb128 0xb
 3813 02d5 49       		.uleb128 0x49
 3814 02d6 13       		.uleb128 0x13
 3815 02d7 00       		.byte	0
 3816 02d8 00       		.byte	0
 3817 02d9 37       		.uleb128 0x37
 3818 02da 05       		.uleb128 0x5
 3819 02db 00       		.byte	0
ARM GAS  /tmp/ccJUU6b3.s 			page 68


 3820 02dc 03       		.uleb128 0x3
 3821 02dd 0E       		.uleb128 0xe
 3822 02de 3A       		.uleb128 0x3a
 3823 02df 0B       		.uleb128 0xb
 3824 02e0 3B       		.uleb128 0x3b
 3825 02e1 0B       		.uleb128 0xb
 3826 02e2 49       		.uleb128 0x49
 3827 02e3 13       		.uleb128 0x13
 3828 02e4 00       		.byte	0
 3829 02e5 00       		.byte	0
 3830 02e6 38       		.uleb128 0x38
 3831 02e7 34       		.uleb128 0x34
 3832 02e8 00       		.byte	0
 3833 02e9 03       		.uleb128 0x3
 3834 02ea 08       		.uleb128 0x8
 3835 02eb 3A       		.uleb128 0x3a
 3836 02ec 0B       		.uleb128 0xb
 3837 02ed 3B       		.uleb128 0x3b
 3838 02ee 0B       		.uleb128 0xb
 3839 02ef 49       		.uleb128 0x49
 3840 02f0 13       		.uleb128 0x13
 3841 02f1 00       		.byte	0
 3842 02f2 00       		.byte	0
 3843 02f3 39       		.uleb128 0x39
 3844 02f4 34       		.uleb128 0x34
 3845 02f5 00       		.byte	0
 3846 02f6 03       		.uleb128 0x3
 3847 02f7 0E       		.uleb128 0xe
 3848 02f8 49       		.uleb128 0x49
 3849 02f9 13       		.uleb128 0x13
 3850 02fa 34       		.uleb128 0x34
 3851 02fb 19       		.uleb128 0x19
 3852 02fc 1C       		.uleb128 0x1c
 3853 02fd 0E       		.uleb128 0xe
 3854 02fe 00       		.byte	0
 3855 02ff 00       		.byte	0
 3856 0300 3A       		.uleb128 0x3a
 3857 0301 2E       		.uleb128 0x2e
 3858 0302 01       		.byte	0x1
 3859 0303 3F       		.uleb128 0x3f
 3860 0304 19       		.uleb128 0x19
 3861 0305 03       		.uleb128 0x3
 3862 0306 0E       		.uleb128 0xe
 3863 0307 3A       		.uleb128 0x3a
 3864 0308 0B       		.uleb128 0xb
 3865 0309 3B       		.uleb128 0x3b
 3866 030a 0B       		.uleb128 0xb
 3867 030b 27       		.uleb128 0x27
 3868 030c 19       		.uleb128 0x19
 3869 030d 49       		.uleb128 0x49
 3870 030e 13       		.uleb128 0x13
 3871 030f 11       		.uleb128 0x11
 3872 0310 01       		.uleb128 0x1
 3873 0311 12       		.uleb128 0x12
 3874 0312 06       		.uleb128 0x6
 3875 0313 40       		.uleb128 0x40
 3876 0314 18       		.uleb128 0x18
ARM GAS  /tmp/ccJUU6b3.s 			page 69


 3877 0315 9742     		.uleb128 0x2117
 3878 0317 19       		.uleb128 0x19
 3879 0318 01       		.uleb128 0x1
 3880 0319 13       		.uleb128 0x13
 3881 031a 00       		.byte	0
 3882 031b 00       		.byte	0
 3883 031c 3B       		.uleb128 0x3b
 3884 031d 34       		.uleb128 0x34
 3885 031e 00       		.byte	0
 3886 031f 03       		.uleb128 0x3
 3887 0320 0E       		.uleb128 0xe
 3888 0321 3A       		.uleb128 0x3a
 3889 0322 0B       		.uleb128 0xb
 3890 0323 3B       		.uleb128 0x3b
 3891 0324 0B       		.uleb128 0xb
 3892 0325 49       		.uleb128 0x49
 3893 0326 13       		.uleb128 0x13
 3894 0327 02       		.uleb128 0x2
 3895 0328 17       		.uleb128 0x17
 3896 0329 00       		.byte	0
 3897 032a 00       		.byte	0
 3898 032b 3C       		.uleb128 0x3c
 3899 032c 1D       		.uleb128 0x1d
 3900 032d 01       		.byte	0x1
 3901 032e 31       		.uleb128 0x31
 3902 032f 13       		.uleb128 0x13
 3903 0330 52       		.uleb128 0x52
 3904 0331 01       		.uleb128 0x1
 3905 0332 55       		.uleb128 0x55
 3906 0333 17       		.uleb128 0x17
 3907 0334 58       		.uleb128 0x58
 3908 0335 0B       		.uleb128 0xb
 3909 0336 59       		.uleb128 0x59
 3910 0337 05       		.uleb128 0x5
 3911 0338 00       		.byte	0
 3912 0339 00       		.byte	0
 3913 033a 3D       		.uleb128 0x3d
 3914 033b 2E       		.uleb128 0x2e
 3915 033c 01       		.byte	0x1
 3916 033d 3F       		.uleb128 0x3f
 3917 033e 19       		.uleb128 0x19
 3918 033f 03       		.uleb128 0x3
 3919 0340 0E       		.uleb128 0xe
 3920 0341 3A       		.uleb128 0x3a
 3921 0342 0B       		.uleb128 0xb
 3922 0343 3B       		.uleb128 0x3b
 3923 0344 0B       		.uleb128 0xb
 3924 0345 27       		.uleb128 0x27
 3925 0346 19       		.uleb128 0x19
 3926 0347 49       		.uleb128 0x49
 3927 0348 13       		.uleb128 0x13
 3928 0349 11       		.uleb128 0x11
 3929 034a 01       		.uleb128 0x1
 3930 034b 12       		.uleb128 0x12
 3931 034c 06       		.uleb128 0x6
 3932 034d 40       		.uleb128 0x40
 3933 034e 18       		.uleb128 0x18
ARM GAS  /tmp/ccJUU6b3.s 			page 70


 3934 034f 01       		.uleb128 0x1
 3935 0350 13       		.uleb128 0x13
 3936 0351 00       		.byte	0
 3937 0352 00       		.byte	0
 3938 0353 3E       		.uleb128 0x3e
 3939 0354 2E       		.uleb128 0x2e
 3940 0355 01       		.byte	0x1
 3941 0356 03       		.uleb128 0x3
 3942 0357 0E       		.uleb128 0xe
 3943 0358 3A       		.uleb128 0x3a
 3944 0359 0B       		.uleb128 0xb
 3945 035a 3B       		.uleb128 0x3b
 3946 035b 05       		.uleb128 0x5
 3947 035c 27       		.uleb128 0x27
 3948 035d 19       		.uleb128 0x19
 3949 035e 20       		.uleb128 0x20
 3950 035f 0B       		.uleb128 0xb
 3951 0360 01       		.uleb128 0x1
 3952 0361 13       		.uleb128 0x13
 3953 0362 00       		.byte	0
 3954 0363 00       		.byte	0
 3955 0364 3F       		.uleb128 0x3f
 3956 0365 05       		.uleb128 0x5
 3957 0366 00       		.byte	0
 3958 0367 03       		.uleb128 0x3
 3959 0368 08       		.uleb128 0x8
 3960 0369 3A       		.uleb128 0x3a
 3961 036a 0B       		.uleb128 0xb
 3962 036b 3B       		.uleb128 0x3b
 3963 036c 05       		.uleb128 0x5
 3964 036d 49       		.uleb128 0x49
 3965 036e 13       		.uleb128 0x13
 3966 036f 00       		.byte	0
 3967 0370 00       		.byte	0
 3968 0371 40       		.uleb128 0x40
 3969 0372 05       		.uleb128 0x5
 3970 0373 00       		.byte	0
 3971 0374 03       		.uleb128 0x3
 3972 0375 0E       		.uleb128 0xe
 3973 0376 3A       		.uleb128 0x3a
 3974 0377 0B       		.uleb128 0xb
 3975 0378 3B       		.uleb128 0x3b
 3976 0379 05       		.uleb128 0x5
 3977 037a 49       		.uleb128 0x49
 3978 037b 13       		.uleb128 0x13
 3979 037c 00       		.byte	0
 3980 037d 00       		.byte	0
 3981 037e 41       		.uleb128 0x41
 3982 037f 2E       		.uleb128 0x2e
 3983 0380 01       		.byte	0x1
 3984 0381 03       		.uleb128 0x3
 3985 0382 0E       		.uleb128 0xe
 3986 0383 3A       		.uleb128 0x3a
 3987 0384 0B       		.uleb128 0xb
 3988 0385 3B       		.uleb128 0x3b
 3989 0386 0B       		.uleb128 0xb
 3990 0387 27       		.uleb128 0x27
ARM GAS  /tmp/ccJUU6b3.s 			page 71


 3991 0388 19       		.uleb128 0x19
 3992 0389 20       		.uleb128 0x20
 3993 038a 0B       		.uleb128 0xb
 3994 038b 01       		.uleb128 0x1
 3995 038c 13       		.uleb128 0x13
 3996 038d 00       		.byte	0
 3997 038e 00       		.byte	0
 3998 038f 42       		.uleb128 0x42
 3999 0390 2E       		.uleb128 0x2e
 4000 0391 00       		.byte	0
 4001 0392 03       		.uleb128 0x3
 4002 0393 0E       		.uleb128 0xe
 4003 0394 3A       		.uleb128 0x3a
 4004 0395 0B       		.uleb128 0xb
 4005 0396 3B       		.uleb128 0x3b
 4006 0397 05       		.uleb128 0x5
 4007 0398 27       		.uleb128 0x27
 4008 0399 19       		.uleb128 0x19
 4009 039a 20       		.uleb128 0x20
 4010 039b 0B       		.uleb128 0xb
 4011 039c 00       		.byte	0
 4012 039d 00       		.byte	0
 4013 039e 43       		.uleb128 0x43
 4014 039f 2E       		.uleb128 0x2e
 4015 03a0 01       		.byte	0x1
 4016 03a1 31       		.uleb128 0x31
 4017 03a2 13       		.uleb128 0x13
 4018 03a3 11       		.uleb128 0x11
 4019 03a4 01       		.uleb128 0x1
 4020 03a5 12       		.uleb128 0x12
 4021 03a6 06       		.uleb128 0x6
 4022 03a7 40       		.uleb128 0x40
 4023 03a8 18       		.uleb128 0x18
 4024 03a9 9742     		.uleb128 0x2117
 4025 03ab 19       		.uleb128 0x19
 4026 03ac 01       		.uleb128 0x1
 4027 03ad 13       		.uleb128 0x13
 4028 03ae 00       		.byte	0
 4029 03af 00       		.byte	0
 4030 03b0 44       		.uleb128 0x44
 4031 03b1 05       		.uleb128 0x5
 4032 03b2 00       		.byte	0
 4033 03b3 31       		.uleb128 0x31
 4034 03b4 13       		.uleb128 0x13
 4035 03b5 02       		.uleb128 0x2
 4036 03b6 18       		.uleb128 0x18
 4037 03b7 00       		.byte	0
 4038 03b8 00       		.byte	0
 4039 03b9 45       		.uleb128 0x45
 4040 03ba 34       		.uleb128 0x34
 4041 03bb 00       		.byte	0
 4042 03bc 31       		.uleb128 0x31
 4043 03bd 13       		.uleb128 0x13
 4044 03be 02       		.uleb128 0x2
 4045 03bf 18       		.uleb128 0x18
 4046 03c0 00       		.byte	0
 4047 03c1 00       		.byte	0
ARM GAS  /tmp/ccJUU6b3.s 			page 72


 4048 03c2 46       		.uleb128 0x46
 4049 03c3 2E       		.uleb128 0x2e
 4050 03c4 00       		.byte	0
 4051 03c5 3F       		.uleb128 0x3f
 4052 03c6 19       		.uleb128 0x19
 4053 03c7 3C       		.uleb128 0x3c
 4054 03c8 19       		.uleb128 0x19
 4055 03c9 6E       		.uleb128 0x6e
 4056 03ca 0E       		.uleb128 0xe
 4057 03cb 03       		.uleb128 0x3
 4058 03cc 0E       		.uleb128 0xe
 4059 03cd 3A       		.uleb128 0x3a
 4060 03ce 0B       		.uleb128 0xb
 4061 03cf 3B       		.uleb128 0x3b
 4062 03d0 0B       		.uleb128 0xb
 4063 03d1 00       		.byte	0
 4064 03d2 00       		.byte	0
 4065 03d3 47       		.uleb128 0x47
 4066 03d4 2E       		.uleb128 0x2e
 4067 03d5 00       		.byte	0
 4068 03d6 3F       		.uleb128 0x3f
 4069 03d7 19       		.uleb128 0x19
 4070 03d8 3C       		.uleb128 0x3c
 4071 03d9 19       		.uleb128 0x19
 4072 03da 6E       		.uleb128 0x6e
 4073 03db 0E       		.uleb128 0xe
 4074 03dc 03       		.uleb128 0x3
 4075 03dd 0E       		.uleb128 0xe
 4076 03de 3A       		.uleb128 0x3a
 4077 03df 0B       		.uleb128 0xb
 4078 03e0 3B       		.uleb128 0x3b
 4079 03e1 05       		.uleb128 0x5
 4080 03e2 00       		.byte	0
 4081 03e3 00       		.byte	0
 4082 03e4 00       		.byte	0
 4083              		.section	.debug_loc,"",%progbits
 4084              	.Ldebug_loc0:
 4085              	.LLST32:
 4086 0000 00000000 		.4byte	.LVL42
 4087 0004 0F000000 		.4byte	.LVL44-1
 4088 0008 0100     		.2byte	0x1
 4089 000a 50       		.byte	0x50
 4090 000b 0F000000 		.4byte	.LVL44-1
 4091 000f 2C000000 		.4byte	.LFE311
 4092 0013 0100     		.2byte	0x1
 4093 0015 54       		.byte	0x54
 4094 0016 00000000 		.4byte	0
 4095 001a 00000000 		.4byte	0
 4096              	.LLST33:
 4097 001e 00000000 		.4byte	.LVL42
 4098 0022 0F000000 		.4byte	.LVL44-1
 4099 0026 0100     		.2byte	0x1
 4100 0028 51       		.byte	0x51
 4101 0029 0F000000 		.4byte	.LVL44-1
 4102 002d 2C000000 		.4byte	.LFE311
 4103 0031 0100     		.2byte	0x1
 4104 0033 55       		.byte	0x55
ARM GAS  /tmp/ccJUU6b3.s 			page 73


 4105 0034 00000000 		.4byte	0
 4106 0038 00000000 		.4byte	0
 4107              	.LLST34:
 4108 003c 00000000 		.4byte	.LVL42
 4109 0040 0C000000 		.4byte	.LVL43
 4110 0044 0300     		.2byte	0x3
 4111 0046 08       		.byte	0x8
 4112 0047 20       		.byte	0x20
 4113 0048 9F       		.byte	0x9f
 4114 0049 00000000 		.4byte	0
 4115 004d 00000000 		.4byte	0
 4116              	.LLST35:
 4117 0051 10000000 		.4byte	.LVL44
 4118 0055 1C000000 		.4byte	.LVL46
 4119 0059 0100     		.2byte	0x1
 4120 005b 55       		.byte	0x55
 4121 005c 00000000 		.4byte	0
 4122 0060 00000000 		.4byte	0
 4123              	.LLST36:
 4124 0064 10000000 		.4byte	.LVL44
 4125 0068 1C000000 		.4byte	.LVL46
 4126 006c 0100     		.2byte	0x1
 4127 006e 54       		.byte	0x54
 4128 006f 00000000 		.4byte	0
 4129 0073 00000000 		.4byte	0
 4130              	.LLST37:
 4131 0077 10000000 		.4byte	.LVL44
 4132 007b 18000000 		.4byte	.LVL45
 4133 007f 0100     		.2byte	0x1
 4134 0081 55       		.byte	0x55
 4135 0082 00000000 		.4byte	0
 4136 0086 00000000 		.4byte	0
 4137              	.LLST38:
 4138 008a 10000000 		.4byte	.LVL44
 4139 008e 18000000 		.4byte	.LVL45
 4140 0092 0300     		.2byte	0x3
 4141 0094 74       		.byte	0x74
 4142 0095 0C       		.sleb128 12
 4143 0096 9F       		.byte	0x9f
 4144 0097 00000000 		.4byte	0
 4145 009b 00000000 		.4byte	0
 4146              	.LLST39:
 4147 009f 24000000 		.4byte	.LVL48
 4148 00a3 2A000000 		.4byte	.LVL49
 4149 00a7 0200     		.2byte	0x2
 4150 00a9 30       		.byte	0x30
 4151 00aa 9F       		.byte	0x9f
 4152 00ab 00000000 		.4byte	0
 4153 00af 00000000 		.4byte	0
 4154              	.LLST27:
 4155 00b3 00000000 		.4byte	.LVL35
 4156 00b7 0F000000 		.4byte	.LVL37-1
 4157 00bb 0100     		.2byte	0x1
 4158 00bd 50       		.byte	0x50
 4159 00be 0F000000 		.4byte	.LVL37-1
 4160 00c2 1A000000 		.4byte	.LVL39
 4161 00c6 0100     		.2byte	0x1
ARM GAS  /tmp/ccJUU6b3.s 			page 74


 4162 00c8 54       		.byte	0x54
 4163 00c9 1A000000 		.4byte	.LVL39
 4164 00cd 28000000 		.4byte	.LFE310
 4165 00d1 0400     		.2byte	0x4
 4166 00d3 F3       		.byte	0xf3
 4167 00d4 01       		.uleb128 0x1
 4168 00d5 50       		.byte	0x50
 4169 00d6 9F       		.byte	0x9f
 4170 00d7 00000000 		.4byte	0
 4171 00db 00000000 		.4byte	0
 4172              	.LLST28:
 4173 00df 00000000 		.4byte	.LVL35
 4174 00e3 0F000000 		.4byte	.LVL37-1
 4175 00e7 0100     		.2byte	0x1
 4176 00e9 51       		.byte	0x51
 4177 00ea 0F000000 		.4byte	.LVL37-1
 4178 00ee 28000000 		.4byte	.LFE310
 4179 00f2 0100     		.2byte	0x1
 4180 00f4 55       		.byte	0x55
 4181 00f5 00000000 		.4byte	0
 4182 00f9 00000000 		.4byte	0
 4183              	.LLST29:
 4184 00fd 1A000000 		.4byte	.LVL39
 4185 0101 1D000000 		.4byte	.LVL40-1
 4186 0105 0100     		.2byte	0x1
 4187 0107 50       		.byte	0x50
 4188 0108 1D000000 		.4byte	.LVL40-1
 4189 010c 28000000 		.4byte	.LFE310
 4190 0110 0100     		.2byte	0x1
 4191 0112 54       		.byte	0x54
 4192 0113 00000000 		.4byte	0
 4193 0117 00000000 		.4byte	0
 4194              	.LLST30:
 4195 011b 00000000 		.4byte	.LVL35
 4196 011f 0C000000 		.4byte	.LVL36
 4197 0123 0300     		.2byte	0x3
 4198 0125 08       		.byte	0x8
 4199 0126 20       		.byte	0x20
 4200 0127 9F       		.byte	0x9f
 4201 0128 00000000 		.4byte	0
 4202 012c 00000000 		.4byte	0
 4203              	.LLST31:
 4204 0130 1E000000 		.4byte	.LVL40
 4205 0134 24000000 		.4byte	.LVL41
 4206 0138 0200     		.2byte	0x2
 4207 013a 30       		.byte	0x30
 4208 013b 9F       		.byte	0x9f
 4209 013c 00000000 		.4byte	0
 4210 0140 00000000 		.4byte	0
 4211              	.LLST24:
 4212 0144 00000000 		.4byte	.LVL29
 4213 0148 07000000 		.4byte	.LVL30-1
 4214 014c 0100     		.2byte	0x1
 4215 014e 50       		.byte	0x50
 4216 014f 07000000 		.4byte	.LVL30-1
 4217 0153 12000000 		.4byte	.LVL32
 4218 0157 0100     		.2byte	0x1
ARM GAS  /tmp/ccJUU6b3.s 			page 75


 4219 0159 54       		.byte	0x54
 4220 015a 12000000 		.4byte	.LVL32
 4221 015e 15000000 		.4byte	.LVL33-1
 4222 0162 0300     		.2byte	0x3
 4223 0164 70       		.byte	0x70
 4224 0165 74       		.sleb128 -12
 4225 0166 9F       		.byte	0x9f
 4226 0167 15000000 		.4byte	.LVL33-1
 4227 016b 16000000 		.4byte	.LVL33
 4228 016f 0400     		.2byte	0x4
 4229 0171 F3       		.byte	0xf3
 4230 0172 01       		.uleb128 0x1
 4231 0173 50       		.byte	0x50
 4232 0174 9F       		.byte	0x9f
 4233 0175 16000000 		.4byte	.LVL33
 4234 0179 1A000000 		.4byte	.LFE309
 4235 017d 0100     		.2byte	0x1
 4236 017f 54       		.byte	0x54
 4237 0180 00000000 		.4byte	0
 4238 0184 00000000 		.4byte	0
 4239              	.LLST25:
 4240 0188 00000000 		.4byte	.LVL29
 4241 018c 07000000 		.4byte	.LVL30-1
 4242 0190 0100     		.2byte	0x1
 4243 0192 51       		.byte	0x51
 4244 0193 07000000 		.4byte	.LVL30-1
 4245 0197 1A000000 		.4byte	.LFE309
 4246 019b 0400     		.2byte	0x4
 4247 019d F3       		.byte	0xf3
 4248 019e 01       		.uleb128 0x1
 4249 019f 51       		.byte	0x51
 4250 01a0 9F       		.byte	0x9f
 4251 01a1 00000000 		.4byte	0
 4252 01a5 00000000 		.4byte	0
 4253              	.LLST26:
 4254 01a9 08000000 		.4byte	.LVL30
 4255 01ad 0E000000 		.4byte	.LVL31
 4256 01b1 0100     		.2byte	0x1
 4257 01b3 50       		.byte	0x50
 4258 01b4 16000000 		.4byte	.LVL33
 4259 01b8 18000000 		.4byte	.LVL34
 4260 01bc 0100     		.2byte	0x1
 4261 01be 50       		.byte	0x50
 4262 01bf 00000000 		.4byte	0
 4263 01c3 00000000 		.4byte	0
 4264              	.LLST40:
 4265 01c7 00000000 		.4byte	.LVL50
 4266 01cb 08000000 		.4byte	.LVL51
 4267 01cf 0100     		.2byte	0x1
 4268 01d1 50       		.byte	0x50
 4269 01d2 08000000 		.4byte	.LVL51
 4270 01d6 1C000000 		.4byte	.LFE308
 4271 01da 0100     		.2byte	0x1
 4272 01dc 56       		.byte	0x56
 4273 01dd 00000000 		.4byte	0
 4274 01e1 00000000 		.4byte	0
 4275              	.LLST41:
ARM GAS  /tmp/ccJUU6b3.s 			page 76


 4276 01e5 00000000 		.4byte	.LVL50
 4277 01e9 08000000 		.4byte	.LVL51
 4278 01ed 0100     		.2byte	0x1
 4279 01ef 51       		.byte	0x51
 4280 01f0 08000000 		.4byte	.LVL51
 4281 01f4 1C000000 		.4byte	.LFE308
 4282 01f8 0100     		.2byte	0x1
 4283 01fa 55       		.byte	0x55
 4284 01fb 00000000 		.4byte	0
 4285 01ff 00000000 		.4byte	0
 4286              	.LLST42:
 4287 0203 00000000 		.4byte	.LVL50
 4288 0207 08000000 		.4byte	.LVL51
 4289 020b 0100     		.2byte	0x1
 4290 020d 52       		.byte	0x52
 4291 020e 08000000 		.4byte	.LVL51
 4292 0212 18000000 		.4byte	.LVL54
 4293 0216 0100     		.2byte	0x1
 4294 0218 54       		.byte	0x54
 4295 0219 18000000 		.4byte	.LVL54
 4296 021d 1A000000 		.4byte	.LVL55
 4297 0221 0300     		.2byte	0x3
 4298 0223 74       		.byte	0x74
 4299 0224 01       		.sleb128 1
 4300 0225 9F       		.byte	0x9f
 4301 0226 1A000000 		.4byte	.LVL55
 4302 022a 1C000000 		.4byte	.LFE308
 4303 022e 0100     		.2byte	0x1
 4304 0230 54       		.byte	0x54
 4305 0231 00000000 		.4byte	0
 4306 0235 00000000 		.4byte	0
 4307              	.LLST43:
 4308 0239 0C000000 		.4byte	.LVL52
 4309 023d 14000000 		.4byte	.LVL53
 4310 0241 0100     		.2byte	0x1
 4311 0243 55       		.byte	0x55
 4312 0244 00000000 		.4byte	0
 4313 0248 00000000 		.4byte	0
 4314              	.LLST44:
 4315 024c 0C000000 		.4byte	.LVL52
 4316 0250 14000000 		.4byte	.LVL53
 4317 0254 0100     		.2byte	0x1
 4318 0256 56       		.byte	0x56
 4319 0257 00000000 		.4byte	0
 4320 025b 00000000 		.4byte	0
 4321              	.LLST17:
 4322 025f 00000000 		.4byte	.LVL25
 4323 0263 15000000 		.4byte	.LVL28-1
 4324 0267 0100     		.2byte	0x1
 4325 0269 50       		.byte	0x50
 4326 026a 15000000 		.4byte	.LVL28-1
 4327 026e 16000000 		.4byte	.LFE307
 4328 0272 0400     		.2byte	0x4
 4329 0274 F3       		.byte	0xf3
 4330 0275 01       		.uleb128 0x1
 4331 0276 50       		.byte	0x50
 4332 0277 9F       		.byte	0x9f
ARM GAS  /tmp/ccJUU6b3.s 			page 77


 4333 0278 00000000 		.4byte	0
 4334 027c 00000000 		.4byte	0
 4335              	.LLST18:
 4336 0280 00000000 		.4byte	.LVL25
 4337 0284 0C000000 		.4byte	.LVL26
 4338 0288 0100     		.2byte	0x1
 4339 028a 51       		.byte	0x51
 4340 028b 0C000000 		.4byte	.LVL26
 4341 028f 15000000 		.4byte	.LVL28-1
 4342 0293 0200     		.2byte	0x2
 4343 0295 70       		.byte	0x70
 4344 0296 10       		.sleb128 16
 4345 0297 15000000 		.4byte	.LVL28-1
 4346 029b 16000000 		.4byte	.LFE307
 4347 029f 0400     		.2byte	0x4
 4348 02a1 F3       		.byte	0xf3
 4349 02a2 01       		.uleb128 0x1
 4350 02a3 51       		.byte	0x51
 4351 02a4 9F       		.byte	0x9f
 4352 02a5 00000000 		.4byte	0
 4353 02a9 00000000 		.4byte	0
 4354              	.LLST19:
 4355 02ad 00000000 		.4byte	.LVL25
 4356 02b1 15000000 		.4byte	.LVL28-1
 4357 02b5 0100     		.2byte	0x1
 4358 02b7 52       		.byte	0x52
 4359 02b8 15000000 		.4byte	.LVL28-1
 4360 02bc 16000000 		.4byte	.LFE307
 4361 02c0 0400     		.2byte	0x4
 4362 02c2 F3       		.byte	0xf3
 4363 02c3 01       		.uleb128 0x1
 4364 02c4 52       		.byte	0x52
 4365 02c5 9F       		.byte	0x9f
 4366 02c6 00000000 		.4byte	0
 4367 02ca 00000000 		.4byte	0
 4368              	.LLST20:
 4369 02ce 00000000 		.4byte	.LVL25
 4370 02d2 0E000000 		.4byte	.LVL27
 4371 02d6 0200     		.2byte	0x2
 4372 02d8 30       		.byte	0x30
 4373 02d9 9F       		.byte	0x9f
 4374 02da 00000000 		.4byte	0
 4375 02de 00000000 		.4byte	0
 4376              	.LLST21:
 4377 02e2 00000000 		.4byte	.LVL25
 4378 02e6 0E000000 		.4byte	.LVL27
 4379 02ea 0100     		.2byte	0x1
 4380 02ec 52       		.byte	0x52
 4381 02ed 00000000 		.4byte	0
 4382 02f1 00000000 		.4byte	0
 4383              	.LLST22:
 4384 02f5 00000000 		.4byte	.LVL25
 4385 02f9 0C000000 		.4byte	.LVL26
 4386 02fd 0100     		.2byte	0x1
 4387 02ff 51       		.byte	0x51
 4388 0300 0C000000 		.4byte	.LVL26
 4389 0304 0E000000 		.4byte	.LVL27
ARM GAS  /tmp/ccJUU6b3.s 			page 78


 4390 0308 0200     		.2byte	0x2
 4391 030a 70       		.byte	0x70
 4392 030b 10       		.sleb128 16
 4393 030c 00000000 		.4byte	0
 4394 0310 00000000 		.4byte	0
 4395              	.LLST23:
 4396 0314 00000000 		.4byte	.LVL25
 4397 0318 0E000000 		.4byte	.LVL27
 4398 031c 0300     		.2byte	0x3
 4399 031e 70       		.byte	0x70
 4400 031f 0C       		.sleb128 12
 4401 0320 9F       		.byte	0x9f
 4402 0321 00000000 		.4byte	0
 4403 0325 00000000 		.4byte	0
 4404              	.LLST6:
 4405 0329 00000000 		.4byte	.LVL13
 4406 032d 0F000000 		.4byte	.LVL15-1
 4407 0331 0100     		.2byte	0x1
 4408 0333 50       		.byte	0x50
 4409 0334 0F000000 		.4byte	.LVL15-1
 4410 0338 22000000 		.4byte	.LFE306
 4411 033c 0100     		.2byte	0x1
 4412 033e 54       		.byte	0x54
 4413 033f 00000000 		.4byte	0
 4414 0343 00000000 		.4byte	0
 4415              	.LLST7:
 4416 0347 00000000 		.4byte	.LVL13
 4417 034b 0F000000 		.4byte	.LVL15-1
 4418 034f 0100     		.2byte	0x1
 4419 0351 51       		.byte	0x51
 4420 0352 0F000000 		.4byte	.LVL15-1
 4421 0356 22000000 		.4byte	.LFE306
 4422 035a 0100     		.2byte	0x1
 4423 035c 55       		.byte	0x55
 4424 035d 00000000 		.4byte	0
 4425 0361 00000000 		.4byte	0
 4426              	.LLST8:
 4427 0365 00000000 		.4byte	.LVL13
 4428 0369 0C000000 		.4byte	.LVL14
 4429 036d 0300     		.2byte	0x3
 4430 036f 08       		.byte	0x8
 4431 0370 20       		.byte	0x20
 4432 0371 9F       		.byte	0x9f
 4433 0372 00000000 		.4byte	0
 4434 0376 00000000 		.4byte	0
 4435              	.LLST9:
 4436 037a 10000000 		.4byte	.LVL15
 4437 037e 16000000 		.4byte	.LVL16
 4438 0382 0100     		.2byte	0x1
 4439 0384 55       		.byte	0x55
 4440 0385 00000000 		.4byte	0
 4441 0389 00000000 		.4byte	0
 4442              	.LLST10:
 4443 038d 10000000 		.4byte	.LVL15
 4444 0391 16000000 		.4byte	.LVL16
 4445 0395 0100     		.2byte	0x1
 4446 0397 54       		.byte	0x54
ARM GAS  /tmp/ccJUU6b3.s 			page 79


 4447 0398 00000000 		.4byte	0
 4448 039c 00000000 		.4byte	0
 4449              	.LLST11:
 4450 03a0 1A000000 		.4byte	.LVL17
 4451 03a4 20000000 		.4byte	.LVL18
 4452 03a8 0200     		.2byte	0x2
 4453 03aa 30       		.byte	0x30
 4454 03ab 9F       		.byte	0x9f
 4455 03ac 00000000 		.4byte	0
 4456 03b0 00000000 		.4byte	0
 4457              	.LLST2:
 4458 03b4 00000000 		.4byte	.LVL5
 4459 03b8 0D000000 		.4byte	.LVL7-1
 4460 03bc 0100     		.2byte	0x1
 4461 03be 50       		.byte	0x50
 4462 03bf 0D000000 		.4byte	.LVL7-1
 4463 03c3 16000000 		.4byte	.LVL9
 4464 03c7 0100     		.2byte	0x1
 4465 03c9 54       		.byte	0x54
 4466 03ca 16000000 		.4byte	.LVL9
 4467 03ce 24000000 		.4byte	.LFE304
 4468 03d2 0400     		.2byte	0x4
 4469 03d4 F3       		.byte	0xf3
 4470 03d5 01       		.uleb128 0x1
 4471 03d6 50       		.byte	0x50
 4472 03d7 9F       		.byte	0x9f
 4473 03d8 00000000 		.4byte	0
 4474 03dc 00000000 		.4byte	0
 4475              	.LLST3:
 4476 03e0 16000000 		.4byte	.LVL9
 4477 03e4 19000000 		.4byte	.LVL10-1
 4478 03e8 0100     		.2byte	0x1
 4479 03ea 50       		.byte	0x50
 4480 03eb 19000000 		.4byte	.LVL10-1
 4481 03ef 24000000 		.4byte	.LFE304
 4482 03f3 0100     		.2byte	0x1
 4483 03f5 54       		.byte	0x54
 4484 03f6 00000000 		.4byte	0
 4485 03fa 00000000 		.4byte	0
 4486              	.LLST4:
 4487 03fe 00000000 		.4byte	.LVL5
 4488 0402 0A000000 		.4byte	.LVL6
 4489 0406 0300     		.2byte	0x3
 4490 0408 08       		.byte	0x8
 4491 0409 20       		.byte	0x20
 4492 040a 9F       		.byte	0x9f
 4493 040b 00000000 		.4byte	0
 4494 040f 00000000 		.4byte	0
 4495              	.LLST5:
 4496 0413 1A000000 		.4byte	.LVL10
 4497 0417 20000000 		.4byte	.LVL11
 4498 041b 0200     		.2byte	0x2
 4499 041d 30       		.byte	0x30
 4500 041e 9F       		.byte	0x9f
 4501 041f 00000000 		.4byte	0
 4502 0423 00000000 		.4byte	0
 4503              	.LLST0:
ARM GAS  /tmp/ccJUU6b3.s 			page 80


 4504 0427 00000000 		.4byte	.LVL1
 4505 042b 04000000 		.4byte	.LVL2
 4506 042f 0100     		.2byte	0x1
 4507 0431 50       		.byte	0x50
 4508 0432 04000000 		.4byte	.LVL2
 4509 0436 15000000 		.4byte	.LVL4-1
 4510 043a 0100     		.2byte	0x1
 4511 043c 53       		.byte	0x53
 4512 043d 15000000 		.4byte	.LVL4-1
 4513 0441 16000000 		.4byte	.LVL4
 4514 0445 0400     		.2byte	0x4
 4515 0447 F3       		.byte	0xf3
 4516 0448 01       		.uleb128 0x1
 4517 0449 50       		.byte	0x50
 4518 044a 9F       		.byte	0x9f
 4519 044b 16000000 		.4byte	.LVL4
 4520 044f 18000000 		.4byte	.LFE303
 4521 0453 0100     		.2byte	0x1
 4522 0455 53       		.byte	0x53
 4523 0456 00000000 		.4byte	0
 4524 045a 00000000 		.4byte	0
 4525              	.LLST1:
 4526 045e 04000000 		.4byte	.LVL2
 4527 0462 14000000 		.4byte	.LVL3
 4528 0466 0100     		.2byte	0x1
 4529 0468 50       		.byte	0x50
 4530 0469 14000000 		.4byte	.LVL3
 4531 046d 15000000 		.4byte	.LVL4-1
 4532 0471 0200     		.2byte	0x2
 4533 0473 73       		.byte	0x73
 4534 0474 00       		.sleb128 0
 4535 0475 16000000 		.4byte	.LVL4
 4536 0479 18000000 		.4byte	.LFE303
 4537 047d 0100     		.2byte	0x1
 4538 047f 50       		.byte	0x50
 4539 0480 00000000 		.4byte	0
 4540 0484 00000000 		.4byte	0
 4541              	.LLST12:
 4542 0488 00000000 		.4byte	.LVL19
 4543 048c 08000000 		.4byte	.LVL20
 4544 0490 0100     		.2byte	0x1
 4545 0492 50       		.byte	0x50
 4546 0493 08000000 		.4byte	.LVL20
 4547 0497 1C000000 		.4byte	.LFE302
 4548 049b 0100     		.2byte	0x1
 4549 049d 56       		.byte	0x56
 4550 049e 00000000 		.4byte	0
 4551 04a2 00000000 		.4byte	0
 4552              	.LLST13:
 4553 04a6 00000000 		.4byte	.LVL19
 4554 04aa 08000000 		.4byte	.LVL20
 4555 04ae 0100     		.2byte	0x1
 4556 04b0 51       		.byte	0x51
 4557 04b1 08000000 		.4byte	.LVL20
 4558 04b5 1C000000 		.4byte	.LFE302
 4559 04b9 0100     		.2byte	0x1
 4560 04bb 55       		.byte	0x55
ARM GAS  /tmp/ccJUU6b3.s 			page 81


 4561 04bc 00000000 		.4byte	0
 4562 04c0 00000000 		.4byte	0
 4563              	.LLST14:
 4564 04c4 00000000 		.4byte	.LVL19
 4565 04c8 08000000 		.4byte	.LVL20
 4566 04cc 0100     		.2byte	0x1
 4567 04ce 52       		.byte	0x52
 4568 04cf 08000000 		.4byte	.LVL20
 4569 04d3 18000000 		.4byte	.LVL23
 4570 04d7 0100     		.2byte	0x1
 4571 04d9 54       		.byte	0x54
 4572 04da 18000000 		.4byte	.LVL23
 4573 04de 1A000000 		.4byte	.LVL24
 4574 04e2 0300     		.2byte	0x3
 4575 04e4 74       		.byte	0x74
 4576 04e5 01       		.sleb128 1
 4577 04e6 9F       		.byte	0x9f
 4578 04e7 1A000000 		.4byte	.LVL24
 4579 04eb 1C000000 		.4byte	.LFE302
 4580 04ef 0100     		.2byte	0x1
 4581 04f1 54       		.byte	0x54
 4582 04f2 00000000 		.4byte	0
 4583 04f6 00000000 		.4byte	0
 4584              	.LLST15:
 4585 04fa 0C000000 		.4byte	.LVL21
 4586 04fe 14000000 		.4byte	.LVL22
 4587 0502 0100     		.2byte	0x1
 4588 0504 55       		.byte	0x55
 4589 0505 00000000 		.4byte	0
 4590 0509 00000000 		.4byte	0
 4591              	.LLST16:
 4592 050d 0C000000 		.4byte	.LVL21
 4593 0511 14000000 		.4byte	.LVL22
 4594 0515 0100     		.2byte	0x1
 4595 0517 56       		.byte	0x56
 4596 0518 00000000 		.4byte	0
 4597 051c 00000000 		.4byte	0
 4598              		.section	.debug_aranges,"",%progbits
 4599 0000 6C000000 		.4byte	0x6c
 4600 0004 0200     		.2byte	0x2
 4601 0006 00000000 		.4byte	.Ldebug_info0
 4602 000a 04       		.byte	0x4
 4603 000b 00       		.byte	0
 4604 000c 0000     		.2byte	0
 4605 000e 0000     		.2byte	0
 4606 0010 00000000 		.4byte	.LFB301
 4607 0014 0E000000 		.4byte	.LFE301-.LFB301
 4608 0018 00000000 		.4byte	.LFB303
 4609 001c 18000000 		.4byte	.LFE303-.LFB303
 4610 0020 00000000 		.4byte	.LFB304
 4611 0024 24000000 		.4byte	.LFE304-.LFB304
 4612 0028 00000000 		.4byte	.LFB305
 4613 002c 08000000 		.4byte	.LFE305-.LFB305
 4614 0030 00000000 		.4byte	.LFB306
 4615 0034 22000000 		.4byte	.LFE306-.LFB306
 4616 0038 00000000 		.4byte	.LFB302
 4617 003c 1C000000 		.4byte	.LFE302-.LFB302
ARM GAS  /tmp/ccJUU6b3.s 			page 82


 4618 0040 00000000 		.4byte	.LFB307
 4619 0044 16000000 		.4byte	.LFE307-.LFB307
 4620 0048 00000000 		.4byte	.LFB309
 4621 004c 1A000000 		.4byte	.LFE309-.LFB309
 4622 0050 00000000 		.4byte	.LFB310
 4623 0054 28000000 		.4byte	.LFE310-.LFB310
 4624 0058 00000000 		.4byte	.LFB311
 4625 005c 2C000000 		.4byte	.LFE311-.LFB311
 4626 0060 00000000 		.4byte	.LFB308
 4627 0064 1C000000 		.4byte	.LFE308-.LFB308
 4628 0068 00000000 		.4byte	0
 4629 006c 00000000 		.4byte	0
 4630              		.section	.debug_ranges,"",%progbits
 4631              	.Ldebug_ranges0:
 4632 0000 02000000 		.4byte	.LBB34
 4633 0004 04000000 		.4byte	.LBE34
 4634 0008 06000000 		.4byte	.LBB43
 4635 000c 0E000000 		.4byte	.LBE43
 4636 0010 00000000 		.4byte	0
 4637 0014 00000000 		.4byte	0
 4638 0018 02000000 		.4byte	.LBB36
 4639 001c 04000000 		.4byte	.LBE36
 4640 0020 06000000 		.4byte	.LBB41
 4641 0024 0A000000 		.4byte	.LBE41
 4642 0028 00000000 		.4byte	0
 4643 002c 00000000 		.4byte	0
 4644 0030 02000000 		.4byte	.LBB75
 4645 0034 0A000000 		.4byte	.LBE75
 4646 0038 0C000000 		.4byte	.LBB78
 4647 003c 0E000000 		.4byte	.LBE78
 4648 0040 00000000 		.4byte	0
 4649 0044 00000000 		.4byte	0
 4650 0048 10000000 		.4byte	.LBB120
 4651 004c 12000000 		.4byte	.LBE120
 4652 0050 14000000 		.4byte	.LBB123
 4653 0054 18000000 		.4byte	.LBE123
 4654 0058 00000000 		.4byte	0
 4655 005c 00000000 		.4byte	0
 4656 0060 00000000 		.4byte	.LFB301
 4657 0064 0E000000 		.4byte	.LFE301
 4658 0068 00000000 		.4byte	.LFB303
 4659 006c 18000000 		.4byte	.LFE303
 4660 0070 00000000 		.4byte	.LFB304
 4661 0074 24000000 		.4byte	.LFE304
 4662 0078 00000000 		.4byte	.LFB305
 4663 007c 08000000 		.4byte	.LFE305
 4664 0080 00000000 		.4byte	.LFB306
 4665 0084 22000000 		.4byte	.LFE306
 4666 0088 00000000 		.4byte	.LFB302
 4667 008c 1C000000 		.4byte	.LFE302
 4668 0090 00000000 		.4byte	.LFB307
 4669 0094 16000000 		.4byte	.LFE307
 4670 0098 00000000 		.4byte	.LFB309
 4671 009c 1A000000 		.4byte	.LFE309
 4672 00a0 00000000 		.4byte	.LFB310
 4673 00a4 28000000 		.4byte	.LFE310
 4674 00a8 00000000 		.4byte	.LFB311
ARM GAS  /tmp/ccJUU6b3.s 			page 83


 4675 00ac 2C000000 		.4byte	.LFE311
 4676 00b0 00000000 		.4byte	.LFB308
 4677 00b4 1C000000 		.4byte	.LFE308
 4678 00b8 00000000 		.4byte	0
 4679 00bc 00000000 		.4byte	0
 4680              		.section	.debug_line,"",%progbits
 4681              	.Ldebug_line0:
 4682 0000 08050000 		.section	.debug_str,"MS",%progbits,1
 4682      02006003 
 4682      00000201 
 4682      FB0E0D00 
 4682      01010101 
 4683              	.LASF146:
 4684 0000 67756172 		.ascii	"guarded_memory_pool_t\000"
 4684      6465645F 
 4684      6D656D6F 
 4684      72795F70 
 4684      6F6F6C5F 
 4685              	.LASF56:
 4686 0016 72656164 		.ascii	"ready_list_t\000"
 4686      795F6C69 
 4686      73745F74 
 4686      00
 4687              	.LASF185:
 4688 0023 63685365 		.ascii	"chSemSignalI\000"
 4688      6D536967 
 4688      6E616C49 
 4688      00
 4689              	.LASF4:
 4690 0030 73697A65 		.ascii	"size_t\000"
 4690      5F7400
 4691              	.LASF62:
 4692 0037 64656C74 		.ascii	"delta\000"
 4692      6100
 4693              	.LASF99:
 4694 003d 7264796D 		.ascii	"rdymsg\000"
 4694      736700
 4695              	.LASF20:
 4696 0044 75696E74 		.ascii	"uint64_t\000"
 4696      36345F74 
 4696      00
 4697              	.LASF75:
 4698 004d 6B65726E 		.ascii	"kernel_stats\000"
 4698      656C5F73 
 4698      74617473 
 4698      00
 4699              	.LASF5:
 4700 005a 5F5F7569 		.ascii	"__uint8_t\000"
 4700      6E74385F 
 4700      7400
 4701              	.LASF55:
 4702 0064 70726576 		.ascii	"prev\000"
 4702      00
 4703              	.LASF86:
 4704 0069 706F7274 		.ascii	"port_intctx\000"
 4704      5F696E74 
 4704      63747800 
ARM GAS  /tmp/ccJUU6b3.s 			page 84


 4705              	.LASF54:
 4706 0075 63685F74 		.ascii	"ch_threads_queue\000"
 4706      68726561 
 4706      64735F71 
 4706      75657565 
 4706      00
 4707              	.LASF67:
 4708 0086 73797374 		.ascii	"system_debug_t\000"
 4708      656D5F64 
 4708      65627567 
 4708      5F7400
 4709              	.LASF143:
 4710 0095 70726F76 		.ascii	"provider\000"
 4710      69646572 
 4710      00
 4711              	.LASF155:
 4712 009e 73656D5F 		.ascii	"sem_list\000"
 4712      6C697374 
 4712      00
 4713              	.LASF191:
 4714 00a7 2E2E2F2E 		.ascii	"../../modules/ChibiOS/os/oslib/src/chmempools.c\000"
 4714      2E2F6D6F 
 4714      64756C65 
 4714      732F4368 
 4714      6962694F 
 4715              	.LASF90:
 4716 00d7 776F7273 		.ascii	"worst\000"
 4716      7400
 4717              	.LASF93:
 4718 00dd 74696D65 		.ascii	"time_measurement_t\000"
 4718      5F6D6561 
 4718      73757265 
 4718      6D656E74 
 4718      5F7400
 4719              	.LASF15:
 4720 00f0 6C6F6E67 		.ascii	"long long unsigned int\000"
 4720      206C6F6E 
 4720      6720756E 
 4720      7369676E 
 4720      65642069 
 4721              	.LASF176:
 4722 0107 63684775 		.ascii	"chGuardedPoolFreeI\000"
 4722      61726465 
 4722      64506F6F 
 4722      6C467265 
 4722      654900
 4723              	.LASF100:
 4724 011a 65786974 		.ascii	"exitcode\000"
 4724      636F6465 
 4724      00
 4725              	.LASF74:
 4726 0123 6D61696E 		.ascii	"mainthread\000"
 4726      74687265 
 4726      616400
 4727              	.LASF103:
 4728 012e 73656E74 		.ascii	"sentmsg\000"
 4728      6D736700 
ARM GAS  /tmp/ccJUU6b3.s 			page 85


 4729              	.LASF64:
 4730 0136 76697274 		.ascii	"virtual_timers_list_t\000"
 4730      75616C5F 
 4730      74696D65 
 4730      72735F6C 
 4730      6973745F 
 4731              	.LASF79:
 4732 014c 49544D5F 		.ascii	"ITM_RxBuffer\000"
 4732      52784275 
 4732      66666572 
 4732      00
 4733              	.LASF148:
 4734 0159 64796E5F 		.ascii	"dyn_element_t\000"
 4734      656C656D 
 4734      656E745F 
 4734      7400
 4735              	.LASF52:
 4736 0167 6E657874 		.ascii	"next\000"
 4736      00
 4737              	.LASF22:
 4738 016c 72747469 		.ascii	"rttime_t\000"
 4738      6D655F74 
 4738      00
 4739              	.LASF1:
 4740 0175 6C6F6E67 		.ascii	"long long int\000"
 4740      206C6F6E 
 4740      6720696E 
 4740      7400
 4741              	.LASF3:
 4742 0183 7369676E 		.ascii	"signed char\000"
 4742      65642063 
 4742      68617200 
 4743              	.LASF114:
 4744 018f 73697A65 		.ascii	"size\000"
 4744      00
 4745              	.LASF72:
 4746 0194 726C6973 		.ascii	"rlist\000"
 4746      7400
 4747              	.LASF183:
 4748 019a 62617365 		.ascii	"basePri\000"
 4748      50726900 
 4749              	.LASF73:
 4750 01a2 76746C69 		.ascii	"vtlist\000"
 4750      737400
 4751              	.LASF180:
 4752 01a9 706F7274 		.ascii	"port_unlock\000"
 4752      5F756E6C 
 4752      6F636B00 
 4753              	.LASF42:
 4754 01b5 6D736771 		.ascii	"msgqueue\000"
 4754      75657565 
 4754      00
 4755              	.LASF38:
 4756 01be 73746174 		.ascii	"state\000"
 4756      6500
 4757              	.LASF11:
 4758 01c4 6C6F6E67 		.ascii	"long int\000"
ARM GAS  /tmp/ccJUU6b3.s 			page 86


 4758      20696E74 
 4758      00
 4759              	.LASF24:
 4760 01cd 74737461 		.ascii	"tstate_t\000"
 4760      74655F74 
 4760      00
 4761              	.LASF63:
 4762 01d6 66756E63 		.ascii	"func\000"
 4762      00
 4763              	.LASF47:
 4764 01db 73746174 		.ascii	"stats\000"
 4764      7300
 4765              	.LASF128:
 4766 01e1 6F66665F 		.ascii	"off_preempt\000"
 4766      70726565 
 4766      6D707400 
 4767              	.LASF174:
 4768 01ed 6368506F 		.ascii	"chPoolObjectInitAligned\000"
 4768      6F6C4F62 
 4768      6A656374 
 4768      496E6974 
 4768      416C6967 
 4769              	.LASF187:
 4770 0205 63685363 		.ascii	"chSchRescheduleS\000"
 4770      68526573 
 4770      63686564 
 4770      756C6553 
 4770      00
 4771              	.LASF12:
 4772 0216 5F5F7569 		.ascii	"__uint32_t\000"
 4772      6E743332 
 4772      5F7400
 4773              	.LASF83:
 4774 0221 72656761 		.ascii	"regarm_t\000"
 4774      726D5F74 
 4774      00
 4775              	.LASF173:
 4776 022a 6368506F 		.ascii	"chPoolFreeI\000"
 4776      6F6C4672 
 4776      65654900 
 4777              	.LASF157:
 4778 0236 6D62785F 		.ascii	"mbx_list\000"
 4778      6C697374 
 4778      00
 4779              	.LASF68:
 4780 023f 63685F73 		.ascii	"ch_system_debug\000"
 4780      79737465 
 4780      6D5F6465 
 4780      62756700 
 4781              	.LASF41:
 4782 024f 77616974 		.ascii	"waiting\000"
 4782      696E6700 
 4783              	.LASF82:
 4784 0257 41504250 		.ascii	"APBPrescTable\000"
 4784      72657363 
 4784      5461626C 
 4784      6500
ARM GAS  /tmp/ccJUU6b3.s 			page 87


 4785              	.LASF163:
 4786 0265 63684775 		.ascii	"chGuardedPoolAllocTimeout\000"
 4786      61726465 
 4786      64506F6F 
 4786      6C416C6C 
 4786      6F635469 
 4787              	.LASF113:
 4788 027f 7A65726F 		.ascii	"zero\000"
 4788      00
 4789              	.LASF133:
 4790 0284 6D757465 		.ascii	"mutex_t\000"
 4790      785F7400 
 4791              	.LASF142:
 4792 028c 616C6967 		.ascii	"align\000"
 4792      6E00
 4793              	.LASF77:
 4794 0292 73797369 		.ascii	"sysinterval_t\000"
 4794      6E746572 
 4794      76616C5F 
 4794      7400
 4795              	.LASF189:
 4796 02a0 63685365 		.ascii	"chSemObjectInit\000"
 4796      6D4F626A 
 4796      65637449 
 4796      6E697400 
 4797              	.LASF29:
 4798 02b0 636E745F 		.ascii	"cnt_t\000"
 4798      7400
 4799              	.LASF0:
 4800 02b6 756E7369 		.ascii	"unsigned int\000"
 4800      676E6564 
 4800      20696E74 
 4800      00
 4801              	.LASF184:
 4802 02c3 5F737461 		.ascii	"_stats_start_measure_crit_thd\000"
 4802      74735F73 
 4802      74617274 
 4802      5F6D6561 
 4802      73757265 
 4803              	.LASF17:
 4804 02e1 75696E74 		.ascii	"uint16_t\000"
 4804      31365F74 
 4804      00
 4805              	.LASF80:
 4806 02ea 53797374 		.ascii	"SystemCoreClock\000"
 4806      656D436F 
 4806      7265436C 
 4806      6F636B00 
 4807              	.LASF104:
 4808 02fa 77747365 		.ascii	"wtsemp\000"
 4808      6D7000
 4809              	.LASF102:
 4810 0301 77747472 		.ascii	"wttrp\000"
 4810      7000
 4811              	.LASF131:
 4812 0307 63685F64 		.ascii	"ch_debug\000"
 4812      65627567 
ARM GAS  /tmp/ccJUU6b3.s 			page 88


 4812      00
 4813              	.LASF160:
 4814 0310 63685F66 		.ascii	"ch_factory\000"
 4814      6163746F 
 4814      727900
 4815              	.LASF162:
 4816 031b 74696D65 		.ascii	"timeout\000"
 4816      6F757400 
 4817              	.LASF144:
 4818 0323 6D656D6F 		.ascii	"memory_pool_t\000"
 4818      72795F70 
 4818      6F6F6C5F 
 4818      7400
 4819              	.LASF94:
 4820 0331 6E5F6972 		.ascii	"n_irq\000"
 4820      7100
 4821              	.LASF32:
 4822 0337 71756575 		.ascii	"queue\000"
 4822      6500
 4823              	.LASF46:
 4824 033d 6D706F6F 		.ascii	"mpool\000"
 4824      6C00
 4825              	.LASF127:
 4826 0343 6F66665F 		.ascii	"off_refs\000"
 4826      72656673 
 4826      00
 4827              	.LASF98:
 4828 034c 6B65726E 		.ascii	"kernel_stats_t\000"
 4828      656C5F73 
 4828      74617473 
 4828      5F7400
 4829              	.LASF36:
 4830 035b 6E616D65 		.ascii	"name\000"
 4830      00
 4831              	.LASF50:
 4832 0360 63685F74 		.ascii	"ch_thread\000"
 4832      68726561 
 4832      6400
 4833              	.LASF27:
 4834 036a 6D73675F 		.ascii	"msg_t\000"
 4834      7400
 4835              	.LASF165:
 4836 0370 63684775 		.ascii	"chGuardedPoolFree\000"
 4836      61726465 
 4836      64506F6F 
 4836      6C467265 
 4836      6500
 4837              	.LASF30:
 4838 0382 75636E74 		.ascii	"ucnt_t\000"
 4838      5F7400
 4839              	.LASF43:
 4840 0389 6570656E 		.ascii	"epending\000"
 4840      64696E67 
 4840      00
 4841              	.LASF150:
 4842 0392 64796E5F 		.ascii	"dyn_list_t\000"
 4842      6C697374 
ARM GAS  /tmp/ccJUU6b3.s 			page 89


 4842      5F7400
 4843              	.LASF70:
 4844 039d 63685F73 		.ascii	"ch_system_t\000"
 4844      79737465 
 4844      6D5F7400 
 4845              	.LASF120:
 4846 03a9 6F66665F 		.ascii	"off_ctx\000"
 4846      63747800 
 4847              	.LASF23:
 4848 03b1 746D6F64 		.ascii	"tmode_t\000"
 4848      655F7400 
 4849              	.LASF97:
 4850 03b9 6D5F6372 		.ascii	"m_crit_isr\000"
 4850      69745F69 
 4850      737200
 4851              	.LASF57:
 4852 03c4 63685F72 		.ascii	"ch_ready_list\000"
 4852      65616479 
 4852      5F6C6973 
 4852      7400
 4853              	.LASF28:
 4854 03d2 6576656E 		.ascii	"eventmask_t\000"
 4854      746D6173 
 4854      6B5F7400 
 4855              	.LASF81:
 4856 03de 41484250 		.ascii	"AHBPrescTable\000"
 4856      72657363 
 4856      5461626C 
 4856      6500
 4857              	.LASF137:
 4858 03ec 656E646D 		.ascii	"endmem\000"
 4858      656D00
 4859              	.LASF10:
 4860 03f3 5F5F696E 		.ascii	"__int32_t\000"
 4860      7433325F 
 4860      7400
 4861              	.LASF84:
 4862 03fd 73746B61 		.ascii	"stkalign_t\000"
 4862      6C69676E 
 4862      5F7400
 4863              	.LASF34:
 4864 0408 6E657765 		.ascii	"newer\000"
 4864      7200
 4865              	.LASF45:
 4866 040e 7265616C 		.ascii	"realprio\000"
 4866      7072696F 
 4866      00
 4867              	.LASF115:
 4868 0417 76657273 		.ascii	"version\000"
 4868      696F6E00 
 4869              	.LASF186:
 4870 041f 5F737461 		.ascii	"_stats_stop_measure_crit_thd\000"
 4870      74735F73 
 4870      746F705F 
 4870      6D656173 
 4870      7572655F 
 4871              	.LASF78:
ARM GAS  /tmp/ccJUU6b3.s 			page 90


 4872 043c 73697A65 		.ascii	"sizetype\000"
 4872      74797065 
 4872      00
 4873              	.LASF48:
 4874 0445 74687265 		.ascii	"thread_reference_t\000"
 4874      61645F72 
 4874      65666572 
 4874      656E6365 
 4874      5F7400
 4875              	.LASF65:
 4876 0458 63685F76 		.ascii	"ch_virtual_timers_list\000"
 4876      69727475 
 4876      616C5F74 
 4876      696D6572 
 4876      735F6C69 
 4877              	.LASF2:
 4878 046f 6C6F6E67 		.ascii	"long double\000"
 4878      20646F75 
 4878      626C6500 
 4879              	.LASF149:
 4880 047b 63685F64 		.ascii	"ch_dyn_list\000"
 4880      796E5F6C 
 4880      69737400 
 4881              	.LASF171:
 4882 0487 6368506F 		.ascii	"chPoolAllocI\000"
 4882      6F6C416C 
 4882      6C6F6349 
 4882      00
 4883              	.LASF121:
 4884 0494 6F66665F 		.ascii	"off_newer\000"
 4884      6E657765 
 4884      7200
 4885              	.LASF192:
 4886 049e 2F686F6D 		.ascii	"/home/incsl/ardupilot/build/CUAVv5\000"
 4886      652F696E 
 4886      63736C2F 
 4886      61726475 
 4886      70696C6F 
 4887              	.LASF85:
 4888 04c1 706F7274 		.ascii	"port_context\000"
 4888      5F636F6E 
 4888      74657874 
 4888      00
 4889              	.LASF88:
 4890 04ce 746D5F63 		.ascii	"tm_calibration_t\000"
 4890      616C6962 
 4890      72617469 
 4890      6F6E5F74 
 4890      00
 4891              	.LASF164:
 4892 04df 63684775 		.ascii	"chGuardedPoolAllocTimeoutS\000"
 4892      61726465 
 4892      64506F6F 
 4892      6C416C6C 
 4892      6F635469 
 4893              	.LASF33:
 4894 04fa 7072696F 		.ascii	"prio\000"
ARM GAS  /tmp/ccJUU6b3.s 			page 91


 4894      00
 4895              	.LASF156:
 4896 04ff 73656D5F 		.ascii	"sem_pool\000"
 4896      706F6F6C 
 4896      00
 4897              	.LASF58:
 4898 0508 63757272 		.ascii	"current\000"
 4898      656E7400 
 4899              	.LASF91:
 4900 0510 6C617374 		.ascii	"last\000"
 4900      00
 4901              	.LASF14:
 4902 0515 5F5F7569 		.ascii	"__uint64_t\000"
 4902      6E743634 
 4902      5F7400
 4903              	.LASF138:
 4904 0520 6D656D63 		.ascii	"memcore_t\000"
 4904      6F72655F 
 4904      7400
 4905              	.LASF92:
 4906 052a 63756D75 		.ascii	"cumulative\000"
 4906      6C617469 
 4906      766500
 4907              	.LASF167:
 4908 0535 63684775 		.ascii	"chGuardedPoolObjectInitAligned\000"
 4908      61726465 
 4908      64506F6F 
 4908      6C4F626A 
 4908      65637449 
 4909              	.LASF25:
 4910 0554 74726566 		.ascii	"trefs_t\000"
 4910      735F7400 
 4911              	.LASF130:
 4912 055c 63686465 		.ascii	"chdebug_t\000"
 4912      6275675F 
 4912      7400
 4913              	.LASF118:
 4914 0566 74687265 		.ascii	"threadsize\000"
 4914      61647369 
 4914      7A6500
 4915              	.LASF40:
 4916 0571 72656673 		.ascii	"refs\000"
 4916      00
 4917              	.LASF60:
 4918 0576 76697274 		.ascii	"virtual_timer_t\000"
 4918      75616C5F 
 4918      74696D65 
 4918      725F7400 
 4919              	.LASF147:
 4920 0586 63685F64 		.ascii	"ch_dyn_element\000"
 4920      796E5F65 
 4920      6C656D65 
 4920      6E7400
 4921              	.LASF26:
 4922 0595 74707269 		.ascii	"tprio_t\000"
 4922      6F5F7400 
 4923              	.LASF190:
ARM GAS  /tmp/ccJUU6b3.s 			page 92


 4924 059d 474E5520 		.ascii	"GNU C11 6.3.1 20170620 (release) [ARM/embedded-6-br"
 4924      43313120 
 4924      362E332E 
 4924      31203230 
 4924      31373036 
 4925 05d0 616E6368 		.ascii	"anch revision 249437] -mcpu=cortex-m7 -mfloat-abi=h"
 4925      20726576 
 4925      6973696F 
 4925      6E203234 
 4925      39343337 
 4926 0603 61726420 		.ascii	"ard -mfpu=fpv4-sp-d16 -mno-thumb-interwork -mthumb "
 4926      2D6D6670 
 4926      753D6670 
 4926      76342D73 
 4926      702D6431 
 4927 0636 2D67202D 		.ascii	"-g -Os -fomit-frame-pointer -falign-functions=16 -f"
 4927      4F73202D 
 4927      666F6D69 
 4927      742D6672 
 4927      616D652D 
 4928 0669 66756E63 		.ascii	"function-sections -fdata-sections -fno-common -fsin"
 4928      74696F6E 
 4928      2D736563 
 4928      74696F6E 
 4928      73202D66 
 4929 069c 676C652D 		.ascii	"gle-precision-constant\000"
 4929      70726563 
 4929      6973696F 
 4929      6E2D636F 
 4929      6E737461 
 4930              	.LASF154:
 4931 06b3 6275665F 		.ascii	"buf_list\000"
 4931      6C697374 
 4931      00
 4932              	.LASF95:
 4933 06bc 6E5F6374 		.ascii	"n_ctxswc\000"
 4933      78737763 
 4933      00
 4934              	.LASF134:
 4935 06c5 5F426F6F 		.ascii	"_Bool\000"
 4935      6C00
 4936              	.LASF18:
 4937 06cb 696E7433 		.ascii	"int32_t\000"
 4937      325F7400 
 4938              	.LASF6:
 4939 06d3 756E7369 		.ascii	"unsigned char\000"
 4939      676E6564 
 4939      20636861 
 4939      7200
 4940              	.LASF119:
 4941 06e1 6F66665F 		.ascii	"off_prio\000"
 4941      7072696F 
 4941      00
 4942              	.LASF124:
 4943 06ea 6F66665F 		.ascii	"off_stklimit\000"
 4943      73746B6C 
 4943      696D6974 
ARM GAS  /tmp/ccJUU6b3.s 			page 93


 4943      00
 4944              	.LASF7:
 4945 06f7 73686F72 		.ascii	"short int\000"
 4945      7420696E 
 4945      7400
 4946              	.LASF66:
 4947 0701 6C617374 		.ascii	"lasttime\000"
 4947      74696D65 
 4947      00
 4948              	.LASF106:
 4949 070a 65776D61 		.ascii	"ewmask\000"
 4949      736B00
 4950              	.LASF71:
 4951 0711 63685F73 		.ascii	"ch_system\000"
 4951      79737465 
 4951      6D00
 4952              	.LASF169:
 4953 071b 5F5F6675 		.ascii	"__func__\000"
 4953      6E635F5F 
 4953      00
 4954              	.LASF179:
 4955 0724 63685379 		.ascii	"chSysLock\000"
 4955      734C6F63 
 4955      6B00
 4956              	.LASF153:
 4957 072e 6F626A5F 		.ascii	"obj_pool\000"
 4957      706F6F6C 
 4957      00
 4958              	.LASF161:
 4959 0737 6F626A70 		.ascii	"objp\000"
 4959      00
 4960              	.LASF132:
 4961 073c 73656D61 		.ascii	"semaphore_t\000"
 4961      70686F72 
 4961      655F7400 
 4962              	.LASF61:
 4963 0748 63685F76 		.ascii	"ch_virtual_timer\000"
 4963      69727475 
 4963      616C5F74 
 4963      696D6572 
 4963      00
 4964              	.LASF107:
 4965 0759 63685F73 		.ascii	"ch_semaphore\000"
 4965      656D6170 
 4965      686F7265 
 4965      00
 4966              	.LASF129:
 4967 0766 6F66665F 		.ascii	"off_time\000"
 4967      74696D65 
 4967      00
 4968              	.LASF111:
 4969 076f 63685F69 		.ascii	"ch_idle_thread_wa\000"
 4969      646C655F 
 4969      74687265 
 4969      61645F77 
 4969      6100
 4970              	.LASF117:
ARM GAS  /tmp/ccJUU6b3.s 			page 94


 4971 0781 74696D65 		.ascii	"timesize\000"
 4971      73697A65 
 4971      00
 4972              	.LASF19:
 4973 078a 75696E74 		.ascii	"uint32_t\000"
 4973      33325F74 
 4973      00
 4974              	.LASF105:
 4975 0793 77746D74 		.ascii	"wtmtxp\000"
 4975      787000
 4976              	.LASF51:
 4977 079a 63685F74 		.ascii	"ch_threads_list\000"
 4977      68726561 
 4977      64735F6C 
 4977      69737400 
 4978              	.LASF109:
 4979 07aa 6F776E65 		.ascii	"owner\000"
 4979      7200
 4980              	.LASF13:
 4981 07b0 6C6F6E67 		.ascii	"long unsigned int\000"
 4981      20756E73 
 4981      69676E65 
 4981      6420696E 
 4981      7400
 4982              	.LASF37:
 4983 07c2 77616261 		.ascii	"wabase\000"
 4983      736500
 4984              	.LASF110:
 4985 07c9 63686172 		.ascii	"char\000"
 4985      00
 4986              	.LASF35:
 4987 07ce 6F6C6465 		.ascii	"older\000"
 4987      7200
 4988              	.LASF152:
 4989 07d4 6F626A5F 		.ascii	"obj_list\000"
 4989      6C697374 
 4989      00
 4990              	.LASF188:
 4991 07dd 63685365 		.ascii	"chSemWaitTimeoutS\000"
 4991      6D576169 
 4991      7454696D 
 4991      656F7574 
 4991      5300
 4992              	.LASF8:
 4993 07ef 5F5F7569 		.ascii	"__uint16_t\000"
 4993      6E743136 
 4993      5F7400
 4994              	.LASF31:
 4995 07fa 74687265 		.ascii	"thread_t\000"
 4995      61645F74 
 4995      00
 4996              	.LASF89:
 4997 0803 62657374 		.ascii	"best\000"
 4997      00
 4998              	.LASF139:
 4999 0808 63685F6D 		.ascii	"ch_memcore\000"
 4999      656D636F 
ARM GAS  /tmp/ccJUU6b3.s 			page 95


 4999      726500
 5000              	.LASF76:
 5001 0813 73797374 		.ascii	"systime_t\000"
 5001      696D655F 
 5001      7400
 5002              	.LASF59:
 5003 081d 76746675 		.ascii	"vtfunc_t\000"
 5003      6E635F74 
 5003      00
 5004              	.LASF182:
 5005 0826 5F5F7365 		.ascii	"__set_BASEPRI\000"
 5005      745F4241 
 5005      53455052 
 5005      4900
 5006              	.LASF69:
 5007 0834 70616E69 		.ascii	"panic_msg\000"
 5007      635F6D73 
 5007      6700
 5008              	.LASF87:
 5009 083e 6F666673 		.ascii	"offset\000"
 5009      657400
 5010              	.LASF166:
 5011 0845 63684775 		.ascii	"chGuardedPoolLoadArray\000"
 5011      61726465 
 5011      64506F6F 
 5011      6C4C6F61 
 5011      64417272 
 5012              	.LASF108:
 5013 085c 63685F6D 		.ascii	"ch_mutex\000"
 5013      75746578 
 5013      00
 5014              	.LASF122:
 5015 0865 6F66665F 		.ascii	"off_older\000"
 5015      6F6C6465 
 5015      7200
 5016              	.LASF9:
 5017 086f 73686F72 		.ascii	"short unsigned int\000"
 5017      7420756E 
 5017      7369676E 
 5017      65642069 
 5017      6E7400
 5018              	.LASF112:
 5019 0882 6964656E 		.ascii	"identifier\000"
 5019      74696669 
 5019      657200
 5020              	.LASF21:
 5021 088d 7274636E 		.ascii	"rtcnt_t\000"
 5021      745F7400 
 5022              	.LASF135:
 5023 0895 6D656D67 		.ascii	"memgetfunc_t\000"
 5023      65746675 
 5023      6E635F74 
 5023      00
 5024              	.LASF175:
 5025 08a2 63684775 		.ascii	"chGuardedPoolAdd\000"
 5025      61726465 
 5025      64506F6F 
ARM GAS  /tmp/ccJUU6b3.s 			page 96


 5025      6C416464 
 5025      00
 5026              	.LASF141:
 5027 08b3 6F626A65 		.ascii	"object_size\000"
 5027      63745F73 
 5027      697A6500 
 5028              	.LASF116:
 5029 08bf 70747273 		.ascii	"ptrsize\000"
 5029      697A6500 
 5030              	.LASF151:
 5031 08c7 63685F6F 		.ascii	"ch_objects_factory\000"
 5031      626A6563 
 5031      74735F66 
 5031      6163746F 
 5031      727900
 5032              	.LASF53:
 5033 08da 74687265 		.ascii	"threads_queue_t\000"
 5033      6164735F 
 5033      71756575 
 5033      655F7400 
 5034              	.LASF140:
 5035 08ea 706F6F6C 		.ascii	"pool_header\000"
 5035      5F686561 
 5035      64657200 
 5036              	.LASF123:
 5037 08f6 6F66665F 		.ascii	"off_name\000"
 5037      6E616D65 
 5037      00
 5038              	.LASF145:
 5039 08ff 706F6F6C 		.ascii	"pool\000"
 5039      00
 5040              	.LASF16:
 5041 0904 75696E74 		.ascii	"uint8_t\000"
 5041      385F7400 
 5042              	.LASF170:
 5043 090c 6368506F 		.ascii	"chPoolAlloc\000"
 5043      6F6C416C 
 5043      6C6F6300 
 5044              	.LASF168:
 5045 0918 6368506F 		.ascii	"chPoolFree\000"
 5045      6F6C4672 
 5045      656500
 5046              	.LASF39:
 5047 0923 666C6167 		.ascii	"flags\000"
 5047      7300
 5048              	.LASF158:
 5049 0929 6669666F 		.ascii	"fifo_list\000"
 5049      5F6C6973 
 5049      7400
 5050              	.LASF126:
 5051 0933 6F66665F 		.ascii	"off_flags\000"
 5051      666C6167 
 5051      7300
 5052              	.LASF177:
 5053 093d 6368506F 		.ascii	"chPoolAdd\000"
 5053      6F6C4164 
 5053      6400
ARM GAS  /tmp/ccJUU6b3.s 			page 97


 5054              	.LASF101:
 5055 0947 77746F62 		.ascii	"wtobjp\000"
 5055      6A7000
 5056              	.LASF49:
 5057 094e 74687265 		.ascii	"threads_list_t\000"
 5057      6164735F 
 5057      6C697374 
 5057      5F7400
 5058              	.LASF125:
 5059 095d 6F66665F 		.ascii	"off_state\000"
 5059      73746174 
 5059      6500
 5060              	.LASF178:
 5061 0967 63685379 		.ascii	"chSysUnlock\000"
 5061      73556E6C 
 5061      6F636B00 
 5062              	.LASF172:
 5063 0973 6368506F 		.ascii	"chPoolLoadArray\000"
 5063      6F6C4C6F 
 5063      61644172 
 5063      72617900 
 5064              	.LASF159:
 5065 0983 6F626A65 		.ascii	"objects_factory_t\000"
 5065      6374735F 
 5065      66616374 
 5065      6F72795F 
 5065      7400
 5066              	.LASF181:
 5067 0995 706F7274 		.ascii	"port_lock\000"
 5067      5F6C6F63 
 5067      6B00
 5068              	.LASF44:
 5069 099f 6D74786C 		.ascii	"mtxlist\000"
 5069      69737400 
 5070              	.LASF96:
 5071 09a7 6D5F6372 		.ascii	"m_crit_thd\000"
 5071      69745F74 
 5071      686400
 5072              	.LASF136:
 5073 09b2 6E657874 		.ascii	"nextmem\000"
 5073      6D656D00 
 5074              		.ident	"GCC: (GNU Tools for ARM Embedded Processors 6-2017-q2-update) 6.3.1 20170620 (release) [AR
ARM GAS  /tmp/ccJUU6b3.s 			page 98


DEFINED SYMBOLS
                            *ABS*:0000000000000000 chmempools.c
     /tmp/ccJUU6b3.s:18     .text.chPoolObjectInitAligned:0000000000000000 $t
     /tmp/ccJUU6b3.s:25     .text.chPoolObjectInitAligned:0000000000000000 chPoolObjectInitAligned
     /tmp/ccJUU6b3.s:52     .text.chPoolAllocI:0000000000000000 $t
     /tmp/ccJUU6b3.s:59     .text.chPoolAllocI:0000000000000000 chPoolAllocI
     /tmp/ccJUU6b3.s:95     .text.chPoolAlloc:0000000000000000 $t
     /tmp/ccJUU6b3.s:102    .text.chPoolAlloc:0000000000000000 chPoolAlloc
     /tmp/ccJUU6b3.s:185    .text.chPoolFreeI:0000000000000000 $t
     /tmp/ccJUU6b3.s:192    .text.chPoolFreeI:0000000000000000 chPoolFreeI
     /tmp/ccJUU6b3.s:210    .text.chPoolFree:0000000000000000 $t
     /tmp/ccJUU6b3.s:217    .text.chPoolFree:0000000000000000 chPoolFree
     /tmp/ccJUU6b3.s:292    .text.chPoolLoadArray:0000000000000000 $t
     /tmp/ccJUU6b3.s:299    .text.chPoolLoadArray:0000000000000000 chPoolLoadArray
     /tmp/ccJUU6b3.s:346    .text.chGuardedPoolObjectInitAligned:0000000000000000 $t
     /tmp/ccJUU6b3.s:353    .text.chGuardedPoolObjectInitAligned:0000000000000000 chGuardedPoolObjectInitAligned
     /tmp/ccJUU6b3.s:397    .text.chGuardedPoolAllocTimeoutS:0000000000000000 $t
     /tmp/ccJUU6b3.s:404    .text.chGuardedPoolAllocTimeoutS:0000000000000000 chGuardedPoolAllocTimeoutS
     /tmp/ccJUU6b3.s:445    .text.chGuardedPoolAllocTimeout:0000000000000000 $t
     /tmp/ccJUU6b3.s:452    .text.chGuardedPoolAllocTimeout:0000000000000000 chGuardedPoolAllocTimeout
     /tmp/ccJUU6b3.s:526    .text.chGuardedPoolFree:0000000000000000 $t
     /tmp/ccJUU6b3.s:533    .text.chGuardedPoolFree:0000000000000000 chGuardedPoolFree
     /tmp/ccJUU6b3.s:625    .text.chGuardedPoolLoadArray:0000000000000000 $t
     /tmp/ccJUU6b3.s:632    .text.chGuardedPoolLoadArray:0000000000000000 chGuardedPoolLoadArray
                     .debug_frame:0000000000000010 $d

UNDEFINED SYMBOLS
_stats_start_measure_crit_thd
_stats_stop_measure_crit_thd
chSemObjectInit
chSemWaitTimeoutS
chSemSignalI
chSchRescheduleS
