ARM GAS  /tmp/ccJUU6b3.s 			page 1


   1              		.cpu cortex-m7
   2              		.eabi_attribute 27, 1
   3              		.eabi_attribute 28, 1
   4              		.eabi_attribute 20, 1
   5              		.eabi_attribute 21, 1
   6              		.eabi_attribute 23, 3
   7              		.eabi_attribute 24, 1
   8              		.eabi_attribute 25, 1
   9              		.eabi_attribute 26, 1
  10              		.eabi_attribute 30, 4
  11              		.eabi_attribute 34, 1
  12              		.eabi_attribute 18, 4
  13              		.file	"chmempools.c"
  14              		.text
  15              	.Ltext0:
  16              		.cfi_sections	.debug_frame
  17              		.section	.text.chPoolObjectInitAligned,"ax",%progbits
  18              		.align	1
  19              		.global	chPoolObjectInitAligned
  20              		.syntax unified
  21              		.thumb
  22              		.thumb_func
  23              		.fpu fpv4-sp-d16
  24              		.type	chPoolObjectInitAligned, %function
  25              	chPoolObjectInitAligned:
  26              	.LFB301:
  27              		.file 1 "../../modules/ChibiOS/os/oslib/src/chmempools.c"
  28              		.loc 1 78 0
  29              		.cfi_startproc
  30              		@ args = 0, pretend = 0, frame = 0
  31              		@ frame_needed = 0, uses_anonymous_args = 0
  32              	.LVL0:
  33 0000 10B5     		push	{r4, lr}
  34              		.cfi_def_cfa_offset 8
  35              		.cfi_offset 4, -8
  36              		.cfi_offset 14, -4
  37              		.loc 1 85 0
  38 0002 0024     		movs	r4, #0
  39              		.loc 1 86 0
  40 0004 4160     		str	r1, [r0, #4]
  41              		.loc 1 87 0
  42 0006 8260     		str	r2, [r0, #8]
  43              		.loc 1 85 0
  44 0008 0460     		str	r4, [r0]
  45              		.loc 1 88 0
  46 000a C360     		str	r3, [r0, #12]
  47 000c 10BD     		pop	{r4, pc}
  48              		.cfi_endproc
  49              	.LFE301:
  50              		.size	chPoolObjectInitAligned, .-chPoolObjectInitAligned
  51              		.section	.text.chPoolAllocI,"ax",%progbits
  52              		.align	1
  53              		.global	chPoolAllocI
  54              		.syntax unified
  55              		.thumb
  56              		.thumb_func
  57              		.fpu fpv4-sp-d16
ARM GAS  /tmp/ccJUU6b3.s 			page 2


  58              		.type	chPoolAllocI, %function
  59              	chPoolAllocI:
  60              	.LFB303:
  61              		.loc 1 129 0
  62              		.cfi_startproc
  63              		@ args = 0, pretend = 0, frame = 0
  64              		@ frame_needed = 0, uses_anonymous_args = 0
  65              		@ link register save eliminated.
  66              	.LVL1:
  67              		.loc 1 129 0
  68 0000 0346     		mov	r3, r0
  69              		.loc 1 135 0
  70 0002 0068     		ldr	r0, [r0]
  71              	.LVL2:
  72              		.loc 1 137 0
  73 0004 10B1     		cbz	r0, .L3
  74              		.loc 1 138 0
  75 0006 0268     		ldr	r2, [r0]
  76 0008 1A60     		str	r2, [r3]
  77 000a 7047     		bx	lr
  78              	.L3:
  79              		.loc 1 140 0
  80 000c DA68     		ldr	r2, [r3, #12]
  81 000e 12B1     		cbz	r2, .L2
  82              		.loc 1 141 0
  83 0010 9968     		ldr	r1, [r3, #8]
  84 0012 5868     		ldr	r0, [r3, #4]
  85              	.LVL3:
  86 0014 1047     		bx	r2
  87              	.LVL4:
  88              	.L2:
  89              		.loc 1 149 0
  90 0016 7047     		bx	lr
  91              		.cfi_endproc
  92              	.LFE303:
  93              		.size	chPoolAllocI, .-chPoolAllocI
  94              		.section	.text.chPoolAlloc,"ax",%progbits
  95              		.align	1
  96              		.global	chPoolAlloc
  97              		.syntax unified
  98              		.thumb
  99              		.thumb_func
 100              		.fpu fpv4-sp-d16
 101              		.type	chPoolAlloc, %function
 102              	chPoolAlloc:
 103              	.LFB304:
 104              		.loc 1 161 0
 105              		.cfi_startproc
 106              		@ args = 0, pretend = 0, frame = 0
 107              		@ frame_needed = 0, uses_anonymous_args = 0
 108              	.LVL5:
 109 0000 10B5     		push	{r4, lr}
 110              		.cfi_def_cfa_offset 8
 111              		.cfi_offset 4, -8
 112              		.cfi_offset 14, -4
 113              	.LBB34:
 114              	.LBB35:
ARM GAS  /tmp/ccJUU6b3.s 			page 3


 115              	.LBB36:
 116              	.LBB37:
 117              	.LBB38:
 118              		.file 2 "../../modules/ChibiOS/os/common/ext/ARM/CMSIS/Core/Include/cmsis_gcc.h"
 119              		.loc 2 493 0
 120 0002 2023     		movs	r3, #32
 121              	.LBE38:
 122              	.LBE37:
 123              	.LBE36:
 124              	.LBE35:
 125              	.LBE34:
 126              		.loc 1 161 0
 127 0004 0446     		mov	r4, r0
 128              	.LBB43:
 129              	.LBB42:
 130              	.LBB41:
 131              	.LBB40:
 132              	.LBB39:
 133              		.loc 2 493 0
 134              		.syntax unified
 135              	@ 493 "../../modules/ChibiOS/os/common/ext/ARM/CMSIS/Core/Include/cmsis_gcc.h" 1
 136 0006 83F31188 		MSR basepri, r3
 137              	@ 0 "" 2
 138              	.LVL6:
 139              		.thumb
 140              		.syntax unified
 141              	.LBE39:
 142              	.LBE40:
 143              	.LBE41:
 144              		.file 3 "../../modules/ChibiOS/os/rt/include/chsys.h"
 145              		.loc 3 356 0
 146 000a FFF7FEFF 		bl	_stats_start_measure_crit_thd
 147              	.LVL7:
 148              	.LBE42:
 149              	.LBE43:
 150              		.loc 1 165 0
 151 000e 2046     		mov	r0, r4
 152 0010 FFF7FEFF 		bl	chPoolAllocI
 153              	.LVL8:
 154 0014 0446     		mov	r4, r0
 155              	.LVL9:
 156              	.LBB44:
 157              	.LBB45:
 158              		.loc 3 368 0
 159 0016 FFF7FEFF 		bl	_stats_stop_measure_crit_thd
 160              	.LVL10:
 161              	.LBB46:
 162              	.LBB47:
 163              	.LBB48:
 164              		.loc 2 493 0
 165 001a 0023     		movs	r3, #0
 166              		.syntax unified
 167              	@ 493 "../../modules/ChibiOS/os/common/ext/ARM/CMSIS/Core/Include/cmsis_gcc.h" 1
 168 001c 83F31188 		MSR basepri, r3
 169              	@ 0 "" 2
 170              	.LVL11:
 171              		.thumb
ARM GAS  /tmp/ccJUU6b3.s 			page 4


 172              		.syntax unified
 173              	.LBE48:
 174              	.LBE47:
 175              	.LBE46:
 176              	.LBE45:
 177              	.LBE44:
 178              		.loc 1 169 0
 179 0020 2046     		mov	r0, r4
 180 0022 10BD     		pop	{r4, pc}
 181              		.cfi_endproc
 182              	.LFE304:
 183              		.size	chPoolAlloc, .-chPoolAlloc
 184              		.section	.text.chPoolFreeI,"ax",%progbits
 185              		.align	1
 186              		.global	chPoolFreeI
 187              		.syntax unified
 188              		.thumb
 189              		.thumb_func
 190              		.fpu fpv4-sp-d16
 191              		.type	chPoolFreeI, %function
 192              	chPoolFreeI:
 193              	.LFB305:
 194              		.loc 1 183 0
 195              		.cfi_startproc
 196              		@ args = 0, pretend = 0, frame = 0
 197              		@ frame_needed = 0, uses_anonymous_args = 0
 198              		@ link register save eliminated.
 199              	.LVL12:
 200              		.loc 1 191 0
 201 0000 0368     		ldr	r3, [r0]
 202 0002 0B60     		str	r3, [r1]
 203              		.loc 1 192 0
 204 0004 0160     		str	r1, [r0]
 205 0006 7047     		bx	lr
 206              		.cfi_endproc
 207              	.LFE305:
 208              		.size	chPoolFreeI, .-chPoolFreeI
 209              		.section	.text.chPoolFree,"ax",%progbits
 210              		.align	1
 211              		.global	chPoolFree
 212              		.syntax unified
 213              		.thumb
 214              		.thumb_func
 215              		.fpu fpv4-sp-d16
 216              		.type	chPoolFree, %function
 217              	chPoolFree:
 218              	.LFB306:
 219              		.loc 1 207 0
 220              		.cfi_startproc
 221              		@ args = 0, pretend = 0, frame = 0
 222              		@ frame_needed = 0, uses_anonymous_args = 0
 223              	.LVL13:
 224 0000 38B5     		push	{r3, r4, r5, lr}
 225              		.cfi_def_cfa_offset 16
 226              		.cfi_offset 3, -16
 227              		.cfi_offset 4, -12
 228              		.cfi_offset 5, -8
ARM GAS  /tmp/ccJUU6b3.s 			page 5


 229              		.cfi_offset 14, -4
 230              		.loc 1 207 0
 231 0002 0446     		mov	r4, r0
 232 0004 0D46     		mov	r5, r1
 233              	.LBB61:
 234              	.LBB62:
 235              	.LBB63:
 236              	.LBB64:
 237              	.LBB65:
 238              		.loc 2 493 0
 239 0006 2023     		movs	r3, #32
 240              		.syntax unified
 241              	@ 493 "../../modules/ChibiOS/os/common/ext/ARM/CMSIS/Core/Include/cmsis_gcc.h" 1
 242 0008 83F31188 		MSR basepri, r3
 243              	@ 0 "" 2
 244              	.LVL14:
 245              		.thumb
 246              		.syntax unified
 247              	.LBE65:
 248              	.LBE64:
 249              	.LBE63:
 250              		.loc 3 356 0
 251 000c FFF7FEFF 		bl	_stats_start_measure_crit_thd
 252              	.LVL15:
 253              	.LBE62:
 254              	.LBE61:
 255              	.LBB66:
 256              	.LBB67:
 257              		.loc 1 191 0
 258 0010 2368     		ldr	r3, [r4]
 259 0012 2B60     		str	r3, [r5]
 260              		.loc 1 192 0
 261 0014 2560     		str	r5, [r4]
 262              	.LVL16:
 263              	.LBE67:
 264              	.LBE66:
 265              	.LBB68:
 266              	.LBB69:
 267              		.loc 3 368 0
 268 0016 FFF7FEFF 		bl	_stats_stop_measure_crit_thd
 269              	.LVL17:
 270              	.LBB70:
 271              	.LBB71:
 272              	.LBB72:
 273              		.loc 2 493 0
 274 001a 0023     		movs	r3, #0
 275              		.syntax unified
 276              	@ 493 "../../modules/ChibiOS/os/common/ext/ARM/CMSIS/Core/Include/cmsis_gcc.h" 1
 277 001c 83F31188 		MSR basepri, r3
 278              	@ 0 "" 2
 279              	.LVL18:
 280              		.thumb
 281              		.syntax unified
 282 0020 38BD     		pop	{r3, r4, r5, pc}
 283              	.LBE72:
 284              	.LBE71:
 285              	.LBE70:
ARM GAS  /tmp/ccJUU6b3.s 			page 6


 286              	.LBE69:
 287              	.LBE68:
 288              		.cfi_endproc
 289              	.LFE306:
 290              		.size	chPoolFree, .-chPoolFree
 291              		.section	.text.chPoolLoadArray,"ax",%progbits
 292              		.align	1
 293              		.global	chPoolLoadArray
 294              		.syntax unified
 295              		.thumb
 296              		.thumb_func
 297              		.fpu fpv4-sp-d16
 298              		.type	chPoolLoadArray, %function
 299              	chPoolLoadArray:
 300              	.LFB302:
 301              		.loc 1 106 0
 302              		.cfi_startproc
 303              		@ args = 0, pretend = 0, frame = 0
 304              		@ frame_needed = 0, uses_anonymous_args = 0
 305              	.LVL19:
 306 0000 70B5     		push	{r4, r5, r6, lr}
 307              		.cfi_def_cfa_offset 16
 308              		.cfi_offset 4, -16
 309              		.cfi_offset 5, -12
 310              		.cfi_offset 6, -8
 311              		.cfi_offset 14, -4
 312 0002 0646     		mov	r6, r0
 313 0004 0D46     		mov	r5, r1
 314 0006 1446     		mov	r4, r2
 315              	.LVL20:
 316              	.L12:
 317              		.loc 1 110 0
 318 0008 04B9     		cbnz	r4, .L13
 319              		.loc 1 117 0
 320 000a 70BD     		pop	{r4, r5, r6, pc}
 321              	.LVL21:
 322              	.L13:
 323              	.LBB73:
 324              	.LBB74:
 325              		.file 4 "../../modules/ChibiOS/os/oslib/include/chmempools.h"
 326              		.loc 4 212 0
 327 000c 2946     		mov	r1, r5
 328 000e 3046     		mov	r0, r6
 329 0010 FFF7FEFF 		bl	chPoolFree
 330              	.LVL22:
 331              	.LBE74:
 332              	.LBE73:
 333              		.loc 1 113 0
 334 0014 7368     		ldr	r3, [r6, #4]
 335              		.loc 1 115 0
 336 0016 013C     		subs	r4, r4, #1
 337              	.LVL23:
 338              		.loc 1 113 0
 339 0018 1D44     		add	r5, r5, r3
 340              	.LVL24:
 341 001a F5E7     		b	.L12
 342              		.cfi_endproc
ARM GAS  /tmp/ccJUU6b3.s 			page 7


 343              	.LFE302:
 344              		.size	chPoolLoadArray, .-chPoolLoadArray
 345              		.section	.text.chGuardedPoolObjectInitAligned,"ax",%progbits
 346              		.align	1
 347              		.global	chGuardedPoolObjectInitAligned
 348              		.syntax unified
 349              		.thumb
 350              		.thumb_func
 351              		.fpu fpv4-sp-d16
 352              		.type	chGuardedPoolObjectInitAligned, %function
 353              	chGuardedPoolObjectInitAligned:
 354              	.LFB307:
 355              		.loc 1 228 0
 356              		.cfi_startproc
 357              		@ args = 0, pretend = 0, frame = 0
 358              		@ frame_needed = 0, uses_anonymous_args = 0
 359              		@ link register save eliminated.
 360              	.LVL25:
 361 0000 10B4     		push	{r4}
 362              		.cfi_def_cfa_offset 4
 363              		.cfi_offset 4, -4
 364              	.LBB75:
 365              	.LBB76:
 366              		.loc 1 85 0
 367 0002 0024     		movs	r4, #0
 368              		.loc 1 86 0
 369 0004 0161     		str	r1, [r0, #16]
 370              		.loc 1 87 0
 371 0006 4261     		str	r2, [r0, #20]
 372              		.loc 1 85 0
 373 0008 C460     		str	r4, [r0, #12]
 374              	.LBE76:
 375              	.LBE75:
 376              		.loc 1 231 0
 377 000a 2146     		mov	r1, r4
 378              	.LVL26:
 379              	.LBB78:
 380              	.LBB77:
 381              		.loc 1 88 0
 382 000c 8461     		str	r4, [r0, #24]
 383              	.LVL27:
 384              	.LBE77:
 385              	.LBE78:
 386              		.loc 1 232 0
 387 000e 5DF8044B 		ldr	r4, [sp], #4
 388              		.cfi_restore 4
 389              		.cfi_def_cfa_offset 0
 390              		.loc 1 231 0
 391 0012 FFF7FEBF 		b	chSemObjectInit
 392              	.LVL28:
 393              		.cfi_endproc
 394              	.LFE307:
 395              		.size	chGuardedPoolObjectInitAligned, .-chGuardedPoolObjectInitAligned
 396              		.section	.text.chGuardedPoolAllocTimeoutS,"ax",%progbits
 397              		.align	1
 398              		.global	chGuardedPoolAllocTimeoutS
 399              		.syntax unified
ARM GAS  /tmp/ccJUU6b3.s 			page 8


 400              		.thumb
 401              		.thumb_func
 402              		.fpu fpv4-sp-d16
 403              		.type	chGuardedPoolAllocTimeoutS, %function
 404              	chGuardedPoolAllocTimeoutS:
 405              	.LFB309:
 406              		.loc 1 276 0
 407              		.cfi_startproc
 408              		@ args = 0, pretend = 0, frame = 0
 409              		@ frame_needed = 0, uses_anonymous_args = 0
 410              	.LVL29:
 411 0000 10B5     		push	{r4, lr}
 412              		.cfi_def_cfa_offset 8
 413              		.cfi_offset 4, -8
 414              		.cfi_offset 14, -4
 415              		.loc 1 276 0
 416 0002 0446     		mov	r4, r0
 417              		.loc 1 279 0
 418 0004 FFF7FEFF 		bl	chSemWaitTimeoutS
 419              	.LVL30:
 420              		.loc 1 280 0
 421 0008 28B9     		cbnz	r0, .L16
 422              		.loc 1 284 0
 423 000a 04F10C00 		add	r0, r4, #12
 424              	.LVL31:
 425              		.loc 1 285 0
 426 000e BDE81040 		pop	{r4, lr}
 427              		.cfi_remember_state
 428              		.cfi_restore 14
 429              		.cfi_restore 4
 430              		.cfi_def_cfa_offset 0
 431              	.LVL32:
 432              		.loc 1 284 0
 433 0012 FFF7FEBF 		b	chPoolAllocI
 434              	.LVL33:
 435              	.L16:
 436              		.cfi_restore_state
 437              		.loc 1 285 0
 438 0016 0020     		movs	r0, #0
 439              	.LVL34:
 440 0018 10BD     		pop	{r4, pc}
 441              		.cfi_endproc
 442              	.LFE309:
 443              		.size	chGuardedPoolAllocTimeoutS, .-chGuardedPoolAllocTimeoutS
 444              		.section	.text.chGuardedPoolAllocTimeout,"ax",%progbits
 445              		.align	1
 446              		.global	chGuardedPoolAllocTimeout
 447              		.syntax unified
 448              		.thumb
 449              		.thumb_func
 450              		.fpu fpv4-sp-d16
 451              		.type	chGuardedPoolAllocTimeout, %function
 452              	chGuardedPoolAllocTimeout:
 453              	.LFB310:
 454              		.loc 1 303 0
 455              		.cfi_startproc
 456              		@ args = 0, pretend = 0, frame = 0
ARM GAS  /tmp/ccJUU6b3.s 			page 9


 457              		@ frame_needed = 0, uses_anonymous_args = 0
 458              	.LVL35:
 459 0000 38B5     		push	{r3, r4, r5, lr}
 460              		.cfi_def_cfa_offset 16
 461              		.cfi_offset 3, -16
 462              		.cfi_offset 4, -12
 463              		.cfi_offset 5, -8
 464              		.cfi_offset 14, -4
 465              		.loc 1 303 0
 466 0002 0446     		mov	r4, r0
 467 0004 0D46     		mov	r5, r1
 468              	.LBB89:
 469              	.LBB90:
 470              	.LBB91:
 471              	.LBB92:
 472              	.LBB93:
 473              		.loc 2 493 0
 474 0006 2023     		movs	r3, #32
 475              		.syntax unified
 476              	@ 493 "../../modules/ChibiOS/os/common/ext/ARM/CMSIS/Core/Include/cmsis_gcc.h" 1
 477 0008 83F31188 		MSR basepri, r3
 478              	@ 0 "" 2
 479              	.LVL36:
 480              		.thumb
 481              		.syntax unified
 482              	.LBE93:
 483              	.LBE92:
 484              	.LBE91:
 485              		.loc 3 356 0
 486 000c FFF7FEFF 		bl	_stats_start_measure_crit_thd
 487              	.LVL37:
 488              	.LBE90:
 489              	.LBE89:
 490              		.loc 1 307 0
 491 0010 2946     		mov	r1, r5
 492 0012 2046     		mov	r0, r4
 493 0014 FFF7FEFF 		bl	chGuardedPoolAllocTimeoutS
 494              	.LVL38:
 495 0018 0446     		mov	r4, r0
 496              	.LVL39:
 497              	.LBB94:
 498              	.LBB95:
 499              		.loc 3 368 0
 500 001a FFF7FEFF 		bl	_stats_stop_measure_crit_thd
 501              	.LVL40:
 502              	.LBB96:
 503              	.LBB97:
 504              	.LBB98:
 505              		.loc 2 493 0
 506 001e 0023     		movs	r3, #0
 507              		.syntax unified
 508              	@ 493 "../../modules/ChibiOS/os/common/ext/ARM/CMSIS/Core/Include/cmsis_gcc.h" 1
 509 0020 83F31188 		MSR basepri, r3
 510              	@ 0 "" 2
 511              	.LVL41:
 512              		.thumb
 513              		.syntax unified
ARM GAS  /tmp/ccJUU6b3.s 			page 10


 514              	.LBE98:
 515              	.LBE97:
 516              	.LBE96:
 517              	.LBE95:
 518              	.LBE94:
 519              		.loc 1 311 0
 520 0024 2046     		mov	r0, r4
 521 0026 38BD     		pop	{r3, r4, r5, pc}
 522              		.cfi_endproc
 523              	.LFE310:
 524              		.size	chGuardedPoolAllocTimeout, .-chGuardedPoolAllocTimeout
 525              		.section	.text.chGuardedPoolFree,"ax",%progbits
 526              		.align	1
 527              		.global	chGuardedPoolFree
 528              		.syntax unified
 529              		.thumb
 530              		.thumb_func
 531              		.fpu fpv4-sp-d16
 532              		.type	chGuardedPoolFree, %function
 533              	chGuardedPoolFree:
 534              	.LFB311:
 535              		.loc 1 325 0
 536              		.cfi_startproc
 537              		@ args = 0, pretend = 0, frame = 0
 538              		@ frame_needed = 0, uses_anonymous_args = 0
 539              	.LVL42:
 540 0000 38B5     		push	{r3, r4, r5, lr}
 541              		.cfi_def_cfa_offset 16
 542              		.cfi_offset 3, -16
 543              		.cfi_offset 4, -12
 544              		.cfi_offset 5, -8
 545              		.cfi_offset 14, -4
 546              		.loc 1 325 0
 547 0002 0446     		mov	r4, r0
 548 0004 0D46     		mov	r5, r1
 549              	.LBB113:
 550              	.LBB114:
 551              	.LBB115:
 552              	.LBB116:
 553              	.LBB117:
 554              		.loc 2 493 0
 555 0006 2023     		movs	r3, #32
 556              		.syntax unified
 557              	@ 493 "../../modules/ChibiOS/os/common/ext/ARM/CMSIS/Core/Include/cmsis_gcc.h" 1
 558 0008 83F31188 		MSR basepri, r3
 559              	@ 0 "" 2
 560              	.LVL43:
 561              		.thumb
 562              		.syntax unified
 563              	.LBE117:
 564              	.LBE116:
 565              	.LBE115:
 566              		.loc 3 356 0
 567 000c FFF7FEFF 		bl	_stats_start_measure_crit_thd
 568              	.LVL44:
 569              	.LBE114:
 570              	.LBE113:
ARM GAS  /tmp/ccJUU6b3.s 			page 11


 571              	.LBB118:
 572              	.LBB119:
 573              	.LBB120:
 574              	.LBB121:
 575              		.loc 1 191 0
 576 0010 E368     		ldr	r3, [r4, #12]
 577              	.LBE121:
 578              	.LBE120:
 579              		.loc 4 288 0
 580 0012 2046     		mov	r0, r4
 581              	.LBB123:
 582              	.LBB122:
 583              		.loc 1 191 0
 584 0014 2B60     		str	r3, [r5]
 585              		.loc 1 192 0
 586 0016 E560     		str	r5, [r4, #12]
 587              	.LVL45:
 588              	.LBE122:
 589              	.LBE123:
 590              		.loc 4 288 0
 591 0018 FFF7FEFF 		bl	chSemSignalI
 592              	.LVL46:
 593              	.LBE119:
 594              	.LBE118:
 595              		.loc 1 329 0
 596 001c FFF7FEFF 		bl	chSchRescheduleS
 597              	.LVL47:
 598              	.LBB124:
 599              	.LBB125:
 600              		.loc 3 368 0
 601 0020 FFF7FEFF 		bl	_stats_stop_measure_crit_thd
 602              	.LVL48:
 603              	.LBB126:
 604              	.LBB127:
 605              	.LBB128:
 606              		.loc 2 493 0
 607 0024 0023     		movs	r3, #0
 608              		.syntax unified
 609              	@ 493 "../../modules/ChibiOS/os/common/ext/ARM/CMSIS/Core/Include/cmsis_gcc.h" 1
 610 0026 83F31188 		MSR basepri, r3
 611              	@ 0 "" 2
 612              	.LVL49:
 613              		.thumb
 614              		.syntax unified
 615 002a 38BD     		pop	{r3, r4, r5, pc}
 616              	.LBE128:
 617              	.LBE127:
 618              	.LBE126:
 619              	.LBE125:
 620              	.LBE124:
 621              		.cfi_endproc
 622              	.LFE311:
 623              		.size	chGuardedPoolFree, .-chGuardedPoolFree
 624              		.section	.text.chGuardedPoolLoadArray,"ax",%progbits
 625              		.align	1
 626              		.global	chGuardedPoolLoadArray
 627              		.syntax unified
ARM GAS  /tmp/ccJUU6b3.s 			page 12


 628              		.thumb
 629              		.thumb_func
 630              		.fpu fpv4-sp-d16
 631              		.type	chGuardedPoolLoadArray, %function
 632              	chGuardedPoolLoadArray:
 633              	.LFB308:
 634              		.loc 1 247 0
 635              		.cfi_startproc
 636              		@ args = 0, pretend = 0, frame = 0
 637              		@ frame_needed = 0, uses_anonymous_args = 0
 638              	.LVL50:
 639 0000 70B5     		push	{r4, r5, r6, lr}
 640              		.cfi_def_cfa_offset 16
 641              		.cfi_offset 4, -16
 642              		.cfi_offset 5, -12
 643              		.cfi_offset 6, -8
 644              		.cfi_offset 14, -4
 645 0002 0646     		mov	r6, r0
 646 0004 0D46     		mov	r5, r1
 647 0006 1446     		mov	r4, r2
 648              	.LVL51:
 649              	.L20:
 650              		.loc 1 251 0
 651 0008 04B9     		cbnz	r4, .L21
 652              		.loc 1 258 0
 653 000a 70BD     		pop	{r4, r5, r6, pc}
 654              	.LVL52:
 655              	.L21:
 656              	.LBB129:
 657              	.LBB130:
 658              		.loc 4 325 0
 659 000c 2946     		mov	r1, r5
 660 000e 3046     		mov	r0, r6
 661 0010 FFF7FEFF 		bl	chGuardedPoolFree
 662              	.LVL53:
 663              	.LBE130:
 664              	.LBE129:
 665              		.loc 1 254 0
 666 0014 3369     		ldr	r3, [r6, #16]
 667              		.loc 1 256 0
 668 0016 013C     		subs	r4, r4, #1
 669              	.LVL54:
 670              		.loc 1 254 0
 671 0018 1D44     		add	r5, r5, r3
 672              	.LVL55:
 673 001a F5E7     		b	.L20
 674              		.cfi_endproc
 675              	.LFE308:
 676              		.size	chGuardedPoolLoadArray, .-chGuardedPoolLoadArray
 677              		.text
 678              	.Letext0:
 679              		.file 5 "/opt/gcc-arm-none-eabi-6-2017-q2-update/lib/gcc/arm-none-eabi/6.3.1/include/stddef.h"
 680              		.file 6 "/opt/gcc-arm-none-eabi-6-2017-q2-update/arm-none-eabi/include/machine/_default_types.h"
 681              		.file 7 "/opt/gcc-arm-none-eabi-6-2017-q2-update/arm-none-eabi/include/sys/_stdint.h"
 682              		.file 8 "../../modules/ChibiOS/os/common/ports/ARMCMx/compilers/GCC/chtypes.h"
 683              		.file 9 "../../modules/ChibiOS/os/rt/include/chsystypes.h"
 684              		.file 10 "../../modules/ChibiOS/os/rt/include/chschd.h"
ARM GAS  /tmp/ccJUU6b3.s 			page 13


 685              		.file 11 "../../modules/ChibiOS/os/rt/include/chtime.h"
 686              		.file 12 "../../modules/ChibiOS/os/common/ext/ARM/CMSIS/Core/Include/core_cm7.h"
 687              		.file 13 "../../modules/ChibiOS/os/common/ext/ST/STM32F7xx/system_stm32f7xx.h"
 688              		.file 14 "../../modules/ChibiOS/os/common/ports/ARMCMx/chcore.h"
 689              		.file 15 "../../modules/ChibiOS/os/common/ports/ARMCMx/chcore_v7m.h"
 690              		.file 16 "../../modules/ChibiOS/os/rt/include/chtm.h"
 691              		.file 17 "../../modules/ChibiOS/os/rt/include/chstats.h"
 692              		.file 18 "../../modules/ChibiOS/os/rt/include/chsem.h"
 693              		.file 19 "../../modules/ChibiOS/os/rt/include/chmtx.h"
 694              		.file 20 "../../modules/ChibiOS/os/rt/include/chregistry.h"
 695              		.file 21 "../../modules/ChibiOS/os/oslib/include/chmemcore.h"
 696              		.file 22 "../../modules/ChibiOS/os/oslib/include/chfactory.h"