ARM GAS  /tmp/ccw8QaXx.s 			page 1


   1              		.cpu cortex-m7
   2              		.eabi_attribute 27, 1
   3              		.eabi_attribute 28, 1
   4              		.eabi_attribute 20, 1
   5              		.eabi_attribute 21, 1
   6              		.eabi_attribute 23, 3
   7              		.eabi_attribute 24, 1
   8              		.eabi_attribute 25, 1
   9              		.eabi_attribute 26, 1
  10              		.eabi_attribute 30, 4
  11              		.eabi_attribute 34, 1
  12              		.eabi_attribute 18, 4
  13              		.file	"chmtx.c"
  14              		.text
  15              	.Ltext0:
  16              		.cfi_sections	.debug_frame
  17              		.section	.text.queue_prio_insert,"ax",%progbits
  18              		.align	1
  19              		.syntax unified
  20              		.thumb
  21              		.thumb_func
  22              		.fpu fpv4-sp-d16
  23              		.type	queue_prio_insert, %function
  24              	queue_prio_insert:
  25              	.LFB183:
  26              		.file 1 "../../modules/ChibiOS/os/rt/include/chschd.h"
  27              		.loc 1 586 0
  28              		.cfi_startproc
  29              		@ args = 0, pretend = 0, frame = 0
  30              		@ frame_needed = 0, uses_anonymous_args = 0
  31              	.LVL0:
  32 0000 0B46     		mov	r3, r1
  33 0002 10B5     		push	{r4, lr}
  34              		.cfi_def_cfa_offset 8
  35              		.cfi_offset 4, -8
  36              		.cfi_offset 14, -4
  37              	.LVL1:
  38              	.L3:
  39              		.loc 1 590 0 discriminator 2
  40 0004 1B68     		ldr	r3, [r3]
  41              	.LVL2:
  42              		.loc 1 591 0 discriminator 2
  43 0006 9942     		cmp	r1, r3
  44 0008 05D1     		bne	.L2
  45              	.L4:
  46              		.loc 1 593 0
  47 000a 5A68     		ldr	r2, [r3, #4]
  48              		.loc 1 592 0
  49 000c 0360     		str	r3, [r0]
  50              		.loc 1 593 0
  51 000e 4260     		str	r2, [r0, #4]
  52              		.loc 1 594 0
  53 0010 1060     		str	r0, [r2]
  54              		.loc 1 595 0
  55 0012 5860     		str	r0, [r3, #4]
  56              		.loc 1 596 0
  57 0014 10BD     		pop	{r4, pc}
ARM GAS  /tmp/ccw8QaXx.s 			page 2


  58              	.L2:
  59              		.loc 1 591 0 discriminator 1
  60 0016 9C68     		ldr	r4, [r3, #8]
  61 0018 8268     		ldr	r2, [r0, #8]
  62 001a 9442     		cmp	r4, r2
  63 001c F2D2     		bcs	.L3
  64 001e F4E7     		b	.L4
  65              		.cfi_endproc
  66              	.LFE183:
  67              		.size	queue_prio_insert, .-queue_prio_insert
  68              		.section	.text.chMtxObjectInit,"ax",%progbits
  69              		.align	1
  70              		.global	chMtxObjectInit
  71              		.syntax unified
  72              		.thumb
  73              		.thumb_func
  74              		.fpu fpv4-sp-d16
  75              		.type	chMtxObjectInit, %function
  76              	chMtxObjectInit:
  77              	.LFB301:
  78              		.file 2 "../../modules/ChibiOS/os/rt/src/chmtx.c"
  79              		.loc 2 103 0
  80              		.cfi_startproc
  81              		@ args = 0, pretend = 0, frame = 0
  82              		@ frame_needed = 0, uses_anonymous_args = 0
  83              		@ link register save eliminated.
  84              	.LVL3:
  85              		.loc 2 108 0
  86 0000 0023     		movs	r3, #0
  87              	.LBB56:
  88              	.LBB57:
  89              		.loc 1 539 0
  90 0002 0060     		str	r0, [r0]
  91              		.loc 1 540 0
  92 0004 4060     		str	r0, [r0, #4]
  93              	.LVL4:
  94              	.LBE57:
  95              	.LBE56:
  96              		.loc 2 108 0
  97 0006 8360     		str	r3, [r0, #8]
  98              		.loc 2 110 0
  99 0008 0361     		str	r3, [r0, #16]
 100 000a 7047     		bx	lr
 101              		.cfi_endproc
 102              	.LFE301:
 103              		.size	chMtxObjectInit, .-chMtxObjectInit
 104              		.section	.text.chMtxLockS,"ax",%progbits
 105              		.align	1
 106              		.global	chMtxLockS
 107              		.syntax unified
 108              		.thumb
 109              		.thumb_func
 110              		.fpu fpv4-sp-d16
 111              		.type	chMtxLockS, %function
 112              	chMtxLockS:
 113              	.LFB303:
 114              		.loc 2 139 0
ARM GAS  /tmp/ccw8QaXx.s 			page 3


 115              		.cfi_startproc
 116              		@ args = 0, pretend = 0, frame = 0
 117              		@ frame_needed = 0, uses_anonymous_args = 0
 118              	.LVL5:
 119 0000 70B5     		push	{r4, r5, r6, lr}
 120              		.cfi_def_cfa_offset 16
 121              		.cfi_offset 4, -16
 122              		.cfi_offset 5, -12
 123              		.cfi_offset 6, -8
 124              		.cfi_offset 14, -4
 125              		.loc 2 140 0
 126 0002 234B     		ldr	r3, .L18
 127              		.loc 2 139 0
 128 0004 0546     		mov	r5, r0
 129              		.loc 2 146 0
 130 0006 8468     		ldr	r4, [r0, #8]
 131              		.loc 2 140 0
 132 0008 9E69     		ldr	r6, [r3, #24]
 133              	.LVL6:
 134              		.loc 2 146 0
 135 000a 002C     		cmp	r4, #0
 136 000c 38D0     		beq	.L9
 137              		.loc 2 153 0
 138 000e A642     		cmp	r6, r4
 139 0010 0ED1     		bne	.L11
 140              		.loc 2 154 0
 141 0012 0369     		ldr	r3, [r0, #16]
 142 0014 0133     		adds	r3, r3, #1
 143 0016 0361     		str	r3, [r0, #16]
 144 0018 70BD     		pop	{r4, r5, r6, pc}
 145              	.LVL7:
 146              	.L14:
 147              	.LBB65:
 148              	.LBB66:
 149              	.LBB67:
 150              		.loc 1 626 0
 151 001a 94E80C00 		ldm	r4, {r2, r3}
 152              	.LBE67:
 153              	.LBE66:
 154              		.loc 2 173 0
 155 001e 2046     		mov	r0, r4
 156              	.LBB69:
 157              	.LBB68:
 158              		.loc 1 626 0
 159 0020 1A60     		str	r2, [r3]
 160              		.loc 1 627 0
 161 0022 2268     		ldr	r2, [r4]
 162 0024 5360     		str	r3, [r2, #4]
 163              	.LVL8:
 164              	.LBE68:
 165              	.LBE69:
 166              		.loc 2 173 0
 167 0026 616A     		ldr	r1, [r4, #36]
 168 0028 FFF7FEFF 		bl	queue_prio_insert
 169              	.LVL9:
 170              		.loc 2 174 0
 171 002c 636A     		ldr	r3, [r4, #36]
ARM GAS  /tmp/ccw8QaXx.s 			page 4


 172 002e 9C68     		ldr	r4, [r3, #8]
 173              	.LVL10:
 174              	.L11:
 175              		.loc 2 165 0
 176 0030 B368     		ldr	r3, [r6, #8]
 177 0032 A268     		ldr	r2, [r4, #8]
 178 0034 9A42     		cmp	r2, r3
 179 0036 19D2     		bcs	.L13
 180              		.loc 2 167 0
 181 0038 A360     		str	r3, [r4, #8]
 182              		.loc 2 170 0
 183 003a 94F82030 		ldrb	r3, [r4, #32]	@ zero_extendqisi2
 184 003e 062B     		cmp	r3, #6
 185 0040 EBD0     		beq	.L14
 186 0042 072B     		cmp	r3, #7
 187 0044 09D0     		beq	.L15
 188 0046 8BB9     		cbnz	r3, .L13
 189              	.LVL11:
 190              		.loc 2 202 0
 191 0048 2046     		mov	r0, r4
 192              	.LBB70:
 193              	.LBB71:
 194              		.loc 1 626 0
 195 004a 94E80C00 		ldm	r4, {r2, r3}
 196 004e 1A60     		str	r2, [r3]
 197              		.loc 1 627 0
 198 0050 2268     		ldr	r2, [r4]
 199 0052 5360     		str	r3, [r2, #4]
 200              	.LVL12:
 201              	.LBE71:
 202              	.LBE70:
 203              		.loc 2 202 0
 204 0054 FFF7FEFF 		bl	chSchReadyI
 205              	.LVL13:
 206              		.loc 2 203 0
 207 0058 08E0     		b	.L13
 208              	.L15:
 209              	.LVL14:
 210              	.LBB72:
 211              	.LBB73:
 212              		.loc 1 626 0
 213 005a 94E80C00 		ldm	r4, {r2, r3}
 214              	.LBE73:
 215              	.LBE72:
 216              		.loc 2 193 0
 217 005e 2046     		mov	r0, r4
 218              	.LBB75:
 219              	.LBB74:
 220              		.loc 1 626 0
 221 0060 1A60     		str	r2, [r3]
 222              		.loc 1 627 0
 223 0062 2268     		ldr	r2, [r4]
 224 0064 5360     		str	r3, [r2, #4]
 225              	.LVL15:
 226              	.LBE74:
 227              	.LBE75:
 228              		.loc 2 193 0
ARM GAS  /tmp/ccw8QaXx.s 			page 5


 229 0066 616A     		ldr	r1, [r4, #36]
 230 0068 FFF7FEFF 		bl	queue_prio_insert
 231              	.LVL16:
 232              	.L13:
 233              		.loc 2 212 0
 234 006c 3046     		mov	r0, r6
 235 006e 2946     		mov	r1, r5
 236 0070 FFF7FEFF 		bl	queue_prio_insert
 237              	.LVL17:
 238              		.loc 2 213 0
 239 0074 7562     		str	r5, [r6, #36]
 240              		.loc 2 214 0
 241 0076 0620     		movs	r0, #6
 242              	.LBE65:
 243              		.loc 2 236 0
 244 0078 BDE87040 		pop	{r4, r5, r6, lr}
 245              		.cfi_remember_state
 246              		.cfi_restore 14
 247              		.cfi_restore 6
 248              		.cfi_restore 5
 249              		.cfi_restore 4
 250              		.cfi_def_cfa_offset 0
 251              	.LVL18:
 252              	.LBB76:
 253              		.loc 2 214 0
 254 007c FFF7FEBF 		b	chSchGoSleepS
 255              	.LVL19:
 256              	.L9:
 257              		.cfi_restore_state
 258              	.LBE76:
 259              		.loc 2 229 0
 260 0080 0369     		ldr	r3, [r0, #16]
 261              		.loc 2 232 0
 262 0082 8660     		str	r6, [r0, #8]
 263              		.loc 2 229 0
 264 0084 0133     		adds	r3, r3, #1
 265 0086 0361     		str	r3, [r0, #16]
 266              		.loc 2 233 0
 267 0088 B36B     		ldr	r3, [r6, #56]
 268 008a C360     		str	r3, [r0, #12]
 269              		.loc 2 234 0
 270 008c B063     		str	r0, [r6, #56]
 271 008e 70BD     		pop	{r4, r5, r6, pc}
 272              	.LVL20:
 273              	.L19:
 274              		.align	2
 275              	.L18:
 276 0090 00000000 		.word	ch
 277              		.cfi_endproc
 278              	.LFE303:
 279              		.size	chMtxLockS, .-chMtxLockS
 280              		.section	.text.chMtxLock,"ax",%progbits
 281              		.align	1
 282              		.global	chMtxLock
 283              		.syntax unified
 284              		.thumb
 285              		.thumb_func
ARM GAS  /tmp/ccw8QaXx.s 			page 6


 286              		.fpu fpv4-sp-d16
 287              		.type	chMtxLock, %function
 288              	chMtxLock:
 289              	.LFB302:
 290              		.loc 2 123 0
 291              		.cfi_startproc
 292              		@ args = 0, pretend = 0, frame = 0
 293              		@ frame_needed = 0, uses_anonymous_args = 0
 294              	.LVL21:
 295 0000 10B5     		push	{r4, lr}
 296              		.cfi_def_cfa_offset 8
 297              		.cfi_offset 4, -8
 298              		.cfi_offset 14, -4
 299              	.LBB87:
 300              	.LBB88:
 301              	.LBB89:
 302              	.LBB90:
 303              	.LBB91:
 304              		.file 3 "../../modules/ChibiOS/os/common/ext/ARM/CMSIS/Core/Include/cmsis_gcc.h"
 305              		.loc 3 493 0
 306 0002 2023     		movs	r3, #32
 307              	.LBE91:
 308              	.LBE90:
 309              	.LBE89:
 310              	.LBE88:
 311              	.LBE87:
 312              		.loc 2 123 0
 313 0004 0446     		mov	r4, r0
 314              	.LBB96:
 315              	.LBB95:
 316              	.LBB94:
 317              	.LBB93:
 318              	.LBB92:
 319              		.loc 3 493 0
 320              		.syntax unified
 321              	@ 493 "../../modules/ChibiOS/os/common/ext/ARM/CMSIS/Core/Include/cmsis_gcc.h" 1
 322 0006 83F31188 		MSR basepri, r3
 323              	@ 0 "" 2
 324              	.LVL22:
 325              		.thumb
 326              		.syntax unified
 327              	.LBE92:
 328              	.LBE93:
 329              	.LBE94:
 330              		.file 4 "../../modules/ChibiOS/os/rt/include/chsys.h"
 331              		.loc 4 356 0
 332 000a FFF7FEFF 		bl	_stats_start_measure_crit_thd
 333              	.LVL23:
 334              	.LBE95:
 335              	.LBE96:
 336              		.loc 2 126 0
 337 000e 2046     		mov	r0, r4
 338 0010 FFF7FEFF 		bl	chMtxLockS
 339              	.LVL24:
 340              	.LBB97:
 341              	.LBB98:
 342              		.loc 4 368 0
ARM GAS  /tmp/ccw8QaXx.s 			page 7


 343 0014 FFF7FEFF 		bl	_stats_stop_measure_crit_thd
 344              	.LVL25:
 345              	.LBB99:
 346              	.LBB100:
 347              	.LBB101:
 348              		.loc 3 493 0
 349 0018 0023     		movs	r3, #0
 350              		.syntax unified
 351              	@ 493 "../../modules/ChibiOS/os/common/ext/ARM/CMSIS/Core/Include/cmsis_gcc.h" 1
 352 001a 83F31188 		MSR basepri, r3
 353              	@ 0 "" 2
 354              	.LVL26:
 355              		.thumb
 356              		.syntax unified
 357 001e 10BD     		pop	{r4, pc}
 358              	.LBE101:
 359              	.LBE100:
 360              	.LBE99:
 361              	.LBE98:
 362              	.LBE97:
 363              		.cfi_endproc
 364              	.LFE302:
 365              		.size	chMtxLock, .-chMtxLock
 366              		.section	.text.chMtxTryLockS,"ax",%progbits
 367              		.align	1
 368              		.global	chMtxTryLockS
 369              		.syntax unified
 370              		.thumb
 371              		.thumb_func
 372              		.fpu fpv4-sp-d16
 373              		.type	chMtxTryLockS, %function
 374              	chMtxTryLockS:
 375              	.LFB305:
 376              		.loc 2 282 0
 377              		.cfi_startproc
 378              		@ args = 0, pretend = 0, frame = 0
 379              		@ frame_needed = 0, uses_anonymous_args = 0
 380              		@ link register save eliminated.
 381              	.LVL27:
 382              		.loc 2 287 0
 383 0000 8368     		ldr	r3, [r0, #8]
 384 0002 0A4A     		ldr	r2, .L26
 385 0004 3BB1     		cbz	r3, .L22
 386              		.loc 2 292 0
 387 0006 9269     		ldr	r2, [r2, #24]
 388 0008 9342     		cmp	r3, r2
 389 000a 0DD1     		bne	.L24
 390              		.loc 2 293 0
 391 000c 0369     		ldr	r3, [r0, #16]
 392 000e 0133     		adds	r3, r3, #1
 393 0010 0361     		str	r3, [r0, #16]
 394              	.L25:
 395              	.LBB104:
 396              	.LBB105:
 397              		.loc 2 307 0
 398 0012 0120     		movs	r0, #1
 399              	.LVL28:
ARM GAS  /tmp/ccw8QaXx.s 			page 8


 400 0014 7047     		bx	lr
 401              	.LVL29:
 402              	.L22:
 403              		.loc 2 303 0
 404 0016 0369     		ldr	r3, [r0, #16]
 405 0018 0133     		adds	r3, r3, #1
 406 001a 0361     		str	r3, [r0, #16]
 407              		.loc 2 305 0
 408 001c 9369     		ldr	r3, [r2, #24]
 409              		.loc 2 306 0
 410 001e 9A6B     		ldr	r2, [r3, #56]
 411              		.loc 2 305 0
 412 0020 8360     		str	r3, [r0, #8]
 413              		.loc 2 306 0
 414 0022 C260     		str	r2, [r0, #12]
 415              		.loc 2 307 0
 416 0024 9863     		str	r0, [r3, #56]
 417 0026 F4E7     		b	.L25
 418              	.LVL30:
 419              	.L24:
 420              	.LBE105:
 421              	.LBE104:
 422              		.loc 2 297 0
 423 0028 0020     		movs	r0, #0
 424              	.LVL31:
 425              		.loc 2 309 0
 426 002a 7047     		bx	lr
 427              	.L27:
 428              		.align	2
 429              	.L26:
 430 002c 00000000 		.word	ch
 431              		.cfi_endproc
 432              	.LFE305:
 433              		.size	chMtxTryLockS, .-chMtxTryLockS
 434              		.section	.text.chMtxTryLock,"ax",%progbits
 435              		.align	1
 436              		.global	chMtxTryLock
 437              		.syntax unified
 438              		.thumb
 439              		.thumb_func
 440              		.fpu fpv4-sp-d16
 441              		.type	chMtxTryLock, %function
 442              	chMtxTryLock:
 443              	.LFB304:
 444              		.loc 2 255 0
 445              		.cfi_startproc
 446              		@ args = 0, pretend = 0, frame = 0
 447              		@ frame_needed = 0, uses_anonymous_args = 0
 448              	.LVL32:
 449 0000 10B5     		push	{r4, lr}
 450              		.cfi_def_cfa_offset 8
 451              		.cfi_offset 4, -8
 452              		.cfi_offset 14, -4
 453              	.LBB116:
 454              	.LBB117:
 455              	.LBB118:
 456              	.LBB119:
ARM GAS  /tmp/ccw8QaXx.s 			page 9


 457              	.LBB120:
 458              		.loc 3 493 0
 459 0002 2023     		movs	r3, #32
 460              	.LBE120:
 461              	.LBE119:
 462              	.LBE118:
 463              	.LBE117:
 464              	.LBE116:
 465              		.loc 2 255 0
 466 0004 0446     		mov	r4, r0
 467              	.LBB125:
 468              	.LBB124:
 469              	.LBB123:
 470              	.LBB122:
 471              	.LBB121:
 472              		.loc 3 493 0
 473              		.syntax unified
 474              	@ 493 "../../modules/ChibiOS/os/common/ext/ARM/CMSIS/Core/Include/cmsis_gcc.h" 1
 475 0006 83F31188 		MSR basepri, r3
 476              	@ 0 "" 2
 477              	.LVL33:
 478              		.thumb
 479              		.syntax unified
 480              	.LBE121:
 481              	.LBE122:
 482              	.LBE123:
 483              		.loc 4 356 0
 484 000a FFF7FEFF 		bl	_stats_start_measure_crit_thd
 485              	.LVL34:
 486              	.LBE124:
 487              	.LBE125:
 488              		.loc 2 259 0
 489 000e 2046     		mov	r0, r4
 490 0010 FFF7FEFF 		bl	chMtxTryLockS
 491              	.LVL35:
 492 0014 0446     		mov	r4, r0
 493              	.LVL36:
 494              	.LBB126:
 495              	.LBB127:
 496              		.loc 4 368 0
 497 0016 FFF7FEFF 		bl	_stats_stop_measure_crit_thd
 498              	.LVL37:
 499              	.LBB128:
 500              	.LBB129:
 501              	.LBB130:
 502              		.loc 3 493 0
 503 001a 0023     		movs	r3, #0
 504              		.syntax unified
 505              	@ 493 "../../modules/ChibiOS/os/common/ext/ARM/CMSIS/Core/Include/cmsis_gcc.h" 1
 506 001c 83F31188 		MSR basepri, r3
 507              	@ 0 "" 2
 508              	.LVL38:
 509              		.thumb
 510              		.syntax unified
 511              	.LBE130:
 512              	.LBE129:
 513              	.LBE128:
ARM GAS  /tmp/ccw8QaXx.s 			page 10


 514              	.LBE127:
 515              	.LBE126:
 516              		.loc 2 263 0
 517 0020 2046     		mov	r0, r4
 518 0022 10BD     		pop	{r4, pc}
 519              		.cfi_endproc
 520              	.LFE304:
 521              		.size	chMtxTryLock, .-chMtxTryLock
 522              		.section	.text.chMtxUnlock,"ax",%progbits
 523              		.align	1
 524              		.global	chMtxUnlock
 525              		.syntax unified
 526              		.thumb
 527              		.thumb_func
 528              		.fpu fpv4-sp-d16
 529              		.type	chMtxUnlock, %function
 530              	chMtxUnlock:
 531              	.LFB306:
 532              		.loc 2 323 0
 533              		.cfi_startproc
 534              		@ args = 0, pretend = 0, frame = 0
 535              		@ frame_needed = 0, uses_anonymous_args = 0
 536              	.LVL39:
 537 0000 38B5     		push	{r3, r4, r5, lr}
 538              		.cfi_def_cfa_offset 16
 539              		.cfi_offset 3, -16
 540              		.cfi_offset 4, -12
 541              		.cfi_offset 5, -8
 542              		.cfi_offset 14, -4
 543              		.loc 2 324 0
 544 0002 194B     		ldr	r3, .L35
 545              		.loc 2 323 0
 546 0004 0446     		mov	r4, r0
 547              		.loc 2 324 0
 548 0006 9D69     		ldr	r5, [r3, #24]
 549              	.LVL40:
 550              	.LBB152:
 551              	.LBB153:
 552              	.LBB154:
 553              	.LBB155:
 554              	.LBB156:
 555              		.loc 3 493 0
 556 0008 2023     		movs	r3, #32
 557              		.syntax unified
 558              	@ 493 "../../modules/ChibiOS/os/common/ext/ARM/CMSIS/Core/Include/cmsis_gcc.h" 1
 559 000a 83F31188 		MSR basepri, r3
 560              	@ 0 "" 2
 561              	.LVL41:
 562              		.thumb
 563              		.syntax unified
 564              	.LBE156:
 565              	.LBE155:
 566              	.LBE154:
 567              		.loc 4 356 0
 568 000e FFF7FEFF 		bl	_stats_start_measure_crit_thd
 569              	.LVL42:
 570              	.LBE153:
ARM GAS  /tmp/ccw8QaXx.s 			page 11


 571              	.LBE152:
 572              		.loc 2 336 0
 573 0012 2269     		ldr	r2, [r4, #16]
 574 0014 013A     		subs	r2, r2, #1
 575 0016 2261     		str	r2, [r4, #16]
 576 0018 A2B9     		cbnz	r2, .L30
 577              	.LBB157:
 578              	.LBB158:
 579              	.LBB159:
 580              	.LBB160:
 581              		.loc 1 566 0
 582 001a 2068     		ldr	r0, [r4]
 583              	.LBE160:
 584              	.LBE159:
 585              	.LBE158:
 586              	.LBE157:
 587              		.loc 2 344 0
 588 001c E368     		ldr	r3, [r4, #12]
 589              		.loc 2 347 0
 590 001e A042     		cmp	r0, r4
 591              		.loc 2 344 0
 592 0020 AB63     		str	r3, [r5, #56]
 593              	.LVL43:
 594              		.loc 2 347 0
 595 0022 1ED0     		beq	.L31
 596              	.LBB161:
 597              		.loc 2 352 0
 598 0024 EA6B     		ldr	r2, [r5, #60]
 599              	.LVL44:
 600              	.L32:
 601              		.loc 2 354 0
 602 0026 9BB9     		cbnz	r3, .L34
 603              		.loc 2 372 0
 604 0028 0123     		movs	r3, #1
 605              	.LVL45:
 606              		.loc 2 367 0
 607 002a AA60     		str	r2, [r5, #8]
 608              		.loc 2 372 0
 609 002c 2361     		str	r3, [r4, #16]
 610              	.LVL46:
 611              	.LBB162:
 612              	.LBB163:
 613              		.loc 1 609 0
 614 002e 0368     		ldr	r3, [r0]
 615 0030 2360     		str	r3, [r4]
 616              		.loc 1 610 0
 617 0032 5C60     		str	r4, [r3, #4]
 618              	.LVL47:
 619              	.LBE163:
 620              	.LBE162:
 621              		.loc 2 376 0
 622 0034 836B     		ldr	r3, [r0, #56]
 623              		.loc 2 375 0
 624 0036 A060     		str	r0, [r4, #8]
 625              		.loc 2 376 0
 626 0038 E360     		str	r3, [r4, #12]
 627              		.loc 2 377 0
ARM GAS  /tmp/ccw8QaXx.s 			page 12


 628 003a 8463     		str	r4, [r0, #56]
 629              		.loc 2 383 0
 630 003c FFF7FEFF 		bl	chSchReadyI
 631              	.LVL48:
 632              		.loc 2 384 0
 633 0040 FFF7FEFF 		bl	chSchRescheduleS
 634              	.LVL49:
 635              	.L30:
 636              	.LBE161:
 637              	.LBB168:
 638              	.LBB169:
 639              		.loc 4 368 0
 640 0044 FFF7FEFF 		bl	_stats_stop_measure_crit_thd
 641              	.LVL50:
 642              	.LBB170:
 643              	.LBB171:
 644              	.LBB172:
 645              		.loc 3 493 0
 646 0048 0023     		movs	r3, #0
 647              		.syntax unified
 648              	@ 493 "../../modules/ChibiOS/os/common/ext/ARM/CMSIS/Core/Include/cmsis_gcc.h" 1
 649 004a 83F31188 		MSR basepri, r3
 650              	@ 0 "" 2
 651              	.LVL51:
 652              		.thumb
 653              		.syntax unified
 654 004e 38BD     		pop	{r3, r4, r5, pc}
 655              	.LVL52:
 656              	.L34:
 657              	.LBE172:
 658              	.LBE171:
 659              	.LBE170:
 660              	.LBE169:
 661              	.LBE168:
 662              	.LBB173:
 663              	.LBB164:
 664              	.LBB165:
 665              	.LBB166:
 666              	.LBB167:
 667              		.loc 1 566 0
 668 0050 1968     		ldr	r1, [r3]
 669              	.LVL53:
 670              	.LBE167:
 671              	.LBE166:
 672              	.LBE165:
 673              	.LBE164:
 674              		.loc 2 358 0
 675 0052 8B42     		cmp	r3, r1
 676 0054 03D0     		beq	.L33
 677 0056 8968     		ldr	r1, [r1, #8]
 678 0058 8A42     		cmp	r2, r1
 679 005a 38BF     		it	cc
 680 005c 0A46     		movcc	r2, r1
 681              	.LVL54:
 682              	.L33:
 683              		.loc 2 362 0
 684 005e DB68     		ldr	r3, [r3, #12]
ARM GAS  /tmp/ccw8QaXx.s 			page 13


 685              	.LVL55:
 686 0060 E1E7     		b	.L32
 687              	.LVL56:
 688              	.L31:
 689              	.LBE173:
 690              		.loc 2 387 0
 691 0062 8260     		str	r2, [r0, #8]
 692 0064 EEE7     		b	.L30
 693              	.L36:
 694 0066 00BF     		.align	2
 695              	.L35:
 696 0068 00000000 		.word	ch
 697              		.cfi_endproc
 698              	.LFE306:
 699              		.size	chMtxUnlock, .-chMtxUnlock
 700              		.section	.text.chMtxUnlockS,"ax",%progbits
 701              		.align	1
 702              		.global	chMtxUnlockS
 703              		.syntax unified
 704              		.thumb
 705              		.thumb_func
 706              		.fpu fpv4-sp-d16
 707              		.type	chMtxUnlockS, %function
 708              	chMtxUnlockS:
 709              	.LFB307:
 710              		.loc 2 410 0
 711              		.cfi_startproc
 712              		@ args = 0, pretend = 0, frame = 0
 713              		@ frame_needed = 0, uses_anonymous_args = 0
 714              		@ link register save eliminated.
 715              	.LVL57:
 716              		.loc 2 422 0
 717 0000 0169     		ldr	r1, [r0, #16]
 718              		.loc 2 410 0
 719 0002 0346     		mov	r3, r0
 720              		.loc 2 411 0
 721 0004 124A     		ldr	r2, .L43
 722              		.loc 2 422 0
 723 0006 0139     		subs	r1, r1, #1
 724              		.loc 2 410 0
 725 0008 30B4     		push	{r4, r5}
 726              		.cfi_def_cfa_offset 8
 727              		.cfi_offset 4, -8
 728              		.cfi_offset 5, -4
 729              		.loc 2 411 0
 730 000a 9469     		ldr	r4, [r2, #24]
 731              	.LVL58:
 732              		.loc 2 422 0
 733 000c 0161     		str	r1, [r0, #16]
 734 000e E9B9     		cbnz	r1, .L37
 735              		.loc 2 430 0
 736 0010 C268     		ldr	r2, [r0, #12]
 737              	.LBB174:
 738              	.LBB175:
 739              	.LBB176:
 740              	.LBB177:
 741              		.loc 1 566 0
ARM GAS  /tmp/ccw8QaXx.s 			page 14


 742 0012 0068     		ldr	r0, [r0]
 743              	.LVL59:
 744              	.LBE177:
 745              	.LBE176:
 746              	.LBE175:
 747              	.LBE174:
 748              		.loc 2 430 0
 749 0014 A263     		str	r2, [r4, #56]
 750              		.loc 2 433 0
 751 0016 9842     		cmp	r0, r3
 752 0018 17D0     		beq	.L39
 753              	.LBB178:
 754              		.loc 2 438 0
 755 001a E16B     		ldr	r1, [r4, #60]
 756              	.LVL60:
 757              	.L40:
 758              		.loc 2 440 0
 759 001c 62B9     		cbnz	r2, .L42
 760              		.loc 2 458 0
 761 001e 0122     		movs	r2, #1
 762              	.LVL61:
 763              		.loc 2 453 0
 764 0020 A160     		str	r1, [r4, #8]
 765              		.loc 2 458 0
 766 0022 1A61     		str	r2, [r3, #16]
 767              	.LVL62:
 768              	.LBB179:
 769              	.LBB180:
 770              		.loc 1 609 0
 771 0024 0268     		ldr	r2, [r0]
 772 0026 1A60     		str	r2, [r3]
 773              		.loc 1 610 0
 774 0028 5360     		str	r3, [r2, #4]
 775              	.LVL63:
 776              	.LBE180:
 777              	.LBE179:
 778              		.loc 2 462 0
 779 002a 826B     		ldr	r2, [r0, #56]
 780              		.loc 2 461 0
 781 002c 9860     		str	r0, [r3, #8]
 782              		.loc 2 462 0
 783 002e DA60     		str	r2, [r3, #12]
 784              		.loc 2 463 0
 785 0030 8363     		str	r3, [r0, #56]
 786              	.LBE178:
 787              		.loc 2 472 0
 788 0032 30BC     		pop	{r4, r5}
 789              		.cfi_remember_state
 790              		.cfi_restore 5
 791              		.cfi_restore 4
 792              		.cfi_def_cfa_offset 0
 793              	.LVL64:
 794              	.LBB185:
 795              		.loc 2 464 0
 796 0034 FFF7FEBF 		b	chSchReadyI
 797              	.LVL65:
 798              	.L42:
ARM GAS  /tmp/ccw8QaXx.s 			page 15


 799              		.cfi_restore_state
 800              	.LBB181:
 801              	.LBB182:
 802              	.LBB183:
 803              	.LBB184:
 804              		.loc 1 566 0
 805 0038 1568     		ldr	r5, [r2]
 806              	.LVL66:
 807              	.LBE184:
 808              	.LBE183:
 809              	.LBE182:
 810              	.LBE181:
 811              		.loc 2 444 0
 812 003a AA42     		cmp	r2, r5
 813 003c 03D0     		beq	.L41
 814 003e AD68     		ldr	r5, [r5, #8]
 815 0040 A942     		cmp	r1, r5
 816 0042 38BF     		it	cc
 817 0044 2946     		movcc	r1, r5
 818              	.LVL67:
 819              	.L41:
 820              		.loc 2 448 0
 821 0046 D268     		ldr	r2, [r2, #12]
 822              	.LVL68:
 823 0048 E8E7     		b	.L40
 824              	.LVL69:
 825              	.L39:
 826              	.LBE185:
 827              		.loc 2 467 0
 828 004a 8160     		str	r1, [r0, #8]
 829              	.L37:
 830              		.loc 2 472 0
 831 004c 30BC     		pop	{r4, r5}
 832              		.cfi_restore 5
 833              		.cfi_restore 4
 834              		.cfi_def_cfa_offset 0
 835              	.LVL70:
 836 004e 7047     		bx	lr
 837              	.L44:
 838              		.align	2
 839              	.L43:
 840 0050 00000000 		.word	ch
 841              		.cfi_endproc
 842              	.LFE307:
 843              		.size	chMtxUnlockS, .-chMtxUnlockS
 844              		.section	.text.chMtxUnlockAllS,"ax",%progbits
 845              		.align	1
 846              		.global	chMtxUnlockAllS
 847              		.syntax unified
 848              		.thumb
 849              		.thumb_func
 850              		.fpu fpv4-sp-d16
 851              		.type	chMtxUnlockAllS, %function
 852              	chMtxUnlockAllS:
 853              	.LFB308:
 854              		.loc 2 487 0
 855              		.cfi_startproc
ARM GAS  /tmp/ccw8QaXx.s 			page 16


 856              		@ args = 0, pretend = 0, frame = 0
 857              		@ frame_needed = 0, uses_anonymous_args = 0
 858              		.loc 2 488 0
 859 0000 0E4B     		ldr	r3, .L50
 860              		.loc 2 487 0
 861 0002 70B5     		push	{r4, r5, r6, lr}
 862              		.cfi_def_cfa_offset 16
 863              		.cfi_offset 4, -16
 864              		.cfi_offset 5, -12
 865              		.cfi_offset 6, -8
 866              		.cfi_offset 14, -4
 867              		.loc 2 488 0
 868 0004 9C69     		ldr	r4, [r3, #24]
 869              	.LVL71:
 870              	.LBB186:
 871              		.loc 2 505 0
 872 0006 0025     		movs	r5, #0
 873              	.LBB187:
 874              		.loc 2 495 0
 875 0008 0126     		movs	r6, #1
 876              	.L46:
 877              	.LBE187:
 878              	.LBE186:
 879              		.loc 2 490 0
 880 000a A36B     		ldr	r3, [r4, #56]
 881 000c 13B9     		cbnz	r3, .L49
 882              		.loc 2 510 0
 883 000e E36B     		ldr	r3, [r4, #60]
 884 0010 A360     		str	r3, [r4, #8]
 885 0012 70BD     		pop	{r4, r5, r6, pc}
 886              	.LVL72:
 887              	.L49:
 888              	.LBB197:
 889              	.LBB192:
 890              	.LBB193:
 891              	.LBB194:
 892              	.LBB195:
 893              		.loc 1 566 0
 894 0014 1868     		ldr	r0, [r3]
 895              	.LBE195:
 896              	.LBE194:
 897              	.LBE193:
 898              	.LBE192:
 899              		.loc 2 492 0
 900 0016 DA68     		ldr	r2, [r3, #12]
 901              		.loc 2 493 0
 902 0018 8342     		cmp	r3, r0
 903              		.loc 2 492 0
 904 001a A263     		str	r2, [r4, #56]
 905              	.LVL73:
 906              		.loc 2 493 0
 907 001c 0AD0     		beq	.L47
 908              	.LBB196:
 909              	.LBB188:
 910              	.LBB189:
 911              		.loc 1 609 0
 912 001e 0268     		ldr	r2, [r0]
ARM GAS  /tmp/ccw8QaXx.s 			page 17


 913              	.LBE189:
 914              	.LBE188:
 915              		.loc 2 495 0
 916 0020 1E61     		str	r6, [r3, #16]
 917              	.LVL74:
 918              	.LBB191:
 919              	.LBB190:
 920              		.loc 1 609 0
 921 0022 1A60     		str	r2, [r3]
 922              		.loc 1 610 0
 923 0024 5360     		str	r3, [r2, #4]
 924              	.LVL75:
 925              	.LBE190:
 926              	.LBE191:
 927              		.loc 2 499 0
 928 0026 826B     		ldr	r2, [r0, #56]
 929              		.loc 2 498 0
 930 0028 9860     		str	r0, [r3, #8]
 931              		.loc 2 499 0
 932 002a DA60     		str	r2, [r3, #12]
 933              		.loc 2 500 0
 934 002c 8363     		str	r3, [r0, #56]
 935              		.loc 2 501 0
 936 002e FFF7FEFF 		bl	chSchReadyI
 937              	.LVL76:
 938              	.LBE196:
 939 0032 EAE7     		b	.L46
 940              	.LVL77:
 941              	.L47:
 942              		.loc 2 505 0
 943 0034 1D61     		str	r5, [r3, #16]
 944              		.loc 2 507 0
 945 0036 9D60     		str	r5, [r3, #8]
 946 0038 E7E7     		b	.L46
 947              	.L51:
 948 003a 00BF     		.align	2
 949              	.L50:
 950 003c 00000000 		.word	ch
 951              	.LBE197:
 952              		.cfi_endproc
 953              	.LFE308:
 954              		.size	chMtxUnlockAllS, .-chMtxUnlockAllS
 955              		.section	.text.chMtxUnlockAll,"ax",%progbits
 956              		.align	1
 957              		.global	chMtxUnlockAll
 958              		.syntax unified
 959              		.thumb
 960              		.thumb_func
 961              		.fpu fpv4-sp-d16
 962              		.type	chMtxUnlockAll, %function
 963              	chMtxUnlockAll:
 964              	.LFB309:
 965              		.loc 2 524 0
 966              		.cfi_startproc
 967              		@ args = 0, pretend = 0, frame = 0
 968              		@ frame_needed = 0, uses_anonymous_args = 0
 969              		.loc 2 525 0
ARM GAS  /tmp/ccw8QaXx.s 			page 18


 970 0000 154B     		ldr	r3, .L62
 971              		.loc 2 524 0
 972 0002 70B5     		push	{r4, r5, r6, lr}
 973              		.cfi_def_cfa_offset 16
 974              		.cfi_offset 4, -16
 975              		.cfi_offset 5, -12
 976              		.cfi_offset 6, -8
 977              		.cfi_offset 14, -4
 978              		.loc 2 525 0
 979 0004 9C69     		ldr	r4, [r3, #24]
 980              	.LVL78:
 981              	.LBB216:
 982              	.LBB217:
 983              	.LBB218:
 984              	.LBB219:
 985              	.LBB220:
 986              		.loc 3 493 0
 987 0006 2023     		movs	r3, #32
 988              		.syntax unified
 989              	@ 493 "../../modules/ChibiOS/os/common/ext/ARM/CMSIS/Core/Include/cmsis_gcc.h" 1
 990 0008 83F31188 		MSR basepri, r3
 991              	@ 0 "" 2
 992              	.LVL79:
 993              		.thumb
 994              		.syntax unified
 995              	.LBE220:
 996              	.LBE219:
 997              	.LBE218:
 998              		.loc 4 356 0
 999 000c FFF7FEFF 		bl	_stats_start_measure_crit_thd
 1000              	.LVL80:
 1001              	.LBE217:
 1002              	.LBE216:
 1003              		.loc 2 528 0
 1004 0010 A36B     		ldr	r3, [r4, #56]
 1005 0012 C3B1     		cbz	r3, .L53
 1006              	.LBB221:
 1007              	.LBB222:
 1008              		.loc 2 534 0
 1009 0014 0126     		movs	r6, #1
 1010              	.LBE222:
 1011              		.loc 2 544 0
 1012 0016 0025     		movs	r5, #0
 1013              	.L59:
 1014              		.loc 2 530 0
 1015 0018 A36B     		ldr	r3, [r4, #56]
 1016              	.LVL81:
 1017              	.LBB227:
 1018              	.LBB228:
 1019              	.LBB229:
 1020              	.LBB230:
 1021              		.loc 1 566 0
 1022 001a 1868     		ldr	r0, [r3]
 1023              	.LBE230:
 1024              	.LBE229:
 1025              	.LBE228:
 1026              	.LBE227:
ARM GAS  /tmp/ccw8QaXx.s 			page 19


 1027              		.loc 2 531 0
 1028 001c DA68     		ldr	r2, [r3, #12]
 1029              		.loc 2 532 0
 1030 001e 8342     		cmp	r3, r0
 1031              		.loc 2 531 0
 1032 0020 A263     		str	r2, [r4, #56]
 1033              	.LVL82:
 1034              		.loc 2 532 0
 1035 0022 16D0     		beq	.L54
 1036              	.LBB231:
 1037              	.LBB223:
 1038              	.LBB224:
 1039              		.loc 1 609 0
 1040 0024 0268     		ldr	r2, [r0]
 1041              	.LBE224:
 1042              	.LBE223:
 1043              		.loc 2 534 0
 1044 0026 1E61     		str	r6, [r3, #16]
 1045              	.LVL83:
 1046              	.LBB226:
 1047              	.LBB225:
 1048              		.loc 1 609 0
 1049 0028 1A60     		str	r2, [r3]
 1050              		.loc 1 610 0
 1051 002a 5360     		str	r3, [r2, #4]
 1052              	.LVL84:
 1053              	.LBE225:
 1054              	.LBE226:
 1055              		.loc 2 538 0
 1056 002c 826B     		ldr	r2, [r0, #56]
 1057              		.loc 2 537 0
 1058 002e 9860     		str	r0, [r3, #8]
 1059              		.loc 2 538 0
 1060 0030 DA60     		str	r2, [r3, #12]
 1061              		.loc 2 539 0
 1062 0032 8363     		str	r3, [r0, #56]
 1063              		.loc 2 540 0
 1064 0034 FFF7FEFF 		bl	chSchReadyI
 1065              	.LVL85:
 1066              	.L55:
 1067              	.LBE231:
 1068              	.LBE221:
 1069              		.loc 2 548 0
 1070 0038 A36B     		ldr	r3, [r4, #56]
 1071 003a 002B     		cmp	r3, #0
 1072 003c ECD1     		bne	.L59
 1073              		.loc 2 549 0
 1074 003e E36B     		ldr	r3, [r4, #60]
 1075 0040 A360     		str	r3, [r4, #8]
 1076              		.loc 2 550 0
 1077 0042 FFF7FEFF 		bl	chSchRescheduleS
 1078              	.LVL86:
 1079              	.L53:
 1080              	.LBB232:
 1081              	.LBB233:
 1082              		.loc 4 368 0
 1083 0046 FFF7FEFF 		bl	_stats_stop_measure_crit_thd
ARM GAS  /tmp/ccw8QaXx.s 			page 20


 1084              	.LVL87:
 1085              	.LBB234:
 1086              	.LBB235:
 1087              	.LBB236:
 1088              		.loc 3 493 0
 1089 004a 0023     		movs	r3, #0
 1090              		.syntax unified
 1091              	@ 493 "../../modules/ChibiOS/os/common/ext/ARM/CMSIS/Core/Include/cmsis_gcc.h" 1
 1092 004c 83F31188 		MSR basepri, r3
 1093              	@ 0 "" 2
 1094              	.LVL88:
 1095              		.thumb
 1096              		.syntax unified
 1097 0050 70BD     		pop	{r4, r5, r6, pc}
 1098              	.LVL89:
 1099              	.L54:
 1100              	.LBE236:
 1101              	.LBE235:
 1102              	.LBE234:
 1103              	.LBE233:
 1104              	.LBE232:
 1105              	.LBB237:
 1106              		.loc 2 544 0
 1107 0052 1D61     		str	r5, [r3, #16]
 1108              		.loc 2 546 0
 1109 0054 9D60     		str	r5, [r3, #8]
 1110 0056 EFE7     		b	.L55
 1111              	.L63:
 1112              		.align	2
 1113              	.L62:
 1114 0058 00000000 		.word	ch
 1115              	.LBE237:
 1116              		.cfi_endproc
 1117              	.LFE309:
 1118              		.size	chMtxUnlockAll, .-chMtxUnlockAll
 1119              		.text
 1120              	.Letext0:
 1121              		.file 5 "/opt/gcc-arm-none-eabi-6-2017-q2-update/lib/gcc/arm-none-eabi/6.3.1/include/stddef.h"
 1122              		.file 6 "/opt/gcc-arm-none-eabi-6-2017-q2-update/arm-none-eabi/include/machine/_default_types.h"
 1123              		.file 7 "/opt/gcc-arm-none-eabi-6-2017-q2-update/arm-none-eabi/include/sys/_stdint.h"
 1124              		.file 8 "../../modules/ChibiOS/os/common/ports/ARMCMx/compilers/GCC/chtypes.h"
 1125              		.file 9 "../../modules/ChibiOS/os/rt/include/chsystypes.h"
 1126              		.file 10 "../../modules/ChibiOS/os/rt/include/chtime.h"
 1127              		.file 11 "../../modules/ChibiOS/os/common/ext/ARM/CMSIS/Core/Include/core_cm7.h"
 1128              		.file 12 "../../modules/ChibiOS/os/common/ext/ST/STM32F7xx/system_stm32f7xx.h"
 1129              		.file 13 "../../modules/ChibiOS/os/common/ports/ARMCMx/chcore.h"
 1130              		.file 14 "../../modules/ChibiOS/os/common/ports/ARMCMx/chcore_v7m.h"
 1131              		.file 15 "../../modules/ChibiOS/os/rt/include/chtm.h"
 1132              		.file 16 "../../modules/ChibiOS/os/rt/include/chstats.h"
 1133              		.file 17 "../../modules/ChibiOS/os/rt/include/chsem.h"
 1134              		.file 18 "../../modules/ChibiOS/os/rt/include/chmtx.h"
 1135              		.file 19 "../../modules/ChibiOS/os/rt/include/chregistry.h"
 1136              		.file 20 "../../modules/ChibiOS/os/oslib/include/chmemcore.h"
 1137              		.file 21 "../../modules/ChibiOS/os/oslib/include/chmempools.h"
 1138              		.file 22 "../../modules/ChibiOS/os/oslib/include/chfactory.h"