ARM GAS  /tmp/cc0MfFEA.s 			page 1


   1              		.cpu cortex-m7
   2              		.eabi_attribute 27, 1
   3              		.eabi_attribute 28, 1
   4              		.eabi_attribute 20, 1
   5              		.eabi_attribute 21, 1
   6              		.eabi_attribute 23, 3
   7              		.eabi_attribute 24, 1
   8              		.eabi_attribute 25, 1
   9              		.eabi_attribute 26, 1
  10              		.eabi_attribute 30, 4
  11              		.eabi_attribute 34, 1
  12              		.eabi_attribute 18, 4
  13              		.file	"chprintf.c"
  14              		.text
  15              	.Ltext0:
  16              		.cfi_sections	.debug_frame
  17              		.section	.text.long_to_string_with_divisor,"ax",%progbits
  18              		.align	1
  19              		.syntax unified
  20              		.thumb
  21              		.thumb_func
  22              		.fpu fpv4-sp-d16
  23              		.type	long_to_string_with_divisor, %function
  24              	long_to_string_with_divisor:
  25              	.LFB334:
  26              		.file 1 "../../modules/ChibiOS/os/hal/lib/streams/chprintf.c"
  27              		.loc 1 41 0
  28              		.cfi_startproc
  29              		@ args = 0, pretend = 0, frame = 0
  30              		@ frame_needed = 0, uses_anonymous_args = 0
  31              	.LVL0:
  32 0000 F0B5     		push	{r4, r5, r6, r7, lr}
  33              		.cfi_def_cfa_offset 20
  34              		.cfi_offset 4, -20
  35              		.cfi_offset 5, -16
  36              		.cfi_offset 6, -12
  37              		.cfi_offset 7, -8
  38              		.cfi_offset 14, -4
  39              		.loc 1 53 0
  40 0002 00F10B05 		add	r5, r0, #11
  41              		.loc 1 48 0
  42 0006 002B     		cmp	r3, #0
  43 0008 08BF     		it	eq
  44 000a 0B46     		moveq	r3, r1
  45              	.LVL1:
  46              		.loc 1 53 0
  47 000c 2C46     		mov	r4, r5
  48              	.LVL2:
  49              	.L4:
  50              		.loc 1 55 0
  51 000e B1FBF2F7 		udiv	r7, r1, r2
  52 0012 02FB1711 		mls	r1, r2, r7, r1
  53              	.LVL3:
  54              		.loc 1 56 0
  55 0016 01F13006 		add	r6, r1, #48
  56              	.LVL4:
  57              		.loc 1 61 0
ARM GAS  /tmp/cc0MfFEA.s 			page 2


  58 001a B3FBF2F3 		udiv	r3, r3, r2
  59              	.LVL5:
  60              		.loc 1 57 0
  61 001e 392E     		cmp	r6, #57
  62              		.loc 1 58 0
  63 0020 C8BF     		it	gt
  64 0022 01F13706 		addgt	r6, r1, #55
  65              	.LVL6:
  66              		.loc 1 60 0
  67 0026 3946     		mov	r1, r7
  68              		.loc 1 59 0
  69 0028 04F8016D 		strb	r6, [r4, #-1]!
  70              	.LVL7:
  71              		.loc 1 61 0
  72 002c 002B     		cmp	r3, #0
  73 002e EED1     		bne	.L4
  74              	.LVL8:
  75              		.loc 1 63 0
  76 0030 2B1B     		subs	r3, r5, r4
  77              	.LVL9:
  78 0032 421E     		subs	r2, r0, #1
  79              	.LVL10:
  80 0034 E118     		adds	r1, r4, r3
  81              	.LVL11:
  82              	.L5:
  83              		.loc 1 65 0 discriminator 1
  84 0036 14F8015B 		ldrb	r5, [r4], #1	@ zero_extendqisi2
  85              	.LVL12:
  86              		.loc 1 66 0 discriminator 1
  87 003a 8C42     		cmp	r4, r1
  88              		.loc 1 65 0 discriminator 1
  89 003c 02F8015F 		strb	r5, [r2, #1]!
  90              		.loc 1 66 0 discriminator 1
  91 0040 F9D1     		bne	.L5
  92              		.loc 1 69 0
  93 0042 1844     		add	r0, r0, r3
  94 0044 F0BD     		pop	{r4, r5, r6, r7, pc}
  95              		.cfi_endproc
  96              	.LFE334:
  97              		.size	long_to_string_with_divisor, .-long_to_string_with_divisor
  98              		.global	__aeabi_d2f
  99              		.global	__aeabi_f2d
 100              		.global	__aeabi_i2d
 101              		.global	__aeabi_dsub
 102              		.global	__aeabi_ui2d
 103              		.global	__aeabi_dmul
 104              		.global	__aeabi_d2iz
 105              		.section	.text.chvprintf,"ax",%progbits
 106              		.align	1
 107              		.global	chvprintf
 108              		.syntax unified
 109              		.thumb
 110              		.thumb_func
 111              		.fpu fpv4-sp-d16
 112              		.type	chvprintf, %function
 113              	chvprintf:
 114              	.LFB337:
ARM GAS  /tmp/cc0MfFEA.s 			page 3


 115              		.loc 1 122 0
 116              		.cfi_startproc
 117              		@ args = 0, pretend = 0, frame = 48
 118              		@ frame_needed = 0, uses_anonymous_args = 0
 119              	.LVL13:
 120 0000 2DE9F04F 		push	{r4, r5, r6, r7, r8, r9, r10, fp, lr}
 121              		.cfi_def_cfa_offset 36
 122              		.cfi_offset 4, -36
 123              		.cfi_offset 5, -32
 124              		.cfi_offset 6, -28
 125              		.cfi_offset 7, -24
 126              		.cfi_offset 8, -20
 127              		.cfi_offset 9, -16
 128              		.cfi_offset 10, -12
 129              		.cfi_offset 11, -8
 130              		.cfi_offset 14, -4
 131 0004 1346     		mov	r3, r2
 132              	.LVL14:
 133 0006 0746     		mov	r7, r0
 134              		.loc 1 125 0
 135 0008 4FF00008 		mov	r8, #0
 136              		.loc 1 122 0
 137 000c 2DED028B 		vpush.64	{d8}
 138              		.cfi_def_cfa_offset 44
 139              		.cfi_offset 80, -44
 140              		.cfi_offset 81, -40
 141 0010 8DB0     		sub	sp, sp, #52
 142              		.cfi_def_cfa_offset 96
 143              	.LVL15:
 144              	.L10:
 145              		.loc 1 136 0
 146 0012 0A78     		ldrb	r2, [r1]	@ zero_extendqisi2
 147              	.LVL16:
 148 0014 4C1C     		adds	r4, r1, #1
 149              	.LVL17:
 150              		.loc 1 137 0
 151 0016 002A     		cmp	r2, #0
 152 0018 00F05381 		beq	.L159
 153              	.LVL18:
 154              		.loc 1 139 0
 155 001c 252A     		cmp	r2, #37
 156 001e 09D0     		beq	.L12
 157              		.loc 1 140 0
 158 0020 3968     		ldr	r1, [r7]
 159 0022 3846     		mov	r0, r7
 160 0024 0193     		str	r3, [sp, #4]
 161              		.loc 1 141 0
 162 0026 08F10108 		add	r8, r8, #1
 163              	.LVL19:
 164              		.loc 1 140 0
 165 002a CD68     		ldr	r5, [r1, #12]
 166 002c 1146     		mov	r1, r2
 167 002e A847     		blx	r5
 168              	.LVL20:
 169              		.loc 1 142 0
 170 0030 019B     		ldr	r3, [sp, #4]
 171 0032 9CE0     		b	.L13
ARM GAS  /tmp/cc0MfFEA.s 			page 4


 172              	.LVL21:
 173              	.L12:
 174              		.loc 1 147 0
 175 0034 4A78     		ldrb	r2, [r1, #1]	@ zero_extendqisi2
 176              	.LVL22:
 177              		.loc 1 156 0
 178 0036 0026     		movs	r6, #0
 179              		.loc 1 147 0
 180 0038 2D2A     		cmp	r2, #45
 181              		.loc 1 148 0
 182 003a 06BF     		itte	eq
 183 003c 8C1C     		addeq	r4, r1, #2
 184              	.LVL23:
 185              		.loc 1 149 0
 186 003e 0122     		moveq	r2, #1
 187              		.loc 1 146 0
 188 0040 0022     		movne	r2, #0
 189              		.loc 1 152 0
 190 0042 2578     		ldrb	r5, [r4]	@ zero_extendqisi2
 191              		.loc 1 146 0
 192 0044 0192     		str	r2, [sp, #4]
 193              	.LVL24:
 194              		.loc 1 152 0
 195 0046 302D     		cmp	r5, #48
 196              		.loc 1 153 0
 197 0048 0CBF     		ite	eq
 198 004a 0134     		addeq	r4, r4, #1
 199              	.LVL25:
 200              		.loc 1 151 0
 201 004c 2025     		movne	r5, #32
 202              	.LVL26:
 203              	.L18:
 204              		.loc 1 158 0
 205 004e 14F8012B 		ldrb	r2, [r4], #1	@ zero_extendqisi2
 206              	.LVL27:
 207              		.loc 1 159 0
 208 0052 A2F13001 		sub	r1, r2, #48
 209 0056 C9B2     		uxtb	r1, r1
 210 0058 0929     		cmp	r1, #9
 211 005a 03D9     		bls	.L16
 212              		.loc 1 161 0
 213 005c 2A2A     		cmp	r2, #42
 214 005e 05D1     		bne	.L17
 215              	.LVL28:
 216              		.loc 1 162 0
 217 0060 1978     		ldrb	r1, [r3]	@ zero_extendqisi2
 218              	.LVL29:
 219 0062 0433     		adds	r3, r3, #4
 220              	.LVL30:
 221              	.L16:
 222              		.loc 1 165 0
 223 0064 0A22     		movs	r2, #10
 224 0066 02FB0616 		mla	r6, r2, r6, r1
 225              	.LVL31:
 226              		.loc 1 158 0
 227 006a F0E7     		b	.L18
 228              	.LVL32:
ARM GAS  /tmp/cc0MfFEA.s 			page 5


 229              	.L17:
 230              		.loc 1 168 0
 231 006c 2E2A     		cmp	r2, #46
 232 006e 4FF0000B 		mov	fp, #0
 233 0072 0ED1     		bne	.L19
 234              	.LVL33:
 235              	.L21:
 236              		.loc 1 170 0
 237 0074 14F8012B 		ldrb	r2, [r4], #1	@ zero_extendqisi2
 238              	.LVL34:
 239              		.loc 1 171 0
 240 0078 A2F13001 		sub	r1, r2, #48
 241 007c C9B2     		uxtb	r1, r1
 242 007e 0929     		cmp	r1, #9
 243 0080 03D9     		bls	.L20
 244              		.loc 1 173 0
 245 0082 2A2A     		cmp	r2, #42
 246 0084 05D1     		bne	.L19
 247              	.LVL35:
 248              		.loc 1 174 0
 249 0086 1978     		ldrb	r1, [r3]	@ zero_extendqisi2
 250              	.LVL36:
 251 0088 0433     		adds	r3, r3, #4
 252              	.LVL37:
 253              	.L20:
 254              		.loc 1 178 0
 255 008a 0A22     		movs	r2, #10
 256 008c 02FB0B1B 		mla	fp, r2, fp, r1
 257              	.LVL38:
 258              		.loc 1 170 0
 259 0090 F0E7     		b	.L21
 260              	.LVL39:
 261              	.L19:
 262              		.loc 1 182 0
 263 0092 02F0DF01 		and	r1, r2, #223
 264 0096 4C29     		cmp	r1, #76
 265 0098 03D1     		bne	.L23
 266              	.LVL40:
 267              		.loc 1 184 0
 268 009a 2178     		ldrb	r1, [r4]	@ zero_extendqisi2
 269 009c 09B1     		cbz	r1, .L23
 270              		.loc 1 185 0
 271 009e 0134     		adds	r4, r4, #1
 272              	.LVL41:
 273 00a0 0A46     		mov	r2, r1
 274              	.LVL42:
 275              	.L23:
 276              		.loc 1 191 0
 277 00a2 642A     		cmp	r2, #100
 278 00a4 1BD0     		beq	.L39
 279 00a6 00F2E080 		bhi	.L58
 280 00aa 4F2A     		cmp	r2, #79
 281 00ac 00F00781 		beq	.L59
 282 00b0 00F2D180 		bhi	.L60
 283 00b4 442A     		cmp	r2, #68
 284 00b6 12D0     		beq	.L39
 285 00b8 492A     		cmp	r2, #73
ARM GAS  /tmp/cc0MfFEA.s 			page 6


 286              	.L165:
 287 00ba 10D0     		beq	.L39
 288              	.L24:
 289              	.LVL43:
 290              		.loc 1 248 0
 291 00bc 0DF1300A 		add	r10, sp, #48
 292              		.loc 1 249 0
 293 00c0 9946     		mov	r9, r3
 294              		.loc 1 248 0
 295 00c2 0AF8182D 		strb	r2, [r10, #-24]!
 296 00c6 07E0     		b	.L167
 297              	.LVL44:
 298              	.L30:
 299              		.loc 1 194 0
 300 00c8 03F10409 		add	r9, r3, #4
 301              	.LVL45:
 302 00cc 0DF1300A 		add	r10, sp, #48
 303 00d0 1B68     		ldr	r3, [r3]
 304              		.loc 1 193 0
 305 00d2 2025     		movs	r5, #32
 306              		.loc 1 194 0
 307 00d4 0AF8183D 		strb	r3, [r10, #-24]!
 308              	.LVL46:
 309              	.L167:
 310              		.loc 1 248 0
 311 00d8 0DF11900 		add	r0, sp, #25
 312              	.LVL47:
 313              		.loc 1 249 0
 314 00dc 12E0     		b	.L35
 315              	.LVL48:
 316              	.L39:
 317              		.loc 1 212 0
 318 00de 1968     		ldr	r1, [r3]
 319 00e0 03F10409 		add	r9, r3, #4
 320              	.LVL49:
 321              	.LBB8:
 322              	.LBB9:
 323              		.loc 1 73 0
 324 00e4 0A22     		movs	r2, #10
 325              	.LVL50:
 326              	.LBE9:
 327              	.LBE8:
 328              		.loc 1 213 0
 329 00e6 0029     		cmp	r1, #0
 330              		.loc 1 214 0
 331 00e8 BDBF     		ittte	lt
 332 00ea 2D23     		movlt	r3, #45
 333              		.loc 1 215 0
 334 00ec 4942     		rsblt	r1, r1, #0
 335              	.LVL51:
 336              		.loc 1 214 0
 337 00ee 0DF11900 		addlt	r0, sp, #25
 338              		.loc 1 144 0
 339 00f2 06A8     		addge	r0, sp, #24
 340              	.LVL52:
 341              		.loc 1 214 0
 342 00f4 B8BF     		it	lt
ARM GAS  /tmp/cc0MfFEA.s 			page 7


 343 00f6 8DF81830 		strblt	r3, [sp, #24]
 344              	.LBB11:
 345              	.LBB10:
 346              		.loc 1 73 0
 347 00fa 0023     		movs	r3, #0
 348              	.LVL53:
 349              	.L166:
 350              	.LBE10:
 351              	.LBE11:
 352              		.loc 1 145 0
 353 00fc 0DF1180A 		add	r10, sp, #24
 354              	.LVL54:
 355              	.LBB12:
 356              	.LBB13:
 357              		.loc 1 73 0
 358 0100 FFF7FEFF 		bl	long_to_string_with_divisor
 359              	.LVL55:
 360              	.L35:
 361              	.LBE13:
 362              	.LBE12:
 363              		.loc 1 251 0
 364 0104 A0EB0A0B 		sub	fp, r0, r10
 365              	.LVL56:
 366              		.loc 1 254 0
 367 0108 019A     		ldr	r2, [sp, #4]
 368              		.loc 1 252 0
 369 010a A6EB0B06 		sub	r6, r6, fp
 370              	.LVL57:
 371 010e 26EAE673 		bic	r3, r6, r6, asr #31
 372              	.LVL58:
 373              		.loc 1 254 0
 374 0112 002A     		cmp	r2, #0
 375 0114 40F08C80 		bne	.L69
 376              		.loc 1 255 0
 377 0118 5E42     		negs	r6, r3
 378              	.LVL59:
 379              		.loc 1 256 0
 380 011a DBB1     		cbz	r3, .L49
 381              		.loc 1 257 0
 382 011c 9AF80010 		ldrb	r1, [r10]	@ zero_extendqisi2
 383 0120 2D29     		cmp	r1, #45
 384 0122 0DD1     		bne	.L51
 385              		.loc 1 257 0 is_stmt 0 discriminator 1
 386 0124 302D     		cmp	r5, #48
 387 0126 0BD1     		bne	.L51
 388              		.loc 1 258 0 is_stmt 1
 389 0128 3A68     		ldr	r2, [r7]
 390 012a 3846     		mov	r0, r7
 391              	.LVL60:
 392 012c 0193     		str	r3, [sp, #4]
 393              	.LVL61:
 394 012e 0AF1010A 		add	r10, r10, #1
 395              	.LVL62:
 396 0132 D268     		ldr	r2, [r2, #12]
 397              		.loc 1 259 0
 398 0134 08F10108 		add	r8, r8, #1
 399              	.LVL63:
ARM GAS  /tmp/cc0MfFEA.s 			page 8


 400              		.loc 1 258 0
 401 0138 9047     		blx	r2
 402              	.LVL64:
 403              		.loc 1 260 0
 404 013a 0BF1FF3B 		add	fp, fp, #-1
 405              	.LVL65:
 406 013e 019B     		ldr	r3, [sp, #4]
 407              	.LVL66:
 408              	.L51:
 409              		.loc 1 263 0 discriminator 1
 410 0140 3A68     		ldr	r2, [r7]
 411 0142 2946     		mov	r1, r5
 412 0144 3846     		mov	r0, r7
 413 0146 0193     		str	r3, [sp, #4]
 414 0148 D268     		ldr	r2, [r2, #12]
 415 014a 9047     		blx	r2
 416              	.LVL67:
 417              		.loc 1 265 0 discriminator 1
 418 014c 0136     		adds	r6, r6, #1
 419              	.LVL68:
 420 014e 019B     		ldr	r3, [sp, #4]
 421 0150 F6D1     		bne	.L51
 422 0152 9844     		add	r8, r8, r3
 423              	.L49:
 424 0154 5B46     		mov	r3, fp
 425              	.LVL69:
 426              	.L52:
 427              		.loc 1 267 0
 428 0156 013B     		subs	r3, r3, #1
 429              	.LVL70:
 430 0158 6CD5     		bpl	.L53
 431 015a BBF1000F 		cmp	fp, #0
 432 015e A8BF     		it	ge
 433 0160 D844     		addge	r8, r8, fp
 434 0162 B246     		mov	r10, r6
 435              	.LVL71:
 436              	.L54:
 437              		.loc 1 272 0
 438 0164 BAF1000F 		cmp	r10, #0
 439 0168 6DD1     		bne	.L55
 440 016a B044     		add	r8, r8, r6
 441 016c 4B46     		mov	r3, r9
 442              	.LVL72:
 443              	.L13:
 444 016e 2146     		mov	r1, r4
 445 0170 4FE7     		b	.L10
 446              	.LVL73:
 447              	.L33:
 448              		.loc 1 221 0
 449 0172 0733     		adds	r3, r3, #7
 450              	.LVL74:
 451 0174 23F00703 		bic	r3, r3, #7
 452              	.LVL75:
 453 0178 D3E90001 		ldrd	r0, [r3]
 454 017c 03F10809 		add	r9, r3, #8
 455              	.LVL76:
 456 0180 FFF7FEFF 		bl	__aeabi_d2f
ARM GAS  /tmp/cc0MfFEA.s 			page 9


 457              	.LVL77:
 458 0184 08EE100A 		vmov	s16, r0
 459              	.LVL78:
 460              		.loc 1 222 0
 461 0188 B5EEC08A 		vcmpe.f32	s16, #0
 462 018c F1EE10FA 		vmrs	APSR_nzcv, FPSCR
 463              	.LVL79:
 464              		.loc 1 224 0
 465 0190 43BF     		ittte	mi
 466 0192 B1EE488A 		vnegmi.f32	s16, s16
 467              	.LVL80:
 468              		.loc 1 223 0
 469 0196 2D23     		movmi	r3, #45
 470 0198 0DF1190A 		addmi	r10, sp, #25
 471              		.loc 1 144 0
 472 019c 0DF1180A 		addpl	r10, sp, #24
 473              	.LVL81:
 474              		.loc 1 223 0
 475 01a0 48BF     		it	mi
 476 01a2 8DF81830 		strbmi	r3, [sp, #24]
 477              		.loc 1 226 0
 478 01a6 18EE100A 		vmov	r0, s16
 479 01aa FFF7FEFF 		bl	__aeabi_f2d
 480              	.LVL82:
 481              	.LBB15:
 482              	.LBB16:
 483              		.loc 1 84 0
 484 01ae 0BF1FF33 		add	r3, fp, #-1
 485              		.loc 1 88 0
 486 01b2 FDEEC87A 		vcvt.s32.f32	s15, s16
 487              		.loc 1 89 0
 488 01b6 0A22     		movs	r2, #10
 489              		.loc 1 85 0
 490 01b8 092B     		cmp	r3, #9
 491              		.loc 1 86 0
 492 01ba 454B     		ldr	r3, .L184
 493              		.loc 1 85 0
 494 01bc 28BF     		it	cs
 495 01be 4FF0090B 		movcs	fp, #9
 496              	.LVL83:
 497              		.loc 1 88 0
 498 01c2 CDED027A 		vstr.32	s15, [sp, #8]	@ int
 499              		.loc 1 86 0
 500 01c6 0BF1FF3B 		add	fp, fp, #-1
 501              	.LBE16:
 502              	.LBE15:
 503              		.loc 1 226 0
 504 01ca CDE90401 		strd	r0, [sp, #16]
 505              	.LVL84:
 506              	.LBB18:
 507              	.LBB17:
 508              		.loc 1 86 0
 509 01ce 53F82BB0 		ldr	fp, [r3, fp, lsl #2]
 510              	.LVL85:
 511              		.loc 1 89 0
 512 01d2 17EE901A 		vmov	r1, s15	@ int
 513 01d6 0023     		movs	r3, #0
ARM GAS  /tmp/cc0MfFEA.s 			page 10


 514 01d8 5046     		mov	r0, r10
 515              	.LVL86:
 516 01da FFF7FEFF 		bl	long_to_string_with_divisor
 517              	.LVL87:
 518              		.loc 1 90 0
 519 01de 2E23     		movs	r3, #46
 520 01e0 8246     		mov	r10, r0
 521              	.LVL88:
 522              		.loc 1 91 0
 523 01e2 0298     		ldr	r0, [sp, #8]
 524              	.LVL89:
 525              		.loc 1 90 0
 526 01e4 0AF8013B 		strb	r3, [r10], #1
 527              	.LVL90:
 528              		.loc 1 91 0
 529 01e8 FFF7FEFF 		bl	__aeabi_i2d
 530              	.LVL91:
 531 01ec 0246     		mov	r2, r0
 532 01ee 0B46     		mov	r3, r1
 533 01f0 DDE90401 		ldrd	r0, [sp, #16]
 534 01f4 FFF7FEFF 		bl	__aeabi_dsub
 535              	.LVL92:
 536 01f8 CDE90201 		strd	r0, [sp, #8]
 537              	.LVL93:
 538 01fc 5846     		mov	r0, fp
 539 01fe FFF7FEFF 		bl	__aeabi_ui2d
 540              	.LVL94:
 541 0202 0246     		mov	r2, r0
 542 0204 0B46     		mov	r3, r1
 543 0206 DDE90201 		ldrd	r0, [sp, #8]
 544 020a FFF7FEFF 		bl	__aeabi_dmul
 545              	.LVL95:
 546              		.loc 1 92 0
 547 020e 0A23     		movs	r3, #10
 548 0210 BBFBF3FB 		udiv	fp, fp, r3
 549              	.LVL96:
 550              		.loc 1 91 0
 551 0214 FFF7FEFF 		bl	__aeabi_d2iz
 552              	.LVL97:
 553              		.loc 1 92 0
 554 0218 5B46     		mov	r3, fp
 555 021a 0146     		mov	r1, r0
 556 021c 0A22     		movs	r2, #10
 557 021e 5046     		mov	r0, r10
 558 0220 6CE7     		b	.L166
 559              	.L27:
 560              	.LVL98:
 561              	.L71:
 562              	.LBE17:
 563              	.LBE18:
 564              		.loc 1 231 0
 565 0222 1022     		movs	r2, #16
 566              	.LVL99:
 567              	.L46:
 568              		.loc 1 244 0
 569 0224 03F10409 		add	r9, r3, #4
 570              	.LVL100:
ARM GAS  /tmp/cc0MfFEA.s 			page 11


 571 0228 1968     		ldr	r1, [r3]
 572              	.LVL101:
 573              	.LBB19:
 574              	.LBB14:
 575              		.loc 1 73 0
 576 022a 06A8     		add	r0, sp, #24
 577              	.LVL102:
 578 022c 0023     		movs	r3, #0
 579 022e 65E7     		b	.L166
 580              	.LVL103:
 581              	.L69:
 582              	.LBE14:
 583              	.LBE19:
 584 0230 1E46     		mov	r6, r3
 585 0232 8FE7     		b	.L49
 586              	.LVL104:
 587              	.L53:
 588              		.loc 1 268 0
 589 0234 3A68     		ldr	r2, [r7]
 590 0236 3846     		mov	r0, r7
 591 0238 1AF8011B 		ldrb	r1, [r10], #1	@ zero_extendqisi2
 592              	.LVL105:
 593 023c D268     		ldr	r2, [r2, #12]
 594 023e 0193     		str	r3, [sp, #4]
 595              	.LVL106:
 596 0240 9047     		blx	r2
 597              	.LVL107:
 598 0242 019B     		ldr	r3, [sp, #4]
 599 0244 87E7     		b	.L52
 600              	.LVL108:
 601              	.L55:
 602              		.loc 1 273 0
 603 0246 3B68     		ldr	r3, [r7]
 604 0248 2946     		mov	r1, r5
 605 024a 3846     		mov	r0, r7
 606              		.loc 1 275 0
 607 024c 0AF1FF3A 		add	r10, r10, #-1
 608              	.LVL109:
 609              		.loc 1 273 0
 610 0250 DB68     		ldr	r3, [r3, #12]
 611 0252 9847     		blx	r3
 612              	.LVL110:
 613 0254 86E7     		b	.L54
 614              	.LVL111:
 615              	.L60:
 616              		.loc 1 191 0
 617 0256 582A     		cmp	r2, #88
 618 0258 E3D0     		beq	.L71
 619 025a 632A     		cmp	r2, #99
 620 025c 3FF434AF 		beq	.L30
 621 0260 552A     		cmp	r2, #85
 622 0262 7FF42BAF 		bne	.L24
 623              	.L70:
 624              		.loc 1 235 0
 625 0266 0A22     		movs	r2, #10
 626              	.LVL112:
 627 0268 DCE7     		b	.L46
ARM GAS  /tmp/cc0MfFEA.s 			page 12


 628              	.LVL113:
 629              	.L58:
 630              		.loc 1 191 0
 631 026a 6F2A     		cmp	r2, #111
 632 026c 27D0     		beq	.L59
 633 026e 04D8     		bhi	.L61
 634 0270 662A     		cmp	r2, #102
 635 0272 3FF47EAF 		beq	.L33
 636 0276 692A     		cmp	r2, #105
 637 0278 1FE7     		b	.L165
 638              	.L61:
 639 027a 752A     		cmp	r2, #117
 640 027c F3D0     		beq	.L70
 641 027e 782A     		cmp	r2, #120
 642 0280 CFD0     		beq	.L71
 643 0282 732A     		cmp	r2, #115
 644 0284 7FF41AAF 		bne	.L24
 645              	.LVL114:
 646              		.loc 1 198 0
 647 0288 D3F800A0 		ldr	r10, [r3]
 648 028c 03F10409 		add	r9, r3, #4
 649              	.LVL115:
 650              		.loc 1 199 0
 651 0290 104B     		ldr	r3, .L184+4
 652 0292 BAF1000F 		cmp	r10, #0
 653 0296 08BF     		it	eq
 654 0298 9A46     		moveq	r10, r3
 655              	.LVL116:
 656              		.loc 1 201 0
 657 029a 47F6FF73 		movw	r3, #32767
 658 029e BBF1000F 		cmp	fp, #0
 659 02a2 08BF     		it	eq
 660 02a4 9B46     		moveq	fp, r3
 661              	.LVL117:
 662 02a6 5346     		mov	r3, r10
 663              	.LVL118:
 664              	.L38:
 665 02a8 1846     		mov	r0, r3
 666              	.LVL119:
 667 02aa 0133     		adds	r3, r3, #1
 668              		.loc 1 202 0 discriminator 1
 669 02ac 0278     		ldrb	r2, [r0]	@ zero_extendqisi2
 670 02ae 22B1     		cbz	r2, .L66
 671              	.LVL120:
 672 02b0 ABEB0302 		sub	r2, fp, r3
 673              		.loc 1 202 0 is_stmt 0 discriminator 3
 674 02b4 1AEB020F 		cmn	r10, r2
 675 02b8 F6D5     		bpl	.L38
 676              	.LVL121:
 677              	.L66:
 678              		.loc 1 197 0 is_stmt 1
 679 02ba 2025     		movs	r5, #32
 680 02bc 22E7     		b	.L35
 681              	.LVL122:
 682              	.L59:
 683              		.loc 1 239 0
 684 02be 0822     		movs	r2, #8
ARM GAS  /tmp/cc0MfFEA.s 			page 13


 685              	.LVL123:
 686 02c0 B0E7     		b	.L46
 687              	.LVL124:
 688              	.L159:
 689              		.loc 1 278 0
 690 02c2 4046     		mov	r0, r8
 691 02c4 0DB0     		add	sp, sp, #52
 692              		.cfi_def_cfa_offset 44
 693              		@ sp needed
 694 02c6 BDEC028B 		vldm	sp!, {d8}
 695              		.cfi_restore 80
 696              		.cfi_restore 81
 697              		.cfi_def_cfa_offset 36
 698 02ca BDE8F08F 		pop	{r4, r5, r6, r7, r8, r9, r10, fp, pc}
 699              	.LVL125:
 700              	.L185:
 701 02ce 00BF     		.align	2
 702              	.L184:
 703 02d0 00000000 		.word	.LANCHOR0
 704 02d4 00000000 		.word	.LC0
 705              		.cfi_endproc
 706              	.LFE337:
 707              		.size	chvprintf, .-chvprintf
 708              		.section	.text.chprintf,"ax",%progbits
 709              		.align	1
 710              		.global	chprintf
 711              		.syntax unified
 712              		.thumb
 713              		.thumb_func
 714              		.fpu fpv4-sp-d16
 715              		.type	chprintf, %function
 716              	chprintf:
 717              	.LFB338:
 718              		.loc 1 305 0
 719              		.cfi_startproc
 720              		@ args = 4, pretend = 12, frame = 8
 721              		@ frame_needed = 0, uses_anonymous_args = 1
 722              	.LVL126:
 723 0000 0EB4     		push	{r1, r2, r3}
 724              		.cfi_def_cfa_offset 12
 725              		.cfi_offset 1, -12
 726              		.cfi_offset 2, -8
 727              		.cfi_offset 3, -4
 728 0002 03B5     		push	{r0, r1, lr}
 729              		.cfi_def_cfa_offset 24
 730              		.cfi_offset 14, -16
 731              		.loc 1 305 0
 732 0004 03AA     		add	r2, sp, #12
 733 0006 52F8041B 		ldr	r1, [r2], #4
 734              		.loc 1 309 0
 735 000a 0192     		str	r2, [sp, #4]
 736              		.loc 1 310 0
 737 000c FFF7FEFF 		bl	chvprintf
 738              	.LVL127:
 739              		.loc 1 314 0
 740 0010 02B0     		add	sp, sp, #8
 741              		.cfi_def_cfa_offset 16
ARM GAS  /tmp/cc0MfFEA.s 			page 14


 742              		@ sp needed
 743 0012 5DF804EB 		ldr	lr, [sp], #4
 744              		.cfi_restore 14
 745              		.cfi_def_cfa_offset 12
 746 0016 03B0     		add	sp, sp, #12
 747              		.cfi_restore 3
 748              		.cfi_restore 2
 749              		.cfi_restore 1
 750              		.cfi_def_cfa_offset 0
 751 0018 7047     		bx	lr
 752              		.cfi_endproc
 753              	.LFE338:
 754              		.size	chprintf, .-chprintf
 755              		.section	.text.chvsnprintf,"ax",%progbits
 756              		.align	1
 757              		.global	chvsnprintf
 758              		.syntax unified
 759              		.thumb
 760              		.thumb_func
 761              		.fpu fpv4-sp-d16
 762              		.type	chvsnprintf, %function
 763              	chvsnprintf:
 764              	.LFB340:
 765              		.loc 1 384 0
 766              		.cfi_startproc
 767              		@ args = 0, pretend = 0, frame = 24
 768              		@ frame_needed = 0, uses_anonymous_args = 0
 769              	.LVL128:
 770 0000 F0B5     		push	{r4, r5, r6, r7, lr}
 771              		.cfi_def_cfa_offset 20
 772              		.cfi_offset 4, -20
 773              		.cfi_offset 5, -16
 774              		.cfi_offset 6, -12
 775              		.cfi_offset 7, -8
 776              		.cfi_offset 14, -4
 777 0002 0546     		mov	r5, r0
 778 0004 87B0     		sub	sp, sp, #28
 779              		.cfi_def_cfa_offset 48
 780              		.loc 1 384 0
 781 0006 1646     		mov	r6, r2
 782 0008 1F46     		mov	r7, r3
 783              		.loc 1 390 0
 784 000a 0C46     		mov	r4, r1
 785 000c 89B1     		cbz	r1, .L190
 786              		.loc 1 391 0
 787 000e 4A1E     		subs	r2, r1, #1
 788              	.LVL129:
 789              	.L188:
 790              		.loc 1 397 0
 791 0010 0023     		movs	r3, #0
 792              	.LVL130:
 793 0012 2946     		mov	r1, r5
 794              	.LVL131:
 795 0014 01A8     		add	r0, sp, #4
 796              	.LVL132:
 797 0016 FFF7FEFF 		bl	msObjectInit
 798              	.LVL133:
ARM GAS  /tmp/cc0MfFEA.s 			page 15


 799              		.loc 1 401 0
 800 001a 3A46     		mov	r2, r7
 801 001c 3146     		mov	r1, r6
 802 001e 01A8     		add	r0, sp, #4
 803              	.LVL134:
 804 0020 FFF7FEFF 		bl	chvprintf
 805              	.LVL135:
 806              		.loc 1 404 0
 807 0024 049B     		ldr	r3, [sp, #16]
 808 0026 9C42     		cmp	r4, r3
 809              		.loc 1 405 0
 810 0028 84BF     		itt	hi
 811 002a 0022     		movhi	r2, #0
 812 002c EA54     		strbhi	r2, [r5, r3]
 813              		.loc 1 410 0
 814 002e 07B0     		add	sp, sp, #28
 815              		.cfi_remember_state
 816              		.cfi_def_cfa_offset 20
 817              		@ sp needed
 818 0030 F0BD     		pop	{r4, r5, r6, r7, pc}
 819              	.LVL136:
 820              	.L190:
 821              		.cfi_restore_state
 822              		.loc 1 393 0
 823 0032 0A46     		mov	r2, r1
 824              	.LVL137:
 825 0034 ECE7     		b	.L188
 826              		.cfi_endproc
 827              	.LFE340:
 828              		.size	chvsnprintf, .-chvsnprintf
 829              		.section	.text.chsnprintf,"ax",%progbits
 830              		.align	1
 831              		.global	chsnprintf
 832              		.syntax unified
 833              		.thumb
 834              		.thumb_func
 835              		.fpu fpv4-sp-d16
 836              		.type	chsnprintf, %function
 837              	chsnprintf:
 838              	.LFB339:
 839              		.loc 1 343 0
 840              		.cfi_startproc
 841              		@ args = 4, pretend = 8, frame = 8
 842              		@ frame_needed = 0, uses_anonymous_args = 1
 843              	.LVL138:
 844 0000 0CB4     		push	{r2, r3}
 845              		.cfi_def_cfa_offset 8
 846              		.cfi_offset 2, -8
 847              		.cfi_offset 3, -4
 848 0002 07B5     		push	{r0, r1, r2, lr}
 849              		.cfi_def_cfa_offset 24
 850              		.cfi_offset 14, -12
 851              		.loc 1 343 0
 852 0004 04AB     		add	r3, sp, #16
 853 0006 53F8042B 		ldr	r2, [r3], #4
 854              		.loc 1 348 0
 855 000a 0193     		str	r3, [sp, #4]
ARM GAS  /tmp/cc0MfFEA.s 			page 16


 856              		.loc 1 349 0
 857 000c FFF7FEFF 		bl	chvsnprintf
 858              	.LVL139:
 859              		.loc 1 354 0
 860 0010 03B0     		add	sp, sp, #12
 861              		.cfi_def_cfa_offset 12
 862              		@ sp needed
 863 0012 5DF804EB 		ldr	lr, [sp], #4
 864              		.cfi_restore 14
 865              		.cfi_def_cfa_offset 8
 866 0016 02B0     		add	sp, sp, #8
 867              		.cfi_restore 3
 868              		.cfi_restore 2
 869              		.cfi_def_cfa_offset 0
 870 0018 7047     		bx	lr
 871              		.cfi_endproc
 872              	.LFE339:
 873              		.size	chsnprintf, .-chsnprintf
 874              		.section	.rodata.chvprintf.str1.1,"aMS",%progbits,1
 875              	.LC0:
 876 0000 286E756C 		.ascii	"(null)\000"
 876      6C2900
 877              		.section	.rodata.pow10,"a",%progbits
 878              		.align	2
 879              		.set	.LANCHOR0,. + 0
 880              		.type	pow10, %object
 881              		.size	pow10, 36
 882              	pow10:
 883 0000 0A000000 		.word	10
 884 0004 64000000 		.word	100
 885 0008 E8030000 		.word	1000
 886 000c 10270000 		.word	10000
 887 0010 A0860100 		.word	100000
 888 0014 40420F00 		.word	1000000
 889 0018 80969800 		.word	10000000
 890 001c 00E1F505 		.word	100000000
 891 0020 00CA9A3B 		.word	1000000000
 892              		.text
 893              	.Letext0:
 894              		.file 2 "/opt/gcc-arm-none-eabi-6-2017-q2-update/lib/gcc/arm-none-eabi/6.3.1/include/stddef.h"
 895              		.file 3 "/opt/gcc-arm-none-eabi-6-2017-q2-update/arm-none-eabi/include/machine/_default_types.h"
 896              		.file 4 "/opt/gcc-arm-none-eabi-6-2017-q2-update/arm-none-eabi/include/sys/_stdint.h"
 897              		.file 5 "/opt/gcc-arm-none-eabi-6-2017-q2-update/arm-none-eabi/include/stdint.h"
 898              		.file 6 "../../modules/ChibiOS/os/common/ports/ARMCMx/compilers/GCC/chtypes.h"
 899              		.file 7 "../../modules/ChibiOS/os/rt/include/chsystypes.h"
 900              		.file 8 "../../modules/ChibiOS/os/rt/include/chschd.h"
 901              		.file 9 "../../modules/ChibiOS/os/rt/include/chtime.h"
 902              		.file 10 "../../modules/ChibiOS/os/common/ext/ARM/CMSIS/Core/Include/core_cm7.h"
 903              		.file 11 "../../modules/ChibiOS/os/common/ext/ST/STM32F7xx/system_stm32f7xx.h"
 904              		.file 12 "../../modules/ChibiOS/os/common/ext/ST/STM32F7xx/stm32f767xx.h"
 905              		.file 13 "../../modules/ChibiOS/os/common/ports/ARMCMx/chcore.h"
 906              		.file 14 "../../modules/ChibiOS/os/common/ports/ARMCMx/chcore_v7m.h"
 907              		.file 15 "../../modules/ChibiOS/os/hal/ports/STM32/LLD/TIMv1/stm32_tim.h"
 908              		.file 16 "../../modules/ChibiOS/os/rt/include/chtm.h"
 909              		.file 17 "../../modules/ChibiOS/os/rt/include/chstats.h"
 910              		.file 18 "../../modules/ChibiOS/os/rt/include/chsem.h"
 911              		.file 19 "../../modules/ChibiOS/os/rt/include/chmtx.h"
ARM GAS  /tmp/cc0MfFEA.s 			page 17


 912              		.file 20 "../../modules/ChibiOS/os/rt/include/chsys.h"
 913              		.file 21 "../../modules/ChibiOS/os/rt/include/chregistry.h"
 914              		.file 22 "../../modules/ChibiOS/os/rt/include/chevents.h"
 915              		.file 23 "../../modules/ChibiOS/os/oslib/include/chmemcore.h"
 916              		.file 24 "../../modules/ChibiOS/os/oslib/include/chmempools.h"
 917              		.file 25 "../../modules/ChibiOS/os/oslib/include/chfactory.h"
 918              		.file 26 "../../modules/ChibiOS/os/hal/ports/STM32/LLD/DMAv2/stm32_dma.h"
 919              		.file 27 "../../modules/ChibiOS/os/hal/include/hal_streams.h"
 920              		.file 28 "../../modules/ChibiOS/os/hal/include/hal_ioblock.h"
 921              		.file 29 "../../modules/ChibiOS/os/hal/include/hal_queues.h"
 922              		.file 30 "../../modules/ChibiOS/os/hal/include/hal_pal.h"
 923              		.file 31 "../../modules/ChibiOS/os/hal/ports/STM32/LLD/GPIOv2/stm32_gpio.h"
 924              		.file 32 "../../modules/ChibiOS/os/hal/ports/STM32/LLD/GPIOv2/hal_pal_lld.h"
 925              		.file 33 "../../modules/ChibiOS/os/hal/include/hal_adc.h"
 926              		.file 34 "../../modules/ChibiOS/os/hal/ports/STM32/LLD/ADCv2/hal_adc_lld.h"
 927              		.file 35 "../../modules/ChibiOS/os/hal/include/hal_i2c.h"
 928              		.file 36 "../../modules/ChibiOS/os/hal/ports/STM32/LLD/I2Cv2/hal_i2c_lld.h"
 929              		.file 37 "../../modules/ChibiOS/os/hal/include/hal_pwm.h"
 930              		.file 38 "../../modules/ChibiOS/os/hal/ports/STM32/LLD/TIMv1/hal_pwm_lld.h"
 931              		.file 39 "../../modules/ChibiOS/os/hal/include/hal_serial.h"
 932              		.file 40 "../../modules/ChibiOS/os/hal/ports/STM32/LLD/USARTv2/hal_serial_lld.h"
 933              		.file 41 "../../modules/ChibiOS/os/hal/include/hal_sdc.h"
 934              		.file 42 "../../modules/ChibiOS/os/hal/ports/STM32/LLD/SDMMCv1/hal_sdc_lld.h"
 935              		.file 43 "../../modules/ChibiOS/os/hal/include/hal_spi.h"
 936              		.file 44 "../../modules/ChibiOS/os/hal/ports/STM32/LLD/SPIv2/hal_spi_lld.h"
 937              		.file 45 "../../modules/ChibiOS/os/hal/include/hal_usb.h"
 938              		.file 46 "../../modules/ChibiOS/os/hal/ports/STM32/LLD/OTGv1/hal_usb_lld.h"
 939              		.file 47 "../../modules/ChibiOS/os/hal/ports/STM32/LLD/OTGv1/stm32_otg.h"
 940              		.file 48 "/opt/gcc-arm-none-eabi-6-2017-q2-update/lib/gcc/arm-none-eabi/6.3.1/include/stdarg.h"
 941              		.file 49 "<built-in>"
 942              		.file 50 "../../modules/ChibiOS/os/hal/lib/streams/memstreams.h"