ARM GAS  /tmp/ccRjr07H.s 			page 1


   1              		.cpu cortex-m7
   2              		.eabi_attribute 27, 1
   3              		.eabi_attribute 28, 1
   4              		.eabi_attribute 20, 1
   5              		.eabi_attribute 21, 1
   6              		.eabi_attribute 23, 3
   7              		.eabi_attribute 24, 1
   8              		.eabi_attribute 25, 1
   9              		.eabi_attribute 26, 1
  10              		.eabi_attribute 30, 4
  11              		.eabi_attribute 34, 1
  12              		.eabi_attribute 18, 4
  13              		.file	"chschd.c"
  14              		.text
  15              	.Ltext0:
  16              		.cfi_sections	.debug_frame
  17              		.section	.text._scheduler_init,"ax",%progbits
  18              		.align	1
  19              		.global	_scheduler_init
  20              		.syntax unified
  21              		.thumb
  22              		.thumb_func
  23              		.fpu fpv4-sp-d16
  24              		.type	_scheduler_init, %function
  25              	_scheduler_init:
  26              	.LFB301:
  27              		.file 1 "../../modules/ChibiOS/os/rt/src/chschd.c"
  28              		.loc 1 65 0
  29              		.cfi_startproc
  30              		@ args = 0, pretend = 0, frame = 0
  31              		@ frame_needed = 0, uses_anonymous_args = 0
  32              		@ link register save eliminated.
  33              	.LVL0:
  34              	.LBB66:
  35              	.LBB67:
  36              		.file 2 "../../modules/ChibiOS/os/rt/include/chschd.h"
  37              		.loc 2 539 0
  38 0000 034B     		ldr	r3, .L2
  39              	.LBE67:
  40              	.LBE66:
  41              		.loc 1 68 0
  42 0002 0022     		movs	r2, #0
  43              	.LBB69:
  44              	.LBB68:
  45              		.loc 2 539 0
  46 0004 1B60     		str	r3, [r3]
  47              		.loc 2 540 0
  48 0006 5B60     		str	r3, [r3, #4]
  49              	.LVL1:
  50              	.LBE68:
  51              	.LBE69:
  52              		.loc 1 68 0
  53 0008 9A60     		str	r2, [r3, #8]
  54              		.loc 1 70 0
  55 000a 1B61     		str	r3, [r3, #16]
  56              		.loc 1 71 0
  57 000c 5B61     		str	r3, [r3, #20]
ARM GAS  /tmp/ccRjr07H.s 			page 2


  58 000e 7047     		bx	lr
  59              	.L3:
  60              		.align	2
  61              	.L2:
  62 0010 00000000 		.word	.LANCHOR0
  63              		.cfi_endproc
  64              	.LFE301:
  65              		.size	_scheduler_init, .-_scheduler_init
  66              		.section	.text.chSchReadyI,"ax",%progbits
  67              		.align	1
  68              		.global	chSchReadyI
  69              		.syntax unified
  70              		.thumb
  71              		.thumb_func
  72              		.fpu fpv4-sp-d16
  73              		.type	chSchReadyI, %function
  74              	chSchReadyI:
  75              	.LFB302:
  76              		.loc 1 218 0
  77              		.cfi_startproc
  78              		@ args = 0, pretend = 0, frame = 0
  79              		@ frame_needed = 0, uses_anonymous_args = 0
  80              		@ link register save eliminated.
  81              	.LVL2:
  82              		.loc 1 227 0
  83 0000 0023     		movs	r3, #0
  84              		.loc 1 231 0
  85 0002 8268     		ldr	r2, [r0, #8]
  86              		.loc 1 227 0
  87 0004 80F82030 		strb	r3, [r0, #32]
  88              	.LVL3:
  89              		.loc 1 228 0
  90 0008 054B     		ldr	r3, .L7
  91              	.LVL4:
  92              	.L5:
  93              		.loc 1 230 0 discriminator 1
  94 000a 1B68     		ldr	r3, [r3]
  95              	.LVL5:
  96              		.loc 1 231 0 discriminator 1
  97 000c 9968     		ldr	r1, [r3, #8]
  98 000e 9142     		cmp	r1, r2
  99 0010 FBD2     		bcs	.L5
 100              		.loc 1 234 0
 101 0012 5A68     		ldr	r2, [r3, #4]
 102              		.loc 1 233 0
 103 0014 0360     		str	r3, [r0]
 104              		.loc 1 234 0
 105 0016 4260     		str	r2, [r0, #4]
 106              		.loc 1 235 0
 107 0018 1060     		str	r0, [r2]
 108              		.loc 1 236 0
 109 001a 5860     		str	r0, [r3, #4]
 110              		.loc 1 239 0
 111 001c 7047     		bx	lr
 112              	.L8:
 113 001e 00BF     		.align	2
 114              	.L7:
ARM GAS  /tmp/ccRjr07H.s 			page 3


 115 0020 00000000 		.word	.LANCHOR0
 116              		.cfi_endproc
 117              	.LFE302:
 118              		.size	chSchReadyI, .-chSchReadyI
 119              		.section	.text.wakeup,"ax",%progbits
 120              		.align	1
 121              		.syntax unified
 122              		.thumb
 123              		.thumb_func
 124              		.fpu fpv4-sp-d16
 125              		.type	wakeup, %function
 126              	wakeup:
 127              	.LFB305:
 128              		.loc 1 319 0
 129              		.cfi_startproc
 130              		@ args = 0, pretend = 0, frame = 0
 131              		@ frame_needed = 0, uses_anonymous_args = 0
 132              	.LVL6:
 133 0000 38B5     		push	{r3, r4, r5, lr}
 134              		.cfi_def_cfa_offset 16
 135              		.cfi_offset 3, -16
 136              		.cfi_offset 4, -12
 137              		.cfi_offset 5, -8
 138              		.cfi_offset 14, -4
 139              		.loc 1 319 0
 140 0002 0446     		mov	r4, r0
 141              	.LVL7:
 142              	.LBB92:
 143              	.LBB93:
 144              	.LBB94:
 145              	.LBB95:
 146              	.LBB96:
 147              	.LBB97:
 148              		.file 3 "../../modules/ChibiOS/os/common/ext/ARM/CMSIS/Core/Include/cmsis_gcc.h"
 149              		.loc 3 493 0
 150 0004 2023     		movs	r3, #32
 151              		.syntax unified
 152              	@ 493 "../../modules/ChibiOS/os/common/ext/ARM/CMSIS/Core/Include/cmsis_gcc.h" 1
 153 0006 83F31188 		MSR basepri, r3
 154              	@ 0 "" 2
 155              	.LVL8:
 156              		.thumb
 157              		.syntax unified
 158              	.LBE97:
 159              	.LBE96:
 160              	.LBE95:
 161              	.LBE94:
 162              		.file 4 "../../modules/ChibiOS/os/rt/include/chsys.h"
 163              		.loc 4 396 0
 164 000a FFF7FEFF 		bl	_stats_start_measure_crit_isr
 165              	.LVL9:
 166              	.LBE93:
 167              	.LBE92:
 168              		.loc 1 323 0
 169 000e 94F82030 		ldrb	r3, [r4, #32]	@ zero_extendqisi2
 170 0012 0025     		movs	r5, #0
 171 0014 072B     		cmp	r3, #7
ARM GAS  /tmp/ccRjr07H.s 			page 4


 172 0016 0CD8     		bhi	.L10
 173 0018 DFE803F0 		tbb	[pc, r3]
 174              	.L12:
 175 001c 04       		.byte	(.L11-.L12)/2
 176 001d 0B       		.byte	(.L10-.L12)/2
 177 001e 0B       		.byte	(.L10-.L12)/2
 178 001f 09       		.byte	(.L13-.L12)/2
 179 0020 1B       		.byte	(.L14-.L12)/2
 180 0021 17       		.byte	(.L15-.L12)/2
 181 0022 0B       		.byte	(.L10-.L12)/2
 182 0023 1B       		.byte	(.L14-.L12)/2
 183              		.p2align 1
 184              	.L11:
 185              	.LBB98:
 186              	.LBB99:
 187              		.loc 4 416 0
 188 0024 FFF7FEFF 		bl	_stats_stop_measure_crit_isr
 189              	.LVL10:
 190              	.LBB100:
 191              	.LBB101:
 192              	.LBB102:
 193              	.LBB103:
 194              		.loc 3 493 0
 195              		.syntax unified
 196              	@ 493 "../../modules/ChibiOS/os/common/ext/ARM/CMSIS/Core/Include/cmsis_gcc.h" 1
 197 0028 85F31188 		MSR basepri, r5
 198              	@ 0 "" 2
 199              	.LVL11:
 200              		.thumb
 201              		.syntax unified
 202 002c 38BD     		pop	{r3, r4, r5, pc}
 203              	.LVL12:
 204              	.L13:
 205              	.LBE103:
 206              	.LBE102:
 207              	.LBE101:
 208              	.LBE100:
 209              	.LBE99:
 210              	.LBE98:
 211              		.loc 1 330 0
 212 002e 636A     		ldr	r3, [r4, #36]
 213 0030 1D60     		str	r5, [r3]
 214              	.L10:
 215              		.loc 1 349 0
 216 0032 4FF0FF33 		mov	r3, #-1
 217              		.loc 1 350 0
 218 0036 2046     		mov	r0, r4
 219              		.loc 1 349 0
 220 0038 6362     		str	r3, [r4, #36]
 221              		.loc 1 350 0
 222 003a FFF7FEFF 		bl	chSchReadyI
 223              	.LVL13:
 224              	.LBB104:
 225              	.LBB105:
 226              		.loc 4 416 0
 227 003e FFF7FEFF 		bl	_stats_stop_measure_crit_isr
 228              	.LVL14:
ARM GAS  /tmp/ccRjr07H.s 			page 5


 229              	.LBB106:
 230              	.LBB107:
 231              	.LBB108:
 232              	.LBB109:
 233              		.loc 3 493 0
 234 0042 0023     		movs	r3, #0
 235              		.syntax unified
 236              	@ 493 "../../modules/ChibiOS/os/common/ext/ARM/CMSIS/Core/Include/cmsis_gcc.h" 1
 237 0044 83F31188 		MSR basepri, r3
 238              	@ 0 "" 2
 239              	.LVL15:
 240              		.thumb
 241              		.syntax unified
 242 0048 38BD     		pop	{r3, r4, r5, pc}
 243              	.LVL16:
 244              	.L15:
 245              	.LBE109:
 246              	.LBE108:
 247              	.LBE107:
 248              	.LBE106:
 249              	.LBE105:
 250              	.LBE104:
 251              		.loc 1 334 0
 252 004a 626A     		ldr	r2, [r4, #36]
 253              	.LVL17:
 254              	.LBB110:
 255              	.LBB111:
 256              		.file 5 "../../modules/ChibiOS/os/rt/include/chsem.h"
 257              		.loc 5 138 0
 258 004c 9368     		ldr	r3, [r2, #8]
 259 004e 0133     		adds	r3, r3, #1
 260 0050 9360     		str	r3, [r2, #8]
 261              	.LVL18:
 262              	.L14:
 263              	.LBE111:
 264              	.LBE110:
 265              	.LBB112:
 266              	.LBB113:
 267              		.loc 2 626 0
 268 0052 94E80C00 		ldm	r4, {r2, r3}
 269 0056 1A60     		str	r2, [r3]
 270              		.loc 2 627 0
 271 0058 2268     		ldr	r2, [r4]
 272 005a 5360     		str	r3, [r2, #4]
 273 005c E9E7     		b	.L10
 274              	.LBE113:
 275              	.LBE112:
 276              		.cfi_endproc
 277              	.LFE305:
 278              		.size	wakeup, .-wakeup
 279              		.section	.text.chSchReadyAheadI,"ax",%progbits
 280              		.align	1
 281              		.global	chSchReadyAheadI
 282              		.syntax unified
 283              		.thumb
 284              		.thumb_func
 285              		.fpu fpv4-sp-d16
ARM GAS  /tmp/ccRjr07H.s 			page 6


 286              		.type	chSchReadyAheadI, %function
 287              	chSchReadyAheadI:
 288              	.LFB303:
 289              		.loc 1 257 0
 290              		.cfi_startproc
 291              		@ args = 0, pretend = 0, frame = 0
 292              		@ frame_needed = 0, uses_anonymous_args = 0
 293              		@ link register save eliminated.
 294              	.LVL19:
 295              		.loc 1 266 0
 296 0000 0023     		movs	r3, #0
 297              		.loc 1 270 0
 298 0002 8268     		ldr	r2, [r0, #8]
 299              		.loc 1 266 0
 300 0004 80F82030 		strb	r3, [r0, #32]
 301              	.LVL20:
 302              		.loc 1 267 0
 303 0008 054B     		ldr	r3, .L20
 304              	.LVL21:
 305              	.L18:
 306              		.loc 1 269 0 discriminator 1
 307 000a 1B68     		ldr	r3, [r3]
 308              	.LVL22:
 309              		.loc 1 270 0 discriminator 1
 310 000c 9968     		ldr	r1, [r3, #8]
 311 000e 9142     		cmp	r1, r2
 312 0010 FBD8     		bhi	.L18
 313              		.loc 1 273 0
 314 0012 5A68     		ldr	r2, [r3, #4]
 315              		.loc 1 272 0
 316 0014 0360     		str	r3, [r0]
 317              		.loc 1 273 0
 318 0016 4260     		str	r2, [r0, #4]
 319              		.loc 1 274 0
 320 0018 1060     		str	r0, [r2]
 321              		.loc 1 275 0
 322 001a 5860     		str	r0, [r3, #4]
 323              		.loc 1 278 0
 324 001c 7047     		bx	lr
 325              	.L21:
 326 001e 00BF     		.align	2
 327              	.L20:
 328 0020 00000000 		.word	.LANCHOR0
 329              		.cfi_endproc
 330              	.LFE303:
 331              		.size	chSchReadyAheadI, .-chSchReadyAheadI
 332              		.section	.text.chSchGoSleepS,"ax",%progbits
 333              		.align	1
 334              		.global	chSchGoSleepS
 335              		.syntax unified
 336              		.thumb
 337              		.thumb_func
 338              		.fpu fpv4-sp-d16
 339              		.type	chSchGoSleepS, %function
 340              	chSchGoSleepS:
 341              	.LFB304:
 342              		.loc 1 289 0
ARM GAS  /tmp/ccRjr07H.s 			page 7


 343              		.cfi_startproc
 344              		@ args = 0, pretend = 0, frame = 0
 345              		@ frame_needed = 0, uses_anonymous_args = 0
 346              	.LVL23:
 347 0000 38B5     		push	{r3, r4, r5, lr}
 348              		.cfi_def_cfa_offset 16
 349              		.cfi_offset 3, -16
 350              		.cfi_offset 4, -12
 351              		.cfi_offset 5, -8
 352              		.cfi_offset 14, -4
 353              		.loc 1 290 0
 354 0002 0F4C     		ldr	r4, .L24
 355 0004 A569     		ldr	r5, [r4, #24]
 356              	.LVL24:
 357              		.loc 1 295 0
 358 0006 85F82000 		strb	r0, [r5, #32]
 359              	.LVL25:
 360              		.loc 1 313 0
 361 000a 2946     		mov	r1, r5
 362              	.LBB114:
 363              	.LBB115:
 364              		.loc 2 607 0
 365 000c 2068     		ldr	r0, [r4]
 366              	.LVL26:
 367              		.loc 2 609 0
 368 000e 0368     		ldr	r3, [r0]
 369              		.loc 2 610 0
 370 0010 5C60     		str	r4, [r3, #4]
 371              	.LVL27:
 372              		.loc 2 609 0
 373 0012 2360     		str	r3, [r4]
 374              	.LBE115:
 375              	.LBE114:
 376              		.loc 1 305 0
 377 0014 0123     		movs	r3, #1
 378              		.loc 1 304 0
 379 0016 A061     		str	r0, [r4, #24]
 380              		.loc 1 305 0
 381 0018 80F82030 		strb	r3, [r0, #32]
 382              		.loc 1 313 0
 383 001c FFF7FEFF 		bl	_stats_ctxswc
 384              	.LVL28:
 385              	.LBB116:
 386              	.LBB117:
 387              	.LBB118:
 388              		.loc 3 251 0
 389              		.syntax unified
 390              	@ 251 "../../modules/ChibiOS/os/common/ext/ARM/CMSIS/Core/Include/cmsis_gcc.h" 1
 391 0020 EFF30983 		MRS r3, psp
 392              	@ 0 "" 2
 393              	.LVL29:
 394              		.thumb
 395              		.syntax unified
 396              	.LBE118:
 397              	.LBE117:
 398              		.loc 1 313 0
 399 0024 643B     		subs	r3, r3, #100
ARM GAS  /tmp/ccRjr07H.s 			page 8


 400              	.LVL30:
 401 0026 EA69     		ldr	r2, [r5, #28]
 402 0028 9A42     		cmp	r2, r3
 403 002a 02D9     		bls	.L23
 404              		.loc 1 313 0 is_stmt 0 discriminator 1
 405 002c 0548     		ldr	r0, .L24+4
 406 002e FFF7FEFF 		bl	chSysHalt
 407              	.LVL31:
 408              	.L23:
 409              		.loc 1 313 0 discriminator 3
 410 0032 2946     		mov	r1, r5
 411 0034 A069     		ldr	r0, [r4, #24]
 412              	.LBE116:
 413              		.loc 1 314 0 is_stmt 1 discriminator 3
 414 0036 BDE83840 		pop	{r3, r4, r5, lr}
 415              		.cfi_restore 14
 416              		.cfi_restore 5
 417              		.cfi_restore 4
 418              		.cfi_restore 3
 419              		.cfi_def_cfa_offset 0
 420              	.LVL32:
 421              	.LBB119:
 422              		.loc 1 313 0 discriminator 3
 423 003a FFF7FEBF 		b	_port_switch
 424              	.LVL33:
 425              	.L25:
 426 003e 00BF     		.align	2
 427              	.L24:
 428 0040 00000000 		.word	.LANCHOR0
 429 0044 00000000 		.word	.LC0
 430              	.LBE119:
 431              		.cfi_endproc
 432              	.LFE304:
 433              		.size	chSchGoSleepS, .-chSchGoSleepS
 434              		.section	.text.chSchGoSleepTimeoutS,"ax",%progbits
 435              		.align	1
 436              		.global	chSchGoSleepTimeoutS
 437              		.syntax unified
 438              		.thumb
 439              		.thumb_func
 440              		.fpu fpv4-sp-d16
 441              		.type	chSchGoSleepTimeoutS, %function
 442              	chSchGoSleepTimeoutS:
 443              	.LFB306:
 444              		.loc 1 375 0
 445              		.cfi_startproc
 446              		@ args = 0, pretend = 0, frame = 24
 447              		@ frame_needed = 0, uses_anonymous_args = 0
 448              	.LVL34:
 449              		.loc 1 379 0
 450 0000 4B1C     		adds	r3, r1, #1
 451              		.loc 1 375 0
 452 0002 30B5     		push	{r4, r5, lr}
 453              		.cfi_def_cfa_offset 12
 454              		.cfi_offset 4, -12
 455              		.cfi_offset 5, -8
 456              		.cfi_offset 14, -4
ARM GAS  /tmp/ccRjr07H.s 			page 9


 457 0004 0546     		mov	r5, r0
 458 0006 87B0     		sub	sp, sp, #28
 459              		.cfi_def_cfa_offset 40
 460 0008 0A4C     		ldr	r4, .L33
 461              		.loc 1 379 0
 462 000a 10D0     		beq	.L27
 463              	.LBB120:
 464              		.loc 1 382 0
 465 000c A369     		ldr	r3, [r4, #24]
 466 000e 01A8     		add	r0, sp, #4
 467              	.LVL35:
 468 0010 094A     		ldr	r2, .L33+4
 469 0012 FFF7FEFF 		bl	chVTDoSetI
 470              	.LVL36:
 471              		.loc 1 383 0
 472 0016 2846     		mov	r0, r5
 473 0018 FFF7FEFF 		bl	chSchGoSleepS
 474              	.LVL37:
 475              		.loc 1 384 0
 476 001c 049B     		ldr	r3, [sp, #16]
 477 001e 13B1     		cbz	r3, .L29
 478              		.loc 1 385 0
 479 0020 01A8     		add	r0, sp, #4
 480              	.LVL38:
 481 0022 FFF7FEFF 		bl	chVTDoResetI
 482              	.LVL39:
 483              	.L29:
 484              	.LBE120:
 485              		.loc 1 392 0
 486 0026 A369     		ldr	r3, [r4, #24]
 487              		.loc 1 393 0
 488 0028 586A     		ldr	r0, [r3, #36]
 489 002a 07B0     		add	sp, sp, #28
 490              		.cfi_remember_state
 491              		.cfi_def_cfa_offset 12
 492              		@ sp needed
 493 002c 30BD     		pop	{r4, r5, pc}
 494              	.LVL40:
 495              	.L27:
 496              		.cfi_restore_state
 497              		.loc 1 389 0
 498 002e FFF7FEFF 		bl	chSchGoSleepS
 499              	.LVL41:
 500 0032 F8E7     		b	.L29
 501              	.L34:
 502              		.align	2
 503              	.L33:
 504 0034 00000000 		.word	.LANCHOR0
 505 0038 00000000 		.word	wakeup
 506              		.cfi_endproc
 507              	.LFE306:
 508              		.size	chSchGoSleepTimeoutS, .-chSchGoSleepTimeoutS
 509              		.section	.text.chSchWakeupS,"ax",%progbits
 510              		.align	1
 511              		.global	chSchWakeupS
 512              		.syntax unified
 513              		.thumb
ARM GAS  /tmp/ccRjr07H.s 			page 10


 514              		.thumb_func
 515              		.fpu fpv4-sp-d16
 516              		.type	chSchWakeupS, %function
 517              	chSchWakeupS:
 518              	.LFB307:
 519              		.loc 1 412 0
 520              		.cfi_startproc
 521              		@ args = 0, pretend = 0, frame = 0
 522              		@ frame_needed = 0, uses_anonymous_args = 0
 523              	.LVL42:
 524 0000 70B5     		push	{r4, r5, r6, lr}
 525              		.cfi_def_cfa_offset 16
 526              		.cfi_offset 4, -16
 527              		.cfi_offset 5, -12
 528              		.cfi_offset 6, -8
 529              		.cfi_offset 14, -4
 530              		.loc 1 413 0
 531 0002 134E     		ldr	r6, .L38
 532              		.loc 1 412 0
 533 0004 0446     		mov	r4, r0
 534              		.loc 1 423 0
 535 0006 4162     		str	r1, [r0, #36]
 536              		.loc 1 413 0
 537 0008 B369     		ldr	r3, [r6, #24]
 538              	.LVL43:
 539              		.loc 1 429 0
 540 000a 8168     		ldr	r1, [r0, #8]
 541              	.LVL44:
 542 000c 9A68     		ldr	r2, [r3, #8]
 543 000e 9142     		cmp	r1, r2
 544 0010 03D8     		bhi	.L36
 545              		.loc 1 447 0
 546 0012 BDE87040 		pop	{r4, r5, r6, lr}
 547              		.cfi_remember_state
 548              		.cfi_restore 14
 549              		.cfi_restore 6
 550              		.cfi_restore 5
 551              		.cfi_restore 4
 552              		.cfi_def_cfa_offset 0
 553              		.loc 1 430 0
 554 0016 FFF7FEBF 		b	chSchReadyI
 555              	.LVL45:
 556              	.L36:
 557              		.cfi_restore_state
 558              		.loc 1 433 0
 559 001a 1846     		mov	r0, r3
 560              	.LVL46:
 561 001c FFF7FEFF 		bl	chSchReadyI
 562              	.LVL47:
 563              		.loc 1 442 0
 564 0020 0123     		movs	r3, #1
 565              		.loc 1 445 0
 566 0022 0146     		mov	r1, r0
 567              		.loc 1 433 0
 568 0024 0546     		mov	r5, r0
 569              	.LVL48:
 570              		.loc 1 442 0
ARM GAS  /tmp/ccRjr07H.s 			page 11


 571 0026 84F82030 		strb	r3, [r4, #32]
 572              		.loc 1 445 0
 573 002a 2046     		mov	r0, r4
 574              	.LVL49:
 575              		.loc 1 441 0
 576 002c B461     		str	r4, [r6, #24]
 577              		.loc 1 445 0
 578 002e FFF7FEFF 		bl	_stats_ctxswc
 579              	.LVL50:
 580              	.LBB121:
 581              	.LBB122:
 582              	.LBB123:
 583              		.loc 3 251 0
 584              		.syntax unified
 585              	@ 251 "../../modules/ChibiOS/os/common/ext/ARM/CMSIS/Core/Include/cmsis_gcc.h" 1
 586 0032 EFF30983 		MRS r3, psp
 587              	@ 0 "" 2
 588              	.LVL51:
 589              		.thumb
 590              		.syntax unified
 591              	.LBE123:
 592              	.LBE122:
 593              		.loc 1 445 0
 594 0036 643B     		subs	r3, r3, #100
 595              	.LVL52:
 596 0038 EA69     		ldr	r2, [r5, #28]
 597 003a 9A42     		cmp	r2, r3
 598 003c 02D9     		bls	.L37
 599              		.loc 1 445 0 is_stmt 0 discriminator 1
 600 003e 0548     		ldr	r0, .L38+4
 601 0040 FFF7FEFF 		bl	chSysHalt
 602              	.LVL53:
 603              	.L37:
 604              		.loc 1 445 0 discriminator 3
 605 0044 2946     		mov	r1, r5
 606 0046 2046     		mov	r0, r4
 607              	.LBE121:
 608              		.loc 1 447 0 is_stmt 1 discriminator 3
 609 0048 BDE87040 		pop	{r4, r5, r6, lr}
 610              		.cfi_restore 14
 611              		.cfi_restore 6
 612              		.cfi_restore 5
 613              		.cfi_restore 4
 614              		.cfi_def_cfa_offset 0
 615              	.LVL54:
 616              	.LBB124:
 617              		.loc 1 445 0 discriminator 3
 618 004c FFF7FEBF 		b	_port_switch
 619              	.LVL55:
 620              	.L39:
 621              		.align	2
 622              	.L38:
 623 0050 00000000 		.word	.LANCHOR0
 624 0054 00000000 		.word	.LC0
 625              	.LBE124:
 626              		.cfi_endproc
 627              	.LFE307:
ARM GAS  /tmp/ccRjr07H.s 			page 12


 628              		.size	chSchWakeupS, .-chSchWakeupS
 629              		.section	.text.chSchIsPreemptionRequired,"ax",%progbits
 630              		.align	1
 631              		.global	chSchIsPreemptionRequired
 632              		.syntax unified
 633              		.thumb
 634              		.thumb_func
 635              		.fpu fpv4-sp-d16
 636              		.type	chSchIsPreemptionRequired, %function
 637              	chSchIsPreemptionRequired:
 638              	.LFB309:
 639              		.loc 1 479 0
 640              		.cfi_startproc
 641              		@ args = 0, pretend = 0, frame = 0
 642              		@ frame_needed = 0, uses_anonymous_args = 0
 643              		@ link register save eliminated.
 644              	.LVL56:
 645              		.loc 1 480 0
 646 0000 044B     		ldr	r3, .L41
 647 0002 1A68     		ldr	r2, [r3]
 648              		.loc 1 481 0
 649 0004 9B69     		ldr	r3, [r3, #24]
 650              		.loc 1 492 0
 651 0006 9068     		ldr	r0, [r2, #8]
 652 0008 9B68     		ldr	r3, [r3, #8]
 653              		.loc 1 494 0
 654 000a 9842     		cmp	r0, r3
 655 000c 94BF     		ite	ls
 656 000e 0020     		movls	r0, #0
 657 0010 0120     		movhi	r0, #1
 658 0012 7047     		bx	lr
 659              	.L42:
 660              		.align	2
 661              	.L41:
 662 0014 00000000 		.word	.LANCHOR0
 663              		.cfi_endproc
 664              	.LFE309:
 665              		.size	chSchIsPreemptionRequired, .-chSchIsPreemptionRequired
 666              		.thumb_set chSchIsRescRequiredI,chSchIsPreemptionRequired
 667              		.section	.text.chSchDoRescheduleBehind,"ax",%progbits
 668              		.align	1
 669              		.global	chSchDoRescheduleBehind
 670              		.syntax unified
 671              		.thumb
 672              		.thumb_func
 673              		.fpu fpv4-sp-d16
 674              		.type	chSchDoRescheduleBehind, %function
 675              	chSchDoRescheduleBehind:
 676              	.LFB310:
 677              		.loc 1 507 0
 678              		.cfi_startproc
 679              		@ args = 0, pretend = 0, frame = 0
 680              		@ frame_needed = 0, uses_anonymous_args = 0
 681 0000 38B5     		push	{r3, r4, r5, lr}
 682              		.cfi_def_cfa_offset 16
 683              		.cfi_offset 3, -16
 684              		.cfi_offset 4, -12
ARM GAS  /tmp/ccRjr07H.s 			page 13


 685              		.cfi_offset 5, -8
 686              		.cfi_offset 14, -4
 687              		.loc 1 508 0
 688 0002 104C     		ldr	r4, .L45
 689              	.LBB125:
 690              	.LBB126:
 691              		.loc 2 607 0
 692 0004 2368     		ldr	r3, [r4]
 693              	.LBE126:
 694              	.LBE125:
 695              		.loc 1 508 0
 696 0006 A069     		ldr	r0, [r4, #24]
 697              	.LVL57:
 698              	.LBB128:
 699              	.LBB127:
 700              		.loc 2 609 0
 701 0008 1A68     		ldr	r2, [r3]
 702              		.loc 2 610 0
 703 000a 5460     		str	r4, [r2, #4]
 704              	.LVL58:
 705              		.loc 2 609 0
 706 000c 2260     		str	r2, [r4]
 707              	.LBE127:
 708              	.LBE128:
 709              		.loc 1 512 0
 710 000e 0122     		movs	r2, #1
 711              		.loc 1 511 0
 712 0010 A361     		str	r3, [r4, #24]
 713              		.loc 1 512 0
 714 0012 83F82020 		strb	r2, [r3, #32]
 715              		.loc 1 525 0
 716 0016 FFF7FEFF 		bl	chSchReadyI
 717              	.LVL59:
 718              		.loc 1 528 0
 719 001a 0146     		mov	r1, r0
 720              		.loc 1 525 0
 721 001c 0546     		mov	r5, r0
 722              	.LVL60:
 723              		.loc 1 528 0
 724 001e A069     		ldr	r0, [r4, #24]
 725              	.LVL61:
 726 0020 FFF7FEFF 		bl	_stats_ctxswc
 727              	.LVL62:
 728              	.LBB129:
 729              	.LBB130:
 730              	.LBB131:
 731              		.loc 3 251 0
 732              		.syntax unified
 733              	@ 251 "../../modules/ChibiOS/os/common/ext/ARM/CMSIS/Core/Include/cmsis_gcc.h" 1
 734 0024 EFF30983 		MRS r3, psp
 735              	@ 0 "" 2
 736              	.LVL63:
 737              		.thumb
 738              		.syntax unified
 739              	.LBE131:
 740              	.LBE130:
 741              		.loc 1 528 0
ARM GAS  /tmp/ccRjr07H.s 			page 14


 742 0028 643B     		subs	r3, r3, #100
 743              	.LVL64:
 744 002a EA69     		ldr	r2, [r5, #28]
 745 002c 9A42     		cmp	r2, r3
 746 002e 02D9     		bls	.L44
 747              		.loc 1 528 0 is_stmt 0 discriminator 1
 748 0030 0548     		ldr	r0, .L45+4
 749 0032 FFF7FEFF 		bl	chSysHalt
 750              	.LVL65:
 751              	.L44:
 752              		.loc 1 528 0 discriminator 3
 753 0036 2946     		mov	r1, r5
 754 0038 A069     		ldr	r0, [r4, #24]
 755              	.LBE129:
 756              		.loc 1 529 0 is_stmt 1 discriminator 3
 757 003a BDE83840 		pop	{r3, r4, r5, lr}
 758              		.cfi_restore 14
 759              		.cfi_restore 5
 760              		.cfi_restore 4
 761              		.cfi_restore 3
 762              		.cfi_def_cfa_offset 0
 763              	.LVL66:
 764              	.LBB132:
 765              		.loc 1 528 0 discriminator 3
 766 003e FFF7FEBF 		b	_port_switch
 767              	.LVL67:
 768              	.L46:
 769 0042 00BF     		.align	2
 770              	.L45:
 771 0044 00000000 		.word	.LANCHOR0
 772 0048 00000000 		.word	.LC0
 773              	.LBE132:
 774              		.cfi_endproc
 775              	.LFE310:
 776              		.size	chSchDoRescheduleBehind, .-chSchDoRescheduleBehind
 777              		.section	.text.chSchDoReschedule,"ax",%progbits
 778              		.align	1
 779              		.global	chSchDoReschedule
 780              		.syntax unified
 781              		.thumb
 782              		.thumb_func
 783              		.fpu fpv4-sp-d16
 784              		.type	chSchDoReschedule, %function
 785              	chSchDoReschedule:
 786              	.LFB312:
 787              		.loc 1 570 0
 788              		.cfi_startproc
 789              		@ args = 0, pretend = 0, frame = 0
 790              		@ frame_needed = 0, uses_anonymous_args = 0
 791 0000 38B5     		push	{r3, r4, r5, lr}
 792              		.cfi_def_cfa_offset 16
 793              		.cfi_offset 3, -16
 794              		.cfi_offset 4, -12
 795              		.cfi_offset 5, -8
 796              		.cfi_offset 14, -4
 797              		.loc 1 571 0
 798 0002 104C     		ldr	r4, .L49
ARM GAS  /tmp/ccRjr07H.s 			page 15


 799              	.LBB133:
 800              	.LBB134:
 801              		.loc 2 607 0
 802 0004 2368     		ldr	r3, [r4]
 803              	.LBE134:
 804              	.LBE133:
 805              		.loc 1 571 0
 806 0006 A069     		ldr	r0, [r4, #24]
 807              	.LVL68:
 808              	.LBB136:
 809              	.LBB135:
 810              		.loc 2 609 0
 811 0008 1A68     		ldr	r2, [r3]
 812              		.loc 2 610 0
 813 000a 5460     		str	r4, [r2, #4]
 814              	.LVL69:
 815              		.loc 2 609 0
 816 000c 2260     		str	r2, [r4]
 817              	.LBE135:
 818              	.LBE136:
 819              		.loc 1 575 0
 820 000e 0122     		movs	r2, #1
 821              		.loc 1 574 0
 822 0010 A361     		str	r3, [r4, #24]
 823              		.loc 1 575 0
 824 0012 83F82020 		strb	r2, [r3, #32]
 825              		.loc 1 602 0
 826 0016 FFF7FEFF 		bl	chSchReadyAheadI
 827              	.LVL70:
 828              		.loc 1 606 0
 829 001a 0146     		mov	r1, r0
 830              		.loc 1 602 0
 831 001c 0546     		mov	r5, r0
 832              	.LVL71:
 833              		.loc 1 606 0
 834 001e A069     		ldr	r0, [r4, #24]
 835              	.LVL72:
 836 0020 FFF7FEFF 		bl	_stats_ctxswc
 837              	.LVL73:
 838              	.LBB137:
 839              	.LBB138:
 840              	.LBB139:
 841              		.loc 3 251 0
 842              		.syntax unified
 843              	@ 251 "../../modules/ChibiOS/os/common/ext/ARM/CMSIS/Core/Include/cmsis_gcc.h" 1
 844 0024 EFF30983 		MRS r3, psp
 845              	@ 0 "" 2
 846              	.LVL74:
 847              		.thumb
 848              		.syntax unified
 849              	.LBE139:
 850              	.LBE138:
 851              		.loc 1 606 0
 852 0028 643B     		subs	r3, r3, #100
 853              	.LVL75:
 854 002a EA69     		ldr	r2, [r5, #28]
 855 002c 9A42     		cmp	r2, r3
ARM GAS  /tmp/ccRjr07H.s 			page 16


 856 002e 02D9     		bls	.L48
 857              		.loc 1 606 0 is_stmt 0 discriminator 1
 858 0030 0548     		ldr	r0, .L49+4
 859 0032 FFF7FEFF 		bl	chSysHalt
 860              	.LVL76:
 861              	.L48:
 862              		.loc 1 606 0 discriminator 3
 863 0036 2946     		mov	r1, r5
 864 0038 A069     		ldr	r0, [r4, #24]
 865              	.LBE137:
 866              		.loc 1 607 0 is_stmt 1 discriminator 3
 867 003a BDE83840 		pop	{r3, r4, r5, lr}
 868              		.cfi_restore 14
 869              		.cfi_restore 5
 870              		.cfi_restore 4
 871              		.cfi_restore 3
 872              		.cfi_def_cfa_offset 0
 873              	.LVL77:
 874              	.LBB140:
 875              		.loc 1 606 0 discriminator 3
 876 003e FFF7FEBF 		b	_port_switch
 877              	.LVL78:
 878              	.L50:
 879 0042 00BF     		.align	2
 880              	.L49:
 881 0044 00000000 		.word	.LANCHOR0
 882 0048 00000000 		.word	.LC0
 883              	.LBE140:
 884              		.cfi_endproc
 885              	.LFE312:
 886              		.size	chSchDoReschedule, .-chSchDoReschedule
 887              		.section	.text.chSchRescheduleS,"ax",%progbits
 888              		.align	1
 889              		.global	chSchRescheduleS
 890              		.syntax unified
 891              		.thumb
 892              		.thumb_func
 893              		.fpu fpv4-sp-d16
 894              		.type	chSchRescheduleS, %function
 895              	chSchRescheduleS:
 896              	.LFB308:
 897              		.loc 1 456 0
 898              		.cfi_startproc
 899              		@ args = 0, pretend = 0, frame = 0
 900              		@ frame_needed = 0, uses_anonymous_args = 0
 901 0000 08B5     		push	{r3, lr}
 902              		.cfi_def_cfa_offset 8
 903              		.cfi_offset 3, -8
 904              		.cfi_offset 14, -4
 905              		.loc 1 460 0
 906 0002 FFF7FEFF 		bl	chSchIsRescRequiredI
 907              	.LVL79:
 908 0006 18B1     		cbz	r0, .L51
 909              		.loc 1 463 0
 910 0008 BDE80840 		pop	{r3, lr}
 911              		.cfi_remember_state
 912              		.cfi_restore 14
ARM GAS  /tmp/ccRjr07H.s 			page 17


 913              		.cfi_restore 3
 914              		.cfi_def_cfa_offset 0
 915              		.loc 1 461 0
 916 000c FFF7FEBF 		b	chSchDoReschedule
 917              	.LVL80:
 918              	.L51:
 919              		.cfi_restore_state
 920 0010 08BD     		pop	{r3, pc}
 921              		.cfi_endproc
 922              	.LFE308:
 923              		.size	chSchRescheduleS, .-chSchRescheduleS
 924              		.section	.text.chSchDoRescheduleAhead,"ax",%progbits
 925              		.align	1
 926              		.global	chSchDoRescheduleAhead
 927              		.syntax unified
 928              		.thumb
 929              		.thumb_func
 930              		.fpu fpv4-sp-d16
 931              		.type	chSchDoRescheduleAhead, %function
 932              	chSchDoRescheduleAhead:
 933              	.LFB316:
 934              		.cfi_startproc
 935              		@ args = 0, pretend = 0, frame = 0
 936              		@ frame_needed = 0, uses_anonymous_args = 0
 937              		@ link register save eliminated.
 938 0000 FFF7FEBF 		b	chSchDoReschedule
 939              		.cfi_endproc
 940              	.LFE316:
 941              		.size	chSchDoRescheduleAhead, .-chSchDoRescheduleAhead
 942              		.global	ch
 943              		.section	.bss.ch,"aw",%nobits
 944              		.align	3
 945              		.set	.LANCHOR0,. + 0
 946              		.type	ch, %object
 947              		.size	ch, 208
 948              	ch:
 949 0000 00000000 		.space	208
 949      00000000 
 949      00000000 
 949      00000000 
 949      00000000 
 950              		.section	.rodata.chSchGoSleepS.str1.1,"aMS",%progbits,1
 951              	.LC0:
 952 0000 73746163 		.ascii	"stack overflow\000"
 952      6B206F76 
 952      6572666C 
 952      6F7700
 953              		.text
 954              	.Letext0:
 955              		.file 6 "/opt/gcc-arm-none-eabi-6-2017-q2-update/lib/gcc/arm-none-eabi/6.3.1/include/stddef.h"
 956              		.file 7 "/opt/gcc-arm-none-eabi-6-2017-q2-update/arm-none-eabi/include/machine/_default_types.h"
 957              		.file 8 "/opt/gcc-arm-none-eabi-6-2017-q2-update/arm-none-eabi/include/sys/_stdint.h"
 958              		.file 9 "../../modules/ChibiOS/os/common/ports/ARMCMx/compilers/GCC/chtypes.h"
 959              		.file 10 "../../modules/ChibiOS/os/rt/include/chsystypes.h"
 960              		.file 11 "../../modules/ChibiOS/os/rt/include/chtime.h"
 961              		.file 12 "../../modules/ChibiOS/os/common/ext/ARM/CMSIS/Core/Include/core_cm7.h"
 962              		.file 13 "../../modules/ChibiOS/os/common/ext/ST/STM32F7xx/system_stm32f7xx.h"
ARM GAS  /tmp/ccRjr07H.s 			page 18


 963              		.file 14 "../../modules/ChibiOS/os/common/ports/ARMCMx/chcore.h"
 964              		.file 15 "../../modules/ChibiOS/os/common/ports/ARMCMx/chcore_v7m.h"
 965              		.file 16 "../../modules/ChibiOS/os/rt/include/chtm.h"
 966              		.file 17 "../../modules/ChibiOS/os/rt/include/chstats.h"
 967              		.file 18 "../../modules/ChibiOS/os/rt/include/chmtx.h"
 968              		.file 19 "../../modules/ChibiOS/os/rt/include/chregistry.h"
 969              		.file 20 "../../modules/ChibiOS/os/oslib/include/chmemcore.h"
 970              		.file 21 "../../modules/ChibiOS/os/oslib/include/chmempools.h"
 971              		.file 22 "../../modules/ChibiOS/os/oslib/include/chfactory.h"
 972              		.file 23 "../../modules/ChibiOS/os/rt/include/chvt.h"
 973              		.file 24 "../../modules/ChibiOS/os/rt/include/ch.h"