ARM GAS  /tmp/ccWyQRpK.s 			page 1


   1              		.cpu cortex-m7
   2              		.eabi_attribute 27, 1
   3              		.eabi_attribute 28, 1
   4              		.eabi_attribute 20, 1
   5              		.eabi_attribute 21, 1
   6              		.eabi_attribute 23, 3
   7              		.eabi_attribute 24, 1
   8              		.eabi_attribute 25, 1
   9              		.eabi_attribute 26, 1
  10              		.eabi_attribute 30, 4
  11              		.eabi_attribute 34, 1
  12              		.eabi_attribute 18, 4
  13              		.file	"chstats.c"
  14              		.text
  15              	.Ltext0:
  16              		.cfi_sections	.debug_frame
  17              		.section	.text._stats_init,"ax",%progbits
  18              		.align	1
  19              		.global	_stats_init
  20              		.syntax unified
  21              		.thumb
  22              		.thumb_func
  23              		.fpu fpv4-sp-d16
  24              		.type	_stats_init, %function
  25              	_stats_init:
  26              	.LFB301:
  27              		.file 1 "../../modules/ChibiOS/os/rt/src/chstats.c"
  28              		.loc 1 62 0
  29              		.cfi_startproc
  30              		@ args = 0, pretend = 0, frame = 0
  31              		@ frame_needed = 0, uses_anonymous_args = 0
  32 0000 10B5     		push	{r4, lr}
  33              		.cfi_def_cfa_offset 8
  34              		.cfi_offset 4, -8
  35              		.cfi_offset 14, -4
  36              		.loc 1 64 0
  37 0002 084C     		ldr	r4, .L2
  38 0004 0023     		movs	r3, #0
  39              		.loc 1 66 0
  40 0006 04F1A000 		add	r0, r4, #160
  41              		.loc 1 64 0
  42 000a C4F89830 		str	r3, [r4, #152]
  43              		.loc 1 65 0
  44 000e C4F89C30 		str	r3, [r4, #156]
  45              		.loc 1 66 0
  46 0012 FFF7FEFF 		bl	chTMObjectInit
  47              	.LVL0:
  48              		.loc 1 67 0
  49 0016 04F1B800 		add	r0, r4, #184
  50              		.loc 1 68 0
  51 001a BDE81040 		pop	{r4, lr}
  52              		.cfi_restore 14
  53              		.cfi_restore 4
  54              		.cfi_def_cfa_offset 0
  55              		.loc 1 67 0
  56 001e FFF7FEBF 		b	chTMObjectInit
  57              	.LVL1:
ARM GAS  /tmp/ccWyQRpK.s 			page 2


  58              	.L3:
  59 0022 00BF     		.align	2
  60              	.L2:
  61 0024 00000000 		.word	ch
  62              		.cfi_endproc
  63              	.LFE301:
  64              		.size	_stats_init, .-_stats_init
  65              		.section	.text._stats_increase_irq,"ax",%progbits
  66              		.align	1
  67              		.global	_stats_increase_irq
  68              		.syntax unified
  69              		.thumb
  70              		.thumb_func
  71              		.fpu fpv4-sp-d16
  72              		.type	_stats_increase_irq, %function
  73              	_stats_increase_irq:
  74              	.LFB302:
  75              		.loc 1 73 0
  76              		.cfi_startproc
  77              		@ args = 0, pretend = 0, frame = 0
  78              		@ frame_needed = 0, uses_anonymous_args = 0
  79              		@ link register save eliminated.
  80              	.LVL2:
  81              	.LBB24:
  82              	.LBB25:
  83              	.LBB26:
  84              	.LBB27:
  85              		.file 2 "../../modules/ChibiOS/os/common/ext/ARM/CMSIS/Core/Include/cmsis_gcc.h"
  86              		.loc 2 493 0
  87 0000 2023     		movs	r3, #32
  88              		.syntax unified
  89              	@ 493 "../../modules/ChibiOS/os/common/ext/ARM/CMSIS/Core/Include/cmsis_gcc.h" 1
  90 0002 83F31188 		MSR basepri, r3
  91              	@ 0 "" 2
  92              	.LVL3:
  93              		.thumb
  94              		.syntax unified
  95              	.LBE27:
  96              	.LBE26:
  97              	.LBE25:
  98              	.LBE24:
  99              		.loc 1 76 0
 100 0006 054A     		ldr	r2, .L5
 101 0008 D2F89830 		ldr	r3, [r2, #152]
 102 000c 0133     		adds	r3, r3, #1
 103 000e C2F89830 		str	r3, [r2, #152]
 104              	.LVL4:
 105              	.LBB28:
 106              	.LBB29:
 107              	.LBB30:
 108              	.LBB31:
 109              		.loc 2 493 0
 110 0012 0023     		movs	r3, #0
 111              		.syntax unified
 112              	@ 493 "../../modules/ChibiOS/os/common/ext/ARM/CMSIS/Core/Include/cmsis_gcc.h" 1
 113 0014 83F31188 		MSR basepri, r3
 114              	@ 0 "" 2
ARM GAS  /tmp/ccWyQRpK.s 			page 3


 115              	.LVL5:
 116              		.thumb
 117              		.syntax unified
 118 0018 7047     		bx	lr
 119              	.L6:
 120 001a 00BF     		.align	2
 121              	.L5:
 122 001c 00000000 		.word	ch
 123              	.LBE31:
 124              	.LBE30:
 125              	.LBE29:
 126              	.LBE28:
 127              		.cfi_endproc
 128              	.LFE302:
 129              		.size	_stats_increase_irq, .-_stats_increase_irq
 130              		.section	.text._stats_ctxswc,"ax",%progbits
 131              		.align	1
 132              		.global	_stats_ctxswc
 133              		.syntax unified
 134              		.thumb
 135              		.thumb_func
 136              		.fpu fpv4-sp-d16
 137              		.type	_stats_ctxswc, %function
 138              	_stats_ctxswc:
 139              	.LFB303:
 140              		.loc 1 86 0
 141              		.cfi_startproc
 142              		@ args = 0, pretend = 0, frame = 0
 143              		@ frame_needed = 0, uses_anonymous_args = 0
 144              		@ link register save eliminated.
 145              	.LVL6:
 146              		.loc 1 88 0
 147 0000 064A     		ldr	r2, .L8
 148 0002 D2F89C30 		ldr	r3, [r2, #156]
 149 0006 0133     		adds	r3, r3, #1
 150 0008 C2F89C30 		str	r3, [r2, #156]
 151              		.loc 1 89 0
 152 000c 01F14803 		add	r3, r1, #72
 153 0010 00F14801 		add	r1, r0, #72
 154              	.LVL7:
 155 0014 1846     		mov	r0, r3
 156              	.LVL8:
 157 0016 FFF7FEBF 		b	chTMChainMeasurementToX
 158              	.LVL9:
 159              	.L9:
 160 001a 00BF     		.align	2
 161              	.L8:
 162 001c 00000000 		.word	ch
 163              		.cfi_endproc
 164              	.LFE303:
 165              		.size	_stats_ctxswc, .-_stats_ctxswc
 166              		.section	.text._stats_start_measure_crit_thd,"ax",%progbits
 167              		.align	1
 168              		.global	_stats_start_measure_crit_thd
 169              		.syntax unified
 170              		.thumb
 171              		.thumb_func
ARM GAS  /tmp/ccWyQRpK.s 			page 4


 172              		.fpu fpv4-sp-d16
 173              		.type	_stats_start_measure_crit_thd, %function
 174              	_stats_start_measure_crit_thd:
 175              	.LFB304:
 176              		.loc 1 95 0
 177              		.cfi_startproc
 178              		@ args = 0, pretend = 0, frame = 0
 179              		@ frame_needed = 0, uses_anonymous_args = 0
 180              		@ link register save eliminated.
 181              		.loc 1 97 0
 182 0000 0148     		ldr	r0, .L11
 183 0002 FFF7FEBF 		b	chTMStartMeasurementX
 184              	.LVL10:
 185              	.L12:
 186 0006 00BF     		.align	2
 187              	.L11:
 188 0008 A0000000 		.word	ch+160
 189              		.cfi_endproc
 190              	.LFE304:
 191              		.size	_stats_start_measure_crit_thd, .-_stats_start_measure_crit_thd
 192              		.section	.text._stats_stop_measure_crit_thd,"ax",%progbits
 193              		.align	1
 194              		.global	_stats_stop_measure_crit_thd
 195              		.syntax unified
 196              		.thumb
 197              		.thumb_func
 198              		.fpu fpv4-sp-d16
 199              		.type	_stats_stop_measure_crit_thd, %function
 200              	_stats_stop_measure_crit_thd:
 201              	.LFB305:
 202              		.loc 1 103 0
 203              		.cfi_startproc
 204              		@ args = 0, pretend = 0, frame = 0
 205              		@ frame_needed = 0, uses_anonymous_args = 0
 206              		@ link register save eliminated.
 207              		.loc 1 105 0
 208 0000 0148     		ldr	r0, .L14
 209 0002 FFF7FEBF 		b	chTMStopMeasurementX
 210              	.LVL11:
 211              	.L15:
 212 0006 00BF     		.align	2
 213              	.L14:
 214 0008 A0000000 		.word	ch+160
 215              		.cfi_endproc
 216              	.LFE305:
 217              		.size	_stats_stop_measure_crit_thd, .-_stats_stop_measure_crit_thd
 218              		.section	.text._stats_start_measure_crit_isr,"ax",%progbits
 219              		.align	1
 220              		.global	_stats_start_measure_crit_isr
 221              		.syntax unified
 222              		.thumb
 223              		.thumb_func
 224              		.fpu fpv4-sp-d16
 225              		.type	_stats_start_measure_crit_isr, %function
 226              	_stats_start_measure_crit_isr:
 227              	.LFB306:
 228              		.loc 1 111 0
ARM GAS  /tmp/ccWyQRpK.s 			page 5


 229              		.cfi_startproc
 230              		@ args = 0, pretend = 0, frame = 0
 231              		@ frame_needed = 0, uses_anonymous_args = 0
 232              		@ link register save eliminated.
 233              		.loc 1 113 0
 234 0000 0148     		ldr	r0, .L17
 235 0002 FFF7FEBF 		b	chTMStartMeasurementX
 236              	.LVL12:
 237              	.L18:
 238 0006 00BF     		.align	2
 239              	.L17:
 240 0008 B8000000 		.word	ch+184
 241              		.cfi_endproc
 242              	.LFE306:
 243              		.size	_stats_start_measure_crit_isr, .-_stats_start_measure_crit_isr
 244              		.section	.text._stats_stop_measure_crit_isr,"ax",%progbits
 245              		.align	1
 246              		.global	_stats_stop_measure_crit_isr
 247              		.syntax unified
 248              		.thumb
 249              		.thumb_func
 250              		.fpu fpv4-sp-d16
 251              		.type	_stats_stop_measure_crit_isr, %function
 252              	_stats_stop_measure_crit_isr:
 253              	.LFB307:
 254              		.loc 1 119 0
 255              		.cfi_startproc
 256              		@ args = 0, pretend = 0, frame = 0
 257              		@ frame_needed = 0, uses_anonymous_args = 0
 258              		@ link register save eliminated.
 259              		.loc 1 121 0
 260 0000 0148     		ldr	r0, .L20
 261 0002 FFF7FEBF 		b	chTMStopMeasurementX
 262              	.LVL13:
 263              	.L21:
 264 0006 00BF     		.align	2
 265              	.L20:
 266 0008 B8000000 		.word	ch+184
 267              		.cfi_endproc
 268              	.LFE307:
 269              		.size	_stats_stop_measure_crit_isr, .-_stats_stop_measure_crit_isr
 270              		.text
 271              	.Letext0:
 272              		.file 3 "/opt/gcc-arm-none-eabi-6-2017-q2-update/lib/gcc/arm-none-eabi/6.3.1/include/stddef.h"
 273              		.file 4 "/opt/gcc-arm-none-eabi-6-2017-q2-update/arm-none-eabi/include/machine/_default_types.h"
 274              		.file 5 "/opt/gcc-arm-none-eabi-6-2017-q2-update/arm-none-eabi/include/sys/_stdint.h"
 275              		.file 6 "../../modules/ChibiOS/os/common/ports/ARMCMx/compilers/GCC/chtypes.h"
 276              		.file 7 "../../modules/ChibiOS/os/rt/include/chsystypes.h"
 277              		.file 8 "../../modules/ChibiOS/os/rt/include/chschd.h"
 278              		.file 9 "../../modules/ChibiOS/os/rt/include/chtime.h"
 279              		.file 10 "../../modules/ChibiOS/os/common/ext/ARM/CMSIS/Core/Include/core_cm7.h"
 280              		.file 11 "../../modules/ChibiOS/os/common/ext/ST/STM32F7xx/system_stm32f7xx.h"
 281              		.file 12 "../../modules/ChibiOS/os/common/ports/ARMCMx/chcore.h"
 282              		.file 13 "../../modules/ChibiOS/os/common/ports/ARMCMx/chcore_v7m.h"
 283              		.file 14 "../../modules/ChibiOS/os/rt/include/chtm.h"
 284              		.file 15 "../../modules/ChibiOS/os/rt/include/chstats.h"
 285              		.file 16 "../../modules/ChibiOS/os/rt/include/chsem.h"
ARM GAS  /tmp/ccWyQRpK.s 			page 6


 286              		.file 17 "../../modules/ChibiOS/os/rt/include/chmtx.h"
 287              		.file 18 "../../modules/ChibiOS/os/rt/include/chsys.h"
 288              		.file 19 "../../modules/ChibiOS/os/rt/include/chregistry.h"
 289              		.file 20 "../../modules/ChibiOS/os/oslib/include/chmemcore.h"
 290              		.file 21 "../../modules/ChibiOS/os/oslib/include/chmempools.h"
 291              		.file 22 "../../modules/ChibiOS/os/oslib/include/chfactory.h"
 292              		.section	.debug_info,"",%progbits
 293              	.Ldebug_info0:
 294 0000 210D0000 		.4byte	0xd21
 295 0004 0400     		.2byte	0x4
 296 0006 00000000 		.4byte	.Ldebug_abbrev0
 297 000a 04       		.byte	0x4
 298 000b 01       		.uleb128 0x1
 299 000c DC040000 		.4byte	.LASF173
 300 0010 0C       		.byte	0xc
 301 0011 BC080000 		.4byte	.LASF174
 302 0015 FB030000 		.4byte	.LASF175
 303 0019 00000000 		.4byte	.Ldebug_ranges0+0
 304 001d 00000000 		.4byte	0
 305 0021 00000000 		.4byte	.Ldebug_line0
 306 0025 02       		.uleb128 0x2
 307 0026 04       		.byte	0x4
 308 0027 05       		.byte	0x5
 309 0028 696E7400 		.ascii	"int\000"
 310 002c 03       		.uleb128 0x3
 311 002d 0D000000 		.4byte	.LASF4
 312 0031 03       		.byte	0x3
 313 0032 D8       		.byte	0xd8
 314 0033 37000000 		.4byte	0x37
 315 0037 04       		.uleb128 0x4
 316 0038 04       		.byte	0x4
 317 0039 07       		.byte	0x7
 318 003a 32020000 		.4byte	.LASF0
 319 003e 04       		.uleb128 0x4
 320 003f 08       		.byte	0x8
 321 0040 05       		.byte	0x5
 322 0041 1B010000 		.4byte	.LASF1
 323 0045 04       		.uleb128 0x4
 324 0046 08       		.byte	0x8
 325 0047 04       		.byte	0x4
 326 0048 BB030000 		.4byte	.LASF2
 327 004c 04       		.uleb128 0x4
 328 004d 01       		.byte	0x1
 329 004e 06       		.byte	0x6
 330 004f 29010000 		.4byte	.LASF3
 331 0053 03       		.uleb128 0x3
 332 0054 37000000 		.4byte	.LASF5
 333 0058 04       		.byte	0x4
 334 0059 2B       		.byte	0x2b
 335 005a 5E000000 		.4byte	0x5e
 336 005e 04       		.uleb128 0x4
 337 005f 01       		.byte	0x1
 338 0060 08       		.byte	0x8
 339 0061 12060000 		.4byte	.LASF6
 340 0065 04       		.uleb128 0x4
 341 0066 02       		.byte	0x2
 342 0067 05       		.byte	0x5
ARM GAS  /tmp/ccWyQRpK.s 			page 7


 343 0068 43060000 		.4byte	.LASF7
 344 006c 03       		.uleb128 0x3
 345 006d 27070000 		.4byte	.LASF8
 346 0071 04       		.byte	0x4
 347 0072 39       		.byte	0x39
 348 0073 77000000 		.4byte	0x77
 349 0077 04       		.uleb128 0x4
 350 0078 02       		.byte	0x2
 351 0079 07       		.byte	0x7
 352 007a B6070000 		.4byte	.LASF9
 353 007e 03       		.uleb128 0x3
 354 007f 14070000 		.4byte	.LASF10
 355 0083 04       		.byte	0x4
 356 0084 4D       		.byte	0x4d
 357 0085 89000000 		.4byte	0x89
 358 0089 04       		.uleb128 0x4
 359 008a 04       		.byte	0x4
 360 008b 05       		.byte	0x5
 361 008c 8C010000 		.4byte	.LASF11
 362 0090 03       		.uleb128 0x3
 363 0091 BF010000 		.4byte	.LASF12
 364 0095 04       		.byte	0x4
 365 0096 4F       		.byte	0x4f
 366 0097 9B000000 		.4byte	0x9b
 367 009b 04       		.uleb128 0x4
 368 009c 04       		.byte	0x4
 369 009d 07       		.byte	0x7
 370 009e F0060000 		.4byte	.LASF13
 371 00a2 03       		.uleb128 0x3
 372 00a3 70040000 		.4byte	.LASF14
 373 00a7 04       		.byte	0x4
 374 00a8 69       		.byte	0x69
 375 00a9 AD000000 		.4byte	0xad
 376 00ad 04       		.uleb128 0x4
 377 00ae 08       		.byte	0x8
 378 00af 07       		.byte	0x7
 379 00b0 A7000000 		.4byte	.LASF15
 380 00b4 03       		.uleb128 0x3
 381 00b5 3B080000 		.4byte	.LASF16
 382 00b9 05       		.byte	0x5
 383 00ba 18       		.byte	0x18
 384 00bb 53000000 		.4byte	0x53
 385 00bf 05       		.uleb128 0x5
 386 00c0 B4000000 		.4byte	0xb4
 387 00c4 03       		.uleb128 0x3
 388 00c5 3F020000 		.4byte	.LASF17
 389 00c9 05       		.byte	0x5
 390 00ca 24       		.byte	0x24
 391 00cb 6C000000 		.4byte	0x6c
 392 00cf 03       		.uleb128 0x3
 393 00d0 0A060000 		.4byte	.LASF18
 394 00d4 05       		.byte	0x5
 395 00d5 2C       		.byte	0x2c
 396 00d6 7E000000 		.4byte	0x7e
 397 00da 06       		.uleb128 0x6
 398 00db CF000000 		.4byte	0xcf
 399 00df 03       		.uleb128 0x3
ARM GAS  /tmp/ccWyQRpK.s 			page 8


 400 00e0 BD060000 		.4byte	.LASF19
 401 00e4 05       		.byte	0x5
 402 00e5 30       		.byte	0x30
 403 00e6 90000000 		.4byte	0x90
 404 00ea 03       		.uleb128 0x3
 405 00eb 21000000 		.4byte	.LASF20
 406 00ef 05       		.byte	0x5
 407 00f0 3C       		.byte	0x3c
 408 00f1 A2000000 		.4byte	0xa2
 409 00f5 03       		.uleb128 0x3
 410 00f6 D4070000 		.4byte	.LASF21
 411 00fa 06       		.byte	0x6
 412 00fb 27       		.byte	0x27
 413 00fc DF000000 		.4byte	0xdf
 414 0100 03       		.uleb128 0x3
 415 0101 12010000 		.4byte	.LASF22
 416 0105 06       		.byte	0x6
 417 0106 28       		.byte	0x28
 418 0107 EA000000 		.4byte	0xea
 419 010b 03       		.uleb128 0x3
 420 010c EF020000 		.4byte	.LASF23
 421 0110 06       		.byte	0x6
 422 0111 2A       		.byte	0x2a
 423 0112 B4000000 		.4byte	0xb4
 424 0116 03       		.uleb128 0x3
 425 0117 95010000 		.4byte	.LASF24
 426 011b 06       		.byte	0x6
 427 011c 2B       		.byte	0x2b
 428 011d B4000000 		.4byte	0xb4
 429 0121 03       		.uleb128 0x3
 430 0122 9D040000 		.4byte	.LASF25
 431 0126 06       		.byte	0x6
 432 0127 2C       		.byte	0x2c
 433 0128 B4000000 		.4byte	0xb4
 434 012c 03       		.uleb128 0x3
 435 012d D4040000 		.4byte	.LASF26
 436 0131 06       		.byte	0x6
 437 0132 2E       		.byte	0x2e
 438 0133 DF000000 		.4byte	0xdf
 439 0137 03       		.uleb128 0x3
 440 0138 B5020000 		.4byte	.LASF27
 441 013c 06       		.byte	0x6
 442 013d 2F       		.byte	0x2f
 443 013e CF000000 		.4byte	0xcf
 444 0142 03       		.uleb128 0x3
 445 0143 10030000 		.4byte	.LASF28
 446 0147 06       		.byte	0x6
 447 0148 31       		.byte	0x31
 448 0149 DF000000 		.4byte	0xdf
 449 014d 03       		.uleb128 0x3
 450 014e 23020000 		.4byte	.LASF29
 451 0152 06       		.byte	0x6
 452 0153 33       		.byte	0x33
 453 0154 CF000000 		.4byte	0xcf
 454 0158 03       		.uleb128 0x3
 455 0159 C0020000 		.4byte	.LASF30
 456 015d 06       		.byte	0x6
ARM GAS  /tmp/ccWyQRpK.s 			page 9


 457 015e 34       		.byte	0x34
 458 015f DF000000 		.4byte	0xdf
 459 0163 03       		.uleb128 0x3
 460 0164 47070000 		.4byte	.LASF31
 461 0168 07       		.byte	0x7
 462 0169 34       		.byte	0x34
 463 016a 6E010000 		.4byte	0x16e
 464 016e 07       		.uleb128 0x7
 465 016f AB020000 		.4byte	.LASF50
 466 0173 60       		.byte	0x60
 467 0174 08       		.byte	0x8
 468 0175 8E       		.byte	0x8e
 469 0176 59020000 		.4byte	0x259
 470 017a 08       		.uleb128 0x8
 471 017b 82020000 		.4byte	.LASF32
 472 017f 08       		.byte	0x8
 473 0180 8F       		.byte	0x8f
 474 0181 8E020000 		.4byte	0x28e
 475 0185 00       		.byte	0
 476 0186 08       		.uleb128 0x8
 477 0187 3C040000 		.4byte	.LASF33
 478 018b 08       		.byte	0x8
 479 018c 90       		.byte	0x90
 480 018d 2C010000 		.4byte	0x12c
 481 0191 08       		.byte	0x8
 482 0192 09       		.uleb128 0x9
 483 0193 63747800 		.ascii	"ctx\000"
 484 0197 08       		.byte	0x8
 485 0198 91       		.byte	0x91
 486 0199 00050000 		.4byte	0x500
 487 019d 0C       		.byte	0xc
 488 019e 08       		.uleb128 0x8
 489 019f 54030000 		.4byte	.LASF34
 490 01a3 08       		.byte	0x8
 491 01a4 93       		.byte	0x93
 492 01a5 64020000 		.4byte	0x264
 493 01a9 10       		.byte	0x10
 494 01aa 08       		.uleb128 0x8
 495 01ab 0E070000 		.4byte	.LASF35
 496 01af 08       		.byte	0x8
 497 01b0 94       		.byte	0x94
 498 01b1 64020000 		.4byte	0x264
 499 01b5 14       		.byte	0x14
 500 01b6 08       		.uleb128 0x8
 501 01b7 A6020000 		.4byte	.LASF36
 502 01bb 08       		.byte	0x8
 503 01bc 9B       		.byte	0x9b
 504 01bd F2070000 		.4byte	0x7f2
 505 01c1 18       		.byte	0x18
 506 01c2 08       		.uleb128 0x8
 507 01c3 02070000 		.4byte	.LASF37
 508 01c7 08       		.byte	0x8
 509 01c8 A4       		.byte	0xa4
 510 01c9 09080000 		.4byte	0x809
 511 01cd 1C       		.byte	0x1c
 512 01ce 08       		.uleb128 0x8
 513 01cf 71010000 		.4byte	.LASF38
ARM GAS  /tmp/ccWyQRpK.s 			page 10


 514 01d3 08       		.byte	0x8
 515 01d4 A9       		.byte	0xa9
 516 01d5 16010000 		.4byte	0x116
 517 01d9 20       		.byte	0x20
 518 01da 08       		.uleb128 0x8
 519 01db 43080000 		.4byte	.LASF39
 520 01df 08       		.byte	0x8
 521 01e0 AD       		.byte	0xad
 522 01e1 0B010000 		.4byte	0x10b
 523 01e5 21       		.byte	0x21
 524 01e6 08       		.uleb128 0x8
 525 01e7 B0040000 		.4byte	.LASF40
 526 01eb 08       		.byte	0x8
 527 01ec B2       		.byte	0xb2
 528 01ed 21010000 		.4byte	0x121
 529 01f1 22       		.byte	0x22
 530 01f2 0A       		.uleb128 0xa
 531 01f3 7500     		.ascii	"u\000"
 532 01f5 08       		.byte	0x8
 533 01f6 0301     		.2byte	0x103
 534 01f8 1C070000 		.4byte	0x71c
 535 01fc 24       		.byte	0x24
 536 01fd 0B       		.uleb128 0xb
 537 01fe EC010000 		.4byte	.LASF41
 538 0202 08       		.byte	0x8
 539 0203 0801     		.2byte	0x108
 540 0205 6A020000 		.4byte	0x26a
 541 0209 28       		.byte	0x28
 542 020a 0B       		.uleb128 0xb
 543 020b 29020000 		.4byte	.LASF42
 544 020f 08       		.byte	0x8
 545 0210 0E01     		.2byte	0x10e
 546 0212 8E020000 		.4byte	0x28e
 547 0216 2C       		.byte	0x2c
 548 0217 0B       		.uleb128 0xb
 549 0218 C7020000 		.4byte	.LASF43
 550 021c 08       		.byte	0x8
 551 021d 1401     		.2byte	0x114
 552 021f 42010000 		.4byte	0x142
 553 0223 34       		.byte	0x34
 554 0224 0B       		.uleb128 0xb
 555 0225 E6080000 		.4byte	.LASF44
 556 0229 08       		.byte	0x8
 557 022a 1B01     		.2byte	0x11b
 558 022c EC070000 		.4byte	0x7ec
 559 0230 38       		.byte	0x38
 560 0231 0B       		.uleb128 0xb
 561 0232 5A030000 		.4byte	.LASF45
 562 0236 08       		.byte	0x8
 563 0237 1F01     		.2byte	0x11f
 564 0239 2C010000 		.4byte	0x12c
 565 023d 3C       		.byte	0x3c
 566 023e 0B       		.uleb128 0xb
 567 023f 88020000 		.4byte	.LASF46
 568 0243 08       		.byte	0x8
 569 0244 2601     		.2byte	0x126
 570 0246 41030000 		.4byte	0x341
ARM GAS  /tmp/ccWyQRpK.s 			page 11


 571 024a 40       		.byte	0x40
 572 024b 0B       		.uleb128 0xb
 573 024c A3010000 		.4byte	.LASF47
 574 0250 08       		.byte	0x8
 575 0251 2C01     		.2byte	0x12c
 576 0253 CD060000 		.4byte	0x6cd
 577 0257 48       		.byte	0x48
 578 0258 00       		.byte	0
 579 0259 03       		.uleb128 0x3
 580 025a 91030000 		.4byte	.LASF48
 581 025e 07       		.byte	0x7
 582 025f 39       		.byte	0x39
 583 0260 64020000 		.4byte	0x264
 584 0264 0C       		.uleb128 0xc
 585 0265 04       		.byte	0x4
 586 0266 63010000 		.4byte	0x163
 587 026a 03       		.uleb128 0x3
 588 026b 68080000 		.4byte	.LASF49
 589 026f 07       		.byte	0x7
 590 0270 3E       		.byte	0x3e
 591 0271 75020000 		.4byte	0x275
 592 0275 07       		.uleb128 0x7
 593 0276 DA060000 		.4byte	.LASF51
 594 027a 04       		.byte	0x4
 595 027b 08       		.byte	0x8
 596 027c 7C       		.byte	0x7c
 597 027d 8E020000 		.4byte	0x28e
 598 0281 08       		.uleb128 0x8
 599 0282 0D010000 		.4byte	.LASF52
 600 0286 08       		.byte	0x8
 601 0287 7D       		.byte	0x7d
 602 0288 64020000 		.4byte	0x264
 603 028c 00       		.byte	0
 604 028d 00       		.byte	0
 605 028e 03       		.uleb128 0x3
 606 028f 16080000 		.4byte	.LASF53
 607 0293 07       		.byte	0x7
 608 0294 45       		.byte	0x45
 609 0295 99020000 		.4byte	0x299
 610 0299 07       		.uleb128 0x7
 611 029a 52000000 		.4byte	.LASF54
 612 029e 08       		.byte	0x8
 613 029f 08       		.byte	0x8
 614 02a0 83       		.byte	0x83
 615 02a1 BE020000 		.4byte	0x2be
 616 02a5 08       		.uleb128 0x8
 617 02a6 0D010000 		.4byte	.LASF52
 618 02aa 08       		.byte	0x8
 619 02ab 84       		.byte	0x84
 620 02ac 64020000 		.4byte	0x264
 621 02b0 00       		.byte	0
 622 02b1 08       		.uleb128 0x8
 623 02b2 41000000 		.4byte	.LASF55
 624 02b6 08       		.byte	0x8
 625 02b7 85       		.byte	0x85
 626 02b8 64020000 		.4byte	0x264
 627 02bc 04       		.byte	0x4
ARM GAS  /tmp/ccWyQRpK.s 			page 12


 628 02bd 00       		.byte	0
 629 02be 03       		.uleb128 0x3
 630 02bf 00000000 		.4byte	.LASF56
 631 02c3 07       		.byte	0x7
 632 02c4 4C       		.byte	0x4c
 633 02c5 C9020000 		.4byte	0x2c9
 634 02c9 0D       		.uleb128 0xd
 635 02ca 02030000 		.4byte	.LASF57
 636 02ce 1C       		.byte	0x1c
 637 02cf 08       		.byte	0x8
 638 02d0 5E01     		.2byte	0x15e
 639 02d2 25030000 		.4byte	0x325
 640 02d6 0B       		.uleb128 0xb
 641 02d7 82020000 		.4byte	.LASF32
 642 02db 08       		.byte	0x8
 643 02dc 5F01     		.2byte	0x15f
 644 02de 8E020000 		.4byte	0x28e
 645 02e2 00       		.byte	0
 646 02e3 0B       		.uleb128 0xb
 647 02e4 3C040000 		.4byte	.LASF33
 648 02e8 08       		.byte	0x8
 649 02e9 6001     		.2byte	0x160
 650 02eb 2C010000 		.4byte	0x12c
 651 02ef 08       		.byte	0x8
 652 02f0 0A       		.uleb128 0xa
 653 02f1 63747800 		.ascii	"ctx\000"
 654 02f5 08       		.byte	0x8
 655 02f6 6201     		.2byte	0x162
 656 02f8 00050000 		.4byte	0x500
 657 02fc 0C       		.byte	0xc
 658 02fd 0B       		.uleb128 0xb
 659 02fe 54030000 		.4byte	.LASF34
 660 0302 08       		.byte	0x8
 661 0303 6501     		.2byte	0x165
 662 0305 64020000 		.4byte	0x264
 663 0309 10       		.byte	0x10
 664 030a 0B       		.uleb128 0xb
 665 030b 0E070000 		.4byte	.LASF35
 666 030f 08       		.byte	0x8
 667 0310 6601     		.2byte	0x166
 668 0312 64020000 		.4byte	0x264
 669 0316 14       		.byte	0x14
 670 0317 0B       		.uleb128 0xb
 671 0318 68040000 		.4byte	.LASF58
 672 031c 08       		.byte	0x8
 673 031d 6901     		.2byte	0x169
 674 031f 64020000 		.4byte	0x264
 675 0323 18       		.byte	0x18
 676 0324 00       		.byte	0
 677 0325 03       		.uleb128 0x3
 678 0326 6A070000 		.4byte	.LASF59
 679 032a 07       		.byte	0x7
 680 032b 51       		.byte	0x51
 681 032c 30030000 		.4byte	0x330
 682 0330 0C       		.uleb128 0xc
 683 0331 04       		.byte	0x4
 684 0332 36030000 		.4byte	0x336
ARM GAS  /tmp/ccWyQRpK.s 			page 13


 685 0336 0E       		.uleb128 0xe
 686 0337 41030000 		.4byte	0x341
 687 033b 0F       		.uleb128 0xf
 688 033c 41030000 		.4byte	0x341
 689 0340 00       		.byte	0
 690 0341 10       		.uleb128 0x10
 691 0342 04       		.byte	0x4
 692 0343 03       		.uleb128 0x3
 693 0344 B5040000 		.4byte	.LASF60
 694 0348 07       		.byte	0x7
 695 0349 56       		.byte	0x56
 696 034a 4E030000 		.4byte	0x34e
 697 034e 0D       		.uleb128 0xd
 698 034f 7B060000 		.4byte	.LASF61
 699 0353 14       		.byte	0x14
 700 0354 08       		.byte	0x8
 701 0355 3901     		.2byte	0x139
 702 0357 9D030000 		.4byte	0x39d
 703 035b 0B       		.uleb128 0xb
 704 035c 0D010000 		.4byte	.LASF52
 705 0360 08       		.byte	0x8
 706 0361 3A01     		.2byte	0x13a
 707 0363 0F080000 		.4byte	0x80f
 708 0367 00       		.byte	0
 709 0368 0B       		.uleb128 0xb
 710 0369 41000000 		.4byte	.LASF55
 711 036d 08       		.byte	0x8
 712 036e 3B01     		.2byte	0x13b
 713 0370 0F080000 		.4byte	0x80f
 714 0374 04       		.byte	0x4
 715 0375 0B       		.uleb128 0xb
 716 0376 14000000 		.4byte	.LASF62
 717 037a 08       		.byte	0x8
 718 037b 3C01     		.2byte	0x13c
 719 037d 81040000 		.4byte	0x481
 720 0381 08       		.byte	0x8
 721 0382 0B       		.uleb128 0xb
 722 0383 9E010000 		.4byte	.LASF63
 723 0387 08       		.byte	0x8
 724 0388 3D01     		.2byte	0x13d
 725 038a 25030000 		.4byte	0x325
 726 038e 0C       		.byte	0xc
 727 038f 0A       		.uleb128 0xa
 728 0390 70617200 		.ascii	"par\000"
 729 0394 08       		.byte	0x8
 730 0395 3F01     		.2byte	0x13f
 731 0397 41030000 		.4byte	0x341
 732 039b 10       		.byte	0x10
 733 039c 00       		.byte	0
 734 039d 03       		.uleb128 0x3
 735 039e DA000000 		.4byte	.LASF64
 736 03a2 07       		.byte	0x7
 737 03a3 5B       		.byte	0x5b
 738 03a4 A8030000 		.4byte	0x3a8
 739 03a8 0D       		.uleb128 0xd
 740 03a9 A4030000 		.4byte	.LASF65
 741 03ad 10       		.byte	0x10
ARM GAS  /tmp/ccWyQRpK.s 			page 14


 742 03ae 08       		.byte	0x8
 743 03af 4901     		.2byte	0x149
 744 03b1 EA030000 		.4byte	0x3ea
 745 03b5 0B       		.uleb128 0xb
 746 03b6 0D010000 		.4byte	.LASF52
 747 03ba 08       		.byte	0x8
 748 03bb 4A01     		.2byte	0x14a
 749 03bd 0F080000 		.4byte	0x80f
 750 03c1 00       		.byte	0
 751 03c2 0B       		.uleb128 0xb
 752 03c3 41000000 		.4byte	.LASF55
 753 03c7 08       		.byte	0x8
 754 03c8 4C01     		.2byte	0x14c
 755 03ca 0F080000 		.4byte	0x80f
 756 03ce 04       		.byte	0x4
 757 03cf 0B       		.uleb128 0xb
 758 03d0 14000000 		.4byte	.LASF62
 759 03d4 08       		.byte	0x8
 760 03d5 4E01     		.2byte	0x14e
 761 03d7 81040000 		.4byte	0x481
 762 03db 08       		.byte	0x8
 763 03dc 0B       		.uleb128 0xb
 764 03dd 4D060000 		.4byte	.LASF66
 765 03e1 08       		.byte	0x8
 766 03e2 5601     		.2byte	0x156
 767 03e4 76040000 		.4byte	0x476
 768 03e8 0C       		.byte	0xc
 769 03e9 00       		.byte	0
 770 03ea 03       		.uleb128 0x3
 771 03eb 63000000 		.4byte	.LASF67
 772 03ef 07       		.byte	0x7
 773 03f0 60       		.byte	0x60
 774 03f1 F5030000 		.4byte	0x3f5
 775 03f5 0D       		.uleb128 0xd
 776 03f6 DC010000 		.4byte	.LASF68
 777 03fa 04       		.byte	0x4
 778 03fb 08       		.byte	0x8
 779 03fc 7001     		.2byte	0x170
 780 03fe 10040000 		.4byte	0x410
 781 0402 0B       		.uleb128 0xb
 782 0403 88070000 		.4byte	.LASF69
 783 0407 08       		.byte	0x8
 784 0408 7801     		.2byte	0x178
 785 040a F8070000 		.4byte	0x7f8
 786 040e 00       		.byte	0
 787 040f 00       		.byte	0
 788 0410 03       		.uleb128 0x3
 789 0411 DB020000 		.4byte	.LASF70
 790 0415 07       		.byte	0x7
 791 0416 65       		.byte	0x65
 792 0417 1B040000 		.4byte	0x41b
 793 041b 0D       		.uleb128 0xd
 794 041c 5D060000 		.4byte	.LASF71
 795 0420 D0       		.byte	0xd0
 796 0421 08       		.byte	0x8
 797 0422 9001     		.2byte	0x190
 798 0424 76040000 		.4byte	0x476
ARM GAS  /tmp/ccWyQRpK.s 			page 15


 799 0428 0B       		.uleb128 0xb
 800 0429 3A010000 		.4byte	.LASF72
 801 042d 08       		.byte	0x8
 802 042e 9401     		.2byte	0x194
 803 0430 BE020000 		.4byte	0x2be
 804 0434 00       		.byte	0
 805 0435 0B       		.uleb128 0xb
 806 0436 48010000 		.4byte	.LASF73
 807 043a 08       		.byte	0x8
 808 043b 9801     		.2byte	0x198
 809 043d 9D030000 		.4byte	0x39d
 810 0441 1C       		.byte	0x1c
 811 0442 0A       		.uleb128 0xa
 812 0443 64626700 		.ascii	"dbg\000"
 813 0447 08       		.byte	0x8
 814 0448 9C01     		.2byte	0x19c
 815 044a EA030000 		.4byte	0x3ea
 816 044e 2C       		.byte	0x2c
 817 044f 0B       		.uleb128 0xb
 818 0450 C7000000 		.4byte	.LASF74
 819 0454 08       		.byte	0x8
 820 0455 A001     		.2byte	0x1a0
 821 0457 63010000 		.4byte	0x163
 822 045b 30       		.byte	0x30
 823 045c 0A       		.uleb128 0xa
 824 045d 746D00   		.ascii	"tm\000"
 825 0460 08       		.byte	0x8
 826 0461 A501     		.2byte	0x1a5
 827 0463 7F060000 		.4byte	0x67f
 828 0467 90       		.byte	0x90
 829 0468 0B       		.uleb128 0xb
 830 0469 2A000000 		.4byte	.LASF75
 831 046d 08       		.byte	0x8
 832 046e AB01     		.2byte	0x1ab
 833 0470 11070000 		.4byte	0x711
 834 0474 98       		.byte	0x98
 835 0475 00       		.byte	0
 836 0476 03       		.uleb128 0x3
 837 0477 60070000 		.4byte	.LASF76
 838 047b 09       		.byte	0x9
 839 047c 6D       		.byte	0x6d
 840 047d DF000000 		.4byte	0xdf
 841 0481 03       		.uleb128 0x3
 842 0482 15020000 		.4byte	.LASF77
 843 0486 09       		.byte	0x9
 844 0487 79       		.byte	0x79
 845 0488 DF000000 		.4byte	0xdf
 846 048c 04       		.uleb128 0x4
 847 048d 04       		.byte	0x4
 848 048e 07       		.byte	0x7
 849 048f 88030000 		.4byte	.LASF78
 850 0493 11       		.uleb128 0x11
 851 0494 36060000 		.4byte	.LASF79
 852 0498 0A       		.byte	0xa
 853 0499 220A     		.2byte	0xa22
 854 049b DA000000 		.4byte	0xda
 855 049f 12       		.uleb128 0x12
ARM GAS  /tmp/ccWyQRpK.s 			page 16


 856 04a0 48020000 		.4byte	.LASF80
 857 04a4 0B       		.byte	0xb
 858 04a5 4C       		.byte	0x4c
 859 04a6 DF000000 		.4byte	0xdf
 860 04aa 13       		.uleb128 0x13
 861 04ab BF000000 		.4byte	0xbf
 862 04af BA040000 		.4byte	0x4ba
 863 04b3 14       		.uleb128 0x14
 864 04b4 8C040000 		.4byte	0x48c
 865 04b8 0F       		.byte	0xf
 866 04b9 00       		.byte	0
 867 04ba 05       		.uleb128 0x5
 868 04bb AA040000 		.4byte	0x4aa
 869 04bf 12       		.uleb128 0x12
 870 04c0 1C030000 		.4byte	.LASF81
 871 04c4 0B       		.byte	0xb
 872 04c5 4E       		.byte	0x4e
 873 04c6 BA040000 		.4byte	0x4ba
 874 04ca 13       		.uleb128 0x13
 875 04cb BF000000 		.4byte	0xbf
 876 04cf DA040000 		.4byte	0x4da
 877 04d3 14       		.uleb128 0x14
 878 04d4 8C040000 		.4byte	0x48c
 879 04d8 07       		.byte	0x7
 880 04d9 00       		.byte	0
 881 04da 05       		.uleb128 0x5
 882 04db CA040000 		.4byte	0x4ca
 883 04df 12       		.uleb128 0x12
 884 04e0 F4010000 		.4byte	.LASF82
 885 04e4 0B       		.byte	0xb
 886 04e5 4F       		.byte	0x4f
 887 04e6 DA040000 		.4byte	0x4da
 888 04ea 03       		.uleb128 0x3
 889 04eb CA010000 		.4byte	.LASF83
 890 04ef 0C       		.byte	0xc
 891 04f0 65       		.byte	0x65
 892 04f1 41030000 		.4byte	0x341
 893 04f5 03       		.uleb128 0x3
 894 04f6 49030000 		.4byte	.LASF84
 895 04fa 0C       		.byte	0xc
 896 04fb 6D       		.byte	0x6d
 897 04fc EA000000 		.4byte	0xea
 898 0500 07       		.uleb128 0x7
 899 0501 1E040000 		.4byte	.LASF85
 900 0505 04       		.byte	0x4
 901 0506 0C       		.byte	0xc
 902 0507 89       		.byte	0x89
 903 0508 18050000 		.4byte	0x518
 904 050c 09       		.uleb128 0x9
 905 050d 737000   		.ascii	"sp\000"
 906 0510 0C       		.byte	0xc
 907 0511 8A       		.byte	0x8a
 908 0512 64060000 		.4byte	0x664
 909 0516 00       		.byte	0
 910 0517 00       		.byte	0
 911 0518 0D       		.uleb128 0xd
 912 0519 46000000 		.4byte	.LASF86
ARM GAS  /tmp/ccWyQRpK.s 			page 17


 913 051d 64       		.byte	0x64
 914 051e 0D       		.byte	0xd
 915 051f 5901     		.2byte	0x159
 916 0521 64060000 		.4byte	0x664
 917 0525 0A       		.uleb128 0xa
 918 0526 73313600 		.ascii	"s16\000"
 919 052a 0D       		.byte	0xd
 920 052b 5B01     		.2byte	0x15b
 921 052d EA040000 		.4byte	0x4ea
 922 0531 00       		.byte	0
 923 0532 0A       		.uleb128 0xa
 924 0533 73313700 		.ascii	"s17\000"
 925 0537 0D       		.byte	0xd
 926 0538 5C01     		.2byte	0x15c
 927 053a EA040000 		.4byte	0x4ea
 928 053e 04       		.byte	0x4
 929 053f 0A       		.uleb128 0xa
 930 0540 73313800 		.ascii	"s18\000"
 931 0544 0D       		.byte	0xd
 932 0545 5D01     		.2byte	0x15d
 933 0547 EA040000 		.4byte	0x4ea
 934 054b 08       		.byte	0x8
 935 054c 0A       		.uleb128 0xa
 936 054d 73313900 		.ascii	"s19\000"
 937 0551 0D       		.byte	0xd
 938 0552 5E01     		.2byte	0x15e
 939 0554 EA040000 		.4byte	0x4ea
 940 0558 0C       		.byte	0xc
 941 0559 0A       		.uleb128 0xa
 942 055a 73323000 		.ascii	"s20\000"
 943 055e 0D       		.byte	0xd
 944 055f 5F01     		.2byte	0x15f
 945 0561 EA040000 		.4byte	0x4ea
 946 0565 10       		.byte	0x10
 947 0566 0A       		.uleb128 0xa
 948 0567 73323100 		.ascii	"s21\000"
 949 056b 0D       		.byte	0xd
 950 056c 6001     		.2byte	0x160
 951 056e EA040000 		.4byte	0x4ea
 952 0572 14       		.byte	0x14
 953 0573 0A       		.uleb128 0xa
 954 0574 73323200 		.ascii	"s22\000"
 955 0578 0D       		.byte	0xd
 956 0579 6101     		.2byte	0x161
 957 057b EA040000 		.4byte	0x4ea
 958 057f 18       		.byte	0x18
 959 0580 0A       		.uleb128 0xa
 960 0581 73323300 		.ascii	"s23\000"
 961 0585 0D       		.byte	0xd
 962 0586 6201     		.2byte	0x162
 963 0588 EA040000 		.4byte	0x4ea
 964 058c 1C       		.byte	0x1c
 965 058d 0A       		.uleb128 0xa
 966 058e 73323400 		.ascii	"s24\000"
 967 0592 0D       		.byte	0xd
 968 0593 6301     		.2byte	0x163
 969 0595 EA040000 		.4byte	0x4ea
ARM GAS  /tmp/ccWyQRpK.s 			page 18


 970 0599 20       		.byte	0x20
 971 059a 0A       		.uleb128 0xa
 972 059b 73323500 		.ascii	"s25\000"
 973 059f 0D       		.byte	0xd
 974 05a0 6401     		.2byte	0x164
 975 05a2 EA040000 		.4byte	0x4ea
 976 05a6 24       		.byte	0x24
 977 05a7 0A       		.uleb128 0xa
 978 05a8 73323600 		.ascii	"s26\000"
 979 05ac 0D       		.byte	0xd
 980 05ad 6501     		.2byte	0x165
 981 05af EA040000 		.4byte	0x4ea
 982 05b3 28       		.byte	0x28
 983 05b4 0A       		.uleb128 0xa
 984 05b5 73323700 		.ascii	"s27\000"
 985 05b9 0D       		.byte	0xd
 986 05ba 6601     		.2byte	0x166
 987 05bc EA040000 		.4byte	0x4ea
 988 05c0 2C       		.byte	0x2c
 989 05c1 0A       		.uleb128 0xa
 990 05c2 73323800 		.ascii	"s28\000"
 991 05c6 0D       		.byte	0xd
 992 05c7 6701     		.2byte	0x167
 993 05c9 EA040000 		.4byte	0x4ea
 994 05cd 30       		.byte	0x30
 995 05ce 0A       		.uleb128 0xa
 996 05cf 73323900 		.ascii	"s29\000"
 997 05d3 0D       		.byte	0xd
 998 05d4 6801     		.2byte	0x168
 999 05d6 EA040000 		.4byte	0x4ea
 1000 05da 34       		.byte	0x34
 1001 05db 0A       		.uleb128 0xa
 1002 05dc 73333000 		.ascii	"s30\000"
 1003 05e0 0D       		.byte	0xd
 1004 05e1 6901     		.2byte	0x169
 1005 05e3 EA040000 		.4byte	0x4ea
 1006 05e7 38       		.byte	0x38
 1007 05e8 0A       		.uleb128 0xa
 1008 05e9 73333100 		.ascii	"s31\000"
 1009 05ed 0D       		.byte	0xd
 1010 05ee 6A01     		.2byte	0x16a
 1011 05f0 EA040000 		.4byte	0x4ea
 1012 05f4 3C       		.byte	0x3c
 1013 05f5 0A       		.uleb128 0xa
 1014 05f6 723400   		.ascii	"r4\000"
 1015 05f9 0D       		.byte	0xd
 1016 05fa 6C01     		.2byte	0x16c
 1017 05fc EA040000 		.4byte	0x4ea
 1018 0600 40       		.byte	0x40
 1019 0601 0A       		.uleb128 0xa
 1020 0602 723500   		.ascii	"r5\000"
 1021 0605 0D       		.byte	0xd
 1022 0606 6D01     		.2byte	0x16d
 1023 0608 EA040000 		.4byte	0x4ea
 1024 060c 44       		.byte	0x44
 1025 060d 0A       		.uleb128 0xa
 1026 060e 723600   		.ascii	"r6\000"
ARM GAS  /tmp/ccWyQRpK.s 			page 19


 1027 0611 0D       		.byte	0xd
 1028 0612 6E01     		.2byte	0x16e
 1029 0614 EA040000 		.4byte	0x4ea
 1030 0618 48       		.byte	0x48
 1031 0619 0A       		.uleb128 0xa
 1032 061a 723700   		.ascii	"r7\000"
 1033 061d 0D       		.byte	0xd
 1034 061e 6F01     		.2byte	0x16f
 1035 0620 EA040000 		.4byte	0x4ea
 1036 0624 4C       		.byte	0x4c
 1037 0625 0A       		.uleb128 0xa
 1038 0626 723800   		.ascii	"r8\000"
 1039 0629 0D       		.byte	0xd
 1040 062a 7001     		.2byte	0x170
 1041 062c EA040000 		.4byte	0x4ea
 1042 0630 50       		.byte	0x50
 1043 0631 0A       		.uleb128 0xa
 1044 0632 723900   		.ascii	"r9\000"
 1045 0635 0D       		.byte	0xd
 1046 0636 7101     		.2byte	0x171
 1047 0638 EA040000 		.4byte	0x4ea
 1048 063c 54       		.byte	0x54
 1049 063d 0A       		.uleb128 0xa
 1050 063e 72313000 		.ascii	"r10\000"
 1051 0642 0D       		.byte	0xd
 1052 0643 7201     		.2byte	0x172
 1053 0645 EA040000 		.4byte	0x4ea
 1054 0649 58       		.byte	0x58
 1055 064a 0A       		.uleb128 0xa
 1056 064b 72313100 		.ascii	"r11\000"
 1057 064f 0D       		.byte	0xd
 1058 0650 7301     		.2byte	0x173
 1059 0652 EA040000 		.4byte	0x4ea
 1060 0656 5C       		.byte	0x5c
 1061 0657 0A       		.uleb128 0xa
 1062 0658 6C7200   		.ascii	"lr\000"
 1063 065b 0D       		.byte	0xd
 1064 065c 7401     		.2byte	0x174
 1065 065e EA040000 		.4byte	0x4ea
 1066 0662 60       		.byte	0x60
 1067 0663 00       		.byte	0
 1068 0664 0C       		.uleb128 0xc
 1069 0665 04       		.byte	0x4
 1070 0666 18050000 		.4byte	0x518
 1071 066a 15       		.uleb128 0x15
 1072 066b 04       		.byte	0x4
 1073 066c 0E       		.byte	0xe
 1074 066d 38       		.byte	0x38
 1075 066e 7F060000 		.4byte	0x67f
 1076 0672 08       		.uleb128 0x8
 1077 0673 92070000 		.4byte	.LASF87
 1078 0677 0E       		.byte	0xe
 1079 0678 3C       		.byte	0x3c
 1080 0679 F5000000 		.4byte	0xf5
 1081 067d 00       		.byte	0
 1082 067e 00       		.byte	0
 1083 067f 03       		.uleb128 0x3
ARM GAS  /tmp/ccWyQRpK.s 			page 20


 1084 0680 2B040000 		.4byte	.LASF88
 1085 0684 0E       		.byte	0xe
 1086 0685 3D       		.byte	0x3d
 1087 0686 6A060000 		.4byte	0x66a
 1088 068a 15       		.uleb128 0x15
 1089 068b 18       		.byte	0x18
 1090 068c 0E       		.byte	0xe
 1091 068d 48       		.byte	0x48
 1092 068e CD060000 		.4byte	0x6cd
 1093 0692 08       		.uleb128 0x8
 1094 0693 50070000 		.4byte	.LASF89
 1095 0697 0E       		.byte	0xe
 1096 0698 49       		.byte	0x49
 1097 0699 F5000000 		.4byte	0xf5
 1098 069d 00       		.byte	0
 1099 069e 08       		.uleb128 0x8
 1100 069f 8E000000 		.4byte	.LASF90
 1101 06a3 0E       		.byte	0xe
 1102 06a4 4A       		.byte	0x4a
 1103 06a5 F5000000 		.4byte	0xf5
 1104 06a9 04       		.byte	0x4
 1105 06aa 08       		.uleb128 0x8
 1106 06ab BB020000 		.4byte	.LASF91
 1107 06af 0E       		.byte	0xe
 1108 06b0 4B       		.byte	0x4b
 1109 06b1 F5000000 		.4byte	0xf5
 1110 06b5 08       		.byte	0x8
 1111 06b6 09       		.uleb128 0x9
 1112 06b7 6E00     		.ascii	"n\000"
 1113 06b9 0E       		.byte	0xe
 1114 06ba 4C       		.byte	0x4c
 1115 06bb 58010000 		.4byte	0x158
 1116 06bf 0C       		.byte	0xc
 1117 06c0 08       		.uleb128 0x8
 1118 06c1 85040000 		.4byte	.LASF92
 1119 06c5 0E       		.byte	0xe
 1120 06c6 4D       		.byte	0x4d
 1121 06c7 00010000 		.4byte	0x100
 1122 06cb 10       		.byte	0x10
 1123 06cc 00       		.byte	0
 1124 06cd 03       		.uleb128 0x3
 1125 06ce 94000000 		.4byte	.LASF93
 1126 06d2 0E       		.byte	0xe
 1127 06d3 4E       		.byte	0x4e
 1128 06d4 8A060000 		.4byte	0x68a
 1129 06d8 15       		.uleb128 0x15
 1130 06d9 38       		.byte	0x38
 1131 06da 0F       		.byte	0xf
 1132 06db 38       		.byte	0x38
 1133 06dc 11070000 		.4byte	0x711
 1134 06e0 08       		.uleb128 0x8
 1135 06e1 7C020000 		.4byte	.LASF94
 1136 06e5 0F       		.byte	0xf
 1137 06e6 39       		.byte	0x39
 1138 06e7 58010000 		.4byte	0x158
 1139 06eb 00       		.byte	0
 1140 06ec 08       		.uleb128 0x8
ARM GAS  /tmp/ccWyQRpK.s 			page 21


 1141 06ed FB050000 		.4byte	.LASF95
 1142 06f1 0F       		.byte	0xf
 1143 06f2 3A       		.byte	0x3a
 1144 06f3 58010000 		.4byte	0x158
 1145 06f7 04       		.byte	0x4
 1146 06f8 08       		.uleb128 0x8
 1147 06f9 EE080000 		.4byte	.LASF96
 1148 06fd 0F       		.byte	0xf
 1149 06fe 3B       		.byte	0x3b
 1150 06ff CD060000 		.4byte	0x6cd
 1151 0703 08       		.byte	0x8
 1152 0704 08       		.uleb128 0x8
 1153 0705 F7020000 		.4byte	.LASF97
 1154 0709 0F       		.byte	0xf
 1155 070a 3D       		.byte	0x3d
 1156 070b CD060000 		.4byte	0x6cd
 1157 070f 20       		.byte	0x20
 1158 0710 00       		.byte	0
 1159 0711 03       		.uleb128 0x3
 1160 0712 97020000 		.4byte	.LASF98
 1161 0716 0F       		.byte	0xf
 1162 0717 3F       		.byte	0x3f
 1163 0718 D8060000 		.4byte	0x6d8
 1164 071c 16       		.uleb128 0x16
 1165 071d 04       		.byte	0x4
 1166 071e 08       		.byte	0x8
 1167 071f C6       		.byte	0xc6
 1168 0720 7E070000 		.4byte	0x77e
 1169 0724 17       		.uleb128 0x17
 1170 0725 1A000000 		.4byte	.LASF99
 1171 0729 08       		.byte	0x8
 1172 072a CD       		.byte	0xcd
 1173 072b 37010000 		.4byte	0x137
 1174 072f 17       		.uleb128 0x17
 1175 0730 BE000000 		.4byte	.LASF100
 1176 0734 08       		.byte	0x8
 1177 0735 D4       		.byte	0xd4
 1178 0736 37010000 		.4byte	0x137
 1179 073a 17       		.uleb128 0x17
 1180 073b 61080000 		.4byte	.LASF101
 1181 073f 08       		.byte	0x8
 1182 0740 DB       		.byte	0xdb
 1183 0741 41030000 		.4byte	0x341
 1184 0745 17       		.uleb128 0x17
 1185 0746 5F020000 		.4byte	.LASF102
 1186 074a 08       		.byte	0x8
 1187 074b E2       		.byte	0xe2
 1188 074c 7E070000 		.4byte	0x77e
 1189 0750 17       		.uleb128 0x17
 1190 0751 D2000000 		.4byte	.LASF103
 1191 0755 08       		.byte	0x8
 1192 0756 E7       		.byte	0xe7
 1193 0757 37010000 		.4byte	0x137
 1194 075b 17       		.uleb128 0x17
 1195 075c 58020000 		.4byte	.LASF104
 1196 0760 08       		.byte	0x8
 1197 0761 F0       		.byte	0xf0
ARM GAS  /tmp/ccWyQRpK.s 			page 22


 1198 0762 A9070000 		.4byte	0x7a9
 1199 0766 17       		.uleb128 0x17
 1200 0767 81070000 		.4byte	.LASF105
 1201 076b 08       		.byte	0x8
 1202 076c F9       		.byte	0xf9
 1203 076d EC070000 		.4byte	0x7ec
 1204 0771 18       		.uleb128 0x18
 1205 0772 56060000 		.4byte	.LASF106
 1206 0776 08       		.byte	0x8
 1207 0777 0101     		.2byte	0x101
 1208 0779 42010000 		.4byte	0x142
 1209 077d 00       		.byte	0
 1210 077e 0C       		.uleb128 0xc
 1211 077f 04       		.byte	0x4
 1212 0780 59020000 		.4byte	0x259
 1213 0784 07       		.uleb128 0x7
 1214 0785 8C060000 		.4byte	.LASF107
 1215 0789 0C       		.byte	0xc
 1216 078a 10       		.byte	0x10
 1217 078b 34       		.byte	0x34
 1218 078c A9070000 		.4byte	0x7a9
 1219 0790 08       		.uleb128 0x8
 1220 0791 82020000 		.4byte	.LASF32
 1221 0795 10       		.byte	0x10
 1222 0796 35       		.byte	0x35
 1223 0797 8E020000 		.4byte	0x28e
 1224 079b 00       		.byte	0
 1225 079c 09       		.uleb128 0x9
 1226 079d 636E7400 		.ascii	"cnt\000"
 1227 07a1 10       		.byte	0x10
 1228 07a2 37       		.byte	0x37
 1229 07a3 4D010000 		.4byte	0x14d
 1230 07a7 08       		.byte	0x8
 1231 07a8 00       		.byte	0
 1232 07a9 0C       		.uleb128 0xc
 1233 07aa 04       		.byte	0x4
 1234 07ab 84070000 		.4byte	0x784
 1235 07af 07       		.uleb128 0x7
 1236 07b0 99070000 		.4byte	.LASF108
 1237 07b4 14       		.byte	0x14
 1238 07b5 11       		.byte	0x11
 1239 07b6 39       		.byte	0x39
 1240 07b7 EC070000 		.4byte	0x7ec
 1241 07bb 08       		.uleb128 0x8
 1242 07bc 82020000 		.4byte	.LASF32
 1243 07c0 11       		.byte	0x11
 1244 07c1 3A       		.byte	0x3a
 1245 07c2 8E020000 		.4byte	0x28e
 1246 07c6 00       		.byte	0
 1247 07c7 08       		.uleb128 0x8
 1248 07c8 EA060000 		.4byte	.LASF109
 1249 07cc 11       		.byte	0x11
 1250 07cd 3C       		.byte	0x3c
 1251 07ce 64020000 		.4byte	0x264
 1252 07d2 08       		.byte	0x8
 1253 07d3 08       		.uleb128 0x8
 1254 07d4 0D010000 		.4byte	.LASF52
ARM GAS  /tmp/ccWyQRpK.s 			page 23


 1255 07d8 11       		.byte	0x11
 1256 07d9 3E       		.byte	0x3e
 1257 07da 4E090000 		.4byte	0x94e
 1258 07de 0C       		.byte	0xc
 1259 07df 09       		.uleb128 0x9
 1260 07e0 636E7400 		.ascii	"cnt\000"
 1261 07e4 11       		.byte	0x11
 1262 07e5 41       		.byte	0x41
 1263 07e6 4D010000 		.4byte	0x14d
 1264 07ea 10       		.byte	0x10
 1265 07eb 00       		.byte	0
 1266 07ec 0C       		.uleb128 0xc
 1267 07ed 04       		.byte	0x4
 1268 07ee AF070000 		.4byte	0x7af
 1269 07f2 0C       		.uleb128 0xc
 1270 07f3 04       		.byte	0x4
 1271 07f4 04080000 		.4byte	0x804
 1272 07f8 06       		.uleb128 0x6
 1273 07f9 F2070000 		.4byte	0x7f2
 1274 07fd 04       		.uleb128 0x4
 1275 07fe 01       		.byte	0x1
 1276 07ff 08       		.byte	0x8
 1277 0800 09070000 		.4byte	.LASF110
 1278 0804 05       		.uleb128 0x5
 1279 0805 FD070000 		.4byte	0x7fd
 1280 0809 0C       		.uleb128 0xc
 1281 080a 04       		.byte	0x4
 1282 080b F5040000 		.4byte	0x4f5
 1283 080f 0C       		.uleb128 0xc
 1284 0810 04       		.byte	0x4
 1285 0811 43030000 		.4byte	0x343
 1286 0815 19       		.uleb128 0x19
 1287 0816 636800   		.ascii	"ch\000"
 1288 0819 08       		.byte	0x8
 1289 081a C701     		.2byte	0x1c7
 1290 081c 10040000 		.4byte	0x410
 1291 0820 13       		.uleb128 0x13
 1292 0821 F5040000 		.4byte	0x4f5
 1293 0825 2B080000 		.4byte	0x82b
 1294 0829 1A       		.uleb128 0x1a
 1295 082a 00       		.byte	0
 1296 082b 11       		.uleb128 0x11
 1297 082c A2060000 		.4byte	.LASF111
 1298 0830 12       		.byte	0x12
 1299 0831 1701     		.2byte	0x117
 1300 0833 20080000 		.4byte	0x820
 1301 0837 15       		.uleb128 0x15
 1302 0838 16       		.byte	0x16
 1303 0839 13       		.byte	0x13
 1304 083a 34       		.byte	0x34
 1305 083b 18090000 		.4byte	0x918
 1306 083f 08       		.uleb128 0x8
 1307 0840 C9070000 		.4byte	.LASF112
 1308 0844 13       		.byte	0x13
 1309 0845 35       		.byte	0x35
 1310 0846 18090000 		.4byte	0x918
 1311 084a 00       		.byte	0
ARM GAS  /tmp/ccWyQRpK.s 			page 24


 1312 084b 08       		.uleb128 0x8
 1313 084c 02020000 		.4byte	.LASF113
 1314 0850 13       		.byte	0x13
 1315 0851 36       		.byte	0x36
 1316 0852 B4000000 		.4byte	0xb4
 1317 0856 04       		.byte	0x4
 1318 0857 08       		.uleb128 0x8
 1319 0858 35010000 		.4byte	.LASF114
 1320 085c 13       		.byte	0x13
 1321 085d 37       		.byte	0x37
 1322 085e B4000000 		.4byte	0xb4
 1323 0862 05       		.byte	0x5
 1324 0863 08       		.uleb128 0x8
 1325 0864 63030000 		.4byte	.LASF115
 1326 0868 13       		.byte	0x13
 1327 0869 38       		.byte	0x38
 1328 086a C4000000 		.4byte	0xc4
 1329 086e 06       		.byte	0x6
 1330 086f 08       		.uleb128 0x8
 1331 0870 FB070000 		.4byte	.LASF116
 1332 0874 13       		.byte	0x13
 1333 0875 39       		.byte	0x39
 1334 0876 B4000000 		.4byte	0xb4
 1335 087a 08       		.byte	0x8
 1336 087b 08       		.uleb128 0x8
 1337 087c B4060000 		.4byte	.LASF117
 1338 0880 13       		.byte	0x13
 1339 0881 3A       		.byte	0x3a
 1340 0882 B4000000 		.4byte	0xb4
 1341 0886 09       		.byte	0x9
 1342 0887 08       		.uleb128 0x8
 1343 0888 A5040000 		.4byte	.LASF118
 1344 088c 13       		.byte	0x13
 1345 088d 3B       		.byte	0x3b
 1346 088e B4000000 		.4byte	0xb4
 1347 0892 0A       		.byte	0xa
 1348 0893 08       		.uleb128 0x8
 1349 0894 20060000 		.4byte	.LASF119
 1350 0898 13       		.byte	0x13
 1351 0899 3C       		.byte	0x3c
 1352 089a B4000000 		.4byte	0xb4
 1353 089e 0B       		.byte	0xb
 1354 089f 08       		.uleb128 0x8
 1355 08a0 E7020000 		.4byte	.LASF120
 1356 08a4 13       		.byte	0x13
 1357 08a5 3D       		.byte	0x3d
 1358 08a6 B4000000 		.4byte	0xb4
 1359 08aa 0C       		.byte	0xc
 1360 08ab 08       		.uleb128 0x8
 1361 08ac F1030000 		.4byte	.LASF121
 1362 08b0 13       		.byte	0x13
 1363 08b1 3E       		.byte	0x3e
 1364 08b2 B4000000 		.4byte	0xb4
 1365 08b6 0D       		.byte	0xd
 1366 08b7 08       		.uleb128 0x8
 1367 08b8 A2070000 		.4byte	.LASF122
 1368 08bc 13       		.byte	0x13
ARM GAS  /tmp/ccWyQRpK.s 			page 25


 1369 08bd 3F       		.byte	0x3f
 1370 08be B4000000 		.4byte	0xb4
 1371 08c2 0E       		.byte	0xe
 1372 08c3 08       		.uleb128 0x8
 1373 08c4 32080000 		.4byte	.LASF123
 1374 08c8 13       		.byte	0x13
 1375 08c9 40       		.byte	0x40
 1376 08ca B4000000 		.4byte	0xb4
 1377 08ce 0F       		.byte	0xf
 1378 08cf 08       		.uleb128 0x8
 1379 08d0 29060000 		.4byte	.LASF124
 1380 08d4 13       		.byte	0x13
 1381 08d5 41       		.byte	0x41
 1382 08d6 B4000000 		.4byte	0xb4
 1383 08da 10       		.byte	0x10
 1384 08db 08       		.uleb128 0x8
 1385 08dc 77080000 		.4byte	.LASF125
 1386 08e0 13       		.byte	0x13
 1387 08e1 42       		.byte	0x42
 1388 08e2 B4000000 		.4byte	0xb4
 1389 08e6 11       		.byte	0x11
 1390 08e7 08       		.uleb128 0x8
 1391 08e8 AC070000 		.4byte	.LASF126
 1392 08ec 13       		.byte	0x13
 1393 08ed 43       		.byte	0x43
 1394 08ee B4000000 		.4byte	0xb4
 1395 08f2 12       		.byte	0x12
 1396 08f3 08       		.uleb128 0x8
 1397 08f4 8E020000 		.4byte	.LASF127
 1398 08f8 13       		.byte	0x13
 1399 08f9 44       		.byte	0x44
 1400 08fa B4000000 		.4byte	0xb4
 1401 08fe 13       		.byte	0x13
 1402 08ff 08       		.uleb128 0x8
 1403 0900 B3010000 		.4byte	.LASF128
 1404 0904 13       		.byte	0x13
 1405 0905 45       		.byte	0x45
 1406 0906 B4000000 		.4byte	0xb4
 1407 090a 14       		.byte	0x14
 1408 090b 08       		.uleb128 0x8
 1409 090c 99060000 		.4byte	.LASF129
 1410 0910 13       		.byte	0x13
 1411 0911 46       		.byte	0x46
 1412 0912 B4000000 		.4byte	0xb4
 1413 0916 15       		.byte	0x15
 1414 0917 00       		.byte	0
 1415 0918 13       		.uleb128 0x13
 1416 0919 FD070000 		.4byte	0x7fd
 1417 091d 28090000 		.4byte	0x928
 1418 0921 14       		.uleb128 0x14
 1419 0922 8C040000 		.4byte	0x48c
 1420 0926 03       		.byte	0x3
 1421 0927 00       		.byte	0
 1422 0928 03       		.uleb128 0x3
 1423 0929 A9010000 		.4byte	.LASF130
 1424 092d 13       		.byte	0x13
 1425 092e 47       		.byte	0x47
ARM GAS  /tmp/ccWyQRpK.s 			page 26


 1426 092f 37080000 		.4byte	0x837
 1427 0933 05       		.uleb128 0x5
 1428 0934 28090000 		.4byte	0x928
 1429 0938 12       		.uleb128 0x12
 1430 0939 65020000 		.4byte	.LASF131
 1431 093d 13       		.byte	0x13
 1432 093e 6C       		.byte	0x6c
 1433 093f 33090000 		.4byte	0x933
 1434 0943 03       		.uleb128 0x3
 1435 0944 07020000 		.4byte	.LASF132
 1436 0948 11       		.byte	0x11
 1437 0949 34       		.byte	0x34
 1438 094a AF070000 		.4byte	0x7af
 1439 094e 0C       		.uleb128 0xc
 1440 094f 04       		.byte	0x4
 1441 0950 43090000 		.4byte	0x943
 1442 0954 04       		.uleb128 0x4
 1443 0955 01       		.byte	0x1
 1444 0956 02       		.byte	0x2
 1445 0957 04060000 		.4byte	.LASF133
 1446 095b 03       		.uleb128 0x3
 1447 095c 90040000 		.4byte	.LASF134
 1448 0960 14       		.byte	0x14
 1449 0961 47       		.byte	0x47
 1450 0962 66090000 		.4byte	0x966
 1451 0966 0C       		.uleb128 0xc
 1452 0967 04       		.byte	0x4
 1453 0968 6C090000 		.4byte	0x96c
 1454 096c 1B       		.uleb128 0x1b
 1455 096d 41030000 		.4byte	0x341
 1456 0971 80090000 		.4byte	0x980
 1457 0975 0F       		.uleb128 0xf
 1458 0976 2C000000 		.4byte	0x2c
 1459 097a 0F       		.uleb128 0xf
 1460 097b 37000000 		.4byte	0x37
 1461 097f 00       		.byte	0
 1462 0980 15       		.uleb128 0x15
 1463 0981 08       		.byte	0x8
 1464 0982 14       		.byte	0x14
 1465 0983 51       		.byte	0x51
 1466 0984 A1090000 		.4byte	0x9a1
 1467 0988 08       		.uleb128 0x8
 1468 0989 F9080000 		.4byte	.LASF135
 1469 098d 14       		.byte	0x14
 1470 098e 55       		.byte	0x55
 1471 098f A1090000 		.4byte	0x9a1
 1472 0993 00       		.byte	0
 1473 0994 08       		.uleb128 0x8
 1474 0995 2A030000 		.4byte	.LASF136
 1475 0999 14       		.byte	0x14
 1476 099a 59       		.byte	0x59
 1477 099b A1090000 		.4byte	0x9a1
 1478 099f 04       		.byte	0x4
 1479 09a0 00       		.byte	0
 1480 09a1 0C       		.uleb128 0xc
 1481 09a2 04       		.byte	0x4
 1482 09a3 B4000000 		.4byte	0xb4
ARM GAS  /tmp/ccWyQRpK.s 			page 27


 1483 09a7 03       		.uleb128 0x3
 1484 09a8 7B040000 		.4byte	.LASF137
 1485 09ac 14       		.byte	0x14
 1486 09ad 5A       		.byte	0x5a
 1487 09ae 80090000 		.4byte	0x980
 1488 09b2 12       		.uleb128 0x12
 1489 09b3 55070000 		.4byte	.LASF138
 1490 09b7 14       		.byte	0x14
 1491 09b8 65       		.byte	0x65
 1492 09b9 A7090000 		.4byte	0x9a7
 1493 09bd 07       		.uleb128 0x7
 1494 09be 26080000 		.4byte	.LASF139
 1495 09c2 04       		.byte	0x4
 1496 09c3 15       		.byte	0x15
 1497 09c4 38       		.byte	0x38
 1498 09c5 D6090000 		.4byte	0x9d6
 1499 09c9 08       		.uleb128 0x8
 1500 09ca 0D010000 		.4byte	.LASF52
 1501 09ce 15       		.byte	0x15
 1502 09cf 39       		.byte	0x39
 1503 09d0 D6090000 		.4byte	0x9d6
 1504 09d4 00       		.byte	0
 1505 09d5 00       		.byte	0
 1506 09d6 0C       		.uleb128 0xc
 1507 09d7 04       		.byte	0x4
 1508 09d8 BD090000 		.4byte	0x9bd
 1509 09dc 15       		.uleb128 0x15
 1510 09dd 10       		.byte	0x10
 1511 09de 15       		.byte	0x15
 1512 09df 40       		.byte	0x40
 1513 09e0 150A0000 		.4byte	0xa15
 1514 09e4 08       		.uleb128 0x8
 1515 09e5 0D010000 		.4byte	.LASF52
 1516 09e9 15       		.byte	0x15
 1517 09ea 41       		.byte	0x41
 1518 09eb D6090000 		.4byte	0x9d6
 1519 09ef 00       		.byte	0
 1520 09f0 08       		.uleb128 0x8
 1521 09f1 EF070000 		.4byte	.LASF140
 1522 09f5 15       		.byte	0x15
 1523 09f6 42       		.byte	0x42
 1524 09f7 2C000000 		.4byte	0x2c
 1525 09fb 04       		.byte	0x4
 1526 09fc 08       		.uleb128 0x8
 1527 09fd 0F020000 		.4byte	.LASF141
 1528 0a01 15       		.byte	0x15
 1529 0a02 44       		.byte	0x44
 1530 0a03 37000000 		.4byte	0x37
 1531 0a07 08       		.byte	0x8
 1532 0a08 08       		.uleb128 0x8
 1533 0a09 72000000 		.4byte	.LASF142
 1534 0a0d 15       		.byte	0x15
 1535 0a0e 45       		.byte	0x45
 1536 0a0f 5B090000 		.4byte	0x95b
 1537 0a13 0C       		.byte	0xc
 1538 0a14 00       		.byte	0
 1539 0a15 03       		.uleb128 0x3
ARM GAS  /tmp/ccWyQRpK.s 			page 28


 1540 0a16 6E020000 		.4byte	.LASF143
 1541 0a1a 15       		.byte	0x15
 1542 0a1b 47       		.byte	0x47
 1543 0a1c DC090000 		.4byte	0x9dc
 1544 0a20 07       		.uleb128 0x7
 1545 0a21 C5040000 		.4byte	.LASF144
 1546 0a25 10       		.byte	0x10
 1547 0a26 16       		.byte	0x16
 1548 0a27 A9       		.byte	0xa9
 1549 0a28 510A0000 		.4byte	0xa51
 1550 0a2c 08       		.uleb128 0x8
 1551 0a2d 0D010000 		.4byte	.LASF52
 1552 0a31 16       		.byte	0x16
 1553 0a32 AD       		.byte	0xad
 1554 0a33 510A0000 		.4byte	0xa51
 1555 0a37 00       		.byte	0
 1556 0a38 08       		.uleb128 0x8
 1557 0a39 B0040000 		.4byte	.LASF40
 1558 0a3d 16       		.byte	0x16
 1559 0a3e B1       		.byte	0xb1
 1560 0a3f 58010000 		.4byte	0x158
 1561 0a43 04       		.byte	0x4
 1562 0a44 08       		.uleb128 0x8
 1563 0a45 A6020000 		.4byte	.LASF36
 1564 0a49 16       		.byte	0x16
 1565 0a4a B3       		.byte	0xb3
 1566 0a4b 570A0000 		.4byte	0xa57
 1567 0a4f 08       		.byte	0x8
 1568 0a50 00       		.byte	0
 1569 0a51 0C       		.uleb128 0xc
 1570 0a52 04       		.byte	0x4
 1571 0a53 200A0000 		.4byte	0xa20
 1572 0a57 13       		.uleb128 0x13
 1573 0a58 FD070000 		.4byte	0x7fd
 1574 0a5c 670A0000 		.4byte	0xa67
 1575 0a60 14       		.uleb128 0x14
 1576 0a61 8C040000 		.4byte	0x48c
 1577 0a65 07       		.byte	0x7
 1578 0a66 00       		.byte	0
 1579 0a67 03       		.uleb128 0x3
 1580 0a68 FF000000 		.4byte	.LASF145
 1581 0a6c 16       		.byte	0x16
 1582 0a6d B7       		.byte	0xb7
 1583 0a6e 200A0000 		.4byte	0xa20
 1584 0a72 07       		.uleb128 0x7
 1585 0a73 C7030000 		.4byte	.LASF146
 1586 0a77 04       		.byte	0x4
 1587 0a78 16       		.byte	0x16
 1588 0a79 BC       		.byte	0xbc
 1589 0a7a 8B0A0000 		.4byte	0xa8b
 1590 0a7e 08       		.uleb128 0x8
 1591 0a7f 0D010000 		.4byte	.LASF52
 1592 0a83 16       		.byte	0x16
 1593 0a84 BD       		.byte	0xbd
 1594 0a85 8B0A0000 		.4byte	0xa8b
 1595 0a89 00       		.byte	0
 1596 0a8a 00       		.byte	0
ARM GAS  /tmp/ccWyQRpK.s 			page 29


 1597 0a8b 0C       		.uleb128 0xc
 1598 0a8c 04       		.byte	0x4
 1599 0a8d 670A0000 		.4byte	0xa67
 1600 0a91 03       		.uleb128 0x3
 1601 0a92 D0020000 		.4byte	.LASF147
 1602 0a96 16       		.byte	0x16
 1603 0a97 BE       		.byte	0xbe
 1604 0a98 720A0000 		.4byte	0xa72
 1605 0a9c 0D       		.uleb128 0xd
 1606 0a9d 03080000 		.4byte	.LASF148
 1607 0aa1 48       		.byte	0x48
 1608 0aa2 16       		.byte	0x16
 1609 0aa3 3E01     		.2byte	0x13e
 1610 0aa5 120B0000 		.4byte	0xb12
 1611 0aa9 0A       		.uleb128 0xa
 1612 0aaa 6D747800 		.ascii	"mtx\000"
 1613 0aae 16       		.byte	0x16
 1614 0aaf 4301     		.2byte	0x143
 1615 0ab1 43090000 		.4byte	0x943
 1616 0ab5 00       		.byte	0
 1617 0ab6 0B       		.uleb128 0xb
 1618 0ab7 1E070000 		.4byte	.LASF149
 1619 0abb 16       		.byte	0x16
 1620 0abc 4A01     		.2byte	0x14a
 1621 0abe 910A0000 		.4byte	0xa91
 1622 0ac2 14       		.byte	0x14
 1623 0ac3 0B       		.uleb128 0xb
 1624 0ac4 72060000 		.4byte	.LASF150
 1625 0ac8 16       		.byte	0x16
 1626 0ac9 4E01     		.2byte	0x14e
 1627 0acb 150A0000 		.4byte	0xa15
 1628 0acf 18       		.byte	0x18
 1629 0ad0 0B       		.uleb128 0xb
 1630 0ad1 F2050000 		.4byte	.LASF151
 1631 0ad5 16       		.byte	0x16
 1632 0ad6 5301     		.2byte	0x153
 1633 0ad8 910A0000 		.4byte	0xa91
 1634 0adc 28       		.byte	0x28
 1635 0add 0B       		.uleb128 0xb
 1636 0ade 7B000000 		.4byte	.LASF152
 1637 0ae2 16       		.byte	0x16
 1638 0ae3 5901     		.2byte	0x159
 1639 0ae5 910A0000 		.4byte	0xa91
 1640 0ae9 2C       		.byte	0x2c
 1641 0aea 0B       		.uleb128 0xb
 1642 0aeb 5F040000 		.4byte	.LASF153
 1643 0aef 16       		.byte	0x16
 1644 0af0 5D01     		.2byte	0x15d
 1645 0af2 150A0000 		.4byte	0xa15
 1646 0af6 30       		.byte	0x30
 1647 0af7 0B       		.uleb128 0xb
 1648 0af8 D3010000 		.4byte	.LASF154
 1649 0afc 16       		.byte	0x16
 1650 0afd 6301     		.2byte	0x163
 1651 0aff 910A0000 		.4byte	0xa91
 1652 0b03 40       		.byte	0x40
 1653 0b04 0B       		.uleb128 0xb
ARM GAS  /tmp/ccWyQRpK.s 			page 30


 1654 0b05 49080000 		.4byte	.LASF155
 1655 0b09 16       		.byte	0x16
 1656 0b0a 6901     		.2byte	0x169
 1657 0b0c 910A0000 		.4byte	0xa91
 1658 0b10 44       		.byte	0x44
 1659 0b11 00       		.byte	0
 1660 0b12 1C       		.uleb128 0x1c
 1661 0b13 81080000 		.4byte	.LASF156
 1662 0b17 16       		.byte	0x16
 1663 0b18 7101     		.2byte	0x171
 1664 0b1a 9C0A0000 		.4byte	0xa9c
 1665 0b1e 11       		.uleb128 0x11
 1666 0b1f 67060000 		.4byte	.LASF157
 1667 0b23 16       		.byte	0x16
 1668 0b24 7C01     		.2byte	0x17c
 1669 0b26 120B0000 		.4byte	0xb12
 1670 0b2a 1D       		.uleb128 0x1d
 1671 0b2b 9F080000 		.4byte	.LASF158
 1672 0b2f 01       		.byte	0x1
 1673 0b30 77       		.byte	0x77
 1674 0b31 00000000 		.4byte	.LFB307
 1675 0b35 0C000000 		.4byte	.LFE307-.LFB307
 1676 0b39 01       		.uleb128 0x1
 1677 0b3a 9C       		.byte	0x9c
 1678 0b3b 490B0000 		.4byte	0xb49
 1679 0b3f 1E       		.uleb128 0x1e
 1680 0b40 06000000 		.4byte	.LVL13
 1681 0b44 F80C0000 		.4byte	0xcf8
 1682 0b48 00       		.byte	0
 1683 0b49 1D       		.uleb128 0x1d
 1684 0b4a 41040000 		.4byte	.LASF159
 1685 0b4e 01       		.byte	0x1
 1686 0b4f 6F       		.byte	0x6f
 1687 0b50 00000000 		.4byte	.LFB306
 1688 0b54 0C000000 		.4byte	.LFE306-.LFB306
 1689 0b58 01       		.uleb128 0x1
 1690 0b59 9C       		.byte	0x9c
 1691 0b5a 680B0000 		.4byte	0xb68
 1692 0b5e 1E       		.uleb128 0x1e
 1693 0b5f 06000000 		.4byte	.LVL12
 1694 0b63 030D0000 		.4byte	0xd03
 1695 0b67 00       		.byte	0
 1696 0b68 1D       		.uleb128 0x1d
 1697 0b69 6B030000 		.4byte	.LASF160
 1698 0b6d 01       		.byte	0x1
 1699 0b6e 67       		.byte	0x67
 1700 0b6f 00000000 		.4byte	.LFB305
 1701 0b73 0C000000 		.4byte	.LFE305-.LFB305
 1702 0b77 01       		.uleb128 0x1
 1703 0b78 9C       		.byte	0x9c
 1704 0b79 870B0000 		.4byte	0xb87
 1705 0b7d 1E       		.uleb128 0x1e
 1706 0b7e 06000000 		.4byte	.LVL11
 1707 0b82 F80C0000 		.4byte	0xcf8
 1708 0b86 00       		.byte	0
 1709 0b87 1D       		.uleb128 0x1d
 1710 0b88 D3030000 		.4byte	.LASF161
ARM GAS  /tmp/ccWyQRpK.s 			page 31


 1711 0b8c 01       		.byte	0x1
 1712 0b8d 5F       		.byte	0x5f
 1713 0b8e 00000000 		.4byte	.LFB304
 1714 0b92 0C000000 		.4byte	.LFE304-.LFB304
 1715 0b96 01       		.uleb128 0x1
 1716 0b97 9C       		.byte	0x9c
 1717 0b98 A60B0000 		.4byte	0xba6
 1718 0b9c 1E       		.uleb128 0x1e
 1719 0b9d 06000000 		.4byte	.LVL10
 1720 0ba1 030D0000 		.4byte	0xd03
 1721 0ba5 00       		.byte	0
 1722 0ba6 1D       		.uleb128 0x1d
 1723 0ba7 53080000 		.4byte	.LASF162
 1724 0bab 01       		.byte	0x1
 1725 0bac 56       		.byte	0x56
 1726 0bad 00000000 		.4byte	.LFB303
 1727 0bb1 20000000 		.4byte	.LFE303-.LFB303
 1728 0bb5 01       		.uleb128 0x1
 1729 0bb6 9C       		.byte	0x9c
 1730 0bb7 F60B0000 		.4byte	0xbf6
 1731 0bbb 1F       		.uleb128 0x1f
 1732 0bbc 6E747000 		.ascii	"ntp\000"
 1733 0bc0 01       		.byte	0x1
 1734 0bc1 56       		.byte	0x56
 1735 0bc2 64020000 		.4byte	0x264
 1736 0bc6 00000000 		.4byte	.LLST2
 1737 0bca 1F       		.uleb128 0x1f
 1738 0bcb 6F747000 		.ascii	"otp\000"
 1739 0bcf 01       		.byte	0x1
 1740 0bd0 56       		.byte	0x56
 1741 0bd1 64020000 		.4byte	0x264
 1742 0bd5 2F000000 		.4byte	.LLST3
 1743 0bd9 20       		.uleb128 0x20
 1744 0bda 1A000000 		.4byte	.LVL9
 1745 0bde 0E0D0000 		.4byte	0xd0e
 1746 0be2 21       		.uleb128 0x21
 1747 0be3 01       		.uleb128 0x1
 1748 0be4 50       		.byte	0x50
 1749 0be5 05       		.uleb128 0x5
 1750 0be6 F3       		.byte	0xf3
 1751 0be7 01       		.uleb128 0x1
 1752 0be8 51       		.byte	0x51
 1753 0be9 23       		.byte	0x23
 1754 0bea 48       		.uleb128 0x48
 1755 0beb 21       		.uleb128 0x21
 1756 0bec 01       		.uleb128 0x1
 1757 0bed 51       		.byte	0x51
 1758 0bee 05       		.uleb128 0x5
 1759 0bef F3       		.byte	0xf3
 1760 0bf0 01       		.uleb128 0x1
 1761 0bf1 50       		.byte	0x50
 1762 0bf2 23       		.byte	0x23
 1763 0bf3 48       		.uleb128 0x48
 1764 0bf4 00       		.byte	0
 1765 0bf5 00       		.byte	0
 1766 0bf6 1D       		.uleb128 0x1d
 1767 0bf7 C6060000 		.4byte	.LASF163
ARM GAS  /tmp/ccWyQRpK.s 			page 32


 1768 0bfb 01       		.byte	0x1
 1769 0bfc 49       		.byte	0x49
 1770 0bfd 00000000 		.4byte	.LFB302
 1771 0c01 20000000 		.4byte	.LFE302-.LFB302
 1772 0c05 01       		.uleb128 0x1
 1773 0c06 9C       		.byte	0x9c
 1774 0c07 860C0000 		.4byte	0xc86
 1775 0c0b 22       		.uleb128 0x22
 1776 0c0c C30C0000 		.4byte	0xcc3
 1777 0c10 00000000 		.4byte	.LBB24
 1778 0c14 06000000 		.4byte	.LBE24-.LBB24
 1779 0c18 01       		.byte	0x1
 1780 0c19 4B       		.byte	0x4b
 1781 0c1a 4A0C0000 		.4byte	0xc4a
 1782 0c1e 23       		.uleb128 0x23
 1783 0c1f D50C0000 		.4byte	0xcd5
 1784 0c23 00000000 		.4byte	.LBB25
 1785 0c27 06000000 		.4byte	.LBE25-.LBB25
 1786 0c2b 0D       		.byte	0xd
 1787 0c2c 8302     		.2byte	0x283
 1788 0c2e 23       		.uleb128 0x23
 1789 0c2f DE0C0000 		.4byte	0xcde
 1790 0c33 00000000 		.4byte	.LBB26
 1791 0c37 06000000 		.4byte	.LBE26-.LBB26
 1792 0c3b 0D       		.byte	0xd
 1793 0c3c 6202     		.2byte	0x262
 1794 0c3e 24       		.uleb128 0x24
 1795 0c3f EB0C0000 		.4byte	0xceb
 1796 0c43 5E000000 		.4byte	.LLST0
 1797 0c47 00       		.byte	0
 1798 0c48 00       		.byte	0
 1799 0c49 00       		.byte	0
 1800 0c4a 25       		.uleb128 0x25
 1801 0c4b BA0C0000 		.4byte	0xcba
 1802 0c4f 12000000 		.4byte	.LBB28
 1803 0c53 0E000000 		.4byte	.LBE28-.LBB28
 1804 0c57 01       		.byte	0x1
 1805 0c58 4D       		.byte	0x4d
 1806 0c59 23       		.uleb128 0x23
 1807 0c5a CC0C0000 		.4byte	0xccc
 1808 0c5e 12000000 		.4byte	.LBB29
 1809 0c62 0E000000 		.4byte	.LBE29-.LBB29
 1810 0c66 0D       		.byte	0xd
 1811 0c67 8E02     		.2byte	0x28e
 1812 0c69 23       		.uleb128 0x23
 1813 0c6a DE0C0000 		.4byte	0xcde
 1814 0c6e 12000000 		.4byte	.LBB30
 1815 0c72 0E000000 		.4byte	.LBE30-.LBB30
 1816 0c76 0D       		.byte	0xd
 1817 0c77 7502     		.2byte	0x275
 1818 0c79 24       		.uleb128 0x24
 1819 0c7a EB0C0000 		.4byte	0xceb
 1820 0c7e 73000000 		.4byte	.LLST1
 1821 0c82 00       		.byte	0
 1822 0c83 00       		.byte	0
 1823 0c84 00       		.byte	0
 1824 0c85 00       		.byte	0
ARM GAS  /tmp/ccWyQRpK.s 			page 33


 1825 0c86 1D       		.uleb128 0x1d
 1826 0c87 93080000 		.4byte	.LASF164
 1827 0c8b 01       		.byte	0x1
 1828 0c8c 3E       		.byte	0x3e
 1829 0c8d 00000000 		.4byte	.LFB301
 1830 0c91 28000000 		.4byte	.LFE301-.LFB301
 1831 0c95 01       		.uleb128 0x1
 1832 0c96 9C       		.byte	0x9c
 1833 0c97 BA0C0000 		.4byte	0xcba
 1834 0c9b 26       		.uleb128 0x26
 1835 0c9c 16000000 		.4byte	.LVL0
 1836 0ca0 190D0000 		.4byte	0xd19
 1837 0ca4 B00C0000 		.4byte	0xcb0
 1838 0ca8 21       		.uleb128 0x21
 1839 0ca9 01       		.uleb128 0x1
 1840 0caa 50       		.byte	0x50
 1841 0cab 03       		.uleb128 0x3
 1842 0cac 74       		.byte	0x74
 1843 0cad A001     		.sleb128 160
 1844 0caf 00       		.byte	0
 1845 0cb0 1E       		.uleb128 0x1e
 1846 0cb1 22000000 		.4byte	.LVL1
 1847 0cb5 190D0000 		.4byte	0xd19
 1848 0cb9 00       		.byte	0
 1849 0cba 27       		.uleb128 0x27
 1850 0cbb 32070000 		.4byte	.LASF165
 1851 0cbf 0D       		.byte	0xd
 1852 0cc0 8C02     		.2byte	0x28c
 1853 0cc2 03       		.byte	0x3
 1854 0cc3 27       		.uleb128 0x27
 1855 0cc4 DC070000 		.4byte	.LASF166
 1856 0cc8 0D       		.byte	0xd
 1857 0cc9 8102     		.2byte	0x281
 1858 0ccb 03       		.byte	0x3
 1859 0ccc 27       		.uleb128 0x27
 1860 0ccd 4F010000 		.4byte	.LASF167
 1861 0cd1 0D       		.byte	0xd
 1862 0cd2 7202     		.2byte	0x272
 1863 0cd4 03       		.byte	0x3
 1864 0cd5 27       		.uleb128 0x27
 1865 0cd6 84000000 		.4byte	.LASF168
 1866 0cda 0D       		.byte	0xd
 1867 0cdb 5A02     		.2byte	0x25a
 1868 0cdd 03       		.byte	0x3
 1869 0cde 28       		.uleb128 0x28
 1870 0cdf 73070000 		.4byte	.LASF176
 1871 0ce3 02       		.byte	0x2
 1872 0ce4 EB01     		.2byte	0x1eb
 1873 0ce6 03       		.byte	0x3
 1874 0ce7 F80C0000 		.4byte	0xcf8
 1875 0ceb 29       		.uleb128 0x29
 1876 0cec 40010000 		.4byte	.LASF177
 1877 0cf0 02       		.byte	0x2
 1878 0cf1 EB01     		.2byte	0x1eb
 1879 0cf3 DF000000 		.4byte	0xdf
 1880 0cf7 00       		.byte	0
 1881 0cf8 2A       		.uleb128 0x2a
ARM GAS  /tmp/ccWyQRpK.s 			page 34


 1882 0cf9 77010000 		.4byte	.LASF169
 1883 0cfd 77010000 		.4byte	.LASF169
 1884 0d01 0E       		.byte	0xe
 1885 0d02 5E       		.byte	0x5e
 1886 0d03 2A       		.uleb128 0x2a
 1887 0d04 5B010000 		.4byte	.LASF170
 1888 0d08 5B010000 		.4byte	.LASF170
 1889 0d0c 0E       		.byte	0xe
 1890 0d0d 5D       		.byte	0x5d
 1891 0d0e 2A       		.uleb128 0x2a
 1892 0d0f 31030000 		.4byte	.LASF171
 1893 0d13 31030000 		.4byte	.LASF171
 1894 0d17 0E       		.byte	0xe
 1895 0d18 5F       		.byte	0x5f
 1896 0d19 2A       		.uleb128 0x2a
 1897 0d1a F0000000 		.4byte	.LASF172
 1898 0d1e F0000000 		.4byte	.LASF172
 1899 0d22 0E       		.byte	0xe
 1900 0d23 5C       		.byte	0x5c
 1901 0d24 00       		.byte	0
 1902              		.section	.debug_abbrev,"",%progbits
 1903              	.Ldebug_abbrev0:
 1904 0000 01       		.uleb128 0x1
 1905 0001 11       		.uleb128 0x11
 1906 0002 01       		.byte	0x1
 1907 0003 25       		.uleb128 0x25
 1908 0004 0E       		.uleb128 0xe
 1909 0005 13       		.uleb128 0x13
 1910 0006 0B       		.uleb128 0xb
 1911 0007 03       		.uleb128 0x3
 1912 0008 0E       		.uleb128 0xe
 1913 0009 1B       		.uleb128 0x1b
 1914 000a 0E       		.uleb128 0xe
 1915 000b 55       		.uleb128 0x55
 1916 000c 17       		.uleb128 0x17
 1917 000d 11       		.uleb128 0x11
 1918 000e 01       		.uleb128 0x1
 1919 000f 10       		.uleb128 0x10
 1920 0010 17       		.uleb128 0x17
 1921 0011 00       		.byte	0
 1922 0012 00       		.byte	0
 1923 0013 02       		.uleb128 0x2
 1924 0014 24       		.uleb128 0x24
 1925 0015 00       		.byte	0
 1926 0016 0B       		.uleb128 0xb
 1927 0017 0B       		.uleb128 0xb
 1928 0018 3E       		.uleb128 0x3e
 1929 0019 0B       		.uleb128 0xb
 1930 001a 03       		.uleb128 0x3
 1931 001b 08       		.uleb128 0x8
 1932 001c 00       		.byte	0
 1933 001d 00       		.byte	0
 1934 001e 03       		.uleb128 0x3
 1935 001f 16       		.uleb128 0x16
 1936 0020 00       		.byte	0
 1937 0021 03       		.uleb128 0x3
 1938 0022 0E       		.uleb128 0xe
ARM GAS  /tmp/ccWyQRpK.s 			page 35


 1939 0023 3A       		.uleb128 0x3a
 1940 0024 0B       		.uleb128 0xb
 1941 0025 3B       		.uleb128 0x3b
 1942 0026 0B       		.uleb128 0xb
 1943 0027 49       		.uleb128 0x49
 1944 0028 13       		.uleb128 0x13
 1945 0029 00       		.byte	0
 1946 002a 00       		.byte	0
 1947 002b 04       		.uleb128 0x4
 1948 002c 24       		.uleb128 0x24
 1949 002d 00       		.byte	0
 1950 002e 0B       		.uleb128 0xb
 1951 002f 0B       		.uleb128 0xb
 1952 0030 3E       		.uleb128 0x3e
 1953 0031 0B       		.uleb128 0xb
 1954 0032 03       		.uleb128 0x3
 1955 0033 0E       		.uleb128 0xe
 1956 0034 00       		.byte	0
 1957 0035 00       		.byte	0
 1958 0036 05       		.uleb128 0x5
 1959 0037 26       		.uleb128 0x26
 1960 0038 00       		.byte	0
 1961 0039 49       		.uleb128 0x49
 1962 003a 13       		.uleb128 0x13
 1963 003b 00       		.byte	0
 1964 003c 00       		.byte	0
 1965 003d 06       		.uleb128 0x6
 1966 003e 35       		.uleb128 0x35
 1967 003f 00       		.byte	0
 1968 0040 49       		.uleb128 0x49
 1969 0041 13       		.uleb128 0x13
 1970 0042 00       		.byte	0
 1971 0043 00       		.byte	0
 1972 0044 07       		.uleb128 0x7
 1973 0045 13       		.uleb128 0x13
 1974 0046 01       		.byte	0x1
 1975 0047 03       		.uleb128 0x3
 1976 0048 0E       		.uleb128 0xe
 1977 0049 0B       		.uleb128 0xb
 1978 004a 0B       		.uleb128 0xb
 1979 004b 3A       		.uleb128 0x3a
 1980 004c 0B       		.uleb128 0xb
 1981 004d 3B       		.uleb128 0x3b
 1982 004e 0B       		.uleb128 0xb
 1983 004f 01       		.uleb128 0x1
 1984 0050 13       		.uleb128 0x13
 1985 0051 00       		.byte	0
 1986 0052 00       		.byte	0
 1987 0053 08       		.uleb128 0x8
 1988 0054 0D       		.uleb128 0xd
 1989 0055 00       		.byte	0
 1990 0056 03       		.uleb128 0x3
 1991 0057 0E       		.uleb128 0xe
 1992 0058 3A       		.uleb128 0x3a
 1993 0059 0B       		.uleb128 0xb
 1994 005a 3B       		.uleb128 0x3b
 1995 005b 0B       		.uleb128 0xb
ARM GAS  /tmp/ccWyQRpK.s 			page 36


 1996 005c 49       		.uleb128 0x49
 1997 005d 13       		.uleb128 0x13
 1998 005e 38       		.uleb128 0x38
 1999 005f 0B       		.uleb128 0xb
 2000 0060 00       		.byte	0
 2001 0061 00       		.byte	0
 2002 0062 09       		.uleb128 0x9
 2003 0063 0D       		.uleb128 0xd
 2004 0064 00       		.byte	0
 2005 0065 03       		.uleb128 0x3
 2006 0066 08       		.uleb128 0x8
 2007 0067 3A       		.uleb128 0x3a
 2008 0068 0B       		.uleb128 0xb
 2009 0069 3B       		.uleb128 0x3b
 2010 006a 0B       		.uleb128 0xb
 2011 006b 49       		.uleb128 0x49
 2012 006c 13       		.uleb128 0x13
 2013 006d 38       		.uleb128 0x38
 2014 006e 0B       		.uleb128 0xb
 2015 006f 00       		.byte	0
 2016 0070 00       		.byte	0
 2017 0071 0A       		.uleb128 0xa
 2018 0072 0D       		.uleb128 0xd
 2019 0073 00       		.byte	0
 2020 0074 03       		.uleb128 0x3
 2021 0075 08       		.uleb128 0x8
 2022 0076 3A       		.uleb128 0x3a
 2023 0077 0B       		.uleb128 0xb
 2024 0078 3B       		.uleb128 0x3b
 2025 0079 05       		.uleb128 0x5
 2026 007a 49       		.uleb128 0x49
 2027 007b 13       		.uleb128 0x13
 2028 007c 38       		.uleb128 0x38
 2029 007d 0B       		.uleb128 0xb
 2030 007e 00       		.byte	0
 2031 007f 00       		.byte	0
 2032 0080 0B       		.uleb128 0xb
 2033 0081 0D       		.uleb128 0xd
 2034 0082 00       		.byte	0
 2035 0083 03       		.uleb128 0x3
 2036 0084 0E       		.uleb128 0xe
 2037 0085 3A       		.uleb128 0x3a
 2038 0086 0B       		.uleb128 0xb
 2039 0087 3B       		.uleb128 0x3b
 2040 0088 05       		.uleb128 0x5
 2041 0089 49       		.uleb128 0x49
 2042 008a 13       		.uleb128 0x13
 2043 008b 38       		.uleb128 0x38
 2044 008c 0B       		.uleb128 0xb
 2045 008d 00       		.byte	0
 2046 008e 00       		.byte	0
 2047 008f 0C       		.uleb128 0xc
 2048 0090 0F       		.uleb128 0xf
 2049 0091 00       		.byte	0
 2050 0092 0B       		.uleb128 0xb
 2051 0093 0B       		.uleb128 0xb
 2052 0094 49       		.uleb128 0x49
ARM GAS  /tmp/ccWyQRpK.s 			page 37


 2053 0095 13       		.uleb128 0x13
 2054 0096 00       		.byte	0
 2055 0097 00       		.byte	0
 2056 0098 0D       		.uleb128 0xd
 2057 0099 13       		.uleb128 0x13
 2058 009a 01       		.byte	0x1
 2059 009b 03       		.uleb128 0x3
 2060 009c 0E       		.uleb128 0xe
 2061 009d 0B       		.uleb128 0xb
 2062 009e 0B       		.uleb128 0xb
 2063 009f 3A       		.uleb128 0x3a
 2064 00a0 0B       		.uleb128 0xb
 2065 00a1 3B       		.uleb128 0x3b
 2066 00a2 05       		.uleb128 0x5
 2067 00a3 01       		.uleb128 0x1
 2068 00a4 13       		.uleb128 0x13
 2069 00a5 00       		.byte	0
 2070 00a6 00       		.byte	0
 2071 00a7 0E       		.uleb128 0xe
 2072 00a8 15       		.uleb128 0x15
 2073 00a9 01       		.byte	0x1
 2074 00aa 27       		.uleb128 0x27
 2075 00ab 19       		.uleb128 0x19
 2076 00ac 01       		.uleb128 0x1
 2077 00ad 13       		.uleb128 0x13
 2078 00ae 00       		.byte	0
 2079 00af 00       		.byte	0
 2080 00b0 0F       		.uleb128 0xf
 2081 00b1 05       		.uleb128 0x5
 2082 00b2 00       		.byte	0
 2083 00b3 49       		.uleb128 0x49
 2084 00b4 13       		.uleb128 0x13
 2085 00b5 00       		.byte	0
 2086 00b6 00       		.byte	0
 2087 00b7 10       		.uleb128 0x10
 2088 00b8 0F       		.uleb128 0xf
 2089 00b9 00       		.byte	0
 2090 00ba 0B       		.uleb128 0xb
 2091 00bb 0B       		.uleb128 0xb
 2092 00bc 00       		.byte	0
 2093 00bd 00       		.byte	0
 2094 00be 11       		.uleb128 0x11
 2095 00bf 34       		.uleb128 0x34
 2096 00c0 00       		.byte	0
 2097 00c1 03       		.uleb128 0x3
 2098 00c2 0E       		.uleb128 0xe
 2099 00c3 3A       		.uleb128 0x3a
 2100 00c4 0B       		.uleb128 0xb
 2101 00c5 3B       		.uleb128 0x3b
 2102 00c6 05       		.uleb128 0x5
 2103 00c7 49       		.uleb128 0x49
 2104 00c8 13       		.uleb128 0x13
 2105 00c9 3F       		.uleb128 0x3f
 2106 00ca 19       		.uleb128 0x19
 2107 00cb 3C       		.uleb128 0x3c
 2108 00cc 19       		.uleb128 0x19
 2109 00cd 00       		.byte	0
ARM GAS  /tmp/ccWyQRpK.s 			page 38


 2110 00ce 00       		.byte	0
 2111 00cf 12       		.uleb128 0x12
 2112 00d0 34       		.uleb128 0x34
 2113 00d1 00       		.byte	0
 2114 00d2 03       		.uleb128 0x3
 2115 00d3 0E       		.uleb128 0xe
 2116 00d4 3A       		.uleb128 0x3a
 2117 00d5 0B       		.uleb128 0xb
 2118 00d6 3B       		.uleb128 0x3b
 2119 00d7 0B       		.uleb128 0xb
 2120 00d8 49       		.uleb128 0x49
 2121 00d9 13       		.uleb128 0x13
 2122 00da 3F       		.uleb128 0x3f
 2123 00db 19       		.uleb128 0x19
 2124 00dc 3C       		.uleb128 0x3c
 2125 00dd 19       		.uleb128 0x19
 2126 00de 00       		.byte	0
 2127 00df 00       		.byte	0
 2128 00e0 13       		.uleb128 0x13
 2129 00e1 01       		.uleb128 0x1
 2130 00e2 01       		.byte	0x1
 2131 00e3 49       		.uleb128 0x49
 2132 00e4 13       		.uleb128 0x13
 2133 00e5 01       		.uleb128 0x1
 2134 00e6 13       		.uleb128 0x13
 2135 00e7 00       		.byte	0
 2136 00e8 00       		.byte	0
 2137 00e9 14       		.uleb128 0x14
 2138 00ea 21       		.uleb128 0x21
 2139 00eb 00       		.byte	0
 2140 00ec 49       		.uleb128 0x49
 2141 00ed 13       		.uleb128 0x13
 2142 00ee 2F       		.uleb128 0x2f
 2143 00ef 0B       		.uleb128 0xb
 2144 00f0 00       		.byte	0
 2145 00f1 00       		.byte	0
 2146 00f2 15       		.uleb128 0x15
 2147 00f3 13       		.uleb128 0x13
 2148 00f4 01       		.byte	0x1
 2149 00f5 0B       		.uleb128 0xb
 2150 00f6 0B       		.uleb128 0xb
 2151 00f7 3A       		.uleb128 0x3a
 2152 00f8 0B       		.uleb128 0xb
 2153 00f9 3B       		.uleb128 0x3b
 2154 00fa 0B       		.uleb128 0xb
 2155 00fb 01       		.uleb128 0x1
 2156 00fc 13       		.uleb128 0x13
 2157 00fd 00       		.byte	0
 2158 00fe 00       		.byte	0
 2159 00ff 16       		.uleb128 0x16
 2160 0100 17       		.uleb128 0x17
 2161 0101 01       		.byte	0x1
 2162 0102 0B       		.uleb128 0xb
 2163 0103 0B       		.uleb128 0xb
 2164 0104 3A       		.uleb128 0x3a
 2165 0105 0B       		.uleb128 0xb
 2166 0106 3B       		.uleb128 0x3b
ARM GAS  /tmp/ccWyQRpK.s 			page 39


 2167 0107 0B       		.uleb128 0xb
 2168 0108 01       		.uleb128 0x1
 2169 0109 13       		.uleb128 0x13
 2170 010a 00       		.byte	0
 2171 010b 00       		.byte	0
 2172 010c 17       		.uleb128 0x17
 2173 010d 0D       		.uleb128 0xd
 2174 010e 00       		.byte	0
 2175 010f 03       		.uleb128 0x3
 2176 0110 0E       		.uleb128 0xe
 2177 0111 3A       		.uleb128 0x3a
 2178 0112 0B       		.uleb128 0xb
 2179 0113 3B       		.uleb128 0x3b
 2180 0114 0B       		.uleb128 0xb
 2181 0115 49       		.uleb128 0x49
 2182 0116 13       		.uleb128 0x13
 2183 0117 00       		.byte	0
 2184 0118 00       		.byte	0
 2185 0119 18       		.uleb128 0x18
 2186 011a 0D       		.uleb128 0xd
 2187 011b 00       		.byte	0
 2188 011c 03       		.uleb128 0x3
 2189 011d 0E       		.uleb128 0xe
 2190 011e 3A       		.uleb128 0x3a
 2191 011f 0B       		.uleb128 0xb
 2192 0120 3B       		.uleb128 0x3b
 2193 0121 05       		.uleb128 0x5
 2194 0122 49       		.uleb128 0x49
 2195 0123 13       		.uleb128 0x13
 2196 0124 00       		.byte	0
 2197 0125 00       		.byte	0
 2198 0126 19       		.uleb128 0x19
 2199 0127 34       		.uleb128 0x34
 2200 0128 00       		.byte	0
 2201 0129 03       		.uleb128 0x3
 2202 012a 08       		.uleb128 0x8
 2203 012b 3A       		.uleb128 0x3a
 2204 012c 0B       		.uleb128 0xb
 2205 012d 3B       		.uleb128 0x3b
 2206 012e 05       		.uleb128 0x5
 2207 012f 49       		.uleb128 0x49
 2208 0130 13       		.uleb128 0x13
 2209 0131 3F       		.uleb128 0x3f
 2210 0132 19       		.uleb128 0x19
 2211 0133 3C       		.uleb128 0x3c
 2212 0134 19       		.uleb128 0x19
 2213 0135 00       		.byte	0
 2214 0136 00       		.byte	0
 2215 0137 1A       		.uleb128 0x1a
 2216 0138 21       		.uleb128 0x21
 2217 0139 00       		.byte	0
 2218 013a 00       		.byte	0
 2219 013b 00       		.byte	0
 2220 013c 1B       		.uleb128 0x1b
 2221 013d 15       		.uleb128 0x15
 2222 013e 01       		.byte	0x1
 2223 013f 27       		.uleb128 0x27
ARM GAS  /tmp/ccWyQRpK.s 			page 40


 2224 0140 19       		.uleb128 0x19
 2225 0141 49       		.uleb128 0x49
 2226 0142 13       		.uleb128 0x13
 2227 0143 01       		.uleb128 0x1
 2228 0144 13       		.uleb128 0x13
 2229 0145 00       		.byte	0
 2230 0146 00       		.byte	0
 2231 0147 1C       		.uleb128 0x1c
 2232 0148 16       		.uleb128 0x16
 2233 0149 00       		.byte	0
 2234 014a 03       		.uleb128 0x3
 2235 014b 0E       		.uleb128 0xe
 2236 014c 3A       		.uleb128 0x3a
 2237 014d 0B       		.uleb128 0xb
 2238 014e 3B       		.uleb128 0x3b
 2239 014f 05       		.uleb128 0x5
 2240 0150 49       		.uleb128 0x49
 2241 0151 13       		.uleb128 0x13
 2242 0152 00       		.byte	0
 2243 0153 00       		.byte	0
 2244 0154 1D       		.uleb128 0x1d
 2245 0155 2E       		.uleb128 0x2e
 2246 0156 01       		.byte	0x1
 2247 0157 3F       		.uleb128 0x3f
 2248 0158 19       		.uleb128 0x19
 2249 0159 03       		.uleb128 0x3
 2250 015a 0E       		.uleb128 0xe
 2251 015b 3A       		.uleb128 0x3a
 2252 015c 0B       		.uleb128 0xb
 2253 015d 3B       		.uleb128 0x3b
 2254 015e 0B       		.uleb128 0xb
 2255 015f 27       		.uleb128 0x27
 2256 0160 19       		.uleb128 0x19
 2257 0161 11       		.uleb128 0x11
 2258 0162 01       		.uleb128 0x1
 2259 0163 12       		.uleb128 0x12
 2260 0164 06       		.uleb128 0x6
 2261 0165 40       		.uleb128 0x40
 2262 0166 18       		.uleb128 0x18
 2263 0167 9742     		.uleb128 0x2117
 2264 0169 19       		.uleb128 0x19
 2265 016a 01       		.uleb128 0x1
 2266 016b 13       		.uleb128 0x13
 2267 016c 00       		.byte	0
 2268 016d 00       		.byte	0
 2269 016e 1E       		.uleb128 0x1e
 2270 016f 898201   		.uleb128 0x4109
 2271 0172 00       		.byte	0
 2272 0173 11       		.uleb128 0x11
 2273 0174 01       		.uleb128 0x1
 2274 0175 9542     		.uleb128 0x2115
 2275 0177 19       		.uleb128 0x19
 2276 0178 31       		.uleb128 0x31
 2277 0179 13       		.uleb128 0x13
 2278 017a 00       		.byte	0
 2279 017b 00       		.byte	0
 2280 017c 1F       		.uleb128 0x1f
ARM GAS  /tmp/ccWyQRpK.s 			page 41


 2281 017d 05       		.uleb128 0x5
 2282 017e 00       		.byte	0
 2283 017f 03       		.uleb128 0x3
 2284 0180 08       		.uleb128 0x8
 2285 0181 3A       		.uleb128 0x3a
 2286 0182 0B       		.uleb128 0xb
 2287 0183 3B       		.uleb128 0x3b
 2288 0184 0B       		.uleb128 0xb
 2289 0185 49       		.uleb128 0x49
 2290 0186 13       		.uleb128 0x13
 2291 0187 02       		.uleb128 0x2
 2292 0188 17       		.uleb128 0x17
 2293 0189 00       		.byte	0
 2294 018a 00       		.byte	0
 2295 018b 20       		.uleb128 0x20
 2296 018c 898201   		.uleb128 0x4109
 2297 018f 01       		.byte	0x1
 2298 0190 11       		.uleb128 0x11
 2299 0191 01       		.uleb128 0x1
 2300 0192 9542     		.uleb128 0x2115
 2301 0194 19       		.uleb128 0x19
 2302 0195 31       		.uleb128 0x31
 2303 0196 13       		.uleb128 0x13
 2304 0197 00       		.byte	0
 2305 0198 00       		.byte	0
 2306 0199 21       		.uleb128 0x21
 2307 019a 8A8201   		.uleb128 0x410a
 2308 019d 00       		.byte	0
 2309 019e 02       		.uleb128 0x2
 2310 019f 18       		.uleb128 0x18
 2311 01a0 9142     		.uleb128 0x2111
 2312 01a2 18       		.uleb128 0x18
 2313 01a3 00       		.byte	0
 2314 01a4 00       		.byte	0
 2315 01a5 22       		.uleb128 0x22
 2316 01a6 1D       		.uleb128 0x1d
 2317 01a7 01       		.byte	0x1
 2318 01a8 31       		.uleb128 0x31
 2319 01a9 13       		.uleb128 0x13
 2320 01aa 11       		.uleb128 0x11
 2321 01ab 01       		.uleb128 0x1
 2322 01ac 12       		.uleb128 0x12
 2323 01ad 06       		.uleb128 0x6
 2324 01ae 58       		.uleb128 0x58
 2325 01af 0B       		.uleb128 0xb
 2326 01b0 59       		.uleb128 0x59
 2327 01b1 0B       		.uleb128 0xb
 2328 01b2 01       		.uleb128 0x1
 2329 01b3 13       		.uleb128 0x13
 2330 01b4 00       		.byte	0
 2331 01b5 00       		.byte	0
 2332 01b6 23       		.uleb128 0x23
 2333 01b7 1D       		.uleb128 0x1d
 2334 01b8 01       		.byte	0x1
 2335 01b9 31       		.uleb128 0x31
 2336 01ba 13       		.uleb128 0x13
 2337 01bb 11       		.uleb128 0x11
ARM GAS  /tmp/ccWyQRpK.s 			page 42


 2338 01bc 01       		.uleb128 0x1
 2339 01bd 12       		.uleb128 0x12
 2340 01be 06       		.uleb128 0x6
 2341 01bf 58       		.uleb128 0x58
 2342 01c0 0B       		.uleb128 0xb
 2343 01c1 59       		.uleb128 0x59
 2344 01c2 05       		.uleb128 0x5
 2345 01c3 00       		.byte	0
 2346 01c4 00       		.byte	0
 2347 01c5 24       		.uleb128 0x24
 2348 01c6 05       		.uleb128 0x5
 2349 01c7 00       		.byte	0
 2350 01c8 31       		.uleb128 0x31
 2351 01c9 13       		.uleb128 0x13
 2352 01ca 02       		.uleb128 0x2
 2353 01cb 17       		.uleb128 0x17
 2354 01cc 00       		.byte	0
 2355 01cd 00       		.byte	0
 2356 01ce 25       		.uleb128 0x25
 2357 01cf 1D       		.uleb128 0x1d
 2358 01d0 01       		.byte	0x1
 2359 01d1 31       		.uleb128 0x31
 2360 01d2 13       		.uleb128 0x13
 2361 01d3 11       		.uleb128 0x11
 2362 01d4 01       		.uleb128 0x1
 2363 01d5 12       		.uleb128 0x12
 2364 01d6 06       		.uleb128 0x6
 2365 01d7 58       		.uleb128 0x58
 2366 01d8 0B       		.uleb128 0xb
 2367 01d9 59       		.uleb128 0x59
 2368 01da 0B       		.uleb128 0xb
 2369 01db 00       		.byte	0
 2370 01dc 00       		.byte	0
 2371 01dd 26       		.uleb128 0x26
 2372 01de 898201   		.uleb128 0x4109
 2373 01e1 01       		.byte	0x1
 2374 01e2 11       		.uleb128 0x11
 2375 01e3 01       		.uleb128 0x1
 2376 01e4 31       		.uleb128 0x31
 2377 01e5 13       		.uleb128 0x13
 2378 01e6 01       		.uleb128 0x1
 2379 01e7 13       		.uleb128 0x13
 2380 01e8 00       		.byte	0
 2381 01e9 00       		.byte	0
 2382 01ea 27       		.uleb128 0x27
 2383 01eb 2E       		.uleb128 0x2e
 2384 01ec 00       		.byte	0
 2385 01ed 03       		.uleb128 0x3
 2386 01ee 0E       		.uleb128 0xe
 2387 01ef 3A       		.uleb128 0x3a
 2388 01f0 0B       		.uleb128 0xb
 2389 01f1 3B       		.uleb128 0x3b
 2390 01f2 05       		.uleb128 0x5
 2391 01f3 27       		.uleb128 0x27
 2392 01f4 19       		.uleb128 0x19
 2393 01f5 20       		.uleb128 0x20
 2394 01f6 0B       		.uleb128 0xb
ARM GAS  /tmp/ccWyQRpK.s 			page 43


 2395 01f7 00       		.byte	0
 2396 01f8 00       		.byte	0
 2397 01f9 28       		.uleb128 0x28
 2398 01fa 2E       		.uleb128 0x2e
 2399 01fb 01       		.byte	0x1
 2400 01fc 03       		.uleb128 0x3
 2401 01fd 0E       		.uleb128 0xe
 2402 01fe 3A       		.uleb128 0x3a
 2403 01ff 0B       		.uleb128 0xb
 2404 0200 3B       		.uleb128 0x3b
 2405 0201 05       		.uleb128 0x5
 2406 0202 27       		.uleb128 0x27
 2407 0203 19       		.uleb128 0x19
 2408 0204 20       		.uleb128 0x20
 2409 0205 0B       		.uleb128 0xb
 2410 0206 01       		.uleb128 0x1
 2411 0207 13       		.uleb128 0x13
 2412 0208 00       		.byte	0
 2413 0209 00       		.byte	0
 2414 020a 29       		.uleb128 0x29
 2415 020b 05       		.uleb128 0x5
 2416 020c 00       		.byte	0
 2417 020d 03       		.uleb128 0x3
 2418 020e 0E       		.uleb128 0xe
 2419 020f 3A       		.uleb128 0x3a
 2420 0210 0B       		.uleb128 0xb
 2421 0211 3B       		.uleb128 0x3b
 2422 0212 05       		.uleb128 0x5
 2423 0213 49       		.uleb128 0x49
 2424 0214 13       		.uleb128 0x13
 2425 0215 00       		.byte	0
 2426 0216 00       		.byte	0
 2427 0217 2A       		.uleb128 0x2a
 2428 0218 2E       		.uleb128 0x2e
 2429 0219 00       		.byte	0
 2430 021a 3F       		.uleb128 0x3f
 2431 021b 19       		.uleb128 0x19
 2432 021c 3C       		.uleb128 0x3c
 2433 021d 19       		.uleb128 0x19
 2434 021e 6E       		.uleb128 0x6e
 2435 021f 0E       		.uleb128 0xe
 2436 0220 03       		.uleb128 0x3
 2437 0221 0E       		.uleb128 0xe
 2438 0222 3A       		.uleb128 0x3a
 2439 0223 0B       		.uleb128 0xb
 2440 0224 3B       		.uleb128 0x3b
 2441 0225 0B       		.uleb128 0xb
 2442 0226 00       		.byte	0
 2443 0227 00       		.byte	0
 2444 0228 00       		.byte	0
 2445              		.section	.debug_loc,"",%progbits
 2446              	.Ldebug_loc0:
 2447              	.LLST2:
 2448 0000 00000000 		.4byte	.LVL6
 2449 0004 16000000 		.4byte	.LVL8
 2450 0008 0100     		.2byte	0x1
 2451 000a 50       		.byte	0x50
ARM GAS  /tmp/ccWyQRpK.s 			page 44


 2452 000b 16000000 		.4byte	.LVL8
 2453 000f 19000000 		.4byte	.LVL9-1
 2454 0013 0400     		.2byte	0x4
 2455 0015 71       		.byte	0x71
 2456 0016 B87F     		.sleb128 -72
 2457 0018 9F       		.byte	0x9f
 2458 0019 19000000 		.4byte	.LVL9-1
 2459 001d 20000000 		.4byte	.LFE303
 2460 0021 0400     		.2byte	0x4
 2461 0023 F3       		.byte	0xf3
 2462 0024 01       		.uleb128 0x1
 2463 0025 50       		.byte	0x50
 2464 0026 9F       		.byte	0x9f
 2465 0027 00000000 		.4byte	0
 2466 002b 00000000 		.4byte	0
 2467              	.LLST3:
 2468 002f 00000000 		.4byte	.LVL6
 2469 0033 14000000 		.4byte	.LVL7
 2470 0037 0100     		.2byte	0x1
 2471 0039 51       		.byte	0x51
 2472 003a 14000000 		.4byte	.LVL7
 2473 003e 19000000 		.4byte	.LVL9-1
 2474 0042 0400     		.2byte	0x4
 2475 0044 73       		.byte	0x73
 2476 0045 B87F     		.sleb128 -72
 2477 0047 9F       		.byte	0x9f
 2478 0048 19000000 		.4byte	.LVL9-1
 2479 004c 20000000 		.4byte	.LFE303
 2480 0050 0400     		.2byte	0x4
 2481 0052 F3       		.byte	0xf3
 2482 0053 01       		.uleb128 0x1
 2483 0054 51       		.byte	0x51
 2484 0055 9F       		.byte	0x9f
 2485 0056 00000000 		.4byte	0
 2486 005a 00000000 		.4byte	0
 2487              	.LLST0:
 2488 005e 00000000 		.4byte	.LVL2
 2489 0062 06000000 		.4byte	.LVL3
 2490 0066 0300     		.2byte	0x3
 2491 0068 08       		.byte	0x8
 2492 0069 20       		.byte	0x20
 2493 006a 9F       		.byte	0x9f
 2494 006b 00000000 		.4byte	0
 2495 006f 00000000 		.4byte	0
 2496              	.LLST1:
 2497 0073 12000000 		.4byte	.LVL4
 2498 0077 18000000 		.4byte	.LVL5
 2499 007b 0200     		.2byte	0x2
 2500 007d 30       		.byte	0x30
 2501 007e 9F       		.byte	0x9f
 2502 007f 00000000 		.4byte	0
 2503 0083 00000000 		.4byte	0
 2504              		.section	.debug_aranges,"",%progbits
 2505 0000 4C000000 		.4byte	0x4c
 2506 0004 0200     		.2byte	0x2
 2507 0006 00000000 		.4byte	.Ldebug_info0
 2508 000a 04       		.byte	0x4
ARM GAS  /tmp/ccWyQRpK.s 			page 45


 2509 000b 00       		.byte	0
 2510 000c 0000     		.2byte	0
 2511 000e 0000     		.2byte	0
 2512 0010 00000000 		.4byte	.LFB301
 2513 0014 28000000 		.4byte	.LFE301-.LFB301
 2514 0018 00000000 		.4byte	.LFB302
 2515 001c 20000000 		.4byte	.LFE302-.LFB302
 2516 0020 00000000 		.4byte	.LFB303
 2517 0024 20000000 		.4byte	.LFE303-.LFB303
 2518 0028 00000000 		.4byte	.LFB304
 2519 002c 0C000000 		.4byte	.LFE304-.LFB304
 2520 0030 00000000 		.4byte	.LFB305
 2521 0034 0C000000 		.4byte	.LFE305-.LFB305
 2522 0038 00000000 		.4byte	.LFB306
 2523 003c 0C000000 		.4byte	.LFE306-.LFB306
 2524 0040 00000000 		.4byte	.LFB307
 2525 0044 0C000000 		.4byte	.LFE307-.LFB307
 2526 0048 00000000 		.4byte	0
 2527 004c 00000000 		.4byte	0
 2528              		.section	.debug_ranges,"",%progbits
 2529              	.Ldebug_ranges0:
 2530 0000 00000000 		.4byte	.LFB301
 2531 0004 28000000 		.4byte	.LFE301
 2532 0008 00000000 		.4byte	.LFB302
 2533 000c 20000000 		.4byte	.LFE302
 2534 0010 00000000 		.4byte	.LFB303
 2535 0014 20000000 		.4byte	.LFE303
 2536 0018 00000000 		.4byte	.LFB304
 2537 001c 0C000000 		.4byte	.LFE304
 2538 0020 00000000 		.4byte	.LFB305
 2539 0024 0C000000 		.4byte	.LFE305
 2540 0028 00000000 		.4byte	.LFB306
 2541 002c 0C000000 		.4byte	.LFE306
 2542 0030 00000000 		.4byte	.LFB307
 2543 0034 0C000000 		.4byte	.LFE307
 2544 0038 00000000 		.4byte	0
 2545 003c 00000000 		.4byte	0
 2546              		.section	.debug_line,"",%progbits
 2547              	.Ldebug_line0:
 2548 0000 EF030000 		.section	.debug_str,"MS",%progbits,1
 2548      02005A03 
 2548      00000201 
 2548      FB0E0D00 
 2548      01010101 
 2549              	.LASF56:
 2550 0000 72656164 		.ascii	"ready_list_t\000"
 2550      795F6C69 
 2550      73745F74 
 2550      00
 2551              	.LASF4:
 2552 000d 73697A65 		.ascii	"size_t\000"
 2552      5F7400
 2553              	.LASF62:
 2554 0014 64656C74 		.ascii	"delta\000"
 2554      6100
 2555              	.LASF99:
 2556 001a 7264796D 		.ascii	"rdymsg\000"
ARM GAS  /tmp/ccWyQRpK.s 			page 46


 2556      736700
 2557              	.LASF20:
 2558 0021 75696E74 		.ascii	"uint64_t\000"
 2558      36345F74 
 2558      00
 2559              	.LASF75:
 2560 002a 6B65726E 		.ascii	"kernel_stats\000"
 2560      656C5F73 
 2560      74617473 
 2560      00
 2561              	.LASF5:
 2562 0037 5F5F7569 		.ascii	"__uint8_t\000"
 2562      6E74385F 
 2562      7400
 2563              	.LASF55:
 2564 0041 70726576 		.ascii	"prev\000"
 2564      00
 2565              	.LASF86:
 2566 0046 706F7274 		.ascii	"port_intctx\000"
 2566      5F696E74 
 2566      63747800 
 2567              	.LASF54:
 2568 0052 63685F74 		.ascii	"ch_threads_queue\000"
 2568      68726561 
 2568      64735F71 
 2568      75657565 
 2568      00
 2569              	.LASF67:
 2570 0063 73797374 		.ascii	"system_debug_t\000"
 2570      656D5F64 
 2570      65627567 
 2570      5F7400
 2571              	.LASF142:
 2572 0072 70726F76 		.ascii	"provider\000"
 2572      69646572 
 2572      00
 2573              	.LASF152:
 2574 007b 73656D5F 		.ascii	"sem_list\000"
 2574      6C697374 
 2574      00
 2575              	.LASF168:
 2576 0084 706F7274 		.ascii	"port_lock\000"
 2576      5F6C6F63 
 2576      6B00
 2577              	.LASF90:
 2578 008e 776F7273 		.ascii	"worst\000"
 2578      7400
 2579              	.LASF93:
 2580 0094 74696D65 		.ascii	"time_measurement_t\000"
 2580      5F6D6561 
 2580      73757265 
 2580      6D656E74 
 2580      5F7400
 2581              	.LASF15:
 2582 00a7 6C6F6E67 		.ascii	"long long unsigned int\000"
 2582      206C6F6E 
 2582      6720756E 
ARM GAS  /tmp/ccWyQRpK.s 			page 47


 2582      7369676E 
 2582      65642069 
 2583              	.LASF100:
 2584 00be 65786974 		.ascii	"exitcode\000"
 2584      636F6465 
 2584      00
 2585              	.LASF74:
 2586 00c7 6D61696E 		.ascii	"mainthread\000"
 2586      74687265 
 2586      616400
 2587              	.LASF103:
 2588 00d2 73656E74 		.ascii	"sentmsg\000"
 2588      6D736700 
 2589              	.LASF64:
 2590 00da 76697274 		.ascii	"virtual_timers_list_t\000"
 2590      75616C5F 
 2590      74696D65 
 2590      72735F6C 
 2590      6973745F 
 2591              	.LASF172:
 2592 00f0 6368544D 		.ascii	"chTMObjectInit\000"
 2592      4F626A65 
 2592      6374496E 
 2592      697400
 2593              	.LASF145:
 2594 00ff 64796E5F 		.ascii	"dyn_element_t\000"
 2594      656C656D 
 2594      656E745F 
 2594      7400
 2595              	.LASF52:
 2596 010d 6E657874 		.ascii	"next\000"
 2596      00
 2597              	.LASF22:
 2598 0112 72747469 		.ascii	"rttime_t\000"
 2598      6D655F74 
 2598      00
 2599              	.LASF1:
 2600 011b 6C6F6E67 		.ascii	"long long int\000"
 2600      206C6F6E 
 2600      6720696E 
 2600      7400
 2601              	.LASF3:
 2602 0129 7369676E 		.ascii	"signed char\000"
 2602      65642063 
 2602      68617200 
 2603              	.LASF114:
 2604 0135 73697A65 		.ascii	"size\000"
 2604      00
 2605              	.LASF72:
 2606 013a 726C6973 		.ascii	"rlist\000"
 2606      7400
 2607              	.LASF177:
 2608 0140 62617365 		.ascii	"basePri\000"
 2608      50726900 
 2609              	.LASF73:
 2610 0148 76746C69 		.ascii	"vtlist\000"
 2610      737400
ARM GAS  /tmp/ccWyQRpK.s 			page 48


 2611              	.LASF167:
 2612 014f 706F7274 		.ascii	"port_unlock\000"
 2612      5F756E6C 
 2612      6F636B00 
 2613              	.LASF170:
 2614 015b 6368544D 		.ascii	"chTMStartMeasurementX\000"
 2614      53746172 
 2614      744D6561 
 2614      73757265 
 2614      6D656E74 
 2615              	.LASF38:
 2616 0171 73746174 		.ascii	"state\000"
 2616      6500
 2617              	.LASF169:
 2618 0177 6368544D 		.ascii	"chTMStopMeasurementX\000"
 2618      53746F70 
 2618      4D656173 
 2618      7572656D 
 2618      656E7458 
 2619              	.LASF11:
 2620 018c 6C6F6E67 		.ascii	"long int\000"
 2620      20696E74 
 2620      00
 2621              	.LASF24:
 2622 0195 74737461 		.ascii	"tstate_t\000"
 2622      74655F74 
 2622      00
 2623              	.LASF63:
 2624 019e 66756E63 		.ascii	"func\000"
 2624      00
 2625              	.LASF47:
 2626 01a3 73746174 		.ascii	"stats\000"
 2626      7300
 2627              	.LASF130:
 2628 01a9 63686465 		.ascii	"chdebug_t\000"
 2628      6275675F 
 2628      7400
 2629              	.LASF128:
 2630 01b3 6F66665F 		.ascii	"off_preempt\000"
 2630      70726565 
 2630      6D707400 
 2631              	.LASF12:
 2632 01bf 5F5F7569 		.ascii	"__uint32_t\000"
 2632      6E743332 
 2632      5F7400
 2633              	.LASF83:
 2634 01ca 72656761 		.ascii	"regarm_t\000"
 2634      726D5F74 
 2634      00
 2635              	.LASF154:
 2636 01d3 6D62785F 		.ascii	"mbx_list\000"
 2636      6C697374 
 2636      00
 2637              	.LASF68:
 2638 01dc 63685F73 		.ascii	"ch_system_debug\000"
 2638      79737465 
 2638      6D5F6465 
ARM GAS  /tmp/ccWyQRpK.s 			page 49


 2638      62756700 
 2639              	.LASF41:
 2640 01ec 77616974 		.ascii	"waiting\000"
 2640      696E6700 
 2641              	.LASF82:
 2642 01f4 41504250 		.ascii	"APBPrescTable\000"
 2642      72657363 
 2642      5461626C 
 2642      6500
 2643              	.LASF113:
 2644 0202 7A65726F 		.ascii	"zero\000"
 2644      00
 2645              	.LASF132:
 2646 0207 6D757465 		.ascii	"mutex_t\000"
 2646      785F7400 
 2647              	.LASF141:
 2648 020f 616C6967 		.ascii	"align\000"
 2648      6E00
 2649              	.LASF77:
 2650 0215 73797369 		.ascii	"sysinterval_t\000"
 2650      6E746572 
 2650      76616C5F 
 2650      7400
 2651              	.LASF29:
 2652 0223 636E745F 		.ascii	"cnt_t\000"
 2652      7400
 2653              	.LASF42:
 2654 0229 6D736771 		.ascii	"msgqueue\000"
 2654      75657565 
 2654      00
 2655              	.LASF0:
 2656 0232 756E7369 		.ascii	"unsigned int\000"
 2656      676E6564 
 2656      20696E74 
 2656      00
 2657              	.LASF17:
 2658 023f 75696E74 		.ascii	"uint16_t\000"
 2658      31365F74 
 2658      00
 2659              	.LASF80:
 2660 0248 53797374 		.ascii	"SystemCoreClock\000"
 2660      656D436F 
 2660      7265436C 
 2660      6F636B00 
 2661              	.LASF104:
 2662 0258 77747365 		.ascii	"wtsemp\000"
 2662      6D7000
 2663              	.LASF102:
 2664 025f 77747472 		.ascii	"wttrp\000"
 2664      7000
 2665              	.LASF131:
 2666 0265 63685F64 		.ascii	"ch_debug\000"
 2666      65627567 
 2666      00
 2667              	.LASF143:
 2668 026e 6D656D6F 		.ascii	"memory_pool_t\000"
 2668      72795F70 
ARM GAS  /tmp/ccWyQRpK.s 			page 50


 2668      6F6F6C5F 
 2668      7400
 2669              	.LASF94:
 2670 027c 6E5F6972 		.ascii	"n_irq\000"
 2670      7100
 2671              	.LASF32:
 2672 0282 71756575 		.ascii	"queue\000"
 2672      6500
 2673              	.LASF46:
 2674 0288 6D706F6F 		.ascii	"mpool\000"
 2674      6C00
 2675              	.LASF127:
 2676 028e 6F66665F 		.ascii	"off_refs\000"
 2676      72656673 
 2676      00
 2677              	.LASF98:
 2678 0297 6B65726E 		.ascii	"kernel_stats_t\000"
 2678      656C5F73 
 2678      74617473 
 2678      5F7400
 2679              	.LASF36:
 2680 02a6 6E616D65 		.ascii	"name\000"
 2680      00
 2681              	.LASF50:
 2682 02ab 63685F74 		.ascii	"ch_thread\000"
 2682      68726561 
 2682      6400
 2683              	.LASF27:
 2684 02b5 6D73675F 		.ascii	"msg_t\000"
 2684      7400
 2685              	.LASF91:
 2686 02bb 6C617374 		.ascii	"last\000"
 2686      00
 2687              	.LASF30:
 2688 02c0 75636E74 		.ascii	"ucnt_t\000"
 2688      5F7400
 2689              	.LASF43:
 2690 02c7 6570656E 		.ascii	"epending\000"
 2690      64696E67 
 2690      00
 2691              	.LASF147:
 2692 02d0 64796E5F 		.ascii	"dyn_list_t\000"
 2692      6C697374 
 2692      5F7400
 2693              	.LASF70:
 2694 02db 63685F73 		.ascii	"ch_system_t\000"
 2694      79737465 
 2694      6D5F7400 
 2695              	.LASF120:
 2696 02e7 6F66665F 		.ascii	"off_ctx\000"
 2696      63747800 
 2697              	.LASF23:
 2698 02ef 746D6F64 		.ascii	"tmode_t\000"
 2698      655F7400 
 2699              	.LASF97:
 2700 02f7 6D5F6372 		.ascii	"m_crit_isr\000"
 2700      69745F69 
ARM GAS  /tmp/ccWyQRpK.s 			page 51


 2700      737200
 2701              	.LASF57:
 2702 0302 63685F72 		.ascii	"ch_ready_list\000"
 2702      65616479 
 2702      5F6C6973 
 2702      7400
 2703              	.LASF28:
 2704 0310 6576656E 		.ascii	"eventmask_t\000"
 2704      746D6173 
 2704      6B5F7400 
 2705              	.LASF81:
 2706 031c 41484250 		.ascii	"AHBPrescTable\000"
 2706      72657363 
 2706      5461626C 
 2706      6500
 2707              	.LASF136:
 2708 032a 656E646D 		.ascii	"endmem\000"
 2708      656D00
 2709              	.LASF171:
 2710 0331 6368544D 		.ascii	"chTMChainMeasurementToX\000"
 2710      43686169 
 2710      6E4D6561 
 2710      73757265 
 2710      6D656E74 
 2711              	.LASF84:
 2712 0349 73746B61 		.ascii	"stkalign_t\000"
 2712      6C69676E 
 2712      5F7400
 2713              	.LASF34:
 2714 0354 6E657765 		.ascii	"newer\000"
 2714      7200
 2715              	.LASF45:
 2716 035a 7265616C 		.ascii	"realprio\000"
 2716      7072696F 
 2716      00
 2717              	.LASF115:
 2718 0363 76657273 		.ascii	"version\000"
 2718      696F6E00 
 2719              	.LASF160:
 2720 036b 5F737461 		.ascii	"_stats_stop_measure_crit_thd\000"
 2720      74735F73 
 2720      746F705F 
 2720      6D656173 
 2720      7572655F 
 2721              	.LASF78:
 2722 0388 73697A65 		.ascii	"sizetype\000"
 2722      74797065 
 2722      00
 2723              	.LASF48:
 2724 0391 74687265 		.ascii	"thread_reference_t\000"
 2724      61645F72 
 2724      65666572 
 2724      656E6365 
 2724      5F7400
 2725              	.LASF65:
 2726 03a4 63685F76 		.ascii	"ch_virtual_timers_list\000"
 2726      69727475 
ARM GAS  /tmp/ccWyQRpK.s 			page 52


 2726      616C5F74 
 2726      696D6572 
 2726      735F6C69 
 2727              	.LASF2:
 2728 03bb 6C6F6E67 		.ascii	"long double\000"
 2728      20646F75 
 2728      626C6500 
 2729              	.LASF146:
 2730 03c7 63685F64 		.ascii	"ch_dyn_list\000"
 2730      796E5F6C 
 2730      69737400 
 2731              	.LASF161:
 2732 03d3 5F737461 		.ascii	"_stats_start_measure_crit_thd\000"
 2732      74735F73 
 2732      74617274 
 2732      5F6D6561 
 2732      73757265 
 2733              	.LASF121:
 2734 03f1 6F66665F 		.ascii	"off_newer\000"
 2734      6E657765 
 2734      7200
 2735              	.LASF175:
 2736 03fb 2F686F6D 		.ascii	"/home/incsl/ardupilot/build/CUAVv5\000"
 2736      652F696E 
 2736      63736C2F 
 2736      61726475 
 2736      70696C6F 
 2737              	.LASF85:
 2738 041e 706F7274 		.ascii	"port_context\000"
 2738      5F636F6E 
 2738      74657874 
 2738      00
 2739              	.LASF88:
 2740 042b 746D5F63 		.ascii	"tm_calibration_t\000"
 2740      616C6962 
 2740      72617469 
 2740      6F6E5F74 
 2740      00
 2741              	.LASF33:
 2742 043c 7072696F 		.ascii	"prio\000"
 2742      00
 2743              	.LASF159:
 2744 0441 5F737461 		.ascii	"_stats_start_measure_crit_isr\000"
 2744      74735F73 
 2744      74617274 
 2744      5F6D6561 
 2744      73757265 
 2745              	.LASF153:
 2746 045f 73656D5F 		.ascii	"sem_pool\000"
 2746      706F6F6C 
 2746      00
 2747              	.LASF58:
 2748 0468 63757272 		.ascii	"current\000"
 2748      656E7400 
 2749              	.LASF14:
 2750 0470 5F5F7569 		.ascii	"__uint64_t\000"
 2750      6E743634 
ARM GAS  /tmp/ccWyQRpK.s 			page 53


 2750      5F7400
 2751              	.LASF137:
 2752 047b 6D656D63 		.ascii	"memcore_t\000"
 2752      6F72655F 
 2752      7400
 2753              	.LASF92:
 2754 0485 63756D75 		.ascii	"cumulative\000"
 2754      6C617469 
 2754      766500
 2755              	.LASF134:
 2756 0490 6D656D67 		.ascii	"memgetfunc_t\000"
 2756      65746675 
 2756      6E635F74 
 2756      00
 2757              	.LASF25:
 2758 049d 74726566 		.ascii	"trefs_t\000"
 2758      735F7400 
 2759              	.LASF118:
 2760 04a5 74687265 		.ascii	"threadsize\000"
 2760      61647369 
 2760      7A6500
 2761              	.LASF40:
 2762 04b0 72656673 		.ascii	"refs\000"
 2762      00
 2763              	.LASF60:
 2764 04b5 76697274 		.ascii	"virtual_timer_t\000"
 2764      75616C5F 
 2764      74696D65 
 2764      725F7400 
 2765              	.LASF144:
 2766 04c5 63685F64 		.ascii	"ch_dyn_element\000"
 2766      796E5F65 
 2766      6C656D65 
 2766      6E7400
 2767              	.LASF26:
 2768 04d4 74707269 		.ascii	"tprio_t\000"
 2768      6F5F7400 
 2769              	.LASF173:
 2770 04dc 474E5520 		.ascii	"GNU C11 6.3.1 20170620 (release) [ARM/embedded-6-br"
 2770      43313120 
 2770      362E332E 
 2770      31203230 
 2770      31373036 
 2771 050f 616E6368 		.ascii	"anch revision 249437] -mcpu=cortex-m7 -mfloat-abi=h"
 2771      20726576 
 2771      6973696F 
 2771      6E203234 
 2771      39343337 
 2772 0542 61726420 		.ascii	"ard -mfpu=fpv4-sp-d16 -mno-thumb-interwork -mthumb "
 2772      2D6D6670 
 2772      753D6670 
 2772      76342D73 
 2772      702D6431 
 2773 0575 2D67202D 		.ascii	"-g -Os -fomit-frame-pointer -falign-functions=16 -f"
 2773      4F73202D 
 2773      666F6D69 
 2773      742D6672 
ARM GAS  /tmp/ccWyQRpK.s 			page 54


 2773      616D652D 
 2774 05a8 66756E63 		.ascii	"function-sections -fdata-sections -fno-common -fsin"
 2774      74696F6E 
 2774      2D736563 
 2774      74696F6E 
 2774      73202D66 
 2775 05db 676C652D 		.ascii	"gle-precision-constant\000"
 2775      70726563 
 2775      6973696F 
 2775      6E2D636F 
 2775      6E737461 
 2776              	.LASF151:
 2777 05f2 6275665F 		.ascii	"buf_list\000"
 2777      6C697374 
 2777      00
 2778              	.LASF95:
 2779 05fb 6E5F6374 		.ascii	"n_ctxswc\000"
 2779      78737763 
 2779      00
 2780              	.LASF133:
 2781 0604 5F426F6F 		.ascii	"_Bool\000"
 2781      6C00
 2782              	.LASF18:
 2783 060a 696E7433 		.ascii	"int32_t\000"
 2783      325F7400 
 2784              	.LASF6:
 2785 0612 756E7369 		.ascii	"unsigned char\000"
 2785      676E6564 
 2785      20636861 
 2785      7200
 2786              	.LASF119:
 2787 0620 6F66665F 		.ascii	"off_prio\000"
 2787      7072696F 
 2787      00
 2788              	.LASF124:
 2789 0629 6F66665F 		.ascii	"off_stklimit\000"
 2789      73746B6C 
 2789      696D6974 
 2789      00
 2790              	.LASF79:
 2791 0636 49544D5F 		.ascii	"ITM_RxBuffer\000"
 2791      52784275 
 2791      66666572 
 2791      00
 2792              	.LASF7:
 2793 0643 73686F72 		.ascii	"short int\000"
 2793      7420696E 
 2793      7400
 2794              	.LASF66:
 2795 064d 6C617374 		.ascii	"lasttime\000"
 2795      74696D65 
 2795      00
 2796              	.LASF106:
 2797 0656 65776D61 		.ascii	"ewmask\000"
 2797      736B00
 2798              	.LASF71:
 2799 065d 63685F73 		.ascii	"ch_system\000"
ARM GAS  /tmp/ccWyQRpK.s 			page 55


 2799      79737465 
 2799      6D00
 2800              	.LASF157:
 2801 0667 63685F66 		.ascii	"ch_factory\000"
 2801      6163746F 
 2801      727900
 2802              	.LASF150:
 2803 0672 6F626A5F 		.ascii	"obj_pool\000"
 2803      706F6F6C 
 2803      00
 2804              	.LASF61:
 2805 067b 63685F76 		.ascii	"ch_virtual_timer\000"
 2805      69727475 
 2805      616C5F74 
 2805      696D6572 
 2805      00
 2806              	.LASF107:
 2807 068c 63685F73 		.ascii	"ch_semaphore\000"
 2807      656D6170 
 2807      686F7265 
 2807      00
 2808              	.LASF129:
 2809 0699 6F66665F 		.ascii	"off_time\000"
 2809      74696D65 
 2809      00
 2810              	.LASF111:
 2811 06a2 63685F69 		.ascii	"ch_idle_thread_wa\000"
 2811      646C655F 
 2811      74687265 
 2811      61645F77 
 2811      6100
 2812              	.LASF117:
 2813 06b4 74696D65 		.ascii	"timesize\000"
 2813      73697A65 
 2813      00
 2814              	.LASF19:
 2815 06bd 75696E74 		.ascii	"uint32_t\000"
 2815      33325F74 
 2815      00
 2816              	.LASF163:
 2817 06c6 5F737461 		.ascii	"_stats_increase_irq\000"
 2817      74735F69 
 2817      6E637265 
 2817      6173655F 
 2817      69727100 
 2818              	.LASF51:
 2819 06da 63685F74 		.ascii	"ch_threads_list\000"
 2819      68726561 
 2819      64735F6C 
 2819      69737400 
 2820              	.LASF109:
 2821 06ea 6F776E65 		.ascii	"owner\000"
 2821      7200
 2822              	.LASF13:
 2823 06f0 6C6F6E67 		.ascii	"long unsigned int\000"
 2823      20756E73 
 2823      69676E65 
ARM GAS  /tmp/ccWyQRpK.s 			page 56


 2823      6420696E 
 2823      7400
 2824              	.LASF37:
 2825 0702 77616261 		.ascii	"wabase\000"
 2825      736500
 2826              	.LASF110:
 2827 0709 63686172 		.ascii	"char\000"
 2827      00
 2828              	.LASF35:
 2829 070e 6F6C6465 		.ascii	"older\000"
 2829      7200
 2830              	.LASF10:
 2831 0714 5F5F696E 		.ascii	"__int32_t\000"
 2831      7433325F 
 2831      7400
 2832              	.LASF149:
 2833 071e 6F626A5F 		.ascii	"obj_list\000"
 2833      6C697374 
 2833      00
 2834              	.LASF8:
 2835 0727 5F5F7569 		.ascii	"__uint16_t\000"
 2835      6E743136 
 2835      5F7400
 2836              	.LASF165:
 2837 0732 706F7274 		.ascii	"port_unlock_from_isr\000"
 2837      5F756E6C 
 2837      6F636B5F 
 2837      66726F6D 
 2837      5F697372 
 2838              	.LASF31:
 2839 0747 74687265 		.ascii	"thread_t\000"
 2839      61645F74 
 2839      00
 2840              	.LASF89:
 2841 0750 62657374 		.ascii	"best\000"
 2841      00
 2842              	.LASF138:
 2843 0755 63685F6D 		.ascii	"ch_memcore\000"
 2843      656D636F 
 2843      726500
 2844              	.LASF76:
 2845 0760 73797374 		.ascii	"systime_t\000"
 2845      696D655F 
 2845      7400
 2846              	.LASF59:
 2847 076a 76746675 		.ascii	"vtfunc_t\000"
 2847      6E635F74 
 2847      00
 2848              	.LASF176:
 2849 0773 5F5F7365 		.ascii	"__set_BASEPRI\000"
 2849      745F4241 
 2849      53455052 
 2849      4900
 2850              	.LASF105:
 2851 0781 77746D74 		.ascii	"wtmtxp\000"
 2851      787000
 2852              	.LASF69:
ARM GAS  /tmp/ccWyQRpK.s 			page 57


 2853 0788 70616E69 		.ascii	"panic_msg\000"
 2853      635F6D73 
 2853      6700
 2854              	.LASF87:
 2855 0792 6F666673 		.ascii	"offset\000"
 2855      657400
 2856              	.LASF108:
 2857 0799 63685F6D 		.ascii	"ch_mutex\000"
 2857      75746578 
 2857      00
 2858              	.LASF122:
 2859 07a2 6F66665F 		.ascii	"off_older\000"
 2859      6F6C6465 
 2859      7200
 2860              	.LASF126:
 2861 07ac 6F66665F 		.ascii	"off_flags\000"
 2861      666C6167 
 2861      7300
 2862              	.LASF9:
 2863 07b6 73686F72 		.ascii	"short unsigned int\000"
 2863      7420756E 
 2863      7369676E 
 2863      65642069 
 2863      6E7400
 2864              	.LASF112:
 2865 07c9 6964656E 		.ascii	"identifier\000"
 2865      74696669 
 2865      657200
 2866              	.LASF21:
 2867 07d4 7274636E 		.ascii	"rtcnt_t\000"
 2867      745F7400 
 2868              	.LASF166:
 2869 07dc 706F7274 		.ascii	"port_lock_from_isr\000"
 2869      5F6C6F63 
 2869      6B5F6672 
 2869      6F6D5F69 
 2869      737200
 2870              	.LASF140:
 2871 07ef 6F626A65 		.ascii	"object_size\000"
 2871      63745F73 
 2871      697A6500 
 2872              	.LASF116:
 2873 07fb 70747273 		.ascii	"ptrsize\000"
 2873      697A6500 
 2874              	.LASF148:
 2875 0803 63685F6F 		.ascii	"ch_objects_factory\000"
 2875      626A6563 
 2875      74735F66 
 2875      6163746F 
 2875      727900
 2876              	.LASF53:
 2877 0816 74687265 		.ascii	"threads_queue_t\000"
 2877      6164735F 
 2877      71756575 
 2877      655F7400 
 2878              	.LASF139:
 2879 0826 706F6F6C 		.ascii	"pool_header\000"
ARM GAS  /tmp/ccWyQRpK.s 			page 58


 2879      5F686561 
 2879      64657200 
 2880              	.LASF123:
 2881 0832 6F66665F 		.ascii	"off_name\000"
 2881      6E616D65 
 2881      00
 2882              	.LASF16:
 2883 083b 75696E74 		.ascii	"uint8_t\000"
 2883      385F7400 
 2884              	.LASF39:
 2885 0843 666C6167 		.ascii	"flags\000"
 2885      7300
 2886              	.LASF155:
 2887 0849 6669666F 		.ascii	"fifo_list\000"
 2887      5F6C6973 
 2887      7400
 2888              	.LASF162:
 2889 0853 5F737461 		.ascii	"_stats_ctxswc\000"
 2889      74735F63 
 2889      74787377 
 2889      6300
 2890              	.LASF101:
 2891 0861 77746F62 		.ascii	"wtobjp\000"
 2891      6A7000
 2892              	.LASF49:
 2893 0868 74687265 		.ascii	"threads_list_t\000"
 2893      6164735F 
 2893      6C697374 
 2893      5F7400
 2894              	.LASF125:
 2895 0877 6F66665F 		.ascii	"off_state\000"
 2895      73746174 
 2895      6500
 2896              	.LASF156:
 2897 0881 6F626A65 		.ascii	"objects_factory_t\000"
 2897      6374735F 
 2897      66616374 
 2897      6F72795F 
 2897      7400
 2898              	.LASF164:
 2899 0893 5F737461 		.ascii	"_stats_init\000"
 2899      74735F69 
 2899      6E697400 
 2900              	.LASF158:
 2901 089f 5F737461 		.ascii	"_stats_stop_measure_crit_isr\000"
 2901      74735F73 
 2901      746F705F 
 2901      6D656173 
 2901      7572655F 
 2902              	.LASF174:
 2903 08bc 2E2E2F2E 		.ascii	"../../modules/ChibiOS/os/rt/src/chstats.c\000"
 2903      2E2F6D6F 
 2903      64756C65 
 2903      732F4368 
 2903      6962694F 
 2904              	.LASF44:
 2905 08e6 6D74786C 		.ascii	"mtxlist\000"
ARM GAS  /tmp/ccWyQRpK.s 			page 59


 2905      69737400 
 2906              	.LASF96:
 2907 08ee 6D5F6372 		.ascii	"m_crit_thd\000"
 2907      69745F74 
 2907      686400
 2908              	.LASF135:
 2909 08f9 6E657874 		.ascii	"nextmem\000"
 2909      6D656D00 
 2910              		.ident	"GCC: (GNU Tools for ARM Embedded Processors 6-2017-q2-update) 6.3.1 20170620 (release) [AR
ARM GAS  /tmp/ccWyQRpK.s 			page 60


DEFINED SYMBOLS
                            *ABS*:0000000000000000 chstats.c
     /tmp/ccWyQRpK.s:18     .text._stats_init:0000000000000000 $t
     /tmp/ccWyQRpK.s:25     .text._stats_init:0000000000000000 _stats_init
     /tmp/ccWyQRpK.s:61     .text._stats_init:0000000000000024 $d
     /tmp/ccWyQRpK.s:66     .text._stats_increase_irq:0000000000000000 $t
     /tmp/ccWyQRpK.s:73     .text._stats_increase_irq:0000000000000000 _stats_increase_irq
     /tmp/ccWyQRpK.s:122    .text._stats_increase_irq:000000000000001c $d
     /tmp/ccWyQRpK.s:131    .text._stats_ctxswc:0000000000000000 $t
     /tmp/ccWyQRpK.s:138    .text._stats_ctxswc:0000000000000000 _stats_ctxswc
     /tmp/ccWyQRpK.s:162    .text._stats_ctxswc:000000000000001c $d
     /tmp/ccWyQRpK.s:167    .text._stats_start_measure_crit_thd:0000000000000000 $t
     /tmp/ccWyQRpK.s:174    .text._stats_start_measure_crit_thd:0000000000000000 _stats_start_measure_crit_thd
     /tmp/ccWyQRpK.s:188    .text._stats_start_measure_crit_thd:0000000000000008 $d
     /tmp/ccWyQRpK.s:193    .text._stats_stop_measure_crit_thd:0000000000000000 $t
     /tmp/ccWyQRpK.s:200    .text._stats_stop_measure_crit_thd:0000000000000000 _stats_stop_measure_crit_thd
     /tmp/ccWyQRpK.s:214    .text._stats_stop_measure_crit_thd:0000000000000008 $d
     /tmp/ccWyQRpK.s:219    .text._stats_start_measure_crit_isr:0000000000000000 $t
     /tmp/ccWyQRpK.s:226    .text._stats_start_measure_crit_isr:0000000000000000 _stats_start_measure_crit_isr
     /tmp/ccWyQRpK.s:240    .text._stats_start_measure_crit_isr:0000000000000008 $d
     /tmp/ccWyQRpK.s:245    .text._stats_stop_measure_crit_isr:0000000000000000 $t
     /tmp/ccWyQRpK.s:252    .text._stats_stop_measure_crit_isr:0000000000000000 _stats_stop_measure_crit_isr
     /tmp/ccWyQRpK.s:266    .text._stats_stop_measure_crit_isr:0000000000000008 $d
                     .debug_frame:0000000000000010 $d

UNDEFINED SYMBOLS
chTMObjectInit
ch
chTMChainMeasurementToX
chTMStartMeasurementX
chTMStopMeasurementX
