ARM GAS  /tmp/ccV69SLS.s 			page 1


   1              		.cpu cortex-m7
   2              		.eabi_attribute 27, 1
   3              		.eabi_attribute 28, 1
   4              		.eabi_attribute 20, 1
   5              		.eabi_attribute 21, 1
   6              		.eabi_attribute 23, 3
   7              		.eabi_attribute 24, 1
   8              		.eabi_attribute 25, 1
   9              		.eabi_attribute 26, 1
  10              		.eabi_attribute 30, 4
  11              		.eabi_attribute 34, 1
  12              		.eabi_attribute 18, 4
  13              		.file	"chthreads.c"
  14              		.text
  15              	.Ltext0:
  16              		.cfi_sections	.debug_frame
  17              		.section	.text.chSysLock,"ax",%progbits
  18              		.align	1
  19              		.syntax unified
  20              		.thumb
  21              		.thumb_func
  22              		.fpu fpv4-sp-d16
  23              		.type	chSysLock, %function
  24              	chSysLock:
  25              	.LFB195:
  26              		.file 1 "../../modules/ChibiOS/os/rt/include/chsys.h"
  27              		.loc 1 353 0
  28              		.cfi_startproc
  29              		@ args = 0, pretend = 0, frame = 0
  30              		@ frame_needed = 0, uses_anonymous_args = 0
  31              		@ link register save eliminated.
  32              	.LVL0:
  33              	.LBB74:
  34              	.LBB75:
  35              	.LBB76:
  36              		.file 2 "../../modules/ChibiOS/os/common/ext/ARM/CMSIS/Core/Include/cmsis_gcc.h"
  37              		.loc 2 493 0
  38 0000 2023     		movs	r3, #32
  39              		.syntax unified
  40              	@ 493 "../../modules/ChibiOS/os/common/ext/ARM/CMSIS/Core/Include/cmsis_gcc.h" 1
  41 0002 83F31188 		MSR basepri, r3
  42              	@ 0 "" 2
  43              	.LVL1:
  44              		.thumb
  45              		.syntax unified
  46              	.LBE76:
  47              	.LBE75:
  48              	.LBE74:
  49              		.loc 1 356 0
  50 0006 FFF7FEBF 		b	_stats_start_measure_crit_thd
  51              	.LVL2:
  52              		.cfi_endproc
  53              	.LFE195:
  54              		.size	chSysLock, .-chSysLock
  55              		.section	.text.chSysUnlock,"ax",%progbits
  56              		.align	1
  57              		.syntax unified
ARM GAS  /tmp/ccV69SLS.s 			page 2


  58              		.thumb
  59              		.thumb_func
  60              		.fpu fpv4-sp-d16
  61              		.type	chSysUnlock, %function
  62              	chSysUnlock:
  63              	.LFB196:
  64              		.loc 1 365 0
  65              		.cfi_startproc
  66              		@ args = 0, pretend = 0, frame = 0
  67              		@ frame_needed = 0, uses_anonymous_args = 0
  68 0000 08B5     		push	{r3, lr}
  69              		.cfi_def_cfa_offset 8
  70              		.cfi_offset 3, -8
  71              		.cfi_offset 14, -4
  72              		.loc 1 368 0
  73 0002 FFF7FEFF 		bl	_stats_stop_measure_crit_thd
  74              	.LVL3:
  75              	.LBB77:
  76              	.LBB78:
  77              	.LBB79:
  78              		.loc 2 493 0
  79 0006 0023     		movs	r3, #0
  80              		.syntax unified
  81              	@ 493 "../../modules/ChibiOS/os/common/ext/ARM/CMSIS/Core/Include/cmsis_gcc.h" 1
  82 0008 83F31188 		MSR basepri, r3
  83              	@ 0 "" 2
  84              	.LVL4:
  85              		.thumb
  86              		.syntax unified
  87 000c 08BD     		pop	{r3, pc}
  88              	.LBE79:
  89              	.LBE78:
  90              	.LBE77:
  91              		.cfi_endproc
  92              	.LFE196:
  93              		.size	chSysUnlock, .-chSysUnlock
  94              		.section	.text._thread_init,"ax",%progbits
  95              		.align	1
  96              		.global	_thread_init
  97              		.syntax unified
  98              		.thumb
  99              		.thumb_func
 100              		.fpu fpv4-sp-d16
 101              		.type	_thread_init, %function
 102              	_thread_init:
 103              	.LFB301:
 104              		.file 3 "../../modules/ChibiOS/os/rt/src/chthreads.c"
 105              		.loc 3 88 0
 106              		.cfi_startproc
 107              		@ args = 0, pretend = 0, frame = 0
 108              		@ frame_needed = 0, uses_anonymous_args = 0
 109              	.LVL5:
 110              		.loc 3 91 0
 111 0000 0223     		movs	r3, #2
 112              		.loc 3 88 0
 113 0002 10B5     		push	{r4, lr}
 114              		.cfi_def_cfa_offset 8
ARM GAS  /tmp/ccV69SLS.s 			page 3


 115              		.cfi_offset 4, -8
 116              		.cfi_offset 14, -4
 117              		.loc 3 91 0
 118 0004 80F82030 		strb	r3, [r0, #32]
 119              		.loc 3 92 0
 120 0008 0023     		movs	r3, #0
 121              		.loc 3 90 0
 122 000a 8260     		str	r2, [r0, #8]
 123              		.loc 3 88 0
 124 000c 0446     		mov	r4, r0
 125              		.loc 3 92 0
 126 000e 80F82130 		strb	r3, [r0, #33]
 127              		.loc 3 98 0
 128 0012 8363     		str	r3, [r0, #56]
 129              		.loc 3 101 0
 130 0014 4363     		str	r3, [r0, #52]
 131              		.loc 3 107 0
 132 0016 0123     		movs	r3, #1
 133              		.loc 3 97 0
 134 0018 C263     		str	r2, [r0, #60]
 135              		.loc 3 107 0
 136 001a 80F82230 		strb	r3, [r0, #34]
 137              		.loc 3 109 0
 138 001e 0A4B     		ldr	r3, .L4
 139              		.loc 3 108 0
 140 0020 8161     		str	r1, [r0, #24]
 141              		.loc 3 109 0
 142 0022 5A69     		ldr	r2, [r3, #20]
 143              	.LVL6:
 144 0024 0361     		str	r3, [r0, #16]
 145 0026 4261     		str	r2, [r0, #20]
 146 0028 1061     		str	r0, [r2, #16]
 147 002a 5861     		str	r0, [r3, #20]
 148              	.LVL7:
 149              		.loc 3 114 0
 150 002c 00F12803 		add	r3, r0, #40
 151              	.LVL8:
 152              	.LBB80:
 153              	.LBB81:
 154              		.file 4 "../../modules/ChibiOS/os/rt/include/chschd.h"
 155              		.loc 4 501 0
 156 0030 8362     		str	r3, [r0, #40]
 157              	.LVL9:
 158              	.LBE81:
 159              	.LBE80:
 160              		.loc 3 117 0
 161 0032 00F12C03 		add	r3, r0, #44
 162              	.LVL10:
 163              		.loc 3 120 0
 164 0036 4830     		adds	r0, r0, #72
 165              	.LVL11:
 166              	.LBB82:
 167              	.LBB83:
 168              		.loc 4 539 0
 169 0038 40F81C3C 		str	r3, [r0, #-28]
 170              		.loc 4 540 0
 171 003c 40F8183C 		str	r3, [r0, #-24]
ARM GAS  /tmp/ccV69SLS.s 			page 4


 172              	.LVL12:
 173              	.LBE83:
 174              	.LBE82:
 175              		.loc 3 120 0
 176 0040 FFF7FEFF 		bl	chTMObjectInit
 177              	.LVL13:
 178              		.loc 3 124 0
 179 0044 2046     		mov	r0, r4
 180 0046 10BD     		pop	{r4, pc}
 181              	.LVL14:
 182              	.L5:
 183              		.align	2
 184              	.L4:
 185 0048 00000000 		.word	ch
 186              		.cfi_endproc
 187              	.LFE301:
 188              		.size	_thread_init, .-_thread_init
 189              		.section	.text._thread_memfill,"ax",%progbits
 190              		.align	1
 191              		.global	_thread_memfill
 192              		.syntax unified
 193              		.thumb
 194              		.thumb_func
 195              		.fpu fpv4-sp-d16
 196              		.type	_thread_memfill, %function
 197              	_thread_memfill:
 198              	.LFB302:
 199              		.loc 3 136 0
 200              		.cfi_startproc
 201              		@ args = 0, pretend = 0, frame = 0
 202              		@ frame_needed = 0, uses_anonymous_args = 0
 203              		@ link register save eliminated.
 204              	.LVL15:
 205              	.L7:
 206              		.loc 3 138 0
 207 0000 8842     		cmp	r0, r1
 208 0002 00D3     		bcc	.L8
 209              		.loc 3 141 0
 210 0004 7047     		bx	lr
 211              	.L8:
 212              		.loc 3 139 0
 213 0006 00F8012B 		strb	r2, [r0], #1
 214              	.LVL16:
 215 000a F9E7     		b	.L7
 216              		.cfi_endproc
 217              	.LFE302:
 218              		.size	_thread_memfill, .-_thread_memfill
 219              		.section	.text.chThdCreateSuspendedI,"ax",%progbits
 220              		.align	1
 221              		.global	chThdCreateSuspendedI
 222              		.syntax unified
 223              		.thumb
 224              		.thumb_func
 225              		.fpu fpv4-sp-d16
 226              		.type	chThdCreateSuspendedI, %function
 227              	chThdCreateSuspendedI:
 228              	.LFB303:
ARM GAS  /tmp/ccV69SLS.s 			page 5


 229              		.loc 3 167 0
 230              		.cfi_startproc
 231              		@ args = 0, pretend = 0, frame = 0
 232              		@ frame_needed = 0, uses_anonymous_args = 0
 233              		@ link register save eliminated.
 234              	.LVL17:
 235              		.loc 3 181 0
 236 0000 8368     		ldr	r3, [r0, #8]
 237              	.LVL18:
 238              		.loc 3 186 0
 239 0002 4268     		ldr	r2, [r0, #4]
 240              		.loc 3 193 0
 241 0004 0168     		ldr	r1, [r0]
 242              		.loc 3 186 0
 243 0006 43F8442C 		str	r2, [r3, #-68]
 244              		.loc 3 190 0
 245 000a A3F1C402 		sub	r2, r3, #196
 246 000e 43F8542C 		str	r2, [r3, #-84]
 247 0012 0269     		ldr	r2, [r0, #16]
 248 0014 43F8842C 		str	r2, [r3, #-132]
 249 0018 4269     		ldr	r2, [r0, #20]
 250 001a 43F8802C 		str	r2, [r3, #-128]
 251 001e 044A     		ldr	r2, .L10
 252 0020 43F8642C 		str	r2, [r3, #-100]
 253              		.loc 3 193 0
 254 0024 C268     		ldr	r2, [r0, #12]
 255 0026 A3F16000 		sub	r0, r3, #96
 256              	.LVL19:
 257 002a FFF7FEBF 		b	_thread_init
 258              	.LVL20:
 259              	.L11:
 260 002e 00BF     		.align	2
 261              	.L10:
 262 0030 00000000 		.word	_port_thread_start
 263              		.cfi_endproc
 264              	.LFE303:
 265              		.size	chThdCreateSuspendedI, .-chThdCreateSuspendedI
 266              		.section	.text.chThdCreateSuspended,"ax",%progbits
 267              		.align	1
 268              		.global	chThdCreateSuspended
 269              		.syntax unified
 270              		.thumb
 271              		.thumb_func
 272              		.fpu fpv4-sp-d16
 273              		.type	chThdCreateSuspended, %function
 274              	chThdCreateSuspended:
 275              	.LFB304:
 276              		.loc 3 216 0
 277              		.cfi_startproc
 278              		@ args = 0, pretend = 0, frame = 0
 279              		@ frame_needed = 0, uses_anonymous_args = 0
 280              	.LVL21:
 281 0000 10B5     		push	{r4, lr}
 282              		.cfi_def_cfa_offset 8
 283              		.cfi_offset 4, -8
 284              		.cfi_offset 14, -4
 285              		.loc 3 226 0
ARM GAS  /tmp/ccV69SLS.s 			page 6


 286 0002 8268     		ldr	r2, [r0, #8]
 287              	.LVL22:
 288              		.loc 3 216 0
 289 0004 0446     		mov	r4, r0
 290              		.loc 3 226 0
 291 0006 4368     		ldr	r3, [r0, #4]
 292              	.LBB84:
 293              	.LBB85:
 294              		.loc 3 139 0
 295 0008 5521     		movs	r1, #85
 296              	.LVL23:
 297              	.L13:
 298              		.loc 3 138 0
 299 000a 9A42     		cmp	r2, r3
 300 000c 09D8     		bhi	.L14
 301              	.LVL24:
 302              	.LBE85:
 303              	.LBE84:
 304              		.loc 3 230 0
 305 000e FFF7FEFF 		bl	chSysLock
 306              	.LVL25:
 307              		.loc 3 231 0
 308 0012 2046     		mov	r0, r4
 309 0014 FFF7FEFF 		bl	chThdCreateSuspendedI
 310              	.LVL26:
 311 0018 0446     		mov	r4, r0
 312              	.LVL27:
 313              		.loc 3 232 0
 314 001a FFF7FEFF 		bl	chSysUnlock
 315              	.LVL28:
 316              		.loc 3 235 0
 317 001e 2046     		mov	r0, r4
 318 0020 10BD     		pop	{r4, pc}
 319              	.LVL29:
 320              	.L14:
 321              	.LBB87:
 322              	.LBB86:
 323              		.loc 3 139 0
 324 0022 03F8011B 		strb	r1, [r3], #1
 325              	.LVL30:
 326 0026 F0E7     		b	.L13
 327              	.LBE86:
 328              	.LBE87:
 329              		.cfi_endproc
 330              	.LFE304:
 331              		.size	chThdCreateSuspended, .-chThdCreateSuspended
 332              		.section	.text.chThdCreateI,"ax",%progbits
 333              		.align	1
 334              		.global	chThdCreateI
 335              		.syntax unified
 336              		.thumb
 337              		.thumb_func
 338              		.fpu fpv4-sp-d16
 339              		.type	chThdCreateI, %function
 340              	chThdCreateI:
 341              	.LFB305:
 342              		.loc 3 259 0
ARM GAS  /tmp/ccV69SLS.s 			page 7


 343              		.cfi_startproc
 344              		@ args = 0, pretend = 0, frame = 0
 345              		@ frame_needed = 0, uses_anonymous_args = 0
 346              	.LVL31:
 347 0000 08B5     		push	{r3, lr}
 348              		.cfi_def_cfa_offset 8
 349              		.cfi_offset 3, -8
 350              		.cfi_offset 14, -4
 351              		.loc 3 261 0
 352 0002 FFF7FEFF 		bl	chThdCreateSuspendedI
 353              	.LVL32:
 354              		.loc 3 262 0
 355 0006 BDE80840 		pop	{r3, lr}
 356              		.cfi_restore 14
 357              		.cfi_restore 3
 358              		.cfi_def_cfa_offset 0
 359              		.loc 3 261 0
 360 000a FFF7FEBF 		b	chSchReadyI
 361              	.LVL33:
 362              		.cfi_endproc
 363              	.LFE305:
 364              		.size	chThdCreateI, .-chThdCreateI
 365              		.section	.text.chThdCreate,"ax",%progbits
 366              		.align	1
 367              		.global	chThdCreate
 368              		.syntax unified
 369              		.thumb
 370              		.thumb_func
 371              		.fpu fpv4-sp-d16
 372              		.type	chThdCreate, %function
 373              	chThdCreate:
 374              	.LFB306:
 375              		.loc 3 280 0
 376              		.cfi_startproc
 377              		@ args = 0, pretend = 0, frame = 0
 378              		@ frame_needed = 0, uses_anonymous_args = 0
 379              	.LVL34:
 380 0000 10B5     		push	{r4, lr}
 381              		.cfi_def_cfa_offset 8
 382              		.cfi_offset 4, -8
 383              		.cfi_offset 14, -4
 384              		.loc 3 291 0
 385 0002 8268     		ldr	r2, [r0, #8]
 386              	.LVL35:
 387              		.loc 3 280 0
 388 0004 0446     		mov	r4, r0
 389              		.loc 3 291 0
 390 0006 4368     		ldr	r3, [r0, #4]
 391              	.LBB88:
 392              	.LBB89:
 393              		.loc 3 139 0
 394 0008 5521     		movs	r1, #85
 395              	.LVL36:
 396              	.L17:
 397              		.loc 3 138 0
 398 000a 9A42     		cmp	r2, r3
 399 000c 0CD8     		bhi	.L18
ARM GAS  /tmp/ccV69SLS.s 			page 8


 400              	.LVL37:
 401              	.LBE89:
 402              	.LBE88:
 403              		.loc 3 295 0
 404 000e FFF7FEFF 		bl	chSysLock
 405              	.LVL38:
 406              		.loc 3 296 0
 407 0012 2046     		mov	r0, r4
 408 0014 FFF7FEFF 		bl	chThdCreateSuspendedI
 409              	.LVL39:
 410 0018 0446     		mov	r4, r0
 411              	.LVL40:
 412              		.loc 3 297 0
 413 001a 0021     		movs	r1, #0
 414 001c FFF7FEFF 		bl	chSchWakeupS
 415              	.LVL41:
 416              		.loc 3 298 0
 417 0020 FFF7FEFF 		bl	chSysUnlock
 418              	.LVL42:
 419              		.loc 3 301 0
 420 0024 2046     		mov	r0, r4
 421 0026 10BD     		pop	{r4, pc}
 422              	.LVL43:
 423              	.L18:
 424              	.LBB91:
 425              	.LBB90:
 426              		.loc 3 139 0
 427 0028 03F8011B 		strb	r1, [r3], #1
 428              	.LVL44:
 429 002c EDE7     		b	.L17
 430              	.LBE90:
 431              	.LBE91:
 432              		.cfi_endproc
 433              	.LFE306:
 434              		.size	chThdCreate, .-chThdCreate
 435              		.section	.text.chThdCreateStatic,"ax",%progbits
 436              		.align	1
 437              		.global	chThdCreateStatic
 438              		.syntax unified
 439              		.thumb
 440              		.thumb_func
 441              		.fpu fpv4-sp-d16
 442              		.type	chThdCreateStatic, %function
 443              	chThdCreateStatic:
 444              	.LFB307:
 445              		.loc 3 324 0
 446              		.cfi_startproc
 447              		@ args = 4, pretend = 0, frame = 0
 448              		@ frame_needed = 0, uses_anonymous_args = 0
 449              	.LVL45:
 450 0000 F8B5     		push	{r3, r4, r5, r6, r7, lr}
 451              		.cfi_def_cfa_offset 24
 452              		.cfi_offset 3, -24
 453              		.cfi_offset 4, -20
 454              		.cfi_offset 5, -16
 455              		.cfi_offset 6, -12
 456              		.cfi_offset 7, -8
ARM GAS  /tmp/ccV69SLS.s 			page 9


 457              		.cfi_offset 14, -4
 458              		.loc 3 324 0
 459 0002 0C46     		mov	r4, r1
 460 0004 1646     		mov	r6, r2
 461 0006 1F46     		mov	r7, r3
 462 0008 0546     		mov	r5, r0
 463              		.loc 3 340 0
 464 000a 4318     		adds	r3, r0, r1
 465              	.LVL46:
 466              	.LBB92:
 467              	.LBB93:
 468              		.loc 3 139 0
 469 000c 5522     		movs	r2, #85
 470              	.LVL47:
 471              	.LBE93:
 472              	.LBE92:
 473              		.loc 3 340 0
 474 000e 0146     		mov	r1, r0
 475              	.LVL48:
 476              	.L20:
 477              	.LBB96:
 478              	.LBB94:
 479              		.loc 3 138 0
 480 0010 8B42     		cmp	r3, r1
 481 0012 1BD8     		bhi	.L21
 482              	.LVL49:
 483              	.LBE94:
 484              	.LBE96:
 485              		.loc 3 350 0
 486 0014 603C     		subs	r4, r4, #96
 487              	.LVL50:
 488              		.loc 3 345 0
 489 0016 FFF7FEFF 		bl	chSysLock
 490              	.LVL51:
 491              		.loc 3 361 0
 492 001a 3246     		mov	r2, r6
 493 001c 0D49     		ldr	r1, .L22
 494              		.loc 3 350 0
 495 001e 2819     		adds	r0, r5, r4
 496              	.LVL52:
 497              		.loc 3 359 0
 498 0020 A0F16403 		sub	r3, r0, #100
 499              		.loc 3 355 0
 500 0024 C561     		str	r5, [r0, #28]
 501              		.loc 3 359 0
 502 0026 40F8247C 		str	r7, [r0, #-36]
 503 002a C360     		str	r3, [r0, #12]
 504 002c 069B     		ldr	r3, [sp, #24]
 505 002e 40F8203C 		str	r3, [r0, #-32]
 506 0032 094B     		ldr	r3, .L22+4
 507 0034 40F8043C 		str	r3, [r0, #-4]
 508              		.loc 3 361 0
 509 0038 FFF7FEFF 		bl	_thread_init
 510              	.LVL53:
 511 003c 0446     		mov	r4, r0
 512              	.LVL54:
 513              		.loc 3 364 0
ARM GAS  /tmp/ccV69SLS.s 			page 10


 514 003e 0021     		movs	r1, #0
 515 0040 FFF7FEFF 		bl	chSchWakeupS
 516              	.LVL55:
 517              		.loc 3 365 0
 518 0044 FFF7FEFF 		bl	chSysUnlock
 519              	.LVL56:
 520              		.loc 3 368 0
 521 0048 2046     		mov	r0, r4
 522 004a F8BD     		pop	{r3, r4, r5, r6, r7, pc}
 523              	.LVL57:
 524              	.L21:
 525              	.LBB97:
 526              	.LBB95:
 527              		.loc 3 139 0
 528 004c 01F8012B 		strb	r2, [r1], #1
 529              	.LVL58:
 530 0050 DEE7     		b	.L20
 531              	.L23:
 532 0052 00BF     		.align	2
 533              	.L22:
 534 0054 00000000 		.word	.LC0
 535 0058 00000000 		.word	_port_thread_start
 536              	.LBE95:
 537              	.LBE97:
 538              		.cfi_endproc
 539              	.LFE307:
 540              		.size	chThdCreateStatic, .-chThdCreateStatic
 541              		.section	.text.chThdStart,"ax",%progbits
 542              		.align	1
 543              		.global	chThdStart
 544              		.syntax unified
 545              		.thumb
 546              		.thumb_func
 547              		.fpu fpv4-sp-d16
 548              		.type	chThdStart, %function
 549              	chThdStart:
 550              	.LFB308:
 551              		.loc 3 379 0
 552              		.cfi_startproc
 553              		@ args = 0, pretend = 0, frame = 0
 554              		@ frame_needed = 0, uses_anonymous_args = 0
 555              	.LVL59:
 556 0000 10B5     		push	{r4, lr}
 557              		.cfi_def_cfa_offset 8
 558              		.cfi_offset 4, -8
 559              		.cfi_offset 14, -4
 560              		.loc 3 379 0
 561 0002 0446     		mov	r4, r0
 562              		.loc 3 381 0
 563 0004 FFF7FEFF 		bl	chSysLock
 564              	.LVL60:
 565              		.loc 3 383 0
 566 0008 0021     		movs	r1, #0
 567 000a 2046     		mov	r0, r4
 568 000c FFF7FEFF 		bl	chSchWakeupS
 569              	.LVL61:
 570              		.loc 3 384 0
ARM GAS  /tmp/ccV69SLS.s 			page 11


 571 0010 FFF7FEFF 		bl	chSysUnlock
 572              	.LVL62:
 573              		.loc 3 387 0
 574 0014 2046     		mov	r0, r4
 575 0016 10BD     		pop	{r4, pc}
 576              		.cfi_endproc
 577              	.LFE308:
 578              		.size	chThdStart, .-chThdStart
 579              		.section	.text.chThdAddRef,"ax",%progbits
 580              		.align	1
 581              		.global	chThdAddRef
 582              		.syntax unified
 583              		.thumb
 584              		.thumb_func
 585              		.fpu fpv4-sp-d16
 586              		.type	chThdAddRef, %function
 587              	chThdAddRef:
 588              	.LFB309:
 589              		.loc 3 401 0
 590              		.cfi_startproc
 591              		@ args = 0, pretend = 0, frame = 0
 592              		@ frame_needed = 0, uses_anonymous_args = 0
 593              	.LVL63:
 594 0000 10B5     		push	{r4, lr}
 595              		.cfi_def_cfa_offset 8
 596              		.cfi_offset 4, -8
 597              		.cfi_offset 14, -4
 598              		.loc 3 401 0
 599 0002 0446     		mov	r4, r0
 600              		.loc 3 403 0
 601 0004 FFF7FEFF 		bl	chSysLock
 602              	.LVL64:
 603              		.loc 3 405 0
 604 0008 94F82230 		ldrb	r3, [r4, #34]	@ zero_extendqisi2
 605 000c 0133     		adds	r3, r3, #1
 606 000e 84F82230 		strb	r3, [r4, #34]
 607              		.loc 3 406 0
 608 0012 FFF7FEFF 		bl	chSysUnlock
 609              	.LVL65:
 610              		.loc 3 409 0
 611 0016 2046     		mov	r0, r4
 612 0018 10BD     		pop	{r4, pc}
 613              		.cfi_endproc
 614              	.LFE309:
 615              		.size	chThdAddRef, .-chThdAddRef
 616              		.section	.text.chThdRelease,"ax",%progbits
 617              		.align	1
 618              		.global	chThdRelease
 619              		.syntax unified
 620              		.thumb
 621              		.thumb_func
 622              		.fpu fpv4-sp-d16
 623              		.type	chThdRelease, %function
 624              	chThdRelease:
 625              	.LFB310:
 626              		.loc 3 427 0
 627              		.cfi_startproc
ARM GAS  /tmp/ccV69SLS.s 			page 12


 628              		@ args = 0, pretend = 0, frame = 0
 629              		@ frame_needed = 0, uses_anonymous_args = 0
 630              	.LVL66:
 631 0000 10B5     		push	{r4, lr}
 632              		.cfi_def_cfa_offset 8
 633              		.cfi_offset 4, -8
 634              		.cfi_offset 14, -4
 635              		.loc 3 427 0
 636 0002 0446     		mov	r4, r0
 637              		.loc 3 429 0
 638 0004 FFF7FEFF 		bl	chSysLock
 639              	.LVL67:
 640              		.loc 3 431 0
 641 0008 94F82230 		ldrb	r3, [r4, #34]	@ zero_extendqisi2
 642 000c 013B     		subs	r3, r3, #1
 643 000e 84F82230 		strb	r3, [r4, #34]
 644              		.loc 3 436 0
 645 0012 236A     		ldr	r3, [r4, #32]
 646 0014 03F0FF13 		and	r3, r3, #16711935
 647 0018 0F2B     		cmp	r3, #15
 648 001a 1AD1     		bne	.L27
 649              		.loc 3 437 0
 650 001c 6369     		ldr	r3, [r4, #20]
 651 001e 2269     		ldr	r2, [r4, #16]
 652 0020 1A61     		str	r2, [r3, #16]
 653 0022 2269     		ldr	r2, [r4, #16]
 654 0024 5361     		str	r3, [r2, #20]
 655              		.loc 3 438 0
 656 0026 FFF7FEFF 		bl	chSysUnlock
 657              	.LVL68:
 658              		.loc 3 441 0
 659 002a 94F82130 		ldrb	r3, [r4, #33]	@ zero_extendqisi2
 660 002e 03F00303 		and	r3, r3, #3
 661 0032 012B     		cmp	r3, #1
 662 0034 02D0     		beq	.L29
 663 0036 022B     		cmp	r3, #2
 664 0038 05D0     		beq	.L30
 665 003a 10BD     		pop	{r4, pc}
 666              	.LVL69:
 667              	.L29:
 668              		.loc 3 444 0
 669 003c E069     		ldr	r0, [r4, #28]
 670              		.loc 3 460 0
 671 003e BDE81040 		pop	{r4, lr}
 672              		.cfi_remember_state
 673              		.cfi_restore 14
 674              		.cfi_restore 4
 675              		.cfi_def_cfa_offset 0
 676              	.LVL70:
 677              		.loc 3 444 0
 678 0042 FFF7FEBF 		b	chHeapFree
 679              	.LVL71:
 680              	.L30:
 681              		.cfi_restore_state
 682              	.LBB104:
 683              	.LBB105:
 684              		.loc 3 449 0
ARM GAS  /tmp/ccV69SLS.s 			page 13


 685 0046 E169     		ldr	r1, [r4, #28]
 686 0048 206C     		ldr	r0, [r4, #64]
 687              	.LBE105:
 688              	.LBE104:
 689              		.loc 3 460 0
 690 004a BDE81040 		pop	{r4, lr}
 691              		.cfi_remember_state
 692              		.cfi_restore 14
 693              		.cfi_restore 4
 694              		.cfi_def_cfa_offset 0
 695              	.LVL72:
 696              	.LBB107:
 697              	.LBB106:
 698              		.loc 3 449 0
 699 004e FFF7FEBF 		b	chPoolFree
 700              	.LVL73:
 701              	.L27:
 702              		.cfi_restore_state
 703              	.LBE106:
 704              	.LBE107:
 705              		.loc 3 460 0
 706 0052 BDE81040 		pop	{r4, lr}
 707              		.cfi_restore 14
 708              		.cfi_restore 4
 709              		.cfi_def_cfa_offset 0
 710              	.LVL74:
 711              		.loc 3 459 0
 712 0056 FFF7FEBF 		b	chSysUnlock
 713              	.LVL75:
 714              		.cfi_endproc
 715              	.LFE310:
 716              		.size	chThdRelease, .-chThdRelease
 717              		.section	.text.chThdExitS,"ax",%progbits
 718              		.align	1
 719              		.global	chThdExitS
 720              		.syntax unified
 721              		.thumb
 722              		.thumb_func
 723              		.fpu fpv4-sp-d16
 724              		.type	chThdExitS, %function
 725              	chThdExitS:
 726              	.LFB312:
 727              		.loc 3 501 0
 728              		.cfi_startproc
 729              		@ args = 0, pretend = 0, frame = 0
 730              		@ frame_needed = 0, uses_anonymous_args = 0
 731              	.LVL76:
 732 0000 38B5     		push	{r3, r4, r5, lr}
 733              		.cfi_def_cfa_offset 16
 734              		.cfi_offset 3, -16
 735              		.cfi_offset 4, -12
 736              		.cfi_offset 5, -8
 737              		.cfi_offset 14, -4
 738              		.loc 3 502 0
 739 0002 0F4B     		ldr	r3, .L36
 740 0004 9C69     		ldr	r4, [r3, #24]
 741              	.LVL77:
ARM GAS  /tmp/ccV69SLS.s 			page 14


 742              		.loc 3 512 0
 743 0006 04F12805 		add	r5, r4, #40
 744              		.loc 3 505 0
 745 000a 6062     		str	r0, [r4, #36]
 746              	.LVL78:
 747              	.L33:
 748              	.LBB108:
 749              	.LBB109:
 750              		.loc 4 527 0
 751 000c A06A     		ldr	r0, [r4, #40]
 752              	.LVL79:
 753              	.LBE109:
 754              	.LBE108:
 755              		.loc 3 512 0
 756 000e A842     		cmp	r0, r5
 757 0010 10D1     		bne	.L34
 758              		.loc 3 521 0
 759 0012 94F82230 		ldrb	r3, [r4, #34]	@ zero_extendqisi2
 760 0016 43B9     		cbnz	r3, .L35
 761              		.loc 3 521 0 is_stmt 0 discriminator 1
 762 0018 94F82130 		ldrb	r3, [r4, #33]	@ zero_extendqisi2
 763 001c 9B07     		lsls	r3, r3, #30
 764 001e 04D1     		bne	.L35
 765              		.loc 3 523 0 is_stmt 1
 766 0020 2269     		ldr	r2, [r4, #16]
 767 0022 6369     		ldr	r3, [r4, #20]
 768 0024 1A61     		str	r2, [r3, #16]
 769 0026 2269     		ldr	r2, [r4, #16]
 770 0028 5361     		str	r3, [r2, #20]
 771              	.L35:
 772              		.loc 3 533 0
 773 002a 0F20     		movs	r0, #15
 774              		.loc 3 537 0
 775 002c BDE83840 		pop	{r3, r4, r5, lr}
 776              		.cfi_remember_state
 777              		.cfi_restore 14
 778              		.cfi_restore 5
 779              		.cfi_restore 4
 780              		.cfi_restore 3
 781              		.cfi_def_cfa_offset 0
 782              	.LVL80:
 783              		.loc 3 533 0
 784 0030 FFF7FEBF 		b	chSchGoSleepS
 785              	.LVL81:
 786              	.L34:
 787              		.cfi_restore_state
 788              	.LBB110:
 789              	.LBB111:
 790              		.loc 4 581 0
 791 0034 0368     		ldr	r3, [r0]
 792 0036 A362     		str	r3, [r4, #40]
 793              	.LVL82:
 794              	.LBE111:
 795              	.LBE110:
 796              		.loc 3 513 0
 797 0038 FFF7FEFF 		bl	chSchReadyI
 798              	.LVL83:
ARM GAS  /tmp/ccV69SLS.s 			page 15


 799 003c E6E7     		b	.L33
 800              	.L37:
 801 003e 00BF     		.align	2
 802              	.L36:
 803 0040 00000000 		.word	ch
 804              		.cfi_endproc
 805              	.LFE312:
 806              		.size	chThdExitS, .-chThdExitS
 807              		.section	.text.chThdExit,"ax",%progbits
 808              		.align	1
 809              		.global	chThdExit
 810              		.syntax unified
 811              		.thumb
 812              		.thumb_func
 813              		.fpu fpv4-sp-d16
 814              		.type	chThdExit, %function
 815              	chThdExit:
 816              	.LFB311:
 817              		.loc 3 477 0
 818              		.cfi_startproc
 819              		@ args = 0, pretend = 0, frame = 0
 820              		@ frame_needed = 0, uses_anonymous_args = 0
 821              	.LVL84:
 822 0000 10B5     		push	{r4, lr}
 823              		.cfi_def_cfa_offset 8
 824              		.cfi_offset 4, -8
 825              		.cfi_offset 14, -4
 826              		.loc 3 477 0
 827 0002 0446     		mov	r4, r0
 828              		.loc 3 479 0
 829 0004 FFF7FEFF 		bl	chSysLock
 830              	.LVL85:
 831              		.loc 3 480 0
 832 0008 2046     		mov	r0, r4
 833              		.loc 3 482 0
 834 000a BDE81040 		pop	{r4, lr}
 835              		.cfi_restore 14
 836              		.cfi_restore 4
 837              		.cfi_def_cfa_offset 0
 838              	.LVL86:
 839              		.loc 3 480 0
 840 000e FFF7FEBF 		b	chThdExitS
 841              	.LVL87:
 842              		.cfi_endproc
 843              	.LFE311:
 844              		.size	chThdExit, .-chThdExit
 845              		.section	.text.chThdWait,"ax",%progbits
 846              		.align	1
 847              		.global	chThdWait
 848              		.syntax unified
 849              		.thumb
 850              		.thumb_func
 851              		.fpu fpv4-sp-d16
 852              		.type	chThdWait, %function
 853              	chThdWait:
 854              	.LFB313:
 855              		.loc 3 559 0
ARM GAS  /tmp/ccV69SLS.s 			page 16


 856              		.cfi_startproc
 857              		@ args = 0, pretend = 0, frame = 0
 858              		@ frame_needed = 0, uses_anonymous_args = 0
 859              	.LVL88:
 860 0000 38B5     		push	{r3, r4, r5, lr}
 861              		.cfi_def_cfa_offset 16
 862              		.cfi_offset 3, -16
 863              		.cfi_offset 4, -12
 864              		.cfi_offset 5, -8
 865              		.cfi_offset 14, -4
 866              		.loc 3 559 0
 867 0002 0446     		mov	r4, r0
 868              		.loc 3 564 0
 869 0004 FFF7FEFF 		bl	chSysLock
 870              	.LVL89:
 871              		.loc 3 570 0
 872 0008 94F82030 		ldrb	r3, [r4, #32]	@ zero_extendqisi2
 873 000c 0F2B     		cmp	r3, #15
 874 000e 07D0     		beq	.L40
 875              		.loc 3 571 0
 876 0010 074B     		ldr	r3, .L44
 877              		.loc 3 572 0
 878 0012 0920     		movs	r0, #9
 879              	.LBB112:
 880              	.LBB113:
 881              		.loc 4 574 0
 882 0014 A26A     		ldr	r2, [r4, #40]
 883              	.LBE113:
 884              	.LBE112:
 885              		.loc 3 571 0
 886 0016 9B69     		ldr	r3, [r3, #24]
 887              	.LVL90:
 888              	.LBB115:
 889              	.LBB114:
 890              		.loc 4 574 0
 891 0018 1A60     		str	r2, [r3]
 892              		.loc 4 575 0
 893 001a A362     		str	r3, [r4, #40]
 894              	.LVL91:
 895              	.LBE114:
 896              	.LBE115:
 897              		.loc 3 572 0
 898 001c FFF7FEFF 		bl	chSchGoSleepS
 899              	.LVL92:
 900              	.L40:
 901              		.loc 3 574 0
 902 0020 656A     		ldr	r5, [r4, #36]
 903              	.LVL93:
 904              		.loc 3 575 0
 905 0022 FFF7FEFF 		bl	chSysUnlock
 906              	.LVL94:
 907              		.loc 3 579 0
 908 0026 2046     		mov	r0, r4
 909 0028 FFF7FEFF 		bl	chThdRelease
 910              	.LVL95:
 911              		.loc 3 583 0
 912 002c 2846     		mov	r0, r5
ARM GAS  /tmp/ccV69SLS.s 			page 17


 913 002e 38BD     		pop	{r3, r4, r5, pc}
 914              	.LVL96:
 915              	.L45:
 916              		.align	2
 917              	.L44:
 918 0030 00000000 		.word	ch
 919              		.cfi_endproc
 920              	.LFE313:
 921              		.size	chThdWait, .-chThdWait
 922              		.section	.text.chThdSetPriority,"ax",%progbits
 923              		.align	1
 924              		.global	chThdSetPriority
 925              		.syntax unified
 926              		.thumb
 927              		.thumb_func
 928              		.fpu fpv4-sp-d16
 929              		.type	chThdSetPriority, %function
 930              	chThdSetPriority:
 931              	.LFB314:
 932              		.loc 3 598 0
 933              		.cfi_startproc
 934              		@ args = 0, pretend = 0, frame = 0
 935              		@ frame_needed = 0, uses_anonymous_args = 0
 936              	.LVL97:
 937 0000 38B5     		push	{r3, r4, r5, lr}
 938              		.cfi_def_cfa_offset 16
 939              		.cfi_offset 3, -16
 940              		.cfi_offset 4, -12
 941              		.cfi_offset 5, -8
 942              		.cfi_offset 14, -4
 943              		.loc 3 598 0
 944 0002 0446     		mov	r4, r0
 945              		.loc 3 603 0
 946 0004 FFF7FEFF 		bl	chSysLock
 947              	.LVL98:
 948              		.loc 3 605 0
 949 0008 074B     		ldr	r3, .L49
 950 000a 9B69     		ldr	r3, [r3, #24]
 951 000c DD6B     		ldr	r5, [r3, #60]
 952              	.LVL99:
 953              		.loc 3 606 0
 954 000e 9A68     		ldr	r2, [r3, #8]
 955 0010 9542     		cmp	r5, r2
 956 0012 01D0     		beq	.L47
 957              		.loc 3 606 0 is_stmt 0 discriminator 1
 958 0014 A242     		cmp	r2, r4
 959 0016 00D2     		bcs	.L48
 960              	.L47:
 961              		.loc 3 607 0 is_stmt 1
 962 0018 9C60     		str	r4, [r3, #8]
 963              	.L48:
 964              		.loc 3 609 0
 965 001a DC63     		str	r4, [r3, #60]
 966              		.loc 3 614 0
 967 001c FFF7FEFF 		bl	chSchRescheduleS
 968              	.LVL100:
 969              		.loc 3 615 0
ARM GAS  /tmp/ccV69SLS.s 			page 18


 970 0020 FFF7FEFF 		bl	chSysUnlock
 971              	.LVL101:
 972              		.loc 3 618 0
 973 0024 2846     		mov	r0, r5
 974 0026 38BD     		pop	{r3, r4, r5, pc}
 975              	.LVL102:
 976              	.L50:
 977              		.align	2
 978              	.L49:
 979 0028 00000000 		.word	ch
 980              		.cfi_endproc
 981              	.LFE314:
 982              		.size	chThdSetPriority, .-chThdSetPriority
 983              		.section	.text.chThdTerminate,"ax",%progbits
 984              		.align	1
 985              		.global	chThdTerminate
 986              		.syntax unified
 987              		.thumb
 988              		.thumb_func
 989              		.fpu fpv4-sp-d16
 990              		.type	chThdTerminate, %function
 991              	chThdTerminate:
 992              	.LFB315:
 993              		.loc 3 632 0
 994              		.cfi_startproc
 995              		@ args = 0, pretend = 0, frame = 0
 996              		@ frame_needed = 0, uses_anonymous_args = 0
 997              	.LVL103:
 998 0000 10B5     		push	{r4, lr}
 999              		.cfi_def_cfa_offset 8
 1000              		.cfi_offset 4, -8
 1001              		.cfi_offset 14, -4
 1002              		.loc 3 632 0
 1003 0002 0446     		mov	r4, r0
 1004              		.loc 3 634 0
 1005 0004 FFF7FEFF 		bl	chSysLock
 1006              	.LVL104:
 1007              		.loc 3 635 0
 1008 0008 94F82130 		ldrb	r3, [r4, #33]	@ zero_extendqisi2
 1009 000c 43F00403 		orr	r3, r3, #4
 1010 0010 84F82130 		strb	r3, [r4, #33]
 1011              		.loc 3 637 0
 1012 0014 BDE81040 		pop	{r4, lr}
 1013              		.cfi_restore 14
 1014              		.cfi_restore 4
 1015              		.cfi_def_cfa_offset 0
 1016              	.LVL105:
 1017              		.loc 3 636 0
 1018 0018 FFF7FEBF 		b	chSysUnlock
 1019              	.LVL106:
 1020              		.cfi_endproc
 1021              	.LFE315:
 1022              		.size	chThdTerminate, .-chThdTerminate
 1023              		.section	.text.chThdSleep,"ax",%progbits
 1024              		.align	1
 1025              		.global	chThdSleep
 1026              		.syntax unified
ARM GAS  /tmp/ccV69SLS.s 			page 19


 1027              		.thumb
 1028              		.thumb_func
 1029              		.fpu fpv4-sp-d16
 1030              		.type	chThdSleep, %function
 1031              	chThdSleep:
 1032              	.LFB316:
 1033              		.loc 3 651 0
 1034              		.cfi_startproc
 1035              		@ args = 0, pretend = 0, frame = 0
 1036              		@ frame_needed = 0, uses_anonymous_args = 0
 1037              	.LVL107:
 1038 0000 10B5     		push	{r4, lr}
 1039              		.cfi_def_cfa_offset 8
 1040              		.cfi_offset 4, -8
 1041              		.cfi_offset 14, -4
 1042              		.loc 3 651 0
 1043 0002 0446     		mov	r4, r0
 1044              		.loc 3 653 0
 1045 0004 FFF7FEFF 		bl	chSysLock
 1046              	.LVL108:
 1047              	.LBB118:
 1048              	.LBB119:
 1049              		.file 5 "../../modules/ChibiOS/os/rt/include/chthreads.h"
 1050              		.loc 5 382 0
 1051 0008 0820     		movs	r0, #8
 1052 000a 2146     		mov	r1, r4
 1053 000c FFF7FEFF 		bl	chSchGoSleepTimeoutS
 1054              	.LVL109:
 1055              	.LBE119:
 1056              	.LBE118:
 1057              		.loc 3 656 0
 1058 0010 BDE81040 		pop	{r4, lr}
 1059              		.cfi_restore 14
 1060              		.cfi_restore 4
 1061              		.cfi_def_cfa_offset 0
 1062              	.LVL110:
 1063              		.loc 3 655 0
 1064 0014 FFF7FEBF 		b	chSysUnlock
 1065              	.LVL111:
 1066              		.cfi_endproc
 1067              	.LFE316:
 1068              		.size	chThdSleep, .-chThdSleep
 1069              		.section	.text.chThdSleepUntil,"ax",%progbits
 1070              		.align	1
 1071              		.global	chThdSleepUntil
 1072              		.syntax unified
 1073              		.thumb
 1074              		.thumb_func
 1075              		.fpu fpv4-sp-d16
 1076              		.type	chThdSleepUntil, %function
 1077              	chThdSleepUntil:
 1078              	.LFB317:
 1079              		.loc 3 671 0
 1080              		.cfi_startproc
 1081              		@ args = 0, pretend = 0, frame = 0
 1082              		@ frame_needed = 0, uses_anonymous_args = 0
 1083              	.LVL112:
ARM GAS  /tmp/ccV69SLS.s 			page 20


 1084 0000 10B5     		push	{r4, lr}
 1085              		.cfi_def_cfa_offset 8
 1086              		.cfi_offset 4, -8
 1087              		.cfi_offset 14, -4
 1088              		.loc 3 671 0
 1089 0002 0446     		mov	r4, r0
 1090              		.loc 3 674 0
 1091 0004 FFF7FEFF 		bl	chSysLock
 1092              	.LVL113:
 1093              	.LBB128:
 1094              	.LBB129:
 1095              	.LBB130:
 1096              	.LBB131:
 1097              		.file 6 "../../modules/ChibiOS/os/hal/ports/STM32/LLD/TIMv1/hal_st_lld.h"
 1098              		.loc 6 168 0
 1099 0008 4FF08043 		mov	r3, #1073741824
 1100 000c 596A     		ldr	r1, [r3, #36]
 1101              	.LBE131:
 1102              	.LBE130:
 1103              	.LBE129:
 1104              	.LBE128:
 1105              		.loc 3 676 0
 1106 000e 611A     		subs	r1, r4, r1
 1107 0010 02D0     		beq	.L54
 1108              	.LVL114:
 1109              	.LBB132:
 1110              	.LBB133:
 1111              		.loc 5 382 0
 1112 0012 0820     		movs	r0, #8
 1113 0014 FFF7FEFF 		bl	chSchGoSleepTimeoutS
 1114              	.LVL115:
 1115              	.L54:
 1116              	.LBE133:
 1117              	.LBE132:
 1118              		.loc 3 680 0
 1119 0018 BDE81040 		pop	{r4, lr}
 1120              		.cfi_restore 14
 1121              		.cfi_restore 4
 1122              		.cfi_def_cfa_offset 0
 1123              	.LVL116:
 1124              		.loc 3 679 0
 1125 001c FFF7FEBF 		b	chSysUnlock
 1126              	.LVL117:
 1127              		.cfi_endproc
 1128              	.LFE317:
 1129              		.size	chThdSleepUntil, .-chThdSleepUntil
 1130              		.section	.text.chThdSleepUntilWindowed,"ax",%progbits
 1131              		.align	1
 1132              		.global	chThdSleepUntilWindowed
 1133              		.syntax unified
 1134              		.thumb
 1135              		.thumb_func
 1136              		.fpu fpv4-sp-d16
 1137              		.type	chThdSleepUntilWindowed, %function
 1138              	chThdSleepUntilWindowed:
 1139              	.LFB318:
 1140              		.loc 3 696 0
ARM GAS  /tmp/ccV69SLS.s 			page 21


 1141              		.cfi_startproc
 1142              		@ args = 0, pretend = 0, frame = 0
 1143              		@ frame_needed = 0, uses_anonymous_args = 0
 1144              	.LVL118:
 1145 0000 38B5     		push	{r3, r4, r5, lr}
 1146              		.cfi_def_cfa_offset 16
 1147              		.cfi_offset 3, -16
 1148              		.cfi_offset 4, -12
 1149              		.cfi_offset 5, -8
 1150              		.cfi_offset 14, -4
 1151              		.loc 3 696 0
 1152 0002 0446     		mov	r4, r0
 1153 0004 0D46     		mov	r5, r1
 1154              		.loc 3 699 0
 1155 0006 FFF7FEFF 		bl	chSysLock
 1156              	.LVL119:
 1157              	.LBB144:
 1158              	.LBB145:
 1159              	.LBB146:
 1160              	.LBB147:
 1161              		.loc 6 168 0
 1162 000a 4FF08043 		mov	r3, #1073741824
 1163 000e 596A     		ldr	r1, [r3, #36]
 1164              	.LBE147:
 1165              	.LBE146:
 1166              	.LBE145:
 1167              	.LBE144:
 1168              	.LBB148:
 1169              	.LBB149:
 1170              		.file 7 "../../modules/ChibiOS/os/rt/include/chtime.h"
 1171              		.loc 7 535 0
 1172 0010 2B1B     		subs	r3, r5, r4
 1173 0012 0C1B     		subs	r4, r1, r4
 1174              	.LVL120:
 1175              	.LBE149:
 1176              	.LBE148:
 1177              		.loc 3 701 0
 1178 0014 A342     		cmp	r3, r4
 1179 0016 03D9     		bls	.L59
 1180              	.LVL121:
 1181              	.LBB150:
 1182              	.LBB151:
 1183              		.loc 5 382 0
 1184 0018 691A     		subs	r1, r5, r1
 1185              	.LVL122:
 1186 001a 0820     		movs	r0, #8
 1187 001c FFF7FEFF 		bl	chSchGoSleepTimeoutS
 1188              	.LVL123:
 1189              	.L59:
 1190              	.LBE151:
 1191              	.LBE150:
 1192              		.loc 3 704 0
 1193 0020 FFF7FEFF 		bl	chSysUnlock
 1194              	.LVL124:
 1195              		.loc 3 707 0
 1196 0024 2846     		mov	r0, r5
 1197 0026 38BD     		pop	{r3, r4, r5, pc}
ARM GAS  /tmp/ccV69SLS.s 			page 22


 1198              		.cfi_endproc
 1199              	.LFE318:
 1200              		.size	chThdSleepUntilWindowed, .-chThdSleepUntilWindowed
 1201              		.section	.text.chThdYield,"ax",%progbits
 1202              		.align	1
 1203              		.global	chThdYield
 1204              		.syntax unified
 1205              		.thumb
 1206              		.thumb_func
 1207              		.fpu fpv4-sp-d16
 1208              		.type	chThdYield, %function
 1209              	chThdYield:
 1210              	.LFB319:
 1211              		.loc 3 716 0
 1212              		.cfi_startproc
 1213              		@ args = 0, pretend = 0, frame = 0
 1214              		@ frame_needed = 0, uses_anonymous_args = 0
 1215 0000 08B5     		push	{r3, lr}
 1216              		.cfi_def_cfa_offset 8
 1217              		.cfi_offset 3, -8
 1218              		.cfi_offset 14, -4
 1219              		.loc 3 718 0
 1220 0002 FFF7FEFF 		bl	chSysLock
 1221              	.LVL125:
 1222              	.LBB156:
 1223              	.LBB157:
 1224              	.LBB158:
 1225              	.LBB159:
 1226              		.loc 4 666 0
 1227 0006 064B     		ldr	r3, .L62
 1228 0008 1A68     		ldr	r2, [r3]
 1229 000a 9B69     		ldr	r3, [r3, #24]
 1230              	.LBE159:
 1231              	.LBE158:
 1232              		.loc 4 680 0
 1233 000c 9268     		ldr	r2, [r2, #8]
 1234 000e 9B68     		ldr	r3, [r3, #8]
 1235 0010 9A42     		cmp	r2, r3
 1236 0012 01D3     		bcc	.L61
 1237              		.loc 4 681 0
 1238 0014 FFF7FEFF 		bl	chSchDoRescheduleBehind
 1239              	.LVL126:
 1240              	.L61:
 1241              	.LBE157:
 1242              	.LBE156:
 1243              		.loc 3 721 0
 1244 0018 BDE80840 		pop	{r3, lr}
 1245              		.cfi_restore 14
 1246              		.cfi_restore 3
 1247              		.cfi_def_cfa_offset 0
 1248              		.loc 3 720 0
 1249 001c FFF7FEBF 		b	chSysUnlock
 1250              	.LVL127:
 1251              	.L63:
 1252              		.align	2
 1253              	.L62:
 1254 0020 00000000 		.word	ch
ARM GAS  /tmp/ccV69SLS.s 			page 23


 1255              		.cfi_endproc
 1256              	.LFE319:
 1257              		.size	chThdYield, .-chThdYield
 1258              		.section	.text.chThdSuspendS,"ax",%progbits
 1259              		.align	1
 1260              		.global	chThdSuspendS
 1261              		.syntax unified
 1262              		.thumb
 1263              		.thumb_func
 1264              		.fpu fpv4-sp-d16
 1265              		.type	chThdSuspendS, %function
 1266              	chThdSuspendS:
 1267              	.LFB320:
 1268              		.loc 3 733 0
 1269              		.cfi_startproc
 1270              		@ args = 0, pretend = 0, frame = 0
 1271              		@ frame_needed = 0, uses_anonymous_args = 0
 1272              	.LVL128:
 1273 0000 10B5     		push	{r4, lr}
 1274              		.cfi_def_cfa_offset 8
 1275              		.cfi_offset 4, -8
 1276              		.cfi_offset 14, -4
 1277              	.LBB160:
 1278              	.LBB161:
 1279              		.loc 5 274 0
 1280 0002 054C     		ldr	r4, .L65
 1281 0004 A369     		ldr	r3, [r4, #24]
 1282              	.LBE161:
 1283              	.LBE160:
 1284              		.loc 3 738 0
 1285 0006 0360     		str	r3, [r0]
 1286              		.loc 3 739 0
 1287 0008 5862     		str	r0, [r3, #36]
 1288              		.loc 3 740 0
 1289 000a 0320     		movs	r0, #3
 1290              	.LVL129:
 1291 000c FFF7FEFF 		bl	chSchGoSleepS
 1292              	.LVL130:
 1293              		.loc 3 742 0
 1294 0010 A369     		ldr	r3, [r4, #24]
 1295              		.loc 3 743 0
 1296 0012 586A     		ldr	r0, [r3, #36]
 1297 0014 10BD     		pop	{r4, pc}
 1298              	.L66:
 1299 0016 00BF     		.align	2
 1300              	.L65:
 1301 0018 00000000 		.word	ch
 1302              		.cfi_endproc
 1303              	.LFE320:
 1304              		.size	chThdSuspendS, .-chThdSuspendS
 1305              		.section	.text.chThdSuspendTimeoutS,"ax",%progbits
 1306              		.align	1
 1307              		.global	chThdSuspendTimeoutS
 1308              		.syntax unified
 1309              		.thumb
 1310              		.thumb_func
 1311              		.fpu fpv4-sp-d16
ARM GAS  /tmp/ccV69SLS.s 			page 24


 1312              		.type	chThdSuspendTimeoutS, %function
 1313              	chThdSuspendTimeoutS:
 1314              	.LFB321:
 1315              		.loc 3 764 0
 1316              		.cfi_startproc
 1317              		@ args = 0, pretend = 0, frame = 0
 1318              		@ frame_needed = 0, uses_anonymous_args = 0
 1319              		@ link register save eliminated.
 1320              	.LVL131:
 1321              	.LBB162:
 1322              	.LBB163:
 1323              		.loc 5 274 0
 1324 0000 054B     		ldr	r3, .L69
 1325 0002 9B69     		ldr	r3, [r3, #24]
 1326              	.LBE163:
 1327              	.LBE162:
 1328              		.loc 3 769 0
 1329 0004 21B1     		cbz	r1, .L68
 1330              		.loc 3 773 0
 1331 0006 0360     		str	r3, [r0]
 1332              		.loc 3 774 0
 1333 0008 5862     		str	r0, [r3, #36]
 1334              		.loc 3 776 0
 1335 000a 0320     		movs	r0, #3
 1336              	.LVL132:
 1337 000c FFF7FEBF 		b	chSchGoSleepTimeoutS
 1338              	.LVL133:
 1339              	.L68:
 1340              		.loc 3 777 0
 1341 0010 4FF0FF30 		mov	r0, #-1
 1342              	.LVL134:
 1343 0014 7047     		bx	lr
 1344              	.L70:
 1345 0016 00BF     		.align	2
 1346              	.L69:
 1347 0018 00000000 		.word	ch
 1348              		.cfi_endproc
 1349              	.LFE321:
 1350              		.size	chThdSuspendTimeoutS, .-chThdSuspendTimeoutS
 1351              		.section	.text.chThdResumeI,"ax",%progbits
 1352              		.align	1
 1353              		.global	chThdResumeI
 1354              		.syntax unified
 1355              		.thumb
 1356              		.thumb_func
 1357              		.fpu fpv4-sp-d16
 1358              		.type	chThdResumeI, %function
 1359              	chThdResumeI:
 1360              	.LFB322:
 1361              		.loc 3 789 0
 1362              		.cfi_startproc
 1363              		@ args = 0, pretend = 0, frame = 0
 1364              		@ frame_needed = 0, uses_anonymous_args = 0
 1365              		@ link register save eliminated.
 1366              	.LVL135:
 1367              		.loc 3 791 0
 1368 0000 0368     		ldr	r3, [r0]
ARM GAS  /tmp/ccV69SLS.s 			page 25


 1369 0002 2BB1     		cbz	r3, .L71
 1370              	.LVL136:
 1371              	.LBB164:
 1372              		.loc 3 796 0
 1373 0004 0022     		movs	r2, #0
 1374 0006 0260     		str	r2, [r0]
 1375              		.loc 3 798 0
 1376 0008 1846     		mov	r0, r3
 1377              	.LVL137:
 1378              		.loc 3 797 0
 1379 000a 5962     		str	r1, [r3, #36]
 1380              		.loc 3 798 0
 1381 000c FFF7FEBF 		b	chSchReadyI
 1382              	.LVL138:
 1383              	.L71:
 1384 0010 7047     		bx	lr
 1385              	.LBE164:
 1386              		.cfi_endproc
 1387              	.LFE322:
 1388              		.size	chThdResumeI, .-chThdResumeI
 1389              		.section	.text.chThdResumeS,"ax",%progbits
 1390              		.align	1
 1391              		.global	chThdResumeS
 1392              		.syntax unified
 1393              		.thumb
 1394              		.thumb_func
 1395              		.fpu fpv4-sp-d16
 1396              		.type	chThdResumeS, %function
 1397              	chThdResumeS:
 1398              	.LFB323:
 1399              		.loc 3 812 0
 1400              		.cfi_startproc
 1401              		@ args = 0, pretend = 0, frame = 0
 1402              		@ frame_needed = 0, uses_anonymous_args = 0
 1403              		@ link register save eliminated.
 1404              	.LVL139:
 1405              		.loc 3 814 0
 1406 0000 0368     		ldr	r3, [r0]
 1407 0002 23B1     		cbz	r3, .L73
 1408              	.LVL140:
 1409              	.LBB165:
 1410              		.loc 3 819 0
 1411 0004 0022     		movs	r2, #0
 1412 0006 0260     		str	r2, [r0]
 1413              		.loc 3 820 0
 1414 0008 1846     		mov	r0, r3
 1415              	.LVL141:
 1416 000a FFF7FEBF 		b	chSchWakeupS
 1417              	.LVL142:
 1418              	.L73:
 1419 000e 7047     		bx	lr
 1420              	.LBE165:
 1421              		.cfi_endproc
 1422              	.LFE323:
 1423              		.size	chThdResumeS, .-chThdResumeS
 1424              		.section	.text.chThdResume,"ax",%progbits
 1425              		.align	1
ARM GAS  /tmp/ccV69SLS.s 			page 26


 1426              		.global	chThdResume
 1427              		.syntax unified
 1428              		.thumb
 1429              		.thumb_func
 1430              		.fpu fpv4-sp-d16
 1431              		.type	chThdResume, %function
 1432              	chThdResume:
 1433              	.LFB324:
 1434              		.loc 3 834 0
 1435              		.cfi_startproc
 1436              		@ args = 0, pretend = 0, frame = 0
 1437              		@ frame_needed = 0, uses_anonymous_args = 0
 1438              	.LVL143:
 1439 0000 38B5     		push	{r3, r4, r5, lr}
 1440              		.cfi_def_cfa_offset 16
 1441              		.cfi_offset 3, -16
 1442              		.cfi_offset 4, -12
 1443              		.cfi_offset 5, -8
 1444              		.cfi_offset 14, -4
 1445              		.loc 3 834 0
 1446 0002 0446     		mov	r4, r0
 1447 0004 0D46     		mov	r5, r1
 1448              		.loc 3 836 0
 1449 0006 FFF7FEFF 		bl	chSysLock
 1450              	.LVL144:
 1451              		.loc 3 837 0
 1452 000a 2946     		mov	r1, r5
 1453 000c 2046     		mov	r0, r4
 1454 000e FFF7FEFF 		bl	chThdResumeS
 1455              	.LVL145:
 1456              		.loc 3 839 0
 1457 0012 BDE83840 		pop	{r3, r4, r5, lr}
 1458              		.cfi_restore 14
 1459              		.cfi_restore 5
 1460              		.cfi_restore 4
 1461              		.cfi_restore 3
 1462              		.cfi_def_cfa_offset 0
 1463              	.LVL146:
 1464              		.loc 3 838 0
 1465 0016 FFF7FEBF 		b	chSysUnlock
 1466              	.LVL147:
 1467              		.cfi_endproc
 1468              	.LFE324:
 1469              		.size	chThdResume, .-chThdResume
 1470              		.section	.text.chThdEnqueueTimeoutS,"ax",%progbits
 1471              		.align	1
 1472              		.global	chThdEnqueueTimeoutS
 1473              		.syntax unified
 1474              		.thumb
 1475              		.thumb_func
 1476              		.fpu fpv4-sp-d16
 1477              		.type	chThdEnqueueTimeoutS, %function
 1478              	chThdEnqueueTimeoutS:
 1479              	.LFB325:
 1480              		.loc 3 864 0
 1481              		.cfi_startproc
 1482              		@ args = 0, pretend = 0, frame = 0
ARM GAS  /tmp/ccV69SLS.s 			page 27


 1483              		@ frame_needed = 0, uses_anonymous_args = 0
 1484              		@ link register save eliminated.
 1485              	.LVL148:
 1486              		.loc 3 866 0
 1487 0000 49B1     		cbz	r1, .L77
 1488              		.loc 3 870 0
 1489 0002 064B     		ldr	r3, .L78
 1490              	.LBB166:
 1491              	.LBB167:
 1492              		.loc 4 601 0
 1493 0004 4268     		ldr	r2, [r0, #4]
 1494              	.LBE167:
 1495              	.LBE166:
 1496              		.loc 3 870 0
 1497 0006 9B69     		ldr	r3, [r3, #24]
 1498              	.LVL149:
 1499              	.LBB169:
 1500              	.LBB168:
 1501              		.loc 4 600 0
 1502 0008 1860     		str	r0, [r3]
 1503              		.loc 4 601 0
 1504 000a 5A60     		str	r2, [r3, #4]
 1505              		.loc 4 602 0
 1506 000c 1360     		str	r3, [r2]
 1507              		.loc 4 603 0
 1508 000e 4360     		str	r3, [r0, #4]
 1509              	.LVL150:
 1510              	.LBE168:
 1511              	.LBE169:
 1512              		.loc 3 872 0
 1513 0010 0420     		movs	r0, #4
 1514              	.LVL151:
 1515 0012 FFF7FEBF 		b	chSchGoSleepTimeoutS
 1516              	.LVL152:
 1517              	.L77:
 1518              		.loc 3 873 0
 1519 0016 4FF0FF30 		mov	r0, #-1
 1520              	.LVL153:
 1521 001a 7047     		bx	lr
 1522              	.L79:
 1523              		.align	2
 1524              	.L78:
 1525 001c 00000000 		.word	ch
 1526              		.cfi_endproc
 1527              	.LFE325:
 1528              		.size	chThdEnqueueTimeoutS, .-chThdEnqueueTimeoutS
 1529              		.section	.text.chThdDequeueNextI,"ax",%progbits
 1530              		.align	1
 1531              		.global	chThdDequeueNextI
 1532              		.syntax unified
 1533              		.thumb
 1534              		.thumb_func
 1535              		.fpu fpv4-sp-d16
 1536              		.type	chThdDequeueNextI, %function
 1537              	chThdDequeueNextI:
 1538              	.LFB326:
 1539              		.loc 3 884 0
ARM GAS  /tmp/ccV69SLS.s 			page 28


 1540              		.cfi_startproc
 1541              		@ args = 0, pretend = 0, frame = 0
 1542              		@ frame_needed = 0, uses_anonymous_args = 0
 1543              		@ link register save eliminated.
 1544              	.LVL154:
 1545              	.LBB176:
 1546              	.LBB177:
 1547              		.loc 4 566 0
 1548 0000 0368     		ldr	r3, [r0]
 1549              	.LVL155:
 1550              	.LBE177:
 1551              	.LBE176:
 1552              		.loc 3 886 0
 1553 0002 9842     		cmp	r0, r3
 1554 0004 06D0     		beq	.L80
 1555              	.LVL156:
 1556              	.LBB178:
 1557              	.LBB179:
 1558              	.LBB180:
 1559              	.LBB181:
 1560              		.loc 4 609 0
 1561 0006 1A68     		ldr	r2, [r3]
 1562 0008 0260     		str	r2, [r0]
 1563              		.loc 4 610 0
 1564 000a 5060     		str	r0, [r2, #4]
 1565              	.LVL157:
 1566              	.LBE181:
 1567              	.LBE180:
 1568              		.loc 5 435 0
 1569 000c 1846     		mov	r0, r3
 1570              	.LVL158:
 1571              		.loc 5 434 0
 1572 000e 5962     		str	r1, [r3, #36]
 1573              	.LVL159:
 1574              		.loc 5 435 0
 1575 0010 FFF7FEBF 		b	chSchReadyI
 1576              	.LVL160:
 1577              	.L80:
 1578 0014 7047     		bx	lr
 1579              	.LBE179:
 1580              	.LBE178:
 1581              		.cfi_endproc
 1582              	.LFE326:
 1583              		.size	chThdDequeueNextI, .-chThdDequeueNextI
 1584              		.section	.text.chThdDequeueAllI,"ax",%progbits
 1585              		.align	1
 1586              		.global	chThdDequeueAllI
 1587              		.syntax unified
 1588              		.thumb
 1589              		.thumb_func
 1590              		.fpu fpv4-sp-d16
 1591              		.type	chThdDequeueAllI, %function
 1592              	chThdDequeueAllI:
 1593              	.LFB327:
 1594              		.loc 3 899 0
 1595              		.cfi_startproc
 1596              		@ args = 0, pretend = 0, frame = 0
ARM GAS  /tmp/ccV69SLS.s 			page 29


 1597              		@ frame_needed = 0, uses_anonymous_args = 0
 1598              	.LVL161:
 1599 0000 38B5     		push	{r3, r4, r5, lr}
 1600              		.cfi_def_cfa_offset 16
 1601              		.cfi_offset 3, -16
 1602              		.cfi_offset 4, -12
 1603              		.cfi_offset 5, -8
 1604              		.cfi_offset 14, -4
 1605 0002 0446     		mov	r4, r0
 1606 0004 0D46     		mov	r5, r1
 1607              	.LVL162:
 1608              	.L83:
 1609              	.LBB188:
 1610              	.LBB189:
 1611              		.loc 4 566 0
 1612 0006 2068     		ldr	r0, [r4]
 1613              	.LVL163:
 1614              	.LBE189:
 1615              	.LBE188:
 1616              		.loc 3 901 0
 1617 0008 8442     		cmp	r4, r0
 1618 000a 00D1     		bne	.L84
 1619              		.loc 3 904 0
 1620 000c 38BD     		pop	{r3, r4, r5, pc}
 1621              	.LVL164:
 1622              	.L84:
 1623              	.LBB190:
 1624              	.LBB191:
 1625              	.LBB192:
 1626              	.LBB193:
 1627              		.loc 4 609 0
 1628 000e 0368     		ldr	r3, [r0]
 1629 0010 2360     		str	r3, [r4]
 1630              		.loc 4 610 0
 1631 0012 5C60     		str	r4, [r3, #4]
 1632              	.LVL165:
 1633              	.LBE193:
 1634              	.LBE192:
 1635              		.loc 5 434 0
 1636 0014 4562     		str	r5, [r0, #36]
 1637              		.loc 5 435 0
 1638 0016 FFF7FEFF 		bl	chSchReadyI
 1639              	.LVL166:
 1640 001a F4E7     		b	.L83
 1641              	.LBE191:
 1642              	.LBE190:
 1643              		.cfi_endproc
 1644              	.LFE327:
 1645              		.size	chThdDequeueAllI, .-chThdDequeueAllI
 1646              		.section	.rodata.chThdCreateStatic.str1.1,"aMS",%progbits,1
 1647              	.LC0:
 1648 0000 6E6F6E61 		.ascii	"noname\000"
 1648      6D6500
 1649              		.text
 1650              	.Letext0:
 1651              		.file 8 "/opt/gcc-arm-none-eabi-6-2017-q2-update/lib/gcc/arm-none-eabi/6.3.1/include/stddef.h"
 1652              		.file 9 "/opt/gcc-arm-none-eabi-6-2017-q2-update/arm-none-eabi/include/machine/_default_types.h"
ARM GAS  /tmp/ccV69SLS.s 			page 30


 1653              		.file 10 "/opt/gcc-arm-none-eabi-6-2017-q2-update/arm-none-eabi/include/sys/_stdint.h"
 1654              		.file 11 "../../modules/ChibiOS/os/common/ports/ARMCMx/compilers/GCC/chtypes.h"
 1655              		.file 12 "../../modules/ChibiOS/os/rt/include/chsystypes.h"
 1656              		.file 13 "../../modules/ChibiOS/os/common/ext/ARM/CMSIS/Core/Include/core_cm7.h"
 1657              		.file 14 "../../modules/ChibiOS/os/common/ext/ST/STM32F7xx/system_stm32f7xx.h"
 1658              		.file 15 "../../modules/ChibiOS/os/common/ports/ARMCMx/chcore.h"
 1659              		.file 16 "../../modules/ChibiOS/os/common/ports/ARMCMx/chcore_v7m.h"
 1660              		.file 17 "../../modules/ChibiOS/os/hal/ports/STM32/LLD/TIMv1/stm32_tim.h"
 1661              		.file 18 "../../modules/ChibiOS/os/rt/include/chtm.h"
 1662              		.file 19 "../../modules/ChibiOS/os/rt/include/chstats.h"
 1663              		.file 20 "../../modules/ChibiOS/os/rt/include/chsem.h"
 1664              		.file 21 "../../modules/ChibiOS/os/rt/include/chmtx.h"
 1665              		.file 22 "../../modules/ChibiOS/os/rt/include/chregistry.h"
 1666              		.file 23 "../../modules/ChibiOS/os/oslib/include/chmemcore.h"
 1667              		.file 24 "../../modules/ChibiOS/os/oslib/include/chmempools.h"
 1668              		.file 25 "../../modules/ChibiOS/os/oslib/include/chfactory.h"
 1669              		.file 26 "../../modules/ChibiOS/os/rt/include/chvt.h"
 1670              		.file 27 "../../modules/ChibiOS/os/common/ports/ARMCMx/chcore_timer.h"
 1671              		.file 28 "../../modules/ChibiOS/os/oslib/include/chmemheaps.h"