ARM GAS  /tmp/cc95MeiT.s 			page 1


   1              		.cpu cortex-m7
   2              		.eabi_attribute 27, 1
   3              		.eabi_attribute 28, 1
   4              		.eabi_attribute 20, 1
   5              		.eabi_attribute 21, 1
   6              		.eabi_attribute 23, 3
   7              		.eabi_attribute 24, 1
   8              		.eabi_attribute 25, 1
   9              		.eabi_attribute 26, 1
  10              		.eabi_attribute 30, 4
  11              		.eabi_attribute 34, 1
  12              		.eabi_attribute 18, 4
  13              		.file	"chtm.c"
  14              		.text
  15              	.Ltext0:
  16              		.cfi_sections	.debug_frame
  17              		.section	.text.chTMObjectInit,"ax",%progbits
  18              		.align	1
  19              		.global	chTMObjectInit
  20              		.syntax unified
  21              		.thumb
  22              		.thumb_func
  23              		.fpu fpv4-sp-d16
  24              		.type	chTMObjectInit, %function
  25              	chTMObjectInit:
  26              	.LFB303:
  27              		.file 1 "../../modules/ChibiOS/os/rt/src/chtm.c"
  28              		.loc 1 97 0
  29              		.cfi_startproc
  30              		@ args = 0, pretend = 0, frame = 0
  31              		@ frame_needed = 0, uses_anonymous_args = 0
  32              		@ link register save eliminated.
  33              	.LVL0:
  34              		.loc 1 99 0
  35 0000 4FF0FF33 		mov	r3, #-1
  36              		.loc 1 103 0
  37 0004 0022     		movs	r2, #0
  38              		.loc 1 99 0
  39 0006 0360     		str	r3, [r0]
  40              		.loc 1 100 0
  41 0008 0023     		movs	r3, #0
  42 000a 4360     		str	r3, [r0, #4]
  43              		.loc 1 101 0
  44 000c 8360     		str	r3, [r0, #8]
  45              		.loc 1 102 0
  46 000e C360     		str	r3, [r0, #12]
  47              		.loc 1 103 0
  48 0010 0023     		movs	r3, #0
  49 0012 C0E90423 		strd	r2, [r0, #16]
  50 0016 7047     		bx	lr
  51              		.cfi_endproc
  52              	.LFE303:
  53              		.size	chTMObjectInit, .-chTMObjectInit
  54              		.section	.text.chTMStartMeasurementX,"ax",%progbits
  55              		.align	1
  56              		.global	chTMStartMeasurementX
  57              		.syntax unified
ARM GAS  /tmp/cc95MeiT.s 			page 2


  58              		.thumb
  59              		.thumb_func
  60              		.fpu fpv4-sp-d16
  61              		.type	chTMStartMeasurementX, %function
  62              	chTMStartMeasurementX:
  63              	.LFB304:
  64              		.loc 1 114 0
  65              		.cfi_startproc
  66              		@ args = 0, pretend = 0, frame = 0
  67              		@ frame_needed = 0, uses_anonymous_args = 0
  68              		@ link register save eliminated.
  69              	.LVL1:
  70              	.LBB8:
  71              	.LBB9:
  72              		.file 2 "../../modules/ChibiOS/os/common/ports/ARMCMx/chcore_v7m.h"
  73              		.loc 2 716 0
  74 0000 014B     		ldr	r3, .L3
  75 0002 5B68     		ldr	r3, [r3, #4]
  76              	.LBE9:
  77              	.LBE8:
  78              		.loc 1 116 0
  79 0004 8360     		str	r3, [r0, #8]
  80 0006 7047     		bx	lr
  81              	.L4:
  82              		.align	2
  83              	.L3:
  84 0008 001000E0 		.word	-536866816
  85              		.cfi_endproc
  86              	.LFE304:
  87              		.size	chTMStartMeasurementX, .-chTMStartMeasurementX
  88              		.section	.text.chTMStopMeasurementX,"ax",%progbits
  89              		.align	1
  90              		.global	chTMStopMeasurementX
  91              		.syntax unified
  92              		.thumb
  93              		.thumb_func
  94              		.fpu fpv4-sp-d16
  95              		.type	chTMStopMeasurementX, %function
  96              	chTMStopMeasurementX:
  97              	.LFB305:
  98              		.loc 1 127 0
  99              		.cfi_startproc
 100              		@ args = 0, pretend = 0, frame = 0
 101              		@ frame_needed = 0, uses_anonymous_args = 0
 102              	.LVL2:
 103              		.loc 1 129 0
 104 0000 0E4A     		ldr	r2, .L8
 105              	.LBB14:
 106              	.LBB15:
 107              		.loc 2 716 0
 108 0002 0F4B     		ldr	r3, .L8+4
 109              	.LBE15:
 110              	.LBE14:
 111              		.loc 1 129 0
 112 0004 D2F89010 		ldr	r1, [r2, #144]
 113              	.LVL3:
 114              	.LBB17:
ARM GAS  /tmp/cc95MeiT.s 			page 3


 115              	.LBB18:
 116              		.loc 1 57 0
 117 0008 C268     		ldr	r2, [r0, #12]
 118              	.LBE18:
 119              	.LBE17:
 120              	.LBB21:
 121              	.LBB16:
 122              		.loc 2 716 0
 123 000a 5B68     		ldr	r3, [r3, #4]
 124              	.LVL4:
 125              	.LBE16:
 126              	.LBE21:
 127              	.LBB22:
 128              	.LBB19:
 129              		.loc 1 57 0
 130 000c 0132     		adds	r2, r2, #1
 131 000e C260     		str	r2, [r0, #12]
 132              		.loc 1 58 0
 133 0010 8268     		ldr	r2, [r0, #8]
 134 0012 9B1A     		subs	r3, r3, r2
 135              	.LVL5:
 136              		.loc 1 60 0
 137 0014 4268     		ldr	r2, [r0, #4]
 138              		.loc 1 58 0
 139 0016 5B1A     		subs	r3, r3, r1
 140              	.LBE19:
 141              	.LBE22:
 142              		.loc 1 127 0
 143 0018 30B5     		push	{r4, r5, lr}
 144              		.cfi_def_cfa_offset 12
 145              		.cfi_offset 4, -12
 146              		.cfi_offset 5, -8
 147              		.cfi_offset 14, -4
 148              	.LBB23:
 149              	.LBB20:
 150              		.loc 1 59 0
 151 001a D0E90445 		ldrd	r4, [r0, #16]
 152              		.loc 1 58 0
 153 001e 8360     		str	r3, [r0, #8]
 154              		.loc 1 59 0
 155 0020 E418     		adds	r4, r4, r3
 156 0022 45F10005 		adc	r5, r5, #0
 157              		.loc 1 60 0
 158 0026 9342     		cmp	r3, r2
 159              		.loc 1 63 0
 160 0028 0268     		ldr	r2, [r0]
 161              		.loc 1 61 0
 162 002a 88BF     		it	hi
 163 002c 4360     		strhi	r3, [r0, #4]
 164              		.loc 1 63 0
 165 002e 9342     		cmp	r3, r2
 166              		.loc 1 59 0
 167 0030 C0E90445 		strd	r4, [r0, #16]
 168              		.loc 1 64 0
 169 0034 38BF     		it	cc
 170 0036 0360     		strcc	r3, [r0]
 171              	.LVL6:
ARM GAS  /tmp/cc95MeiT.s 			page 4


 172 0038 30BD     		pop	{r4, r5, pc}
 173              	.L9:
 174 003a 00BF     		.align	2
 175              	.L8:
 176 003c 00000000 		.word	ch
 177 0040 001000E0 		.word	-536866816
 178              	.LBE20:
 179              	.LBE23:
 180              		.cfi_endproc
 181              	.LFE305:
 182              		.size	chTMStopMeasurementX, .-chTMStopMeasurementX
 183              		.section	.text._tm_init,"ax",%progbits
 184              		.align	1
 185              		.global	_tm_init
 186              		.syntax unified
 187              		.thumb
 188              		.thumb_func
 189              		.fpu fpv4-sp-d16
 190              		.type	_tm_init, %function
 191              	_tm_init:
 192              	.LFB302:
 193              		.loc 1 77 0
 194              		.cfi_startproc
 195              		@ args = 0, pretend = 0, frame = 24
 196              		@ frame_needed = 0, uses_anonymous_args = 0
 197 0000 10B5     		push	{r4, lr}
 198              		.cfi_def_cfa_offset 8
 199              		.cfi_offset 4, -8
 200              		.cfi_offset 14, -4
 201 0002 86B0     		sub	sp, sp, #24
 202              		.cfi_def_cfa_offset 32
 203              		.loc 1 83 0
 204 0004 0023     		movs	r3, #0
 205 0006 084C     		ldr	r4, .L11
 206              		.loc 1 84 0
 207 0008 6846     		mov	r0, sp
 208              		.loc 1 83 0
 209 000a C4F89030 		str	r3, [r4, #144]
 210              		.loc 1 84 0
 211 000e FFF7FEFF 		bl	chTMObjectInit
 212              	.LVL7:
 213              		.loc 1 85 0
 214 0012 6846     		mov	r0, sp
 215 0014 FFF7FEFF 		bl	chTMStartMeasurementX
 216              	.LVL8:
 217              		.loc 1 86 0
 218 0018 6846     		mov	r0, sp
 219 001a FFF7FEFF 		bl	chTMStopMeasurementX
 220              	.LVL9:
 221              		.loc 1 87 0
 222 001e 029B     		ldr	r3, [sp, #8]
 223 0020 C4F89030 		str	r3, [r4, #144]
 224              		.loc 1 88 0
 225 0024 06B0     		add	sp, sp, #24
 226              		.cfi_def_cfa_offset 8
 227              		@ sp needed
 228 0026 10BD     		pop	{r4, pc}
ARM GAS  /tmp/cc95MeiT.s 			page 5


 229              	.L12:
 230              		.align	2
 231              	.L11:
 232 0028 00000000 		.word	ch
 233              		.cfi_endproc
 234              	.LFE302:
 235              		.size	_tm_init, .-_tm_init
 236              		.section	.text.chTMChainMeasurementToX,"ax",%progbits
 237              		.align	1
 238              		.global	chTMChainMeasurementToX
 239              		.syntax unified
 240              		.thumb
 241              		.thumb_func
 242              		.fpu fpv4-sp-d16
 243              		.type	chTMChainMeasurementToX, %function
 244              	chTMChainMeasurementToX:
 245              	.LFB306:
 246              		.loc 1 145 0
 247              		.cfi_startproc
 248              		@ args = 0, pretend = 0, frame = 0
 249              		@ frame_needed = 0, uses_anonymous_args = 0
 250              	.LVL10:
 251              	.LBB28:
 252              	.LBB29:
 253              		.loc 1 57 0
 254 0000 C268     		ldr	r2, [r0, #12]
 255              	.LBE29:
 256              	.LBE28:
 257              	.LBB32:
 258              	.LBB33:
 259              		.loc 2 716 0
 260 0002 0C4B     		ldr	r3, .L16
 261              	.LBE33:
 262              	.LBE32:
 263              	.LBB35:
 264              	.LBB30:
 265              		.loc 1 57 0
 266 0004 0132     		adds	r2, r2, #1
 267              	.LBE30:
 268              	.LBE35:
 269              	.LBB36:
 270              	.LBB34:
 271              		.loc 2 716 0
 272 0006 5B68     		ldr	r3, [r3, #4]
 273              	.LBE34:
 274              	.LBE36:
 275              		.loc 1 145 0
 276 0008 30B5     		push	{r4, r5, lr}
 277              		.cfi_def_cfa_offset 12
 278              		.cfi_offset 4, -12
 279              		.cfi_offset 5, -8
 280              		.cfi_offset 14, -4
 281              		.loc 1 148 0
 282 000a 8B60     		str	r3, [r1, #8]
 283              	.LVL11:
 284              	.LBB37:
 285              	.LBB31:
ARM GAS  /tmp/cc95MeiT.s 			page 6


 286              		.loc 1 57 0
 287 000c C260     		str	r2, [r0, #12]
 288              		.loc 1 58 0
 289 000e 8268     		ldr	r2, [r0, #8]
 290              		.loc 1 59 0
 291 0010 D0E90445 		ldrd	r4, [r0, #16]
 292              		.loc 1 58 0
 293 0014 9B1A     		subs	r3, r3, r2
 294              	.LVL12:
 295              		.loc 1 60 0
 296 0016 4268     		ldr	r2, [r0, #4]
 297              		.loc 1 59 0
 298 0018 E418     		adds	r4, r4, r3
 299              		.loc 1 58 0
 300 001a 8360     		str	r3, [r0, #8]
 301              	.LVL13:
 302              		.loc 1 59 0
 303 001c 45F10005 		adc	r5, r5, #0
 304              		.loc 1 60 0
 305 0020 9342     		cmp	r3, r2
 306              		.loc 1 63 0
 307 0022 0268     		ldr	r2, [r0]
 308              		.loc 1 61 0
 309 0024 88BF     		it	hi
 310 0026 4360     		strhi	r3, [r0, #4]
 311              		.loc 1 63 0
 312 0028 9342     		cmp	r3, r2
 313              		.loc 1 59 0
 314 002a C0E90445 		strd	r4, [r0, #16]
 315              		.loc 1 64 0
 316 002e 38BF     		it	cc
 317 0030 0360     		strcc	r3, [r0]
 318              	.LVL14:
 319 0032 30BD     		pop	{r4, r5, pc}
 320              	.L17:
 321              		.align	2
 322              	.L16:
 323 0034 001000E0 		.word	-536866816
 324              	.LBE31:
 325              	.LBE37:
 326              		.cfi_endproc
 327              	.LFE306:
 328              		.size	chTMChainMeasurementToX, .-chTMChainMeasurementToX
 329              		.text
 330              	.Letext0:
 331              		.file 3 "/opt/gcc-arm-none-eabi-6-2017-q2-update/lib/gcc/arm-none-eabi/6.3.1/include/stddef.h"
 332              		.file 4 "/opt/gcc-arm-none-eabi-6-2017-q2-update/arm-none-eabi/include/machine/_default_types.h"
 333              		.file 5 "/opt/gcc-arm-none-eabi-6-2017-q2-update/arm-none-eabi/include/sys/_stdint.h"
 334              		.file 6 "../../modules/ChibiOS/os/common/ports/ARMCMx/compilers/GCC/chtypes.h"
 335              		.file 7 "../../modules/ChibiOS/os/rt/include/chsystypes.h"
 336              		.file 8 "../../modules/ChibiOS/os/rt/include/chschd.h"
 337              		.file 9 "../../modules/ChibiOS/os/rt/include/chtime.h"
 338              		.file 10 "../../modules/ChibiOS/os/common/ext/ARM/CMSIS/Core/Include/core_cm7.h"
 339              		.file 11 "../../modules/ChibiOS/os/common/ext/ST/STM32F7xx/system_stm32f7xx.h"
 340              		.file 12 "../../modules/ChibiOS/os/common/ports/ARMCMx/chcore.h"
 341              		.file 13 "../../modules/ChibiOS/os/rt/include/chtm.h"
 342              		.file 14 "../../modules/ChibiOS/os/rt/include/chstats.h"
ARM GAS  /tmp/cc95MeiT.s 			page 7


 343              		.file 15 "../../modules/ChibiOS/os/rt/include/chsem.h"
 344              		.file 16 "../../modules/ChibiOS/os/rt/include/chmtx.h"
 345              		.file 17 "../../modules/ChibiOS/os/rt/include/chsys.h"
 346              		.file 18 "../../modules/ChibiOS/os/rt/include/chregistry.h"
 347              		.file 19 "../../modules/ChibiOS/os/oslib/include/chmemcore.h"
 348              		.file 20 "../../modules/ChibiOS/os/oslib/include/chmempools.h"
 349              		.file 21 "../../modules/ChibiOS/os/oslib/include/chfactory.h"