ARM GAS  /tmp/cc68Sr28.s 			page 1


   1              		.cpu cortex-m7
   2              		.eabi_attribute 27, 1
   3              		.eabi_attribute 28, 1
   4              		.eabi_attribute 20, 1
   5              		.eabi_attribute 21, 1
   6              		.eabi_attribute 23, 3
   7              		.eabi_attribute 24, 1
   8              		.eabi_attribute 25, 1
   9              		.eabi_attribute 26, 1
  10              		.eabi_attribute 30, 4
  11              		.eabi_attribute 34, 1
  12              		.eabi_attribute 18, 4
  13              		.file	"chvt.c"
  14              		.text
  15              	.Ltext0:
  16              		.cfi_sections	.debug_frame
  17              		.section	.text._vt_init,"ax",%progbits
  18              		.align	1
  19              		.global	_vt_init
  20              		.syntax unified
  21              		.thumb
  22              		.thumb_func
  23              		.fpu fpv4-sp-d16
  24              		.type	_vt_init, %function
  25              	_vt_init:
  26              	.LFB301:
  27              		.file 1 "../../modules/ChibiOS/os/rt/src/chvt.c"
  28              		.loc 1 61 0
  29              		.cfi_startproc
  30              		@ args = 0, pretend = 0, frame = 0
  31              		@ frame_needed = 0, uses_anonymous_args = 0
  32              		@ link register save eliminated.
  33              		.loc 1 63 0
  34 0000 054B     		ldr	r3, .L2
  35 0002 03F11C02 		add	r2, r3, #28
  36 0006 DA61     		str	r2, [r3, #28]
  37              		.loc 1 64 0
  38 0008 1A62     		str	r2, [r3, #32]
  39              		.loc 1 65 0
  40 000a 4FF0FF32 		mov	r2, #-1
  41 000e 5A62     		str	r2, [r3, #36]
  42              		.loc 1 69 0
  43 0010 0022     		movs	r2, #0
  44 0012 9A62     		str	r2, [r3, #40]
  45 0014 7047     		bx	lr
  46              	.L3:
  47 0016 00BF     		.align	2
  48              	.L2:
  49 0018 00000000 		.word	ch
  50              		.cfi_endproc
  51              	.LFE301:
  52              		.size	_vt_init, .-_vt_init
  53              		.section	.text.chVTDoSetI,"ax",%progbits
  54              		.align	1
  55              		.global	chVTDoSetI
  56              		.syntax unified
  57              		.thumb
ARM GAS  /tmp/cc68Sr28.s 			page 2


  58              		.thumb_func
  59              		.fpu fpv4-sp-d16
  60              		.type	chVTDoSetI, %function
  61              	chVTDoSetI:
  62              	.LFB302:
  63              		.loc 1 96 0
  64              		.cfi_startproc
  65              		@ args = 0, pretend = 0, frame = 0
  66              		@ frame_needed = 0, uses_anonymous_args = 0
  67              	.LVL0:
  68 0000 F8B5     		push	{r3, r4, r5, r6, r7, lr}
  69              		.cfi_def_cfa_offset 24
  70              		.cfi_offset 3, -24
  71              		.cfi_offset 4, -20
  72              		.cfi_offset 5, -16
  73              		.cfi_offset 6, -12
  74              		.cfi_offset 7, -8
  75              		.cfi_offset 14, -4
  76              		.loc 1 103 0
  77 0002 0361     		str	r3, [r0, #16]
  78              	.LBB40:
  79              	.LBB41:
  80              	.LBB42:
  81              	.LBB43:
  82              	.LBB44:
  83              		.file 2 "../../modules/ChibiOS/os/hal/ports/STM32/LLD/TIMv1/hal_st_lld.h"
  84              		.loc 2 168 0
  85 0004 4FF08043 		mov	r3, #1073741824
  86              	.LVL1:
  87              	.LBE44:
  88              	.LBE43:
  89              	.LBE42:
  90              	.LBE41:
  91              	.LBE40:
  92              		.loc 1 104 0
  93 0008 C260     		str	r2, [r0, #12]
  94 000a 0229     		cmp	r1, #2
  95              	.LBB58:
  96              	.LBB48:
  97              	.LBB47:
  98              	.LBB46:
  99              	.LBB45:
 100              		.loc 2 168 0
 101 000c 5C6A     		ldr	r4, [r3, #36]
 102              	.LBE45:
 103              	.LBE46:
 104              	.LBE47:
 105              	.LBE48:
 106              	.LBE58:
 107              		.loc 1 96 0
 108 000e 0646     		mov	r6, r0
 109              	.LBB59:
 110              		.loc 1 117 0
 111 0010 184B     		ldr	r3, .L10
 112 0012 38BF     		it	cc
 113 0014 0221     		movcc	r1, #2
 114              	.LVL2:
ARM GAS  /tmp/cc68Sr28.s 			page 3


 115 0016 1A46     		mov	r2, r3
 116              	.LVL3:
 117 0018 1F46     		mov	r7, r3
 118 001a 52F81C5F 		ldr	r5, [r2, #28]!
 119 001e 9542     		cmp	r5, r2
 120 0020 0AD1     		bne	.L5
 121              		.loc 1 122 0
 122 0022 D861     		str	r0, [r3, #28]
 123              		.loc 1 123 0
 124 0024 1862     		str	r0, [r3, #32]
 125              		.loc 1 121 0
 126 0026 9C62     		str	r4, [r3, #40]
 127              		.loc 1 124 0
 128 0028 0560     		str	r5, [r0]
 129              		.loc 1 125 0
 130 002a 4560     		str	r5, [r0, #4]
 131              		.loc 1 126 0
 132 002c 8160     		str	r1, [r0, #8]
 133              	.LBB49:
 134              	.LBB50:
 135              		.file 3 "../../modules/ChibiOS/os/common/ports/ARMCMx/chcore_timer.h"
 136              		.loc 3 73 0
 137 002e 0819     		adds	r0, r1, r4
 138              	.LVL4:
 139              	.LBE50:
 140              	.LBE49:
 141              	.LBE59:
 142              		.loc 1 201 0
 143 0030 BDE8F840 		pop	{r3, r4, r5, r6, r7, lr}
 144              		.cfi_remember_state
 145              		.cfi_restore 14
 146              		.cfi_restore 7
 147              		.cfi_restore 6
 148              		.cfi_restore 5
 149              		.cfi_restore 4
 150              		.cfi_restore 3
 151              		.cfi_def_cfa_offset 0
 152              	.LVL5:
 153              	.LBB60:
 154              	.LBB52:
 155              	.LBB51:
 156              		.loc 3 73 0
 157 0034 FFF7FEBF 		b	stStartAlarm
 158              	.LVL6:
 159              	.L5:
 160              		.cfi_restore_state
 161              	.LBE51:
 162              	.LBE52:
 163              		.loc 1 146 0
 164 0038 986A     		ldr	r0, [r3, #40]
 165              	.LVL7:
 166 003a AB68     		ldr	r3, [r5, #8]
 167              	.LBB53:
 168              	.LBB54:
 169              		.file 4 "../../modules/ChibiOS/os/rt/include/chtime.h"
 170              		.loc 4 514 0
 171 003c 241A     		subs	r4, r4, r0
ARM GAS  /tmp/cc68Sr28.s 			page 4


 172              	.LVL8:
 173              	.LBE54:
 174              	.LBE53:
 175              		.loc 1 148 0
 176 003e 0C19     		adds	r4, r1, r4
 177              	.LVL9:
 178 0040 02D3     		bcc	.L6
 179              	.LVL10:
 180              	.L9:
 181              	.LBE60:
 182              		.loc 1 184 0
 183 0042 E41A     		subs	r4, r4, r3
 184              	.LVL11:
 185              		.loc 1 185 0
 186 0044 2D68     		ldr	r5, [r5]
 187              	.LVL12:
 188 0046 04E0     		b	.L8
 189              	.LVL13:
 190              	.L6:
 191              	.LBB61:
 192              		.loc 1 155 0
 193 0048 9C42     		cmp	r4, r3
 194 004a 02D2     		bcs	.L8
 195              	.LVL14:
 196              	.LBB55:
 197              	.LBB56:
 198              	.LBB57:
 199              		.loc 3 95 0
 200 004c 2044     		add	r0, r0, r4
 201 004e FFF7FEFF 		bl	stSetAlarm
 202              	.LVL15:
 203              	.L8:
 204              	.LBE57:
 205              	.LBE56:
 206              	.LBE55:
 207              	.LBE61:
 208              		.loc 1 180 0
 209 0052 AB68     		ldr	r3, [r5, #8]
 210 0054 9C42     		cmp	r4, r3
 211 0056 F4D8     		bhi	.L9
 212              		.loc 1 190 0
 213 0058 6B68     		ldr	r3, [r5, #4]
 214              		.loc 1 189 0
 215 005a 3560     		str	r5, [r6]
 216              		.loc 1 190 0
 217 005c 7360     		str	r3, [r6, #4]
 218              		.loc 1 191 0
 219 005e 1E60     		str	r6, [r3]
 220              		.loc 1 200 0
 221 0060 4FF0FF33 		mov	r3, #-1
 222              		.loc 1 192 0
 223 0064 6E60     		str	r6, [r5, #4]
 224              		.loc 1 193 0
 225 0066 B460     		str	r4, [r6, #8]
 226              		.loc 1 196 0
 227 0068 A968     		ldr	r1, [r5, #8]
 228 006a 091B     		subs	r1, r1, r4
ARM GAS  /tmp/cc68Sr28.s 			page 5


 229 006c A960     		str	r1, [r5, #8]
 230              		.loc 1 200 0
 231 006e 7B62     		str	r3, [r7, #36]
 232 0070 F8BD     		pop	{r3, r4, r5, r6, r7, pc}
 233              	.LVL16:
 234              	.L11:
 235 0072 00BF     		.align	2
 236              	.L10:
 237 0074 00000000 		.word	ch
 238              		.cfi_endproc
 239              	.LFE302:
 240              		.size	chVTDoSetI, .-chVTDoSetI
 241              		.section	.text.chVTDoResetI,"ax",%progbits
 242              		.align	1
 243              		.global	chVTDoResetI
 244              		.syntax unified
 245              		.thumb
 246              		.thumb_func
 247              		.fpu fpv4-sp-d16
 248              		.type	chVTDoResetI, %function
 249              	chVTDoResetI:
 250              	.LFB303:
 251              		.loc 1 211 0
 252              		.cfi_startproc
 253              		@ args = 0, pretend = 0, frame = 0
 254              		@ frame_needed = 0, uses_anonymous_args = 0
 255              		@ link register save eliminated.
 256              	.LVL17:
 257 0000 10B4     		push	{r4}
 258              		.cfi_def_cfa_offset 4
 259              		.cfi_offset 4, -4
 260              		.loc 1 235 0
 261 0002 1B4C     		ldr	r4, .L19
 262 0004 2346     		mov	r3, r4
 263 0006 53F81C1F 		ldr	r1, [r3, #28]!
 264 000a 8142     		cmp	r1, r0
 265 000c 10D0     		beq	.L13
 266              		.loc 1 237 0
 267 000e 4168     		ldr	r1, [r0, #4]
 268 0010 0268     		ldr	r2, [r0]
 269 0012 0A60     		str	r2, [r1]
 270              		.loc 1 238 0
 271 0014 0268     		ldr	r2, [r0]
 272 0016 5160     		str	r1, [r2, #4]
 273              		.loc 1 242 0
 274 0018 9A42     		cmp	r2, r3
 275              		.loc 1 239 0
 276 001a 4FF00001 		mov	r1, #0
 277 001e C160     		str	r1, [r0, #12]
 278              		.loc 1 242 0
 279 0020 03D0     		beq	.L12
 280              		.loc 1 243 0
 281 0022 9368     		ldr	r3, [r2, #8]
 282 0024 8168     		ldr	r1, [r0, #8]
 283 0026 0B44     		add	r3, r3, r1
 284 0028 9360     		str	r3, [r2, #8]
 285              	.LVL18:
ARM GAS  /tmp/cc68Sr28.s 			page 6


 286              	.L12:
 287              		.loc 1 297 0
 288 002a 5DF8044B 		ldr	r4, [sp], #4
 289              		.cfi_remember_state
 290              		.cfi_restore 4
 291              		.cfi_def_cfa_offset 0
 292 002e 7047     		bx	lr
 293              	.LVL19:
 294              	.L13:
 295              		.cfi_restore_state
 296              		.loc 1 249 0
 297 0030 0A68     		ldr	r2, [r1]
 298              		.loc 1 251 0
 299 0032 0020     		movs	r0, #0
 300              	.LVL20:
 301              		.loc 1 254 0
 302 0034 9A42     		cmp	r2, r3
 303              		.loc 1 249 0
 304 0036 E261     		str	r2, [r4, #28]
 305              		.loc 1 250 0
 306 0038 5360     		str	r3, [r2, #4]
 307              		.loc 1 251 0
 308 003a C860     		str	r0, [r1, #12]
 309              		.loc 1 254 0
 310 003c 03D1     		bne	.L16
 311              		.loc 1 297 0
 312 003e 5DF8044B 		ldr	r4, [sp], #4
 313              		.cfi_remember_state
 314              		.cfi_restore 4
 315              		.cfi_def_cfa_offset 0
 316              	.LBB62:
 317              	.LBB63:
 318              		.loc 3 83 0
 319 0042 FFF7FEBF 		b	stStopAlarm
 320              	.LVL21:
 321              	.L16:
 322              		.cfi_restore_state
 323              	.LBE63:
 324              	.LBE62:
 325              		.loc 1 261 0
 326 0046 9368     		ldr	r3, [r2, #8]
 327 0048 8868     		ldr	r0, [r1, #8]
 328 004a 0344     		add	r3, r3, r0
 329              		.loc 1 270 0
 330 004c A06A     		ldr	r0, [r4, #40]
 331              		.loc 1 261 0
 332 004e 9360     		str	r3, [r2, #8]
 333              	.LBB64:
 334              	.LBB65:
 335              	.LBB66:
 336              	.LBB67:
 337              		.loc 2 168 0
 338 0050 4FF08042 		mov	r2, #1073741824
 339 0054 526A     		ldr	r2, [r2, #36]
 340              	.LVL22:
 341              	.LBE67:
 342              	.LBE66:
ARM GAS  /tmp/cc68Sr28.s 			page 7


 343              	.LBE65:
 344              	.LBE64:
 345              	.LBB68:
 346              	.LBB69:
 347              		.loc 4 514 0
 348 0056 121A     		subs	r2, r2, r0
 349              	.LVL23:
 350              	.LBE69:
 351              	.LBE68:
 352              		.loc 1 274 0
 353 0058 9342     		cmp	r3, r2
 354 005a E6D9     		bls	.L12
 355              	.LVL24:
 356              		.loc 1 279 0
 357 005c 991A     		subs	r1, r3, r2
 358              	.LVL25:
 359              		.loc 1 297 0
 360 005e 5DF8044B 		ldr	r4, [sp], #4
 361              		.cfi_restore 4
 362              		.cfi_def_cfa_offset 0
 363              		.loc 1 283 0
 364 0062 0129     		cmp	r1, #1
 365              		.loc 1 284 0
 366 0064 98BF     		it	ls
 367 0066 931C     		addls	r3, r2, #2
 368              	.LVL26:
 369              	.LBB70:
 370              	.LBB71:
 371              		.loc 3 95 0
 372 0068 1844     		add	r0, r0, r3
 373 006a FFF7FEBF 		b	stSetAlarm
 374              	.LVL27:
 375              	.L20:
 376 006e 00BF     		.align	2
 377              	.L19:
 378 0070 00000000 		.word	ch
 379              	.LBE71:
 380              	.LBE70:
 381              		.cfi_endproc
 382              	.LFE303:
 383              		.size	chVTDoResetI, .-chVTDoResetI
 384              		.text
 385              	.Letext0:
 386              		.file 5 "/opt/gcc-arm-none-eabi-6-2017-q2-update/lib/gcc/arm-none-eabi/6.3.1/include/stddef.h"
 387              		.file 6 "/opt/gcc-arm-none-eabi-6-2017-q2-update/arm-none-eabi/include/machine/_default_types.h"
 388              		.file 7 "/opt/gcc-arm-none-eabi-6-2017-q2-update/arm-none-eabi/include/sys/_stdint.h"
 389              		.file 8 "../../modules/ChibiOS/os/common/ports/ARMCMx/compilers/GCC/chtypes.h"
 390              		.file 9 "../../modules/ChibiOS/os/rt/include/chsystypes.h"
 391              		.file 10 "../../modules/ChibiOS/os/rt/include/chschd.h"
 392              		.file 11 "../../modules/ChibiOS/os/common/ext/ARM/CMSIS/Core/Include/core_cm7.h"
 393              		.file 12 "../../modules/ChibiOS/os/common/ext/ST/STM32F7xx/system_stm32f7xx.h"
 394              		.file 13 "../../modules/ChibiOS/os/common/ports/ARMCMx/chcore.h"
 395              		.file 14 "../../modules/ChibiOS/os/common/ports/ARMCMx/chcore_v7m.h"
 396              		.file 15 "../../modules/ChibiOS/os/hal/ports/STM32/LLD/TIMv1/stm32_tim.h"
 397              		.file 16 "../../modules/ChibiOS/os/rt/include/chtm.h"
 398              		.file 17 "../../modules/ChibiOS/os/rt/include/chstats.h"
 399              		.file 18 "../../modules/ChibiOS/os/rt/include/chsem.h"
ARM GAS  /tmp/cc68Sr28.s 			page 8


 400              		.file 19 "../../modules/ChibiOS/os/rt/include/chmtx.h"
 401              		.file 20 "../../modules/ChibiOS/os/rt/include/chsys.h"
 402              		.file 21 "../../modules/ChibiOS/os/rt/include/chregistry.h"
 403              		.file 22 "../../modules/ChibiOS/os/oslib/include/chmemcore.h"
 404              		.file 23 "../../modules/ChibiOS/os/oslib/include/chmempools.h"
 405              		.file 24 "../../modules/ChibiOS/os/oslib/include/chfactory.h"
 406              		.file 25 "../../modules/ChibiOS/os/rt/include/chvt.h"
 407              		.file 26 "../../modules/ChibiOS/os/hal/include/hal_st.h"
 408              		.section	.debug_info,"",%progbits
 409              	.Ldebug_info0:
 410 0000 8F0F0000 		.4byte	0xf8f
 411 0004 0400     		.2byte	0x4
 412 0006 00000000 		.4byte	.Ldebug_abbrev0
 413 000a 04       		.byte	0x4
 414 000b 01       		.uleb128 0x1
 415 000c 04050000 		.4byte	.LASF189
 416 0010 0C       		.byte	0xc
 417 0011 4E040000 		.4byte	.LASF190
 418 0015 74010000 		.4byte	.LASF191
 419 0019 60000000 		.4byte	.Ldebug_ranges0+0x60
 420 001d 00000000 		.4byte	0
 421 0021 00000000 		.4byte	.Ldebug_line0
 422 0025 02       		.uleb128 0x2
 423 0026 04       		.byte	0x4
 424 0027 05       		.byte	0x5
 425 0028 696E7400 		.ascii	"int\000"
 426 002c 03       		.uleb128 0x3
 427 002d 12000000 		.4byte	.LASF4
 428 0031 05       		.byte	0x5
 429 0032 D8       		.byte	0xd8
 430 0033 37000000 		.4byte	0x37
 431 0037 04       		.uleb128 0x4
 432 0038 04       		.byte	0x4
 433 0039 07       		.byte	0x7
 434 003a C0010000 		.4byte	.LASF0
 435 003e 04       		.uleb128 0x4
 436 003f 08       		.byte	0x8
 437 0040 05       		.byte	0x5
 438 0041 4C020000 		.4byte	.LASF1
 439 0045 04       		.uleb128 0x4
 440 0046 08       		.byte	0x8
 441 0047 04       		.byte	0x4
 442 0048 0E040000 		.4byte	.LASF2
 443 004c 04       		.uleb128 0x4
 444 004d 01       		.byte	0x1
 445 004e 06       		.byte	0x6
 446 004f 55010000 		.4byte	.LASF3
 447 0053 03       		.uleb128 0x3
 448 0054 58000000 		.4byte	.LASF5
 449 0058 06       		.byte	0x6
 450 0059 2B       		.byte	0x2b
 451 005a 5E000000 		.4byte	0x5e
 452 005e 04       		.uleb128 0x4
 453 005f 01       		.byte	0x1
 454 0060 08       		.byte	0x8
 455 0061 3A060000 		.4byte	.LASF6
 456 0065 04       		.uleb128 0x4
ARM GAS  /tmp/cc68Sr28.s 			page 9


 457 0066 02       		.byte	0x2
 458 0067 05       		.byte	0x5
 459 0068 61060000 		.4byte	.LASF7
 460 006c 03       		.uleb128 0x3
 461 006d 49070000 		.4byte	.LASF8
 462 0071 06       		.byte	0x6
 463 0072 39       		.byte	0x39
 464 0073 77000000 		.4byte	0x77
 465 0077 04       		.uleb128 0x4
 466 0078 02       		.byte	0x2
 467 0079 07       		.byte	0x7
 468 007a C4070000 		.4byte	.LASF9
 469 007e 03       		.uleb128 0x3
 470 007f AB030000 		.4byte	.LASF10
 471 0083 06       		.byte	0x6
 472 0084 4D       		.byte	0x4d
 473 0085 89000000 		.4byte	0x89
 474 0089 04       		.uleb128 0x4
 475 008a 04       		.byte	0x4
 476 008b 05       		.byte	0x5
 477 008c A6010000 		.4byte	.LASF11
 478 0090 03       		.uleb128 0x3
 479 0091 04020000 		.4byte	.LASF12
 480 0095 06       		.byte	0x6
 481 0096 4F       		.byte	0x4f
 482 0097 9B000000 		.4byte	0x9b
 483 009b 04       		.uleb128 0x4
 484 009c 04       		.byte	0x4
 485 009d 07       		.byte	0x7
 486 009e 1F070000 		.4byte	.LASF13
 487 00a2 03       		.uleb128 0x3
 488 00a3 9B040000 		.4byte	.LASF14
 489 00a7 06       		.byte	0x6
 490 00a8 69       		.byte	0x69
 491 00a9 AD000000 		.4byte	0xad
 492 00ad 04       		.uleb128 0x4
 493 00ae 08       		.byte	0x8
 494 00af 07       		.byte	0x7
 495 00b0 CA000000 		.4byte	.LASF15
 496 00b4 03       		.uleb128 0x3
 497 00b5 85060000 		.4byte	.LASF16
 498 00b9 07       		.byte	0x7
 499 00ba 18       		.byte	0x18
 500 00bb 53000000 		.4byte	0x53
 501 00bf 05       		.uleb128 0x5
 502 00c0 B4000000 		.4byte	0xb4
 503 00c4 03       		.uleb128 0x3
 504 00c5 9F020000 		.4byte	.LASF17
 505 00c9 07       		.byte	0x7
 506 00ca 24       		.byte	0x24
 507 00cb 6C000000 		.4byte	0x6c
 508 00cf 03       		.uleb128 0x3
 509 00d0 32060000 		.4byte	.LASF18
 510 00d4 07       		.byte	0x7
 511 00d5 2C       		.byte	0x2c
 512 00d6 7E000000 		.4byte	0x7e
 513 00da 06       		.uleb128 0x6
ARM GAS  /tmp/cc68Sr28.s 			page 10


 514 00db CF000000 		.4byte	0xcf
 515 00df 03       		.uleb128 0x3
 516 00e0 F9060000 		.4byte	.LASF19
 517 00e4 07       		.byte	0x7
 518 00e5 30       		.byte	0x30
 519 00e6 90000000 		.4byte	0x90
 520 00ea 06       		.uleb128 0x6
 521 00eb DF000000 		.4byte	0xdf
 522 00ef 03       		.uleb128 0x3
 523 00f0 2B000000 		.4byte	.LASF20
 524 00f4 07       		.byte	0x7
 525 00f5 3C       		.byte	0x3c
 526 00f6 A2000000 		.4byte	0xa2
 527 00fa 03       		.uleb128 0x3
 528 00fb EB070000 		.4byte	.LASF21
 529 00ff 08       		.byte	0x8
 530 0100 27       		.byte	0x27
 531 0101 DF000000 		.4byte	0xdf
 532 0105 03       		.uleb128 0x3
 533 0106 37010000 		.4byte	.LASF22
 534 010a 08       		.byte	0x8
 535 010b 28       		.byte	0x28
 536 010c EF000000 		.4byte	0xef
 537 0110 03       		.uleb128 0x3
 538 0111 AF010000 		.4byte	.LASF23
 539 0115 08       		.byte	0x8
 540 0116 2A       		.byte	0x2a
 541 0117 B4000000 		.4byte	0xb4
 542 011b 03       		.uleb128 0x3
 543 011c B7010000 		.4byte	.LASF24
 544 0120 08       		.byte	0x8
 545 0121 2B       		.byte	0x2b
 546 0122 B4000000 		.4byte	0xb4
 547 0126 03       		.uleb128 0x3
 548 0127 BB040000 		.4byte	.LASF25
 549 012b 08       		.byte	0x8
 550 012c 2C       		.byte	0x2c
 551 012d B4000000 		.4byte	0xb4
 552 0131 03       		.uleb128 0x3
 553 0132 FC040000 		.4byte	.LASF26
 554 0136 08       		.byte	0x8
 555 0137 2E       		.byte	0x2e
 556 0138 DF000000 		.4byte	0xdf
 557 013c 03       		.uleb128 0x3
 558 013d 62000000 		.4byte	.LASF27
 559 0141 08       		.byte	0x8
 560 0142 2F       		.byte	0x2f
 561 0143 CF000000 		.4byte	0xcf
 562 0147 03       		.uleb128 0x3
 563 0148 4C000000 		.4byte	.LASF28
 564 014c 08       		.byte	0x8
 565 014d 31       		.byte	0x31
 566 014e DF000000 		.4byte	0xdf
 567 0152 03       		.uleb128 0x3
 568 0153 6E020000 		.4byte	.LASF29
 569 0157 08       		.byte	0x8
 570 0158 33       		.byte	0x33
ARM GAS  /tmp/cc68Sr28.s 			page 11


 571 0159 CF000000 		.4byte	0xcf
 572 015d 03       		.uleb128 0x3
 573 015e 3D030000 		.4byte	.LASF30
 574 0162 08       		.byte	0x8
 575 0163 34       		.byte	0x34
 576 0164 DF000000 		.4byte	0xdf
 577 0168 03       		.uleb128 0x3
 578 0169 62070000 		.4byte	.LASF31
 579 016d 09       		.byte	0x9
 580 016e 34       		.byte	0x34
 581 016f 73010000 		.4byte	0x173
 582 0173 07       		.uleb128 0x7
 583 0174 17030000 		.4byte	.LASF50
 584 0178 60       		.byte	0x60
 585 0179 0A       		.byte	0xa
 586 017a 8E       		.byte	0x8e
 587 017b 5E020000 		.4byte	0x25e
 588 017f 08       		.uleb128 0x8
 589 0180 ED020000 		.4byte	.LASF32
 590 0184 0A       		.byte	0xa
 591 0185 8F       		.byte	0x8f
 592 0186 93020000 		.4byte	0x293
 593 018a 00       		.byte	0
 594 018b 08       		.uleb128 0x8
 595 018c 7A040000 		.4byte	.LASF33
 596 0190 0A       		.byte	0xa
 597 0191 90       		.byte	0x90
 598 0192 31010000 		.4byte	0x131
 599 0196 08       		.byte	0x8
 600 0197 09       		.uleb128 0x9
 601 0198 63747800 		.ascii	"ctx\000"
 602 019c 0A       		.byte	0xa
 603 019d 91       		.byte	0x91
 604 019e 2F050000 		.4byte	0x52f
 605 01a2 0C       		.byte	0xc
 606 01a3 08       		.uleb128 0x8
 607 01a4 C0030000 		.4byte	.LASF34
 608 01a8 0A       		.byte	0xa
 609 01a9 93       		.byte	0x93
 610 01aa 69020000 		.4byte	0x269
 611 01ae 10       		.byte	0x10
 612 01af 08       		.uleb128 0x8
 613 01b0 DF010000 		.4byte	.LASF35
 614 01b4 0A       		.byte	0xa
 615 01b5 94       		.byte	0x94
 616 01b6 69020000 		.4byte	0x269
 617 01ba 14       		.byte	0x14
 618 01bb 08       		.uleb128 0x8
 619 01bc 12030000 		.4byte	.LASF36
 620 01c0 0A       		.byte	0xa
 621 01c1 9B       		.byte	0x9b
 622 01c2 39090000 		.4byte	0x939
 623 01c6 18       		.byte	0x18
 624 01c7 08       		.uleb128 0x8
 625 01c8 31070000 		.4byte	.LASF37
 626 01cc 0A       		.byte	0xa
 627 01cd A4       		.byte	0xa4
ARM GAS  /tmp/cc68Sr28.s 			page 12


 628 01ce 50090000 		.4byte	0x950
 629 01d2 1C       		.byte	0x1c
 630 01d3 08       		.uleb128 0x8
 631 01d4 A0010000 		.4byte	.LASF38
 632 01d8 0A       		.byte	0xa
 633 01d9 A9       		.byte	0xa9
 634 01da 1B010000 		.4byte	0x11b
 635 01de 20       		.byte	0x20
 636 01df 08       		.uleb128 0x8
 637 01e0 6A080000 		.4byte	.LASF39
 638 01e4 0A       		.byte	0xa
 639 01e5 AD       		.byte	0xad
 640 01e6 10010000 		.4byte	0x110
 641 01ea 21       		.byte	0x21
 642 01eb 08       		.uleb128 0x8
 643 01ec D8040000 		.4byte	.LASF40
 644 01f0 0A       		.byte	0xa
 645 01f1 B2       		.byte	0xb2
 646 01f2 26010000 		.4byte	0x126
 647 01f6 22       		.byte	0x22
 648 01f7 0A       		.uleb128 0xa
 649 01f8 7500     		.ascii	"u\000"
 650 01fa 0A       		.byte	0xa
 651 01fb 0301     		.2byte	0x103
 652 01fd 63080000 		.4byte	0x863
 653 0201 24       		.byte	0x24
 654 0202 0B       		.uleb128 0xb
 655 0203 31020000 		.4byte	.LASF41
 656 0207 0A       		.byte	0xa
 657 0208 0801     		.2byte	0x108
 658 020a 6F020000 		.4byte	0x26f
 659 020e 28       		.byte	0x28
 660 020f 0B       		.uleb128 0xb
 661 0210 97010000 		.4byte	.LASF42
 662 0214 0A       		.byte	0xa
 663 0215 0E01     		.2byte	0x10e
 664 0217 93020000 		.4byte	0x293
 665 021b 2C       		.byte	0x2c
 666 021c 0B       		.uleb128 0xb
 667 021d 44030000 		.4byte	.LASF43
 668 0221 0A       		.byte	0xa
 669 0222 1401     		.2byte	0x114
 670 0224 47010000 		.4byte	0x147
 671 0228 34       		.byte	0x34
 672 0229 0B       		.uleb128 0xb
 673 022a EF080000 		.4byte	.LASF44
 674 022e 0A       		.byte	0xa
 675 022f 1B01     		.2byte	0x11b
 676 0231 33090000 		.4byte	0x933
 677 0235 38       		.byte	0x38
 678 0236 0B       		.uleb128 0xb
 679 0237 CF030000 		.4byte	.LASF45
 680 023b 0A       		.byte	0xa
 681 023c 1F01     		.2byte	0x11f
 682 023e 31010000 		.4byte	0x131
 683 0242 3C       		.byte	0x3c
 684 0243 0B       		.uleb128 0xb
ARM GAS  /tmp/cc68Sr28.s 			page 13


 685 0244 F3020000 		.4byte	.LASF46
 686 0248 0A       		.byte	0xa
 687 0249 2601     		.2byte	0x126
 688 024b 46030000 		.4byte	0x346
 689 024f 40       		.byte	0x40
 690 0250 0B       		.uleb128 0xb
 691 0251 CD010000 		.4byte	.LASF47
 692 0255 0A       		.byte	0xa
 693 0256 2C01     		.2byte	0x12c
 694 0258 14080000 		.4byte	0x814
 695 025c 48       		.byte	0x48
 696 025d 00       		.byte	0
 697 025e 03       		.uleb128 0x3
 698 025f 86080000 		.4byte	.LASF48
 699 0263 09       		.byte	0x9
 700 0264 39       		.byte	0x39
 701 0265 69020000 		.4byte	0x269
 702 0269 0C       		.uleb128 0xc
 703 026a 04       		.byte	0x4
 704 026b 68010000 		.4byte	0x168
 705 026f 03       		.uleb128 0x3
 706 0270 BA080000 		.4byte	.LASF49
 707 0274 09       		.byte	0x9
 708 0275 3E       		.byte	0x3e
 709 0276 7A020000 		.4byte	0x27a
 710 027a 07       		.uleb128 0x7
 711 027b 09070000 		.4byte	.LASF51
 712 027f 04       		.byte	0x4
 713 0280 0A       		.byte	0xa
 714 0281 7C       		.byte	0x7c
 715 0282 93020000 		.4byte	0x293
 716 0286 08       		.uleb128 0x8
 717 0287 19000000 		.4byte	.LASF52
 718 028b 0A       		.byte	0xa
 719 028c 7D       		.byte	0x7d
 720 028d 69020000 		.4byte	0x269
 721 0291 00       		.byte	0
 722 0292 00       		.byte	0
 723 0293 03       		.uleb128 0x3
 724 0294 2E080000 		.4byte	.LASF53
 725 0298 09       		.byte	0x9
 726 0299 45       		.byte	0x45
 727 029a 9E020000 		.4byte	0x29e
 728 029e 07       		.uleb128 0x7
 729 029f 79000000 		.4byte	.LASF54
 730 02a3 08       		.byte	0x8
 731 02a4 0A       		.byte	0xa
 732 02a5 83       		.byte	0x83
 733 02a6 C3020000 		.4byte	0x2c3
 734 02aa 08       		.uleb128 0x8
 735 02ab 19000000 		.4byte	.LASF52
 736 02af 0A       		.byte	0xa
 737 02b0 84       		.byte	0x84
 738 02b1 69020000 		.4byte	0x269
 739 02b5 00       		.byte	0
 740 02b6 08       		.uleb128 0x8
 741 02b7 68000000 		.4byte	.LASF55
ARM GAS  /tmp/cc68Sr28.s 			page 14


 742 02bb 0A       		.byte	0xa
 743 02bc 85       		.byte	0x85
 744 02bd 69020000 		.4byte	0x269
 745 02c1 04       		.byte	0x4
 746 02c2 00       		.byte	0
 747 02c3 03       		.uleb128 0x3
 748 02c4 00000000 		.4byte	.LASF56
 749 02c8 09       		.byte	0x9
 750 02c9 4C       		.byte	0x4c
 751 02ca CE020000 		.4byte	0x2ce
 752 02ce 0D       		.uleb128 0xd
 753 02cf 8B030000 		.4byte	.LASF57
 754 02d3 1C       		.byte	0x1c
 755 02d4 0A       		.byte	0xa
 756 02d5 5E01     		.2byte	0x15e
 757 02d7 2A030000 		.4byte	0x32a
 758 02db 0B       		.uleb128 0xb
 759 02dc ED020000 		.4byte	.LASF32
 760 02e0 0A       		.byte	0xa
 761 02e1 5F01     		.2byte	0x15f
 762 02e3 93020000 		.4byte	0x293
 763 02e7 00       		.byte	0
 764 02e8 0B       		.uleb128 0xb
 765 02e9 7A040000 		.4byte	.LASF33
 766 02ed 0A       		.byte	0xa
 767 02ee 6001     		.2byte	0x160
 768 02f0 31010000 		.4byte	0x131
 769 02f4 08       		.byte	0x8
 770 02f5 0A       		.uleb128 0xa
 771 02f6 63747800 		.ascii	"ctx\000"
 772 02fa 0A       		.byte	0xa
 773 02fb 6201     		.2byte	0x162
 774 02fd 2F050000 		.4byte	0x52f
 775 0301 0C       		.byte	0xc
 776 0302 0B       		.uleb128 0xb
 777 0303 C0030000 		.4byte	.LASF34
 778 0307 0A       		.byte	0xa
 779 0308 6501     		.2byte	0x165
 780 030a 69020000 		.4byte	0x269
 781 030e 10       		.byte	0x10
 782 030f 0B       		.uleb128 0xb
 783 0310 DF010000 		.4byte	.LASF35
 784 0314 0A       		.byte	0xa
 785 0315 6601     		.2byte	0x166
 786 0317 69020000 		.4byte	0x269
 787 031b 14       		.byte	0x14
 788 031c 0B       		.uleb128 0xb
 789 031d 88040000 		.4byte	.LASF58
 790 0321 0A       		.byte	0xa
 791 0322 6901     		.2byte	0x169
 792 0324 69020000 		.4byte	0x269
 793 0328 18       		.byte	0x18
 794 0329 00       		.byte	0
 795 032a 03       		.uleb128 0x3
 796 032b 85070000 		.4byte	.LASF59
 797 032f 09       		.byte	0x9
 798 0330 51       		.byte	0x51
ARM GAS  /tmp/cc68Sr28.s 			page 15


 799 0331 35030000 		.4byte	0x335
 800 0335 0C       		.uleb128 0xc
 801 0336 04       		.byte	0x4
 802 0337 3B030000 		.4byte	0x33b
 803 033b 0E       		.uleb128 0xe
 804 033c 46030000 		.4byte	0x346
 805 0340 0F       		.uleb128 0xf
 806 0341 46030000 		.4byte	0x346
 807 0345 00       		.byte	0
 808 0346 10       		.uleb128 0x10
 809 0347 04       		.byte	0x4
 810 0348 03       		.uleb128 0x3
 811 0349 DD040000 		.4byte	.LASF60
 812 034d 09       		.byte	0x9
 813 034e 56       		.byte	0x56
 814 034f 53030000 		.4byte	0x353
 815 0353 0D       		.uleb128 0xd
 816 0354 A8060000 		.4byte	.LASF61
 817 0358 14       		.byte	0x14
 818 0359 0A       		.byte	0xa
 819 035a 3901     		.2byte	0x139
 820 035c A2030000 		.4byte	0x3a2
 821 0360 0B       		.uleb128 0xb
 822 0361 19000000 		.4byte	.LASF52
 823 0365 0A       		.byte	0xa
 824 0366 3A01     		.2byte	0x13a
 825 0368 56090000 		.4byte	0x956
 826 036c 00       		.byte	0
 827 036d 0B       		.uleb128 0xb
 828 036e 68000000 		.4byte	.LASF55
 829 0372 0A       		.byte	0xa
 830 0373 3B01     		.2byte	0x13b
 831 0375 56090000 		.4byte	0x956
 832 0379 04       		.byte	0x4
 833 037a 0B       		.uleb128 0xb
 834 037b 1E000000 		.4byte	.LASF62
 835 037f 0A       		.byte	0xa
 836 0380 3C01     		.2byte	0x13c
 837 0382 86040000 		.4byte	0x486
 838 0386 08       		.byte	0x8
 839 0387 0B       		.uleb128 0xb
 840 0388 2D010000 		.4byte	.LASF63
 841 038c 0A       		.byte	0xa
 842 038d 3D01     		.2byte	0x13d
 843 038f 2A030000 		.4byte	0x32a
 844 0393 0C       		.byte	0xc
 845 0394 0A       		.uleb128 0xa
 846 0395 70617200 		.ascii	"par\000"
 847 0399 0A       		.byte	0xa
 848 039a 3F01     		.2byte	0x13f
 849 039c 46030000 		.4byte	0x346
 850 03a0 10       		.byte	0x10
 851 03a1 00       		.byte	0
 852 03a2 03       		.uleb128 0x3
 853 03a3 0A010000 		.4byte	.LASF64
 854 03a7 09       		.byte	0x9
 855 03a8 5B       		.byte	0x5b
ARM GAS  /tmp/cc68Sr28.s 			page 16


 856 03a9 AD030000 		.4byte	0x3ad
 857 03ad 0D       		.uleb128 0xd
 858 03ae F7030000 		.4byte	.LASF65
 859 03b2 10       		.byte	0x10
 860 03b3 0A       		.byte	0xa
 861 03b4 4901     		.2byte	0x149
 862 03b6 EF030000 		.4byte	0x3ef
 863 03ba 0B       		.uleb128 0xb
 864 03bb 19000000 		.4byte	.LASF52
 865 03bf 0A       		.byte	0xa
 866 03c0 4A01     		.2byte	0x14a
 867 03c2 56090000 		.4byte	0x956
 868 03c6 00       		.byte	0
 869 03c7 0B       		.uleb128 0xb
 870 03c8 68000000 		.4byte	.LASF55
 871 03cc 0A       		.byte	0xa
 872 03cd 4C01     		.2byte	0x14c
 873 03cf 56090000 		.4byte	0x956
 874 03d3 04       		.byte	0x4
 875 03d4 0B       		.uleb128 0xb
 876 03d5 1E000000 		.4byte	.LASF62
 877 03d9 0A       		.byte	0xa
 878 03da 4E01     		.2byte	0x14e
 879 03dc 86040000 		.4byte	0x486
 880 03e0 08       		.byte	0x8
 881 03e1 0B       		.uleb128 0xb
 882 03e2 6B060000 		.4byte	.LASF66
 883 03e6 0A       		.byte	0xa
 884 03e7 5601     		.2byte	0x156
 885 03e9 7B040000 		.4byte	0x47b
 886 03ed 0C       		.byte	0xc
 887 03ee 00       		.byte	0
 888 03ef 03       		.uleb128 0x3
 889 03f0 8A000000 		.4byte	.LASF67
 890 03f4 09       		.byte	0x9
 891 03f5 60       		.byte	0x60
 892 03f6 FA030000 		.4byte	0x3fa
 893 03fa 0D       		.uleb128 0xd
 894 03fb 21020000 		.4byte	.LASF68
 895 03ff 04       		.byte	0x4
 896 0400 0A       		.byte	0xa
 897 0401 7001     		.2byte	0x170
 898 0403 15040000 		.4byte	0x415
 899 0407 0B       		.uleb128 0xb
 900 0408 9C070000 		.4byte	.LASF69
 901 040c 0A       		.byte	0xa
 902 040d 7801     		.2byte	0x178
 903 040f 3F090000 		.4byte	0x93f
 904 0413 00       		.byte	0
 905 0414 00       		.byte	0
 906 0415 03       		.uleb128 0x3
 907 0416 58030000 		.4byte	.LASF70
 908 041a 09       		.byte	0x9
 909 041b 65       		.byte	0x65
 910 041c 20040000 		.4byte	0x420
 911 0420 0D       		.uleb128 0xd
 912 0421 7B060000 		.4byte	.LASF71
ARM GAS  /tmp/cc68Sr28.s 			page 17


 913 0425 D0       		.byte	0xd0
 914 0426 0A       		.byte	0xa
 915 0427 9001     		.2byte	0x190
 916 0429 7B040000 		.4byte	0x47b
 917 042d 0B       		.uleb128 0xb
 918 042e 61010000 		.4byte	.LASF72
 919 0432 0A       		.byte	0xa
 920 0433 9401     		.2byte	0x194
 921 0435 C3020000 		.4byte	0x2c3
 922 0439 00       		.byte	0
 923 043a 0B       		.uleb128 0xb
 924 043b 6D010000 		.4byte	.LASF73
 925 043f 0A       		.byte	0xa
 926 0440 9801     		.2byte	0x198
 927 0442 A2030000 		.4byte	0x3a2
 928 0446 1C       		.byte	0x1c
 929 0447 0A       		.uleb128 0xa
 930 0448 64626700 		.ascii	"dbg\000"
 931 044c 0A       		.byte	0xa
 932 044d 9C01     		.2byte	0x19c
 933 044f EF030000 		.4byte	0x3ef
 934 0453 2C       		.byte	0x2c
 935 0454 0B       		.uleb128 0xb
 936 0455 F7000000 		.4byte	.LASF74
 937 0459 0A       		.byte	0xa
 938 045a A001     		.2byte	0x1a0
 939 045c 68010000 		.4byte	0x168
 940 0460 30       		.byte	0x30
 941 0461 0A       		.uleb128 0xa
 942 0462 746D00   		.ascii	"tm\000"
 943 0465 0A       		.byte	0xa
 944 0466 A501     		.2byte	0x1a5
 945 0468 C6070000 		.4byte	0x7c6
 946 046c 90       		.byte	0x90
 947 046d 0B       		.uleb128 0xb
 948 046e 34000000 		.4byte	.LASF75
 949 0472 0A       		.byte	0xa
 950 0473 AB01     		.2byte	0x1ab
 951 0475 58080000 		.4byte	0x858
 952 0479 98       		.byte	0x98
 953 047a 00       		.byte	0
 954 047b 03       		.uleb128 0x3
 955 047c 7B070000 		.4byte	.LASF76
 956 0480 04       		.byte	0x4
 957 0481 6D       		.byte	0x6d
 958 0482 DF000000 		.4byte	0xdf
 959 0486 03       		.uleb128 0x3
 960 0487 60020000 		.4byte	.LASF77
 961 048b 04       		.byte	0x4
 962 048c 79       		.byte	0x79
 963 048d DF000000 		.4byte	0xdf
 964 0491 04       		.uleb128 0x4
 965 0492 04       		.byte	0x4
 966 0493 07       		.byte	0x7
 967 0494 E0030000 		.4byte	.LASF78
 968 0498 11       		.uleb128 0x11
 969 0499 20010000 		.4byte	.LASF79
ARM GAS  /tmp/cc68Sr28.s 			page 18


 970 049d 0B       		.byte	0xb
 971 049e 220A     		.2byte	0xa22
 972 04a0 DA000000 		.4byte	0xda
 973 04a4 12       		.uleb128 0x12
 974 04a5 A8020000 		.4byte	.LASF80
 975 04a9 0C       		.byte	0xc
 976 04aa 4C       		.byte	0x4c
 977 04ab DF000000 		.4byte	0xdf
 978 04af 13       		.uleb128 0x13
 979 04b0 BF000000 		.4byte	0xbf
 980 04b4 BF040000 		.4byte	0x4bf
 981 04b8 14       		.uleb128 0x14
 982 04b9 91040000 		.4byte	0x491
 983 04bd 0F       		.byte	0xf
 984 04be 00       		.byte	0
 985 04bf 05       		.uleb128 0x5
 986 04c0 AF040000 		.4byte	0x4af
 987 04c4 12       		.uleb128 0x12
 988 04c5 8E070000 		.4byte	.LASF81
 989 04c9 0C       		.byte	0xc
 990 04ca 4E       		.byte	0x4e
 991 04cb BF040000 		.4byte	0x4bf
 992 04cf 13       		.uleb128 0x13
 993 04d0 BF000000 		.4byte	0xbf
 994 04d4 DF040000 		.4byte	0x4df
 995 04d8 14       		.uleb128 0x14
 996 04d9 91040000 		.4byte	0x491
 997 04dd 07       		.byte	0x7
 998 04de 00       		.byte	0
 999 04df 05       		.uleb128 0x5
 1000 04e0 CF040000 		.4byte	0x4cf
 1001 04e4 12       		.uleb128 0x12
 1002 04e5 39020000 		.4byte	.LASF82
 1003 04e9 0C       		.byte	0xc
 1004 04ea 4F       		.byte	0x4f
 1005 04eb DF040000 		.4byte	0x4df
 1006 04ef 13       		.uleb128 0x13
 1007 04f0 EA000000 		.4byte	0xea
 1008 04f4 FF040000 		.4byte	0x4ff
 1009 04f8 14       		.uleb128 0x14
 1010 04f9 91040000 		.4byte	0x491
 1011 04fd 01       		.byte	0x1
 1012 04fe 00       		.byte	0
 1013 04ff 06       		.uleb128 0x6
 1014 0500 EF040000 		.4byte	0x4ef
 1015 0504 13       		.uleb128 0x13
 1016 0505 EA000000 		.4byte	0xea
 1017 0509 14050000 		.4byte	0x514
 1018 050d 14       		.uleb128 0x14
 1019 050e 91040000 		.4byte	0x491
 1020 0512 03       		.byte	0x3
 1021 0513 00       		.byte	0
 1022 0514 06       		.uleb128 0x6
 1023 0515 04050000 		.4byte	0x504
 1024 0519 03       		.uleb128 0x3
 1025 051a 0F020000 		.4byte	.LASF83
 1026 051e 0D       		.byte	0xd
ARM GAS  /tmp/cc68Sr28.s 			page 19


 1027 051f 65       		.byte	0x65
 1028 0520 46030000 		.4byte	0x346
 1029 0524 03       		.uleb128 0x3
 1030 0525 B5030000 		.4byte	.LASF84
 1031 0529 0D       		.byte	0xd
 1032 052a 6D       		.byte	0x6d
 1033 052b EF000000 		.4byte	0xef
 1034 052f 07       		.uleb128 0x7
 1035 0530 30040000 		.4byte	.LASF85
 1036 0534 04       		.byte	0x4
 1037 0535 0D       		.byte	0xd
 1038 0536 89       		.byte	0x89
 1039 0537 47050000 		.4byte	0x547
 1040 053b 09       		.uleb128 0x9
 1041 053c 737000   		.ascii	"sp\000"
 1042 053f 0D       		.byte	0xd
 1043 0540 8A       		.byte	0x8a
 1044 0541 93060000 		.4byte	0x693
 1045 0545 00       		.byte	0
 1046 0546 00       		.byte	0
 1047 0547 0D       		.uleb128 0xd
 1048 0548 6D000000 		.4byte	.LASF86
 1049 054c 64       		.byte	0x64
 1050 054d 0E       		.byte	0xe
 1051 054e 5901     		.2byte	0x159
 1052 0550 93060000 		.4byte	0x693
 1053 0554 0A       		.uleb128 0xa
 1054 0555 73313600 		.ascii	"s16\000"
 1055 0559 0E       		.byte	0xe
 1056 055a 5B01     		.2byte	0x15b
 1057 055c 19050000 		.4byte	0x519
 1058 0560 00       		.byte	0
 1059 0561 0A       		.uleb128 0xa
 1060 0562 73313700 		.ascii	"s17\000"
 1061 0566 0E       		.byte	0xe
 1062 0567 5C01     		.2byte	0x15c
 1063 0569 19050000 		.4byte	0x519
 1064 056d 04       		.byte	0x4
 1065 056e 0A       		.uleb128 0xa
 1066 056f 73313800 		.ascii	"s18\000"
 1067 0573 0E       		.byte	0xe
 1068 0574 5D01     		.2byte	0x15d
 1069 0576 19050000 		.4byte	0x519
 1070 057a 08       		.byte	0x8
 1071 057b 0A       		.uleb128 0xa
 1072 057c 73313900 		.ascii	"s19\000"
 1073 0580 0E       		.byte	0xe
 1074 0581 5E01     		.2byte	0x15e
 1075 0583 19050000 		.4byte	0x519
 1076 0587 0C       		.byte	0xc
 1077 0588 0A       		.uleb128 0xa
 1078 0589 73323000 		.ascii	"s20\000"
 1079 058d 0E       		.byte	0xe
 1080 058e 5F01     		.2byte	0x15f
 1081 0590 19050000 		.4byte	0x519
 1082 0594 10       		.byte	0x10
 1083 0595 0A       		.uleb128 0xa
ARM GAS  /tmp/cc68Sr28.s 			page 20


 1084 0596 73323100 		.ascii	"s21\000"
 1085 059a 0E       		.byte	0xe
 1086 059b 6001     		.2byte	0x160
 1087 059d 19050000 		.4byte	0x519
 1088 05a1 14       		.byte	0x14
 1089 05a2 0A       		.uleb128 0xa
 1090 05a3 73323200 		.ascii	"s22\000"
 1091 05a7 0E       		.byte	0xe
 1092 05a8 6101     		.2byte	0x161
 1093 05aa 19050000 		.4byte	0x519
 1094 05ae 18       		.byte	0x18
 1095 05af 0A       		.uleb128 0xa
 1096 05b0 73323300 		.ascii	"s23\000"
 1097 05b4 0E       		.byte	0xe
 1098 05b5 6201     		.2byte	0x162
 1099 05b7 19050000 		.4byte	0x519
 1100 05bb 1C       		.byte	0x1c
 1101 05bc 0A       		.uleb128 0xa
 1102 05bd 73323400 		.ascii	"s24\000"
 1103 05c1 0E       		.byte	0xe
 1104 05c2 6301     		.2byte	0x163
 1105 05c4 19050000 		.4byte	0x519
 1106 05c8 20       		.byte	0x20
 1107 05c9 0A       		.uleb128 0xa
 1108 05ca 73323500 		.ascii	"s25\000"
 1109 05ce 0E       		.byte	0xe
 1110 05cf 6401     		.2byte	0x164
 1111 05d1 19050000 		.4byte	0x519
 1112 05d5 24       		.byte	0x24
 1113 05d6 0A       		.uleb128 0xa
 1114 05d7 73323600 		.ascii	"s26\000"
 1115 05db 0E       		.byte	0xe
 1116 05dc 6501     		.2byte	0x165
 1117 05de 19050000 		.4byte	0x519
 1118 05e2 28       		.byte	0x28
 1119 05e3 0A       		.uleb128 0xa
 1120 05e4 73323700 		.ascii	"s27\000"
 1121 05e8 0E       		.byte	0xe
 1122 05e9 6601     		.2byte	0x166
 1123 05eb 19050000 		.4byte	0x519
 1124 05ef 2C       		.byte	0x2c
 1125 05f0 0A       		.uleb128 0xa
 1126 05f1 73323800 		.ascii	"s28\000"
 1127 05f5 0E       		.byte	0xe
 1128 05f6 6701     		.2byte	0x167
 1129 05f8 19050000 		.4byte	0x519
 1130 05fc 30       		.byte	0x30
 1131 05fd 0A       		.uleb128 0xa
 1132 05fe 73323900 		.ascii	"s29\000"
 1133 0602 0E       		.byte	0xe
 1134 0603 6801     		.2byte	0x168
 1135 0605 19050000 		.4byte	0x519
 1136 0609 34       		.byte	0x34
 1137 060a 0A       		.uleb128 0xa
 1138 060b 73333000 		.ascii	"s30\000"
 1139 060f 0E       		.byte	0xe
 1140 0610 6901     		.2byte	0x169
ARM GAS  /tmp/cc68Sr28.s 			page 21


 1141 0612 19050000 		.4byte	0x519
 1142 0616 38       		.byte	0x38
 1143 0617 0A       		.uleb128 0xa
 1144 0618 73333100 		.ascii	"s31\000"
 1145 061c 0E       		.byte	0xe
 1146 061d 6A01     		.2byte	0x16a
 1147 061f 19050000 		.4byte	0x519
 1148 0623 3C       		.byte	0x3c
 1149 0624 0A       		.uleb128 0xa
 1150 0625 723400   		.ascii	"r4\000"
 1151 0628 0E       		.byte	0xe
 1152 0629 6C01     		.2byte	0x16c
 1153 062b 19050000 		.4byte	0x519
 1154 062f 40       		.byte	0x40
 1155 0630 0A       		.uleb128 0xa
 1156 0631 723500   		.ascii	"r5\000"
 1157 0634 0E       		.byte	0xe
 1158 0635 6D01     		.2byte	0x16d
 1159 0637 19050000 		.4byte	0x519
 1160 063b 44       		.byte	0x44
 1161 063c 0A       		.uleb128 0xa
 1162 063d 723600   		.ascii	"r6\000"
 1163 0640 0E       		.byte	0xe
 1164 0641 6E01     		.2byte	0x16e
 1165 0643 19050000 		.4byte	0x519
 1166 0647 48       		.byte	0x48
 1167 0648 0A       		.uleb128 0xa
 1168 0649 723700   		.ascii	"r7\000"
 1169 064c 0E       		.byte	0xe
 1170 064d 6F01     		.2byte	0x16f
 1171 064f 19050000 		.4byte	0x519
 1172 0653 4C       		.byte	0x4c
 1173 0654 0A       		.uleb128 0xa
 1174 0655 723800   		.ascii	"r8\000"
 1175 0658 0E       		.byte	0xe
 1176 0659 7001     		.2byte	0x170
 1177 065b 19050000 		.4byte	0x519
 1178 065f 50       		.byte	0x50
 1179 0660 0A       		.uleb128 0xa
 1180 0661 723900   		.ascii	"r9\000"
 1181 0664 0E       		.byte	0xe
 1182 0665 7101     		.2byte	0x171
 1183 0667 19050000 		.4byte	0x519
 1184 066b 54       		.byte	0x54
 1185 066c 0A       		.uleb128 0xa
 1186 066d 72313000 		.ascii	"r10\000"
 1187 0671 0E       		.byte	0xe
 1188 0672 7201     		.2byte	0x172
 1189 0674 19050000 		.4byte	0x519
 1190 0678 58       		.byte	0x58
 1191 0679 0A       		.uleb128 0xa
 1192 067a 72313100 		.ascii	"r11\000"
 1193 067e 0E       		.byte	0xe
 1194 067f 7301     		.2byte	0x173
 1195 0681 19050000 		.4byte	0x519
 1196 0685 5C       		.byte	0x5c
 1197 0686 0A       		.uleb128 0xa
ARM GAS  /tmp/cc68Sr28.s 			page 22


 1198 0687 6C7200   		.ascii	"lr\000"
 1199 068a 0E       		.byte	0xe
 1200 068b 7401     		.2byte	0x174
 1201 068d 19050000 		.4byte	0x519
 1202 0691 60       		.byte	0x60
 1203 0692 00       		.byte	0
 1204 0693 0C       		.uleb128 0xc
 1205 0694 04       		.byte	0x4
 1206 0695 47050000 		.4byte	0x547
 1207 0699 15       		.uleb128 0x15
 1208 069a 60       		.byte	0x60
 1209 069b 0F       		.byte	0xf
 1210 069c F501     		.2byte	0x1f5
 1211 069e A5070000 		.4byte	0x7a5
 1212 06a2 0A       		.uleb128 0xa
 1213 06a3 43523100 		.ascii	"CR1\000"
 1214 06a7 0F       		.byte	0xf
 1215 06a8 F601     		.2byte	0x1f6
 1216 06aa EA000000 		.4byte	0xea
 1217 06ae 00       		.byte	0
 1218 06af 0A       		.uleb128 0xa
 1219 06b0 43523200 		.ascii	"CR2\000"
 1220 06b4 0F       		.byte	0xf
 1221 06b5 F701     		.2byte	0x1f7
 1222 06b7 EA000000 		.4byte	0xea
 1223 06bb 04       		.byte	0x4
 1224 06bc 0B       		.uleb128 0xb
 1225 06bd FE020000 		.4byte	.LASF87
 1226 06c1 0F       		.byte	0xf
 1227 06c2 F801     		.2byte	0x1f8
 1228 06c4 EA000000 		.4byte	0xea
 1229 06c8 08       		.byte	0x8
 1230 06c9 0B       		.uleb128 0xb
 1231 06ca 0D000000 		.4byte	.LASF88
 1232 06ce 0F       		.byte	0xf
 1233 06cf F901     		.2byte	0x1f9
 1234 06d1 EA000000 		.4byte	0xea
 1235 06d5 0C       		.byte	0xc
 1236 06d6 0A       		.uleb128 0xa
 1237 06d7 535200   		.ascii	"SR\000"
 1238 06da 0F       		.byte	0xf
 1239 06db FA01     		.2byte	0x1fa
 1240 06dd EA000000 		.4byte	0xea
 1241 06e1 10       		.byte	0x10
 1242 06e2 0A       		.uleb128 0xa
 1243 06e3 45475200 		.ascii	"EGR\000"
 1244 06e7 0F       		.byte	0xf
 1245 06e8 FB01     		.2byte	0x1fb
 1246 06ea EA000000 		.4byte	0xea
 1247 06ee 14       		.byte	0x14
 1248 06ef 0B       		.uleb128 0xb
 1249 06f0 40010000 		.4byte	.LASF89
 1250 06f4 0F       		.byte	0xf
 1251 06f5 FC01     		.2byte	0x1fc
 1252 06f7 EA000000 		.4byte	0xea
 1253 06fb 18       		.byte	0x18
 1254 06fc 0B       		.uleb128 0xb
ARM GAS  /tmp/cc68Sr28.s 			page 23


 1255 06fd 99000000 		.4byte	.LASF90
 1256 0701 0F       		.byte	0xf
 1257 0702 FD01     		.2byte	0x1fd
 1258 0704 EA000000 		.4byte	0xea
 1259 0708 1C       		.byte	0x1c
 1260 0709 0B       		.uleb128 0xb
 1261 070a 6B070000 		.4byte	.LASF91
 1262 070e 0F       		.byte	0xf
 1263 070f FE01     		.2byte	0x1fe
 1264 0711 EA000000 		.4byte	0xea
 1265 0715 20       		.byte	0x20
 1266 0716 0A       		.uleb128 0xa
 1267 0717 434E5400 		.ascii	"CNT\000"
 1268 071b 0F       		.byte	0xf
 1269 071c FF01     		.2byte	0x1ff
 1270 071e EA000000 		.4byte	0xea
 1271 0722 24       		.byte	0x24
 1272 0723 0A       		.uleb128 0xa
 1273 0724 50534300 		.ascii	"PSC\000"
 1274 0728 0F       		.byte	0xf
 1275 0729 0002     		.2byte	0x200
 1276 072b EA000000 		.4byte	0xea
 1277 072f 28       		.byte	0x28
 1278 0730 0A       		.uleb128 0xa
 1279 0731 41525200 		.ascii	"ARR\000"
 1280 0735 0F       		.byte	0xf
 1281 0736 0102     		.2byte	0x201
 1282 0738 EA000000 		.4byte	0xea
 1283 073c 2C       		.byte	0x2c
 1284 073d 0A       		.uleb128 0xa
 1285 073e 52435200 		.ascii	"RCR\000"
 1286 0742 0F       		.byte	0xf
 1287 0743 0202     		.2byte	0x202
 1288 0745 EA000000 		.4byte	0xea
 1289 0749 30       		.byte	0x30
 1290 074a 0A       		.uleb128 0xa
 1291 074b 43435200 		.ascii	"CCR\000"
 1292 074f 0F       		.byte	0xf
 1293 0750 0302     		.2byte	0x203
 1294 0752 14050000 		.4byte	0x514
 1295 0756 34       		.byte	0x34
 1296 0757 0B       		.uleb128 0xb
 1297 0758 32010000 		.4byte	.LASF92
 1298 075c 0F       		.byte	0xf
 1299 075d 0402     		.2byte	0x204
 1300 075f EA000000 		.4byte	0xea
 1301 0763 44       		.byte	0x44
 1302 0764 0A       		.uleb128 0xa
 1303 0765 44435200 		.ascii	"DCR\000"
 1304 0769 0F       		.byte	0xf
 1305 076a 0502     		.2byte	0x205
 1306 076c EA000000 		.4byte	0xea
 1307 0770 48       		.byte	0x48
 1308 0771 0B       		.uleb128 0xb
 1309 0772 5D070000 		.4byte	.LASF93
 1310 0776 0F       		.byte	0xf
 1311 0777 0602     		.2byte	0x206
ARM GAS  /tmp/cc68Sr28.s 			page 24


 1312 0779 EA000000 		.4byte	0xea
 1313 077d 4C       		.byte	0x4c
 1314 077e 0A       		.uleb128 0xa
 1315 077f 4F5200   		.ascii	"OR\000"
 1316 0782 0F       		.byte	0xf
 1317 0783 0702     		.2byte	0x207
 1318 0785 EA000000 		.4byte	0xea
 1319 0789 50       		.byte	0x50
 1320 078a 0B       		.uleb128 0xb
 1321 078b 4F010000 		.4byte	.LASF94
 1322 078f 0F       		.byte	0xf
 1323 0790 0802     		.2byte	0x208
 1324 0792 EA000000 		.4byte	0xea
 1325 0796 54       		.byte	0x54
 1326 0797 0B       		.uleb128 0xb
 1327 0798 C6060000 		.4byte	.LASF95
 1328 079c 0F       		.byte	0xf
 1329 079d 0902     		.2byte	0x209
 1330 079f FF040000 		.4byte	0x4ff
 1331 07a3 58       		.byte	0x58
 1332 07a4 00       		.byte	0
 1333 07a5 16       		.uleb128 0x16
 1334 07a6 6C030000 		.4byte	.LASF96
 1335 07aa 0F       		.byte	0xf
 1336 07ab 0A02     		.2byte	0x20a
 1337 07ad 99060000 		.4byte	0x699
 1338 07b1 17       		.uleb128 0x17
 1339 07b2 04       		.byte	0x4
 1340 07b3 10       		.byte	0x10
 1341 07b4 38       		.byte	0x38
 1342 07b5 C6070000 		.4byte	0x7c6
 1343 07b9 08       		.uleb128 0x8
 1344 07ba A6070000 		.4byte	.LASF97
 1345 07be 10       		.byte	0x10
 1346 07bf 3C       		.byte	0x3c
 1347 07c0 FA000000 		.4byte	0xfa
 1348 07c4 00       		.byte	0
 1349 07c5 00       		.byte	0
 1350 07c6 03       		.uleb128 0x3
 1351 07c7 3D040000 		.4byte	.LASF98
 1352 07cb 10       		.byte	0x10
 1353 07cc 3D       		.byte	0x3d
 1354 07cd B1070000 		.4byte	0x7b1
 1355 07d1 17       		.uleb128 0x17
 1356 07d2 18       		.byte	0x18
 1357 07d3 10       		.byte	0x10
 1358 07d4 48       		.byte	0x48
 1359 07d5 14080000 		.4byte	0x814
 1360 07d9 08       		.uleb128 0x8
 1361 07da F9020000 		.4byte	.LASF99
 1362 07de 10       		.byte	0x10
 1363 07df 49       		.byte	0x49
 1364 07e0 FA000000 		.4byte	0xfa
 1365 07e4 00       		.byte	0
 1366 07e5 08       		.uleb128 0x8
 1367 07e6 B1000000 		.4byte	.LASF100
 1368 07ea 10       		.byte	0x10
ARM GAS  /tmp/cc68Sr28.s 			page 25


 1369 07eb 4A       		.byte	0x4a
 1370 07ec FA000000 		.4byte	0xfa
 1371 07f0 04       		.byte	0x4
 1372 07f1 08       		.uleb128 0x8
 1373 07f2 38030000 		.4byte	.LASF101
 1374 07f6 10       		.byte	0x10
 1375 07f7 4B       		.byte	0x4b
 1376 07f8 FA000000 		.4byte	0xfa
 1377 07fc 08       		.byte	0x8
 1378 07fd 09       		.uleb128 0x9
 1379 07fe 6E00     		.ascii	"n\000"
 1380 0800 10       		.byte	0x10
 1381 0801 4C       		.byte	0x4c
 1382 0802 5D010000 		.4byte	0x15d
 1383 0806 0C       		.byte	0xc
 1384 0807 08       		.uleb128 0x8
 1385 0808 B0040000 		.4byte	.LASF102
 1386 080c 10       		.byte	0x10
 1387 080d 4D       		.byte	0x4d
 1388 080e 05010000 		.4byte	0x105
 1389 0812 10       		.byte	0x10
 1390 0813 00       		.byte	0
 1391 0814 03       		.uleb128 0x3
 1392 0815 B7000000 		.4byte	.LASF103
 1393 0819 10       		.byte	0x10
 1394 081a 4E       		.byte	0x4e
 1395 081b D1070000 		.4byte	0x7d1
 1396 081f 17       		.uleb128 0x17
 1397 0820 38       		.byte	0x38
 1398 0821 11       		.byte	0x11
 1399 0822 38       		.byte	0x38
 1400 0823 58080000 		.4byte	0x858
 1401 0827 08       		.uleb128 0x8
 1402 0828 E7020000 		.4byte	.LASF104
 1403 082c 11       		.byte	0x11
 1404 082d 39       		.byte	0x39
 1405 082e 5D010000 		.4byte	0x15d
 1406 0832 00       		.byte	0
 1407 0833 08       		.uleb128 0x8
 1408 0834 23060000 		.4byte	.LASF105
 1409 0838 11       		.byte	0x11
 1410 0839 3A       		.byte	0x3a
 1411 083a 5D010000 		.4byte	0x15d
 1412 083e 04       		.byte	0x4
 1413 083f 08       		.uleb128 0x8
 1414 0840 FF080000 		.4byte	.LASF106
 1415 0844 11       		.byte	0x11
 1416 0845 3B       		.byte	0x3b
 1417 0846 14080000 		.4byte	0x814
 1418 084a 08       		.byte	0x8
 1419 084b 08       		.uleb128 0x8
 1420 084c 80030000 		.4byte	.LASF107
 1421 0850 11       		.byte	0x11
 1422 0851 3D       		.byte	0x3d
 1423 0852 14080000 		.4byte	0x814
 1424 0856 20       		.byte	0x20
 1425 0857 00       		.byte	0
ARM GAS  /tmp/cc68Sr28.s 			page 26


 1426 0858 03       		.uleb128 0x3
 1427 0859 03030000 		.4byte	.LASF108
 1428 085d 11       		.byte	0x11
 1429 085e 3F       		.byte	0x3f
 1430 085f 1F080000 		.4byte	0x81f
 1431 0863 18       		.uleb128 0x18
 1432 0864 04       		.byte	0x4
 1433 0865 0A       		.byte	0xa
 1434 0866 C6       		.byte	0xc6
 1435 0867 C5080000 		.4byte	0x8c5
 1436 086b 19       		.uleb128 0x19
 1437 086c 24000000 		.4byte	.LASF109
 1438 0870 0A       		.byte	0xa
 1439 0871 CD       		.byte	0xcd
 1440 0872 3C010000 		.4byte	0x13c
 1441 0876 19       		.uleb128 0x19
 1442 0877 EE000000 		.4byte	.LASF110
 1443 087b 0A       		.byte	0xa
 1444 087c D4       		.byte	0xd4
 1445 087d 3C010000 		.4byte	0x13c
 1446 0881 19       		.uleb128 0x19
 1447 0882 AE080000 		.4byte	.LASF111
 1448 0886 0A       		.byte	0xa
 1449 0887 DB       		.byte	0xdb
 1450 0888 46030000 		.4byte	0x346
 1451 088c 19       		.uleb128 0x19
 1452 088d BF020000 		.4byte	.LASF112
 1453 0891 0A       		.byte	0xa
 1454 0892 E2       		.byte	0xe2
 1455 0893 C5080000 		.4byte	0x8c5
 1456 0897 19       		.uleb128 0x19
 1457 0898 02010000 		.4byte	.LASF113
 1458 089c 0A       		.byte	0xa
 1459 089d E7       		.byte	0xe7
 1460 089e 3C010000 		.4byte	0x13c
 1461 08a2 19       		.uleb128 0x19
 1462 08a3 B8020000 		.4byte	.LASF114
 1463 08a7 0A       		.byte	0xa
 1464 08a8 F0       		.byte	0xf0
 1465 08a9 F0080000 		.4byte	0x8f0
 1466 08ad 19       		.uleb128 0x19
 1467 08ae 02070000 		.4byte	.LASF115
 1468 08b2 0A       		.byte	0xa
 1469 08b3 F9       		.byte	0xf9
 1470 08b4 33090000 		.4byte	0x933
 1471 08b8 1A       		.uleb128 0x1a
 1472 08b9 74060000 		.4byte	.LASF116
 1473 08bd 0A       		.byte	0xa
 1474 08be 0101     		.2byte	0x101
 1475 08c0 47010000 		.4byte	0x147
 1476 08c4 00       		.byte	0
 1477 08c5 0C       		.uleb128 0xc
 1478 08c6 04       		.byte	0x4
 1479 08c7 5E020000 		.4byte	0x25e
 1480 08cb 07       		.uleb128 0x7
 1481 08cc B9060000 		.4byte	.LASF117
 1482 08d0 0C       		.byte	0xc
ARM GAS  /tmp/cc68Sr28.s 			page 27


 1483 08d1 12       		.byte	0x12
 1484 08d2 34       		.byte	0x34
 1485 08d3 F0080000 		.4byte	0x8f0
 1486 08d7 08       		.uleb128 0x8
 1487 08d8 ED020000 		.4byte	.LASF32
 1488 08dc 12       		.byte	0x12
 1489 08dd 35       		.byte	0x35
 1490 08de 93020000 		.4byte	0x293
 1491 08e2 00       		.byte	0
 1492 08e3 09       		.uleb128 0x9
 1493 08e4 636E7400 		.ascii	"cnt\000"
 1494 08e8 12       		.byte	0x12
 1495 08e9 37       		.byte	0x37
 1496 08ea 52010000 		.4byte	0x152
 1497 08ee 08       		.byte	0x8
 1498 08ef 00       		.byte	0
 1499 08f0 0C       		.uleb128 0xc
 1500 08f1 04       		.byte	0x4
 1501 08f2 CB080000 		.4byte	0x8cb
 1502 08f6 07       		.uleb128 0x7
 1503 08f7 9F060000 		.4byte	.LASF118
 1504 08fb 14       		.byte	0x14
 1505 08fc 13       		.byte	0x13
 1506 08fd 39       		.byte	0x39
 1507 08fe 33090000 		.4byte	0x933
 1508 0902 08       		.uleb128 0x8
 1509 0903 ED020000 		.4byte	.LASF32
 1510 0907 13       		.byte	0x13
 1511 0908 3A       		.byte	0x3a
 1512 0909 93020000 		.4byte	0x293
 1513 090d 00       		.byte	0
 1514 090e 08       		.uleb128 0x8
 1515 090f 19070000 		.4byte	.LASF119
 1516 0913 13       		.byte	0x13
 1517 0914 3C       		.byte	0x3c
 1518 0915 69020000 		.4byte	0x269
 1519 0919 08       		.byte	0x8
 1520 091a 08       		.uleb128 0x8
 1521 091b 19000000 		.4byte	.LASF52
 1522 091f 13       		.byte	0x13
 1523 0920 3E       		.byte	0x3e
 1524 0921 950A0000 		.4byte	0xa95
 1525 0925 0C       		.byte	0xc
 1526 0926 09       		.uleb128 0x9
 1527 0927 636E7400 		.ascii	"cnt\000"
 1528 092b 13       		.byte	0x13
 1529 092c 41       		.byte	0x41
 1530 092d 52010000 		.4byte	0x152
 1531 0931 10       		.byte	0x10
 1532 0932 00       		.byte	0
 1533 0933 0C       		.uleb128 0xc
 1534 0934 04       		.byte	0x4
 1535 0935 F6080000 		.4byte	0x8f6
 1536 0939 0C       		.uleb128 0xc
 1537 093a 04       		.byte	0x4
 1538 093b 4B090000 		.4byte	0x94b
 1539 093f 06       		.uleb128 0x6
ARM GAS  /tmp/cc68Sr28.s 			page 28


 1540 0940 39090000 		.4byte	0x939
 1541 0944 04       		.uleb128 0x4
 1542 0945 01       		.byte	0x1
 1543 0946 08       		.byte	0x8
 1544 0947 44070000 		.4byte	.LASF120
 1545 094b 05       		.uleb128 0x5
 1546 094c 44090000 		.4byte	0x944
 1547 0950 0C       		.uleb128 0xc
 1548 0951 04       		.byte	0x4
 1549 0952 24050000 		.4byte	0x524
 1550 0956 0C       		.uleb128 0xc
 1551 0957 04       		.byte	0x4
 1552 0958 48030000 		.4byte	0x348
 1553 095c 1B       		.uleb128 0x1b
 1554 095d 636800   		.ascii	"ch\000"
 1555 0960 0A       		.byte	0xa
 1556 0961 C701     		.2byte	0x1c7
 1557 0963 15040000 		.4byte	0x415
 1558 0967 13       		.uleb128 0x13
 1559 0968 24050000 		.4byte	0x524
 1560 096c 72090000 		.4byte	0x972
 1561 0970 1C       		.uleb128 0x1c
 1562 0971 00       		.byte	0
 1563 0972 11       		.uleb128 0x11
 1564 0973 CB060000 		.4byte	.LASF121
 1565 0977 14       		.byte	0x14
 1566 0978 1701     		.2byte	0x117
 1567 097a 67090000 		.4byte	0x967
 1568 097e 17       		.uleb128 0x17
 1569 097f 16       		.byte	0x16
 1570 0980 15       		.byte	0x15
 1571 0981 34       		.byte	0x34
 1572 0982 5F0A0000 		.4byte	0xa5f
 1573 0986 08       		.uleb128 0x8
 1574 0987 41000000 		.4byte	.LASF122
 1575 098b 15       		.byte	0x15
 1576 098c 35       		.byte	0x35
 1577 098d 5F0A0000 		.4byte	0xa5f
 1578 0991 00       		.byte	0
 1579 0992 08       		.uleb128 0x8
 1580 0993 47020000 		.4byte	.LASF123
 1581 0997 15       		.byte	0x15
 1582 0998 36       		.byte	0x36
 1583 0999 B4000000 		.4byte	0xb4
 1584 099d 04       		.byte	0x4
 1585 099e 08       		.uleb128 0x8
 1586 099f B5080000 		.4byte	.LASF124
 1587 09a3 15       		.byte	0x15
 1588 09a4 37       		.byte	0x37
 1589 09a5 B4000000 		.4byte	0xb4
 1590 09a9 05       		.byte	0x5
 1591 09aa 08       		.uleb128 0x8
 1592 09ab D8030000 		.4byte	.LASF125
 1593 09af 15       		.byte	0x15
 1594 09b0 38       		.byte	0x38
 1595 09b1 C4000000 		.4byte	0xc4
 1596 09b5 06       		.byte	0x6
ARM GAS  /tmp/cc68Sr28.s 			page 29


 1597 09b6 08       		.uleb128 0x8
 1598 09b7 13080000 		.4byte	.LASF126
 1599 09bb 15       		.byte	0x15
 1600 09bc 39       		.byte	0x39
 1601 09bd B4000000 		.4byte	0xb4
 1602 09c1 08       		.byte	0x8
 1603 09c2 08       		.uleb128 0x8
 1604 09c3 DD060000 		.4byte	.LASF127
 1605 09c7 15       		.byte	0x15
 1606 09c8 3A       		.byte	0x3a
 1607 09c9 B4000000 		.4byte	0xb4
 1608 09cd 09       		.byte	0x9
 1609 09ce 08       		.uleb128 0x8
 1610 09cf CD040000 		.4byte	.LASF128
 1611 09d3 15       		.byte	0x15
 1612 09d4 3B       		.byte	0x3b
 1613 09d5 B4000000 		.4byte	0xb4
 1614 09d9 0A       		.byte	0xa
 1615 09da 08       		.uleb128 0x8
 1616 09db 48060000 		.4byte	.LASF129
 1617 09df 15       		.byte	0x15
 1618 09e0 3C       		.byte	0x3c
 1619 09e1 B4000000 		.4byte	0xb4
 1620 09e5 0B       		.byte	0xb
 1621 09e6 08       		.uleb128 0x8
 1622 09e7 64030000 		.4byte	.LASF130
 1623 09eb 15       		.byte	0x15
 1624 09ec 3D       		.byte	0x3d
 1625 09ed B4000000 		.4byte	0xb4
 1626 09f1 0C       		.byte	0xc
 1627 09f2 08       		.uleb128 0x8
 1628 09f3 26040000 		.4byte	.LASF131
 1629 09f7 15       		.byte	0x15
 1630 09f8 3E       		.byte	0x3e
 1631 09f9 B4000000 		.4byte	0xb4
 1632 09fd 0D       		.byte	0xd
 1633 09fe 08       		.uleb128 0x8
 1634 09ff BA070000 		.4byte	.LASF132
 1635 0a03 15       		.byte	0x15
 1636 0a04 3F       		.byte	0x3f
 1637 0a05 B4000000 		.4byte	0xb4
 1638 0a09 0E       		.byte	0xe
 1639 0a0a 08       		.uleb128 0x8
 1640 0a0b 56080000 		.4byte	.LASF133
 1641 0a0f 15       		.byte	0x15
 1642 0a10 40       		.byte	0x40
 1643 0a11 B4000000 		.4byte	0xb4
 1644 0a15 0F       		.byte	0xf
 1645 0a16 08       		.uleb128 0x8
 1646 0a17 F7010000 		.4byte	.LASF134
 1647 0a1b 15       		.byte	0x15
 1648 0a1c 41       		.byte	0x41
 1649 0a1d B4000000 		.4byte	0xb4
 1650 0a21 10       		.byte	0x10
 1651 0a22 08       		.uleb128 0x8
 1652 0a23 C9080000 		.4byte	.LASF135
 1653 0a27 15       		.byte	0x15
ARM GAS  /tmp/cc68Sr28.s 			page 30


 1654 0a28 42       		.byte	0x42
 1655 0a29 B4000000 		.4byte	0xb4
 1656 0a2d 11       		.byte	0x11
 1657 0a2e 08       		.uleb128 0x8
 1658 0a2f E5080000 		.4byte	.LASF136
 1659 0a33 15       		.byte	0x15
 1660 0a34 43       		.byte	0x43
 1661 0a35 B4000000 		.4byte	0xb4
 1662 0a39 12       		.byte	0x12
 1663 0a3a 08       		.uleb128 0x8
 1664 0a3b E5010000 		.4byte	.LASF137
 1665 0a3f 15       		.byte	0x15
 1666 0a40 44       		.byte	0x44
 1667 0a41 B4000000 		.4byte	0xb4
 1668 0a45 13       		.byte	0x13
 1669 0a46 08       		.uleb128 0x8
 1670 0a47 D3010000 		.4byte	.LASF138
 1671 0a4b 15       		.byte	0x15
 1672 0a4c 45       		.byte	0x45
 1673 0a4d B4000000 		.4byte	0xb4
 1674 0a51 14       		.byte	0x14
 1675 0a52 08       		.uleb128 0x8
 1676 0a53 C6030000 		.4byte	.LASF139
 1677 0a57 15       		.byte	0x15
 1678 0a58 46       		.byte	0x46
 1679 0a59 B4000000 		.4byte	0xb4
 1680 0a5d 15       		.byte	0x15
 1681 0a5e 00       		.byte	0
 1682 0a5f 13       		.uleb128 0x13
 1683 0a60 44090000 		.4byte	0x944
 1684 0a64 6F0A0000 		.4byte	0xa6f
 1685 0a68 14       		.uleb128 0x14
 1686 0a69 91040000 		.4byte	0x491
 1687 0a6d 03       		.byte	0x3
 1688 0a6e 00       		.byte	0
 1689 0a6f 03       		.uleb128 0x3
 1690 0a70 C3040000 		.4byte	.LASF140
 1691 0a74 15       		.byte	0x15
 1692 0a75 47       		.byte	0x47
 1693 0a76 7E090000 		.4byte	0x97e
 1694 0a7a 05       		.uleb128 0x5
 1695 0a7b 6F0A0000 		.4byte	0xa6f
 1696 0a7f 12       		.uleb128 0x12
 1697 0a80 C5020000 		.4byte	.LASF141
 1698 0a84 15       		.byte	0x15
 1699 0a85 6C       		.byte	0x6c
 1700 0a86 7A0A0000 		.4byte	0xa7a
 1701 0a8a 03       		.uleb128 0x3
 1702 0a8b F7080000 		.4byte	.LASF142
 1703 0a8f 13       		.byte	0x13
 1704 0a90 34       		.byte	0x34
 1705 0a91 F6080000 		.4byte	0x8f6
 1706 0a95 0C       		.uleb128 0xc
 1707 0a96 04       		.byte	0x4
 1708 0a97 8A0A0000 		.4byte	0xa8a
 1709 0a9b 04       		.uleb128 0x4
 1710 0a9c 01       		.byte	0x1
ARM GAS  /tmp/cc68Sr28.s 			page 31


 1711 0a9d 02       		.byte	0x2
 1712 0a9e 2C060000 		.4byte	.LASF143
 1713 0aa2 03       		.uleb128 0x3
 1714 0aa3 F3070000 		.4byte	.LASF144
 1715 0aa7 16       		.byte	0x16
 1716 0aa8 47       		.byte	0x47
 1717 0aa9 AD0A0000 		.4byte	0xaad
 1718 0aad 0C       		.uleb128 0xc
 1719 0aae 04       		.byte	0x4
 1720 0aaf B30A0000 		.4byte	0xab3
 1721 0ab3 1D       		.uleb128 0x1d
 1722 0ab4 46030000 		.4byte	0x346
 1723 0ab8 C70A0000 		.4byte	0xac7
 1724 0abc 0F       		.uleb128 0xf
 1725 0abd 2C000000 		.4byte	0x2c
 1726 0ac1 0F       		.uleb128 0xf
 1727 0ac2 37000000 		.4byte	0x37
 1728 0ac6 00       		.byte	0
 1729 0ac7 17       		.uleb128 0x17
 1730 0ac8 08       		.byte	0x8
 1731 0ac9 16       		.byte	0x16
 1732 0aca 51       		.byte	0x51
 1733 0acb E80A0000 		.4byte	0xae8
 1734 0acf 08       		.uleb128 0x8
 1735 0ad0 0A090000 		.4byte	.LASF145
 1736 0ad4 16       		.byte	0x16
 1737 0ad5 55       		.byte	0x55
 1738 0ad6 E80A0000 		.4byte	0xae8
 1739 0ada 00       		.byte	0
 1740 0adb 08       		.uleb128 0x8
 1741 0adc A4030000 		.4byte	.LASF146
 1742 0ae0 16       		.byte	0x16
 1743 0ae1 59       		.byte	0x59
 1744 0ae2 E80A0000 		.4byte	0xae8
 1745 0ae6 04       		.byte	0x4
 1746 0ae7 00       		.byte	0
 1747 0ae8 0C       		.uleb128 0xc
 1748 0ae9 04       		.byte	0x4
 1749 0aea B4000000 		.4byte	0xb4
 1750 0aee 03       		.uleb128 0x3
 1751 0aef A6040000 		.4byte	.LASF147
 1752 0af3 16       		.byte	0x16
 1753 0af4 5A       		.byte	0x5a
 1754 0af5 C70A0000 		.4byte	0xac7
 1755 0af9 12       		.uleb128 0x12
 1756 0afa 70070000 		.4byte	.LASF148
 1757 0afe 16       		.byte	0x16
 1758 0aff 65       		.byte	0x65
 1759 0b00 EE0A0000 		.4byte	0xaee
 1760 0b04 07       		.uleb128 0x7
 1761 0b05 3E080000 		.4byte	.LASF149
 1762 0b09 04       		.byte	0x4
 1763 0b0a 17       		.byte	0x17
 1764 0b0b 38       		.byte	0x38
 1765 0b0c 1D0B0000 		.4byte	0xb1d
 1766 0b10 08       		.uleb128 0x8
 1767 0b11 19000000 		.4byte	.LASF52
ARM GAS  /tmp/cc68Sr28.s 			page 32


 1768 0b15 17       		.byte	0x17
 1769 0b16 39       		.byte	0x39
 1770 0b17 1D0B0000 		.4byte	0xb1d
 1771 0b1b 00       		.byte	0
 1772 0b1c 00       		.byte	0
 1773 0b1d 0C       		.uleb128 0xc
 1774 0b1e 04       		.byte	0x4
 1775 0b1f 040B0000 		.4byte	0xb04
 1776 0b23 17       		.uleb128 0x17
 1777 0b24 10       		.byte	0x10
 1778 0b25 17       		.byte	0x17
 1779 0b26 40       		.byte	0x40
 1780 0b27 5C0B0000 		.4byte	0xb5c
 1781 0b2b 08       		.uleb128 0x8
 1782 0b2c 19000000 		.4byte	.LASF52
 1783 0b30 17       		.byte	0x17
 1784 0b31 41       		.byte	0x41
 1785 0b32 1D0B0000 		.4byte	0xb1d
 1786 0b36 00       		.byte	0
 1787 0b37 08       		.uleb128 0x8
 1788 0b38 00080000 		.4byte	.LASF150
 1789 0b3c 17       		.byte	0x17
 1790 0b3d 42       		.byte	0x42
 1791 0b3e 2C000000 		.4byte	0x2c
 1792 0b42 04       		.byte	0x4
 1793 0b43 08       		.uleb128 0x8
 1794 0b44 5A020000 		.4byte	.LASF151
 1795 0b48 17       		.byte	0x17
 1796 0b49 44       		.byte	0x44
 1797 0b4a 37000000 		.4byte	0x37
 1798 0b4e 08       		.byte	0x8
 1799 0b4f 08       		.uleb128 0x8
 1800 0b50 9F000000 		.4byte	.LASF152
 1801 0b54 17       		.byte	0x17
 1802 0b55 45       		.byte	0x45
 1803 0b56 A20A0000 		.4byte	0xaa2
 1804 0b5a 0C       		.byte	0xc
 1805 0b5b 00       		.byte	0
 1806 0b5c 03       		.uleb128 0x3
 1807 0b5d D9020000 		.4byte	.LASF153
 1808 0b61 17       		.byte	0x17
 1809 0b62 47       		.byte	0x47
 1810 0b63 230B0000 		.4byte	0xb23
 1811 0b67 07       		.uleb128 0x7
 1812 0b68 ED040000 		.4byte	.LASF154
 1813 0b6c 10       		.byte	0x10
 1814 0b6d 18       		.byte	0x18
 1815 0b6e A9       		.byte	0xa9
 1816 0b6f 980B0000 		.4byte	0xb98
 1817 0b73 08       		.uleb128 0x8
 1818 0b74 19000000 		.4byte	.LASF52
 1819 0b78 18       		.byte	0x18
 1820 0b79 AD       		.byte	0xad
 1821 0b7a 980B0000 		.4byte	0xb98
 1822 0b7e 00       		.byte	0
 1823 0b7f 08       		.uleb128 0x8
 1824 0b80 D8040000 		.4byte	.LASF40
ARM GAS  /tmp/cc68Sr28.s 			page 33


 1825 0b84 18       		.byte	0x18
 1826 0b85 B1       		.byte	0xb1
 1827 0b86 5D010000 		.4byte	0x15d
 1828 0b8a 04       		.byte	0x4
 1829 0b8b 08       		.uleb128 0x8
 1830 0b8c 12030000 		.4byte	.LASF36
 1831 0b90 18       		.byte	0x18
 1832 0b91 B3       		.byte	0xb3
 1833 0b92 9E0B0000 		.4byte	0xb9e
 1834 0b96 08       		.byte	0x8
 1835 0b97 00       		.byte	0
 1836 0b98 0C       		.uleb128 0xc
 1837 0b99 04       		.byte	0x4
 1838 0b9a 670B0000 		.4byte	0xb67
 1839 0b9e 13       		.uleb128 0x13
 1840 0b9f 44090000 		.4byte	0x944
 1841 0ba3 AE0B0000 		.4byte	0xbae
 1842 0ba7 14       		.uleb128 0x14
 1843 0ba8 91040000 		.4byte	0x491
 1844 0bac 07       		.byte	0x7
 1845 0bad 00       		.byte	0
 1846 0bae 03       		.uleb128 0x3
 1847 0baf E9030000 		.4byte	.LASF155
 1848 0bb3 18       		.byte	0x18
 1849 0bb4 B7       		.byte	0xb7
 1850 0bb5 670B0000 		.4byte	0xb67
 1851 0bb9 07       		.uleb128 0x7
 1852 0bba 1A040000 		.4byte	.LASF156
 1853 0bbe 04       		.byte	0x4
 1854 0bbf 18       		.byte	0x18
 1855 0bc0 BC       		.byte	0xbc
 1856 0bc1 D20B0000 		.4byte	0xbd2
 1857 0bc5 08       		.uleb128 0x8
 1858 0bc6 19000000 		.4byte	.LASF52
 1859 0bca 18       		.byte	0x18
 1860 0bcb BD       		.byte	0xbd
 1861 0bcc D20B0000 		.4byte	0xbd2
 1862 0bd0 00       		.byte	0
 1863 0bd1 00       		.byte	0
 1864 0bd2 0C       		.uleb128 0xc
 1865 0bd3 04       		.byte	0x4
 1866 0bd4 AE0B0000 		.4byte	0xbae
 1867 0bd8 03       		.uleb128 0x3
 1868 0bd9 4D030000 		.4byte	.LASF157
 1869 0bdd 18       		.byte	0x18
 1870 0bde BE       		.byte	0xbe
 1871 0bdf B90B0000 		.4byte	0xbb9
 1872 0be3 0D       		.uleb128 0xd
 1873 0be4 1B080000 		.4byte	.LASF158
 1874 0be8 48       		.byte	0x48
 1875 0be9 18       		.byte	0x18
 1876 0bea 3E01     		.2byte	0x13e
 1877 0bec 590C0000 		.4byte	0xc59
 1878 0bf0 0A       		.uleb128 0xa
 1879 0bf1 6D747800 		.ascii	"mtx\000"
 1880 0bf5 18       		.byte	0x18
 1881 0bf6 4301     		.2byte	0x143
ARM GAS  /tmp/cc68Sr28.s 			page 34


 1882 0bf8 8A0A0000 		.4byte	0xa8a
 1883 0bfc 00       		.byte	0
 1884 0bfd 0B       		.uleb128 0xb
 1885 0bfe 54070000 		.4byte	.LASF159
 1886 0c02 18       		.byte	0x18
 1887 0c03 4A01     		.2byte	0x14a
 1888 0c05 D80B0000 		.4byte	0xbd8
 1889 0c09 14       		.byte	0x14
 1890 0c0a 0B       		.uleb128 0xb
 1891 0c0b 96060000 		.4byte	.LASF160
 1892 0c0f 18       		.byte	0x18
 1893 0c10 4E01     		.2byte	0x14e
 1894 0c12 5C0B0000 		.4byte	0xb5c
 1895 0c16 18       		.byte	0x18
 1896 0c17 0B       		.uleb128 0xb
 1897 0c18 1A060000 		.4byte	.LASF161
 1898 0c1c 18       		.byte	0x18
 1899 0c1d 5301     		.2byte	0x153
 1900 0c1f D80B0000 		.4byte	0xbd8
 1901 0c23 28       		.byte	0x28
 1902 0c24 0B       		.uleb128 0xb
 1903 0c25 A8000000 		.4byte	.LASF162
 1904 0c29 18       		.byte	0x18
 1905 0c2a 5901     		.2byte	0x159
 1906 0c2c D80B0000 		.4byte	0xbd8
 1907 0c30 2C       		.byte	0x2c
 1908 0c31 0B       		.uleb128 0xb
 1909 0c32 7F040000 		.4byte	.LASF163
 1910 0c36 18       		.byte	0x18
 1911 0c37 5D01     		.2byte	0x15d
 1912 0c39 5C0B0000 		.4byte	0xb5c
 1913 0c3d 30       		.byte	0x30
 1914 0c3e 0B       		.uleb128 0xb
 1915 0c3f 18020000 		.4byte	.LASF164
 1916 0c43 18       		.byte	0x18
 1917 0c44 6301     		.2byte	0x163
 1918 0c46 D80B0000 		.4byte	0xbd8
 1919 0c4a 40       		.byte	0x40
 1920 0c4b 0B       		.uleb128 0xb
 1921 0c4c 51060000 		.4byte	.LASF165
 1922 0c50 18       		.byte	0x18
 1923 0c51 6901     		.2byte	0x169
 1924 0c53 D80B0000 		.4byte	0xbd8
 1925 0c57 44       		.byte	0x44
 1926 0c58 00       		.byte	0
 1927 0c59 16       		.uleb128 0x16
 1928 0c5a D3080000 		.4byte	.LASF166
 1929 0c5e 18       		.byte	0x18
 1930 0c5f 7101     		.2byte	0x171
 1931 0c61 E30B0000 		.4byte	0xbe3
 1932 0c65 11       		.uleb128 0x11
 1933 0c66 CE020000 		.4byte	.LASF167
 1934 0c6a 18       		.byte	0x18
 1935 0c6b 7C01     		.2byte	0x17c
 1936 0c6d 590C0000 		.4byte	0xc59
 1937 0c71 1E       		.uleb128 0x1e
 1938 0c72 E1000000 		.4byte	.LASF168
ARM GAS  /tmp/cc68Sr28.s 			page 35


 1939 0c76 01       		.byte	0x1
 1940 0c77 D3       		.byte	0xd3
 1941 0c78 00000000 		.4byte	.LFB303
 1942 0c7c 74000000 		.4byte	.LFE303-.LFB303
 1943 0c80 01       		.uleb128 0x1
 1944 0c81 9C       		.byte	0x9c
 1945 0c82 4C0D0000 		.4byte	0xd4c
 1946 0c86 1F       		.uleb128 0x1f
 1947 0c87 76747000 		.ascii	"vtp\000"
 1948 0c8b 01       		.byte	0x1
 1949 0c8c D3       		.byte	0xd3
 1950 0c8d 56090000 		.4byte	0x956
 1951 0c91 00000000 		.4byte	.LLST9
 1952 0c95 20       		.uleb128 0x20
 1953 0c96 8D060000 		.4byte	.LASF172
 1954 0c9a 5C0D0000 		.4byte	0xd5c
 1955 0c9e 21       		.uleb128 0x21
 1956 0c9f 87020000 		.4byte	.LASF173
 1957 0ca3 01       		.byte	0x1
 1958 0ca4 E7       		.byte	0xe7
 1959 0ca5 86040000 		.4byte	0x486
 1960 0ca9 22       		.uleb128 0x22
 1961 0caa 1E000000 		.4byte	.LASF62
 1962 0cae 01       		.byte	0x1
 1963 0caf E7       		.byte	0xe7
 1964 0cb0 86040000 		.4byte	0x486
 1965 0cb4 3A000000 		.4byte	.LLST10
 1966 0cb8 23       		.uleb128 0x23
 1967 0cb9 F10E0000 		.4byte	0xef1
 1968 0cbd 42000000 		.4byte	.LBB62
 1969 0cc1 04000000 		.4byte	.LBE62-.LBB62
 1970 0cc5 01       		.byte	0x1
 1971 0cc6 FF       		.byte	0xff
 1972 0cc7 D50C0000 		.4byte	0xcd5
 1973 0ccb 24       		.uleb128 0x24
 1974 0ccc 46000000 		.4byte	.LVL21
 1975 0cd0 710F0000 		.4byte	0xf71
 1976 0cd4 00       		.byte	0
 1977 0cd5 25       		.uleb128 0x25
 1978 0cd6 C10E0000 		.4byte	0xec1
 1979 0cda 50000000 		.4byte	.LBB64
 1980 0cde 06000000 		.4byte	.LBE64-.LBB64
 1981 0ce2 01       		.byte	0x1
 1982 0ce3 0E01     		.2byte	0x10e
 1983 0ce5 090D0000 		.4byte	0xd09
 1984 0ce9 26       		.uleb128 0x26
 1985 0cea CD0E0000 		.4byte	0xecd
 1986 0cee 50000000 		.4byte	.LBB65
 1987 0cf2 06000000 		.4byte	.LBE65-.LBB65
 1988 0cf6 19       		.byte	0x19
 1989 0cf7 78       		.byte	0x78
 1990 0cf8 27       		.uleb128 0x27
 1991 0cf9 110F0000 		.4byte	0xf11
 1992 0cfd 50000000 		.4byte	.LBB66
 1993 0d01 06000000 		.4byte	.LBE66-.LBB66
 1994 0d05 03       		.byte	0x3
 1995 0d06 6B       		.byte	0x6b
ARM GAS  /tmp/cc68Sr28.s 			page 36


 1996 0d07 00       		.byte	0
 1997 0d08 00       		.byte	0
 1998 0d09 25       		.uleb128 0x25
 1999 0d0a 1D0F0000 		.4byte	0xf1d
 2000 0d0e 56000000 		.4byte	.LBB68
 2001 0d12 02000000 		.4byte	.LBE68-.LBB68
 2002 0d16 01       		.byte	0x1
 2003 0d17 0E01     		.2byte	0x10e
 2004 0d19 2C0D0000 		.4byte	0xd2c
 2005 0d1d 28       		.uleb128 0x28
 2006 0d1e 3A0F0000 		.4byte	0xf3a
 2007 0d22 29       		.uleb128 0x29
 2008 0d23 2E0F0000 		.4byte	0xf2e
 2009 0d27 68000000 		.4byte	.LLST11
 2010 0d2b 00       		.byte	0
 2011 0d2c 2A       		.uleb128 0x2a
 2012 0d2d D90E0000 		.4byte	0xed9
 2013 0d31 68000000 		.4byte	.LBB70
 2014 0d35 0C000000 		.4byte	.LBE70-.LBB70
 2015 0d39 01       		.byte	0x1
 2016 0d3a 2701     		.2byte	0x127
 2017 0d3c 28       		.uleb128 0x28
 2018 0d3d E50E0000 		.4byte	0xee5
 2019 0d41 24       		.uleb128 0x24
 2020 0d42 6E000000 		.4byte	.LVL27
 2021 0d46 7C0F0000 		.4byte	0xf7c
 2022 0d4a 00       		.byte	0
 2023 0d4b 00       		.byte	0
 2024 0d4c 13       		.uleb128 0x13
 2025 0d4d 4B090000 		.4byte	0x94b
 2026 0d51 5C0D0000 		.4byte	0xd5c
 2027 0d55 14       		.uleb128 0x14
 2028 0d56 91040000 		.4byte	0x491
 2029 0d5a 0C       		.byte	0xc
 2030 0d5b 00       		.byte	0
 2031 0d5c 05       		.uleb128 0x5
 2032 0d5d 4C0D0000 		.4byte	0xd4c
 2033 0d61 1E       		.uleb128 0x1e
 2034 0d62 99030000 		.4byte	.LASF169
 2035 0d66 01       		.byte	0x1
 2036 0d67 5F       		.byte	0x5f
 2037 0d68 00000000 		.4byte	.LFB302
 2038 0d6c 78000000 		.4byte	.LFE302-.LFB302
 2039 0d70 01       		.uleb128 0x1
 2040 0d71 9C       		.byte	0x9c
 2041 0d72 9B0E0000 		.4byte	0xe9b
 2042 0d76 1F       		.uleb128 0x1f
 2043 0d77 76747000 		.ascii	"vtp\000"
 2044 0d7b 01       		.byte	0x1
 2045 0d7c 5F       		.byte	0x5f
 2046 0d7d 56090000 		.4byte	0x956
 2047 0d81 7B000000 		.4byte	.LLST0
 2048 0d85 2B       		.uleb128 0x2b
 2049 0d86 5B060000 		.4byte	.LASF170
 2050 0d8a 01       		.byte	0x1
 2051 0d8b 5F       		.byte	0x5f
 2052 0d8c 86040000 		.4byte	0x486
ARM GAS  /tmp/cc68Sr28.s 			page 37


 2053 0d90 D7000000 		.4byte	.LLST1
 2054 0d94 2B       		.uleb128 0x2b
 2055 0d95 0C080000 		.4byte	.LASF171
 2056 0d99 01       		.byte	0x1
 2057 0d9a 60       		.byte	0x60
 2058 0d9b 2A030000 		.4byte	0x32a
 2059 0d9f 6E010000 		.4byte	.LLST2
 2060 0da3 1F       		.uleb128 0x1f
 2061 0da4 70617200 		.ascii	"par\000"
 2062 0da8 01       		.byte	0x1
 2063 0da9 60       		.byte	0x60
 2064 0daa 46030000 		.4byte	0x346
 2065 0dae F6010000 		.4byte	.LLST3
 2066 0db2 2C       		.uleb128 0x2c
 2067 0db3 7000     		.ascii	"p\000"
 2068 0db5 01       		.byte	0x1
 2069 0db6 61       		.byte	0x61
 2070 0db7 56090000 		.4byte	0x956
 2071 0dbb 7E020000 		.4byte	.LLST4
 2072 0dbf 22       		.uleb128 0x22
 2073 0dc0 1E000000 		.4byte	.LASF62
 2074 0dc4 01       		.byte	0x1
 2075 0dc5 62       		.byte	0x62
 2076 0dc6 86040000 		.4byte	0x486
 2077 0dca 91020000 		.4byte	.LLST5
 2078 0dce 20       		.uleb128 0x20
 2079 0dcf 8D060000 		.4byte	.LASF172
 2080 0dd3 AB0E0000 		.4byte	0xeab
 2081 0dd7 2D       		.uleb128 0x2d
 2082 0dd8 00000000 		.4byte	.Ldebug_ranges0+0
 2083 0ddc 2E       		.uleb128 0x2e
 2084 0ddd 6E6F7700 		.ascii	"now\000"
 2085 0de1 01       		.byte	0x1
 2086 0de2 6C       		.byte	0x6c
 2087 0de3 7B040000 		.4byte	0x47b
 2088 0de7 2F       		.uleb128 0x2f
 2089 0de8 4C000000 		.4byte	.LBB55
 2090 0dec 06000000 		.4byte	.LBE55-.LBB55
 2091 0df0 220E0000 		.4byte	0xe22
 2092 0df4 22       		.uleb128 0x22
 2093 0df5 90020000 		.4byte	.LASF174
 2094 0df9 01       		.byte	0x1
 2095 0dfa 9C       		.byte	0x9c
 2096 0dfb 86040000 		.4byte	0x486
 2097 0dff B4020000 		.4byte	.LLST8
 2098 0e03 26       		.uleb128 0x26
 2099 0e04 D90E0000 		.4byte	0xed9
 2100 0e08 4C000000 		.4byte	.LBB56
 2101 0e0c 06000000 		.4byte	.LBE56-.LBB56
 2102 0e10 01       		.byte	0x1
 2103 0e11 A7       		.byte	0xa7
 2104 0e12 28       		.uleb128 0x28
 2105 0e13 E50E0000 		.4byte	0xee5
 2106 0e17 30       		.uleb128 0x30
 2107 0e18 52000000 		.4byte	.LVL15
 2108 0e1c 7C0F0000 		.4byte	0xf7c
 2109 0e20 00       		.byte	0
ARM GAS  /tmp/cc68Sr28.s 			page 38


 2110 0e21 00       		.byte	0
 2111 0e22 31       		.uleb128 0x31
 2112 0e23 C10E0000 		.4byte	0xec1
 2113 0e27 04000000 		.4byte	.LBB41
 2114 0e2b 30000000 		.4byte	.Ldebug_ranges0+0x30
 2115 0e2f 01       		.byte	0x1
 2116 0e30 6C       		.byte	0x6c
 2117 0e31 550E0000 		.4byte	0xe55
 2118 0e35 32       		.uleb128 0x32
 2119 0e36 CD0E0000 		.4byte	0xecd
 2120 0e3a 04000000 		.4byte	.LBB42
 2121 0e3e 30000000 		.4byte	.Ldebug_ranges0+0x30
 2122 0e42 19       		.byte	0x19
 2123 0e43 78       		.byte	0x78
 2124 0e44 33       		.uleb128 0x33
 2125 0e45 110F0000 		.4byte	0xf11
 2126 0e49 04000000 		.4byte	.LBB43
 2127 0e4d 30000000 		.4byte	.Ldebug_ranges0+0x30
 2128 0e51 03       		.byte	0x3
 2129 0e52 6B       		.byte	0x6b
 2130 0e53 00       		.byte	0
 2131 0e54 00       		.byte	0
 2132 0e55 31       		.uleb128 0x31
 2133 0e56 F90E0000 		.4byte	0xef9
 2134 0e5a 2E000000 		.4byte	.LBB49
 2135 0e5e 48000000 		.4byte	.Ldebug_ranges0+0x48
 2136 0e62 01       		.byte	0x1
 2137 0e63 88       		.byte	0x88
 2138 0e64 770E0000 		.4byte	0xe77
 2139 0e68 28       		.uleb128 0x28
 2140 0e69 050F0000 		.4byte	0xf05
 2141 0e6d 24       		.uleb128 0x24
 2142 0e6e 38000000 		.4byte	.LVL6
 2143 0e72 870F0000 		.4byte	0xf87
 2144 0e76 00       		.byte	0
 2145 0e77 26       		.uleb128 0x26
 2146 0e78 1D0F0000 		.4byte	0xf1d
 2147 0e7c 3C000000 		.4byte	.LBB53
 2148 0e80 02000000 		.4byte	.LBE53-.LBB53
 2149 0e84 01       		.byte	0x1
 2150 0e85 92       		.byte	0x92
 2151 0e86 29       		.uleb128 0x29
 2152 0e87 3A0F0000 		.4byte	0xf3a
 2153 0e8b C7020000 		.4byte	.LLST6
 2154 0e8f 29       		.uleb128 0x29
 2155 0e90 2E0F0000 		.4byte	0xf2e
 2156 0e94 DA020000 		.4byte	.LLST7
 2157 0e98 00       		.byte	0
 2158 0e99 00       		.byte	0
 2159 0e9a 00       		.byte	0
 2160 0e9b 13       		.uleb128 0x13
 2161 0e9c 4B090000 		.4byte	0x94b
 2162 0ea0 AB0E0000 		.4byte	0xeab
 2163 0ea4 14       		.uleb128 0x14
 2164 0ea5 91040000 		.4byte	0x491
 2165 0ea9 0A       		.byte	0xa
 2166 0eaa 00       		.byte	0
ARM GAS  /tmp/cc68Sr28.s 			page 39


 2167 0eab 05       		.uleb128 0x5
 2168 0eac 9B0E0000 		.4byte	0xe9b
 2169 0eb0 34       		.uleb128 0x34
 2170 0eb1 46010000 		.4byte	.LASF192
 2171 0eb5 01       		.byte	0x1
 2172 0eb6 3D       		.byte	0x3d
 2173 0eb7 00000000 		.4byte	.LFB301
 2174 0ebb 1C000000 		.4byte	.LFE301-.LFB301
 2175 0ebf 01       		.uleb128 0x1
 2176 0ec0 9C       		.byte	0x9c
 2177 0ec1 35       		.uleb128 0x35
 2178 0ec2 74020000 		.4byte	.LASF175
 2179 0ec6 19       		.byte	0x19
 2180 0ec7 73       		.byte	0x73
 2181 0ec8 7B040000 		.4byte	0x47b
 2182 0ecc 03       		.byte	0x3
 2183 0ecd 35       		.uleb128 0x35
 2184 0ece D7070000 		.4byte	.LASF176
 2185 0ed2 03       		.byte	0x3
 2186 0ed3 69       		.byte	0x69
 2187 0ed4 7B040000 		.4byte	0x47b
 2188 0ed8 03       		.byte	0x3
 2189 0ed9 36       		.uleb128 0x36
 2190 0eda 99080000 		.4byte	.LASF177
 2191 0ede 03       		.byte	0x3
 2192 0edf 5D       		.byte	0x5d
 2193 0ee0 03       		.byte	0x3
 2194 0ee1 F10E0000 		.4byte	0xef1
 2195 0ee5 37       		.uleb128 0x37
 2196 0ee6 75040000 		.4byte	.LASF179
 2197 0eea 03       		.byte	0x3
 2198 0eeb 5D       		.byte	0x5d
 2199 0eec 7B040000 		.4byte	0x47b
 2200 0ef0 00       		.byte	0
 2201 0ef1 38       		.uleb128 0x38
 2202 0ef2 70080000 		.4byte	.LASF193
 2203 0ef6 03       		.byte	0x3
 2204 0ef7 51       		.byte	0x51
 2205 0ef8 03       		.byte	0x3
 2206 0ef9 36       		.uleb128 0x36
 2207 0efa 21030000 		.4byte	.LASF178
 2208 0efe 03       		.byte	0x3
 2209 0eff 47       		.byte	0x47
 2210 0f00 03       		.byte	0x3
 2211 0f01 110F0000 		.4byte	0xf11
 2212 0f05 37       		.uleb128 0x37
 2213 0f06 75040000 		.4byte	.LASF179
 2214 0f0a 03       		.byte	0x3
 2215 0f0b 47       		.byte	0x47
 2216 0f0c 7B040000 		.4byte	0x47b
 2217 0f10 00       		.byte	0
 2218 0f11 35       		.uleb128 0x35
 2219 0f12 E6060000 		.4byte	.LASF180
 2220 0f16 02       		.byte	0x2
 2221 0f17 A6       		.byte	0xa6
 2222 0f18 7B040000 		.4byte	0x47b
 2223 0f1c 03       		.byte	0x3
ARM GAS  /tmp/cc68Sr28.s 			page 40


 2224 0f1d 39       		.uleb128 0x39
 2225 0f1e 4A080000 		.4byte	.LASF182
 2226 0f22 04       		.byte	0x4
 2227 0f23 FE01     		.2byte	0x1fe
 2228 0f25 86040000 		.4byte	0x486
 2229 0f29 03       		.byte	0x3
 2230 0f2a 470F0000 		.4byte	0xf47
 2231 0f2e 3A       		.uleb128 0x3a
 2232 0f2f 67010000 		.4byte	.LASF181
 2233 0f33 04       		.byte	0x4
 2234 0f34 FE01     		.2byte	0x1fe
 2235 0f36 7B040000 		.4byte	0x47b
 2236 0f3a 3B       		.uleb128 0x3b
 2237 0f3b 656E6400 		.ascii	"end\000"
 2238 0f3f 04       		.byte	0x4
 2239 0f40 FE01     		.2byte	0x1fe
 2240 0f42 7B040000 		.4byte	0x47b
 2241 0f46 00       		.byte	0
 2242 0f47 39       		.uleb128 0x39
 2243 0f48 90040000 		.4byte	.LASF183
 2244 0f4c 04       		.byte	0x4
 2245 0f4d EB01     		.2byte	0x1eb
 2246 0f4f 7B040000 		.4byte	0x47b
 2247 0f53 03       		.byte	0x3
 2248 0f54 710F0000 		.4byte	0xf71
 2249 0f58 3A       		.uleb128 0x3a
 2250 0f59 78030000 		.4byte	.LASF184
 2251 0f5d 04       		.byte	0x4
 2252 0f5e EB01     		.2byte	0x1eb
 2253 0f60 7B040000 		.4byte	0x47b
 2254 0f64 3A       		.uleb128 0x3a
 2255 0f65 EE010000 		.4byte	.LASF185
 2256 0f69 04       		.byte	0x4
 2257 0f6a EC01     		.2byte	0x1ec
 2258 0f6c 86040000 		.4byte	0x486
 2259 0f70 00       		.byte	0
 2260 0f71 3C       		.uleb128 0x3c
 2261 0f72 38070000 		.4byte	.LASF186
 2262 0f76 38070000 		.4byte	.LASF186
 2263 0f7a 1A       		.byte	0x1a
 2264 0f7b 58       		.byte	0x58
 2265 0f7c 3C       		.uleb128 0x3c
 2266 0f7d 5F080000 		.4byte	.LASF187
 2267 0f81 5F080000 		.4byte	.LASF187
 2268 0f85 1A       		.byte	0x1a
 2269 0f86 59       		.byte	0x59
 2270 0f87 3C       		.uleb128 0x3c
 2271 0f88 AD070000 		.4byte	.LASF188
 2272 0f8c AD070000 		.4byte	.LASF188
 2273 0f90 1A       		.byte	0x1a
 2274 0f91 57       		.byte	0x57
 2275 0f92 00       		.byte	0
 2276              		.section	.debug_abbrev,"",%progbits
 2277              	.Ldebug_abbrev0:
 2278 0000 01       		.uleb128 0x1
 2279 0001 11       		.uleb128 0x11
 2280 0002 01       		.byte	0x1
ARM GAS  /tmp/cc68Sr28.s 			page 41


 2281 0003 25       		.uleb128 0x25
 2282 0004 0E       		.uleb128 0xe
 2283 0005 13       		.uleb128 0x13
 2284 0006 0B       		.uleb128 0xb
 2285 0007 03       		.uleb128 0x3
 2286 0008 0E       		.uleb128 0xe
 2287 0009 1B       		.uleb128 0x1b
 2288 000a 0E       		.uleb128 0xe
 2289 000b 55       		.uleb128 0x55
 2290 000c 17       		.uleb128 0x17
 2291 000d 11       		.uleb128 0x11
 2292 000e 01       		.uleb128 0x1
 2293 000f 10       		.uleb128 0x10
 2294 0010 17       		.uleb128 0x17
 2295 0011 00       		.byte	0
 2296 0012 00       		.byte	0
 2297 0013 02       		.uleb128 0x2
 2298 0014 24       		.uleb128 0x24
 2299 0015 00       		.byte	0
 2300 0016 0B       		.uleb128 0xb
 2301 0017 0B       		.uleb128 0xb
 2302 0018 3E       		.uleb128 0x3e
 2303 0019 0B       		.uleb128 0xb
 2304 001a 03       		.uleb128 0x3
 2305 001b 08       		.uleb128 0x8
 2306 001c 00       		.byte	0
 2307 001d 00       		.byte	0
 2308 001e 03       		.uleb128 0x3
 2309 001f 16       		.uleb128 0x16
 2310 0020 00       		.byte	0
 2311 0021 03       		.uleb128 0x3
 2312 0022 0E       		.uleb128 0xe
 2313 0023 3A       		.uleb128 0x3a
 2314 0024 0B       		.uleb128 0xb
 2315 0025 3B       		.uleb128 0x3b
 2316 0026 0B       		.uleb128 0xb
 2317 0027 49       		.uleb128 0x49
 2318 0028 13       		.uleb128 0x13
 2319 0029 00       		.byte	0
 2320 002a 00       		.byte	0
 2321 002b 04       		.uleb128 0x4
 2322 002c 24       		.uleb128 0x24
 2323 002d 00       		.byte	0
 2324 002e 0B       		.uleb128 0xb
 2325 002f 0B       		.uleb128 0xb
 2326 0030 3E       		.uleb128 0x3e
 2327 0031 0B       		.uleb128 0xb
 2328 0032 03       		.uleb128 0x3
 2329 0033 0E       		.uleb128 0xe
 2330 0034 00       		.byte	0
 2331 0035 00       		.byte	0
 2332 0036 05       		.uleb128 0x5
 2333 0037 26       		.uleb128 0x26
 2334 0038 00       		.byte	0
 2335 0039 49       		.uleb128 0x49
 2336 003a 13       		.uleb128 0x13
 2337 003b 00       		.byte	0
ARM GAS  /tmp/cc68Sr28.s 			page 42


 2338 003c 00       		.byte	0
 2339 003d 06       		.uleb128 0x6
 2340 003e 35       		.uleb128 0x35
 2341 003f 00       		.byte	0
 2342 0040 49       		.uleb128 0x49
 2343 0041 13       		.uleb128 0x13
 2344 0042 00       		.byte	0
 2345 0043 00       		.byte	0
 2346 0044 07       		.uleb128 0x7
 2347 0045 13       		.uleb128 0x13
 2348 0046 01       		.byte	0x1
 2349 0047 03       		.uleb128 0x3
 2350 0048 0E       		.uleb128 0xe
 2351 0049 0B       		.uleb128 0xb
 2352 004a 0B       		.uleb128 0xb
 2353 004b 3A       		.uleb128 0x3a
 2354 004c 0B       		.uleb128 0xb
 2355 004d 3B       		.uleb128 0x3b
 2356 004e 0B       		.uleb128 0xb
 2357 004f 01       		.uleb128 0x1
 2358 0050 13       		.uleb128 0x13
 2359 0051 00       		.byte	0
 2360 0052 00       		.byte	0
 2361 0053 08       		.uleb128 0x8
 2362 0054 0D       		.uleb128 0xd
 2363 0055 00       		.byte	0
 2364 0056 03       		.uleb128 0x3
 2365 0057 0E       		.uleb128 0xe
 2366 0058 3A       		.uleb128 0x3a
 2367 0059 0B       		.uleb128 0xb
 2368 005a 3B       		.uleb128 0x3b
 2369 005b 0B       		.uleb128 0xb
 2370 005c 49       		.uleb128 0x49
 2371 005d 13       		.uleb128 0x13
 2372 005e 38       		.uleb128 0x38
 2373 005f 0B       		.uleb128 0xb
 2374 0060 00       		.byte	0
 2375 0061 00       		.byte	0
 2376 0062 09       		.uleb128 0x9
 2377 0063 0D       		.uleb128 0xd
 2378 0064 00       		.byte	0
 2379 0065 03       		.uleb128 0x3
 2380 0066 08       		.uleb128 0x8
 2381 0067 3A       		.uleb128 0x3a
 2382 0068 0B       		.uleb128 0xb
 2383 0069 3B       		.uleb128 0x3b
 2384 006a 0B       		.uleb128 0xb
 2385 006b 49       		.uleb128 0x49
 2386 006c 13       		.uleb128 0x13
 2387 006d 38       		.uleb128 0x38
 2388 006e 0B       		.uleb128 0xb
 2389 006f 00       		.byte	0
 2390 0070 00       		.byte	0
 2391 0071 0A       		.uleb128 0xa
 2392 0072 0D       		.uleb128 0xd
 2393 0073 00       		.byte	0
 2394 0074 03       		.uleb128 0x3
ARM GAS  /tmp/cc68Sr28.s 			page 43


 2395 0075 08       		.uleb128 0x8
 2396 0076 3A       		.uleb128 0x3a
 2397 0077 0B       		.uleb128 0xb
 2398 0078 3B       		.uleb128 0x3b
 2399 0079 05       		.uleb128 0x5
 2400 007a 49       		.uleb128 0x49
 2401 007b 13       		.uleb128 0x13
 2402 007c 38       		.uleb128 0x38
 2403 007d 0B       		.uleb128 0xb
 2404 007e 00       		.byte	0
 2405 007f 00       		.byte	0
 2406 0080 0B       		.uleb128 0xb
 2407 0081 0D       		.uleb128 0xd
 2408 0082 00       		.byte	0
 2409 0083 03       		.uleb128 0x3
 2410 0084 0E       		.uleb128 0xe
 2411 0085 3A       		.uleb128 0x3a
 2412 0086 0B       		.uleb128 0xb
 2413 0087 3B       		.uleb128 0x3b
 2414 0088 05       		.uleb128 0x5
 2415 0089 49       		.uleb128 0x49
 2416 008a 13       		.uleb128 0x13
 2417 008b 38       		.uleb128 0x38
 2418 008c 0B       		.uleb128 0xb
 2419 008d 00       		.byte	0
 2420 008e 00       		.byte	0
 2421 008f 0C       		.uleb128 0xc
 2422 0090 0F       		.uleb128 0xf
 2423 0091 00       		.byte	0
 2424 0092 0B       		.uleb128 0xb
 2425 0093 0B       		.uleb128 0xb
 2426 0094 49       		.uleb128 0x49
 2427 0095 13       		.uleb128 0x13
 2428 0096 00       		.byte	0
 2429 0097 00       		.byte	0
 2430 0098 0D       		.uleb128 0xd
 2431 0099 13       		.uleb128 0x13
 2432 009a 01       		.byte	0x1
 2433 009b 03       		.uleb128 0x3
 2434 009c 0E       		.uleb128 0xe
 2435 009d 0B       		.uleb128 0xb
 2436 009e 0B       		.uleb128 0xb
 2437 009f 3A       		.uleb128 0x3a
 2438 00a0 0B       		.uleb128 0xb
 2439 00a1 3B       		.uleb128 0x3b
 2440 00a2 05       		.uleb128 0x5
 2441 00a3 01       		.uleb128 0x1
 2442 00a4 13       		.uleb128 0x13
 2443 00a5 00       		.byte	0
 2444 00a6 00       		.byte	0
 2445 00a7 0E       		.uleb128 0xe
 2446 00a8 15       		.uleb128 0x15
 2447 00a9 01       		.byte	0x1
 2448 00aa 27       		.uleb128 0x27
 2449 00ab 19       		.uleb128 0x19
 2450 00ac 01       		.uleb128 0x1
 2451 00ad 13       		.uleb128 0x13
ARM GAS  /tmp/cc68Sr28.s 			page 44


 2452 00ae 00       		.byte	0
 2453 00af 00       		.byte	0
 2454 00b0 0F       		.uleb128 0xf
 2455 00b1 05       		.uleb128 0x5
 2456 00b2 00       		.byte	0
 2457 00b3 49       		.uleb128 0x49
 2458 00b4 13       		.uleb128 0x13
 2459 00b5 00       		.byte	0
 2460 00b6 00       		.byte	0
 2461 00b7 10       		.uleb128 0x10
 2462 00b8 0F       		.uleb128 0xf
 2463 00b9 00       		.byte	0
 2464 00ba 0B       		.uleb128 0xb
 2465 00bb 0B       		.uleb128 0xb
 2466 00bc 00       		.byte	0
 2467 00bd 00       		.byte	0
 2468 00be 11       		.uleb128 0x11
 2469 00bf 34       		.uleb128 0x34
 2470 00c0 00       		.byte	0
 2471 00c1 03       		.uleb128 0x3
 2472 00c2 0E       		.uleb128 0xe
 2473 00c3 3A       		.uleb128 0x3a
 2474 00c4 0B       		.uleb128 0xb
 2475 00c5 3B       		.uleb128 0x3b
 2476 00c6 05       		.uleb128 0x5
 2477 00c7 49       		.uleb128 0x49
 2478 00c8 13       		.uleb128 0x13
 2479 00c9 3F       		.uleb128 0x3f
 2480 00ca 19       		.uleb128 0x19
 2481 00cb 3C       		.uleb128 0x3c
 2482 00cc 19       		.uleb128 0x19
 2483 00cd 00       		.byte	0
 2484 00ce 00       		.byte	0
 2485 00cf 12       		.uleb128 0x12
 2486 00d0 34       		.uleb128 0x34
 2487 00d1 00       		.byte	0
 2488 00d2 03       		.uleb128 0x3
 2489 00d3 0E       		.uleb128 0xe
 2490 00d4 3A       		.uleb128 0x3a
 2491 00d5 0B       		.uleb128 0xb
 2492 00d6 3B       		.uleb128 0x3b
 2493 00d7 0B       		.uleb128 0xb
 2494 00d8 49       		.uleb128 0x49
 2495 00d9 13       		.uleb128 0x13
 2496 00da 3F       		.uleb128 0x3f
 2497 00db 19       		.uleb128 0x19
 2498 00dc 3C       		.uleb128 0x3c
 2499 00dd 19       		.uleb128 0x19
 2500 00de 00       		.byte	0
 2501 00df 00       		.byte	0
 2502 00e0 13       		.uleb128 0x13
 2503 00e1 01       		.uleb128 0x1
 2504 00e2 01       		.byte	0x1
 2505 00e3 49       		.uleb128 0x49
 2506 00e4 13       		.uleb128 0x13
 2507 00e5 01       		.uleb128 0x1
 2508 00e6 13       		.uleb128 0x13
ARM GAS  /tmp/cc68Sr28.s 			page 45


 2509 00e7 00       		.byte	0
 2510 00e8 00       		.byte	0
 2511 00e9 14       		.uleb128 0x14
 2512 00ea 21       		.uleb128 0x21
 2513 00eb 00       		.byte	0
 2514 00ec 49       		.uleb128 0x49
 2515 00ed 13       		.uleb128 0x13
 2516 00ee 2F       		.uleb128 0x2f
 2517 00ef 0B       		.uleb128 0xb
 2518 00f0 00       		.byte	0
 2519 00f1 00       		.byte	0
 2520 00f2 15       		.uleb128 0x15
 2521 00f3 13       		.uleb128 0x13
 2522 00f4 01       		.byte	0x1
 2523 00f5 0B       		.uleb128 0xb
 2524 00f6 0B       		.uleb128 0xb
 2525 00f7 3A       		.uleb128 0x3a
 2526 00f8 0B       		.uleb128 0xb
 2527 00f9 3B       		.uleb128 0x3b
 2528 00fa 05       		.uleb128 0x5
 2529 00fb 01       		.uleb128 0x1
 2530 00fc 13       		.uleb128 0x13
 2531 00fd 00       		.byte	0
 2532 00fe 00       		.byte	0
 2533 00ff 16       		.uleb128 0x16
 2534 0100 16       		.uleb128 0x16
 2535 0101 00       		.byte	0
 2536 0102 03       		.uleb128 0x3
 2537 0103 0E       		.uleb128 0xe
 2538 0104 3A       		.uleb128 0x3a
 2539 0105 0B       		.uleb128 0xb
 2540 0106 3B       		.uleb128 0x3b
 2541 0107 05       		.uleb128 0x5
 2542 0108 49       		.uleb128 0x49
 2543 0109 13       		.uleb128 0x13
 2544 010a 00       		.byte	0
 2545 010b 00       		.byte	0
 2546 010c 17       		.uleb128 0x17
 2547 010d 13       		.uleb128 0x13
 2548 010e 01       		.byte	0x1
 2549 010f 0B       		.uleb128 0xb
 2550 0110 0B       		.uleb128 0xb
 2551 0111 3A       		.uleb128 0x3a
 2552 0112 0B       		.uleb128 0xb
 2553 0113 3B       		.uleb128 0x3b
 2554 0114 0B       		.uleb128 0xb
 2555 0115 01       		.uleb128 0x1
 2556 0116 13       		.uleb128 0x13
 2557 0117 00       		.byte	0
 2558 0118 00       		.byte	0
 2559 0119 18       		.uleb128 0x18
 2560 011a 17       		.uleb128 0x17
 2561 011b 01       		.byte	0x1
 2562 011c 0B       		.uleb128 0xb
 2563 011d 0B       		.uleb128 0xb
 2564 011e 3A       		.uleb128 0x3a
 2565 011f 0B       		.uleb128 0xb
ARM GAS  /tmp/cc68Sr28.s 			page 46


 2566 0120 3B       		.uleb128 0x3b
 2567 0121 0B       		.uleb128 0xb
 2568 0122 01       		.uleb128 0x1
 2569 0123 13       		.uleb128 0x13
 2570 0124 00       		.byte	0
 2571 0125 00       		.byte	0
 2572 0126 19       		.uleb128 0x19
 2573 0127 0D       		.uleb128 0xd
 2574 0128 00       		.byte	0
 2575 0129 03       		.uleb128 0x3
 2576 012a 0E       		.uleb128 0xe
 2577 012b 3A       		.uleb128 0x3a
 2578 012c 0B       		.uleb128 0xb
 2579 012d 3B       		.uleb128 0x3b
 2580 012e 0B       		.uleb128 0xb
 2581 012f 49       		.uleb128 0x49
 2582 0130 13       		.uleb128 0x13
 2583 0131 00       		.byte	0
 2584 0132 00       		.byte	0
 2585 0133 1A       		.uleb128 0x1a
 2586 0134 0D       		.uleb128 0xd
 2587 0135 00       		.byte	0
 2588 0136 03       		.uleb128 0x3
 2589 0137 0E       		.uleb128 0xe
 2590 0138 3A       		.uleb128 0x3a
 2591 0139 0B       		.uleb128 0xb
 2592 013a 3B       		.uleb128 0x3b
 2593 013b 05       		.uleb128 0x5
 2594 013c 49       		.uleb128 0x49
 2595 013d 13       		.uleb128 0x13
 2596 013e 00       		.byte	0
 2597 013f 00       		.byte	0
 2598 0140 1B       		.uleb128 0x1b
 2599 0141 34       		.uleb128 0x34
 2600 0142 00       		.byte	0
 2601 0143 03       		.uleb128 0x3
 2602 0144 08       		.uleb128 0x8
 2603 0145 3A       		.uleb128 0x3a
 2604 0146 0B       		.uleb128 0xb
 2605 0147 3B       		.uleb128 0x3b
 2606 0148 05       		.uleb128 0x5
 2607 0149 49       		.uleb128 0x49
 2608 014a 13       		.uleb128 0x13
 2609 014b 3F       		.uleb128 0x3f
 2610 014c 19       		.uleb128 0x19
 2611 014d 3C       		.uleb128 0x3c
 2612 014e 19       		.uleb128 0x19
 2613 014f 00       		.byte	0
 2614 0150 00       		.byte	0
 2615 0151 1C       		.uleb128 0x1c
 2616 0152 21       		.uleb128 0x21
 2617 0153 00       		.byte	0
 2618 0154 00       		.byte	0
 2619 0155 00       		.byte	0
 2620 0156 1D       		.uleb128 0x1d
 2621 0157 15       		.uleb128 0x15
 2622 0158 01       		.byte	0x1
ARM GAS  /tmp/cc68Sr28.s 			page 47


 2623 0159 27       		.uleb128 0x27
 2624 015a 19       		.uleb128 0x19
 2625 015b 49       		.uleb128 0x49
 2626 015c 13       		.uleb128 0x13
 2627 015d 01       		.uleb128 0x1
 2628 015e 13       		.uleb128 0x13
 2629 015f 00       		.byte	0
 2630 0160 00       		.byte	0
 2631 0161 1E       		.uleb128 0x1e
 2632 0162 2E       		.uleb128 0x2e
 2633 0163 01       		.byte	0x1
 2634 0164 3F       		.uleb128 0x3f
 2635 0165 19       		.uleb128 0x19
 2636 0166 03       		.uleb128 0x3
 2637 0167 0E       		.uleb128 0xe
 2638 0168 3A       		.uleb128 0x3a
 2639 0169 0B       		.uleb128 0xb
 2640 016a 3B       		.uleb128 0x3b
 2641 016b 0B       		.uleb128 0xb
 2642 016c 27       		.uleb128 0x27
 2643 016d 19       		.uleb128 0x19
 2644 016e 11       		.uleb128 0x11
 2645 016f 01       		.uleb128 0x1
 2646 0170 12       		.uleb128 0x12
 2647 0171 06       		.uleb128 0x6
 2648 0172 40       		.uleb128 0x40
 2649 0173 18       		.uleb128 0x18
 2650 0174 9742     		.uleb128 0x2117
 2651 0176 19       		.uleb128 0x19
 2652 0177 01       		.uleb128 0x1
 2653 0178 13       		.uleb128 0x13
 2654 0179 00       		.byte	0
 2655 017a 00       		.byte	0
 2656 017b 1F       		.uleb128 0x1f
 2657 017c 05       		.uleb128 0x5
 2658 017d 00       		.byte	0
 2659 017e 03       		.uleb128 0x3
 2660 017f 08       		.uleb128 0x8
 2661 0180 3A       		.uleb128 0x3a
 2662 0181 0B       		.uleb128 0xb
 2663 0182 3B       		.uleb128 0x3b
 2664 0183 0B       		.uleb128 0xb
 2665 0184 49       		.uleb128 0x49
 2666 0185 13       		.uleb128 0x13
 2667 0186 02       		.uleb128 0x2
 2668 0187 17       		.uleb128 0x17
 2669 0188 00       		.byte	0
 2670 0189 00       		.byte	0
 2671 018a 20       		.uleb128 0x20
 2672 018b 34       		.uleb128 0x34
 2673 018c 00       		.byte	0
 2674 018d 03       		.uleb128 0x3
 2675 018e 0E       		.uleb128 0xe
 2676 018f 49       		.uleb128 0x49
 2677 0190 13       		.uleb128 0x13
 2678 0191 34       		.uleb128 0x34
 2679 0192 19       		.uleb128 0x19
ARM GAS  /tmp/cc68Sr28.s 			page 48


 2680 0193 00       		.byte	0
 2681 0194 00       		.byte	0
 2682 0195 21       		.uleb128 0x21
 2683 0196 34       		.uleb128 0x34
 2684 0197 00       		.byte	0
 2685 0198 03       		.uleb128 0x3
 2686 0199 0E       		.uleb128 0xe
 2687 019a 3A       		.uleb128 0x3a
 2688 019b 0B       		.uleb128 0xb
 2689 019c 3B       		.uleb128 0x3b
 2690 019d 0B       		.uleb128 0xb
 2691 019e 49       		.uleb128 0x49
 2692 019f 13       		.uleb128 0x13
 2693 01a0 00       		.byte	0
 2694 01a1 00       		.byte	0
 2695 01a2 22       		.uleb128 0x22
 2696 01a3 34       		.uleb128 0x34
 2697 01a4 00       		.byte	0
 2698 01a5 03       		.uleb128 0x3
 2699 01a6 0E       		.uleb128 0xe
 2700 01a7 3A       		.uleb128 0x3a
 2701 01a8 0B       		.uleb128 0xb
 2702 01a9 3B       		.uleb128 0x3b
 2703 01aa 0B       		.uleb128 0xb
 2704 01ab 49       		.uleb128 0x49
 2705 01ac 13       		.uleb128 0x13
 2706 01ad 02       		.uleb128 0x2
 2707 01ae 17       		.uleb128 0x17
 2708 01af 00       		.byte	0
 2709 01b0 00       		.byte	0
 2710 01b1 23       		.uleb128 0x23
 2711 01b2 1D       		.uleb128 0x1d
 2712 01b3 01       		.byte	0x1
 2713 01b4 31       		.uleb128 0x31
 2714 01b5 13       		.uleb128 0x13
 2715 01b6 11       		.uleb128 0x11
 2716 01b7 01       		.uleb128 0x1
 2717 01b8 12       		.uleb128 0x12
 2718 01b9 06       		.uleb128 0x6
 2719 01ba 58       		.uleb128 0x58
 2720 01bb 0B       		.uleb128 0xb
 2721 01bc 59       		.uleb128 0x59
 2722 01bd 0B       		.uleb128 0xb
 2723 01be 01       		.uleb128 0x1
 2724 01bf 13       		.uleb128 0x13
 2725 01c0 00       		.byte	0
 2726 01c1 00       		.byte	0
 2727 01c2 24       		.uleb128 0x24
 2728 01c3 898201   		.uleb128 0x4109
 2729 01c6 00       		.byte	0
 2730 01c7 11       		.uleb128 0x11
 2731 01c8 01       		.uleb128 0x1
 2732 01c9 9542     		.uleb128 0x2115
 2733 01cb 19       		.uleb128 0x19
 2734 01cc 31       		.uleb128 0x31
 2735 01cd 13       		.uleb128 0x13
 2736 01ce 00       		.byte	0
ARM GAS  /tmp/cc68Sr28.s 			page 49


 2737 01cf 00       		.byte	0
 2738 01d0 25       		.uleb128 0x25
 2739 01d1 1D       		.uleb128 0x1d
 2740 01d2 01       		.byte	0x1
 2741 01d3 31       		.uleb128 0x31
 2742 01d4 13       		.uleb128 0x13
 2743 01d5 11       		.uleb128 0x11
 2744 01d6 01       		.uleb128 0x1
 2745 01d7 12       		.uleb128 0x12
 2746 01d8 06       		.uleb128 0x6
 2747 01d9 58       		.uleb128 0x58
 2748 01da 0B       		.uleb128 0xb
 2749 01db 59       		.uleb128 0x59
 2750 01dc 05       		.uleb128 0x5
 2751 01dd 01       		.uleb128 0x1
 2752 01de 13       		.uleb128 0x13
 2753 01df 00       		.byte	0
 2754 01e0 00       		.byte	0
 2755 01e1 26       		.uleb128 0x26
 2756 01e2 1D       		.uleb128 0x1d
 2757 01e3 01       		.byte	0x1
 2758 01e4 31       		.uleb128 0x31
 2759 01e5 13       		.uleb128 0x13
 2760 01e6 11       		.uleb128 0x11
 2761 01e7 01       		.uleb128 0x1
 2762 01e8 12       		.uleb128 0x12
 2763 01e9 06       		.uleb128 0x6
 2764 01ea 58       		.uleb128 0x58
 2765 01eb 0B       		.uleb128 0xb
 2766 01ec 59       		.uleb128 0x59
 2767 01ed 0B       		.uleb128 0xb
 2768 01ee 00       		.byte	0
 2769 01ef 00       		.byte	0
 2770 01f0 27       		.uleb128 0x27
 2771 01f1 1D       		.uleb128 0x1d
 2772 01f2 00       		.byte	0
 2773 01f3 31       		.uleb128 0x31
 2774 01f4 13       		.uleb128 0x13
 2775 01f5 11       		.uleb128 0x11
 2776 01f6 01       		.uleb128 0x1
 2777 01f7 12       		.uleb128 0x12
 2778 01f8 06       		.uleb128 0x6
 2779 01f9 58       		.uleb128 0x58
 2780 01fa 0B       		.uleb128 0xb
 2781 01fb 59       		.uleb128 0x59
 2782 01fc 0B       		.uleb128 0xb
 2783 01fd 00       		.byte	0
 2784 01fe 00       		.byte	0
 2785 01ff 28       		.uleb128 0x28
 2786 0200 05       		.uleb128 0x5
 2787 0201 00       		.byte	0
 2788 0202 31       		.uleb128 0x31
 2789 0203 13       		.uleb128 0x13
 2790 0204 00       		.byte	0
 2791 0205 00       		.byte	0
 2792 0206 29       		.uleb128 0x29
 2793 0207 05       		.uleb128 0x5
ARM GAS  /tmp/cc68Sr28.s 			page 50


 2794 0208 00       		.byte	0
 2795 0209 31       		.uleb128 0x31
 2796 020a 13       		.uleb128 0x13
 2797 020b 02       		.uleb128 0x2
 2798 020c 17       		.uleb128 0x17
 2799 020d 00       		.byte	0
 2800 020e 00       		.byte	0
 2801 020f 2A       		.uleb128 0x2a
 2802 0210 1D       		.uleb128 0x1d
 2803 0211 01       		.byte	0x1
 2804 0212 31       		.uleb128 0x31
 2805 0213 13       		.uleb128 0x13
 2806 0214 11       		.uleb128 0x11
 2807 0215 01       		.uleb128 0x1
 2808 0216 12       		.uleb128 0x12
 2809 0217 06       		.uleb128 0x6
 2810 0218 58       		.uleb128 0x58
 2811 0219 0B       		.uleb128 0xb
 2812 021a 59       		.uleb128 0x59
 2813 021b 05       		.uleb128 0x5
 2814 021c 00       		.byte	0
 2815 021d 00       		.byte	0
 2816 021e 2B       		.uleb128 0x2b
 2817 021f 05       		.uleb128 0x5
 2818 0220 00       		.byte	0
 2819 0221 03       		.uleb128 0x3
 2820 0222 0E       		.uleb128 0xe
 2821 0223 3A       		.uleb128 0x3a
 2822 0224 0B       		.uleb128 0xb
 2823 0225 3B       		.uleb128 0x3b
 2824 0226 0B       		.uleb128 0xb
 2825 0227 49       		.uleb128 0x49
 2826 0228 13       		.uleb128 0x13
 2827 0229 02       		.uleb128 0x2
 2828 022a 17       		.uleb128 0x17
 2829 022b 00       		.byte	0
 2830 022c 00       		.byte	0
 2831 022d 2C       		.uleb128 0x2c
 2832 022e 34       		.uleb128 0x34
 2833 022f 00       		.byte	0
 2834 0230 03       		.uleb128 0x3
 2835 0231 08       		.uleb128 0x8
 2836 0232 3A       		.uleb128 0x3a
 2837 0233 0B       		.uleb128 0xb
 2838 0234 3B       		.uleb128 0x3b
 2839 0235 0B       		.uleb128 0xb
 2840 0236 49       		.uleb128 0x49
 2841 0237 13       		.uleb128 0x13
 2842 0238 02       		.uleb128 0x2
 2843 0239 17       		.uleb128 0x17
 2844 023a 00       		.byte	0
 2845 023b 00       		.byte	0
 2846 023c 2D       		.uleb128 0x2d
 2847 023d 0B       		.uleb128 0xb
 2848 023e 01       		.byte	0x1
 2849 023f 55       		.uleb128 0x55
 2850 0240 17       		.uleb128 0x17
ARM GAS  /tmp/cc68Sr28.s 			page 51


 2851 0241 00       		.byte	0
 2852 0242 00       		.byte	0
 2853 0243 2E       		.uleb128 0x2e
 2854 0244 34       		.uleb128 0x34
 2855 0245 00       		.byte	0
 2856 0246 03       		.uleb128 0x3
 2857 0247 08       		.uleb128 0x8
 2858 0248 3A       		.uleb128 0x3a
 2859 0249 0B       		.uleb128 0xb
 2860 024a 3B       		.uleb128 0x3b
 2861 024b 0B       		.uleb128 0xb
 2862 024c 49       		.uleb128 0x49
 2863 024d 13       		.uleb128 0x13
 2864 024e 00       		.byte	0
 2865 024f 00       		.byte	0
 2866 0250 2F       		.uleb128 0x2f
 2867 0251 0B       		.uleb128 0xb
 2868 0252 01       		.byte	0x1
 2869 0253 11       		.uleb128 0x11
 2870 0254 01       		.uleb128 0x1
 2871 0255 12       		.uleb128 0x12
 2872 0256 06       		.uleb128 0x6
 2873 0257 01       		.uleb128 0x1
 2874 0258 13       		.uleb128 0x13
 2875 0259 00       		.byte	0
 2876 025a 00       		.byte	0
 2877 025b 30       		.uleb128 0x30
 2878 025c 898201   		.uleb128 0x4109
 2879 025f 00       		.byte	0
 2880 0260 11       		.uleb128 0x11
 2881 0261 01       		.uleb128 0x1
 2882 0262 31       		.uleb128 0x31
 2883 0263 13       		.uleb128 0x13
 2884 0264 00       		.byte	0
 2885 0265 00       		.byte	0
 2886 0266 31       		.uleb128 0x31
 2887 0267 1D       		.uleb128 0x1d
 2888 0268 01       		.byte	0x1
 2889 0269 31       		.uleb128 0x31
 2890 026a 13       		.uleb128 0x13
 2891 026b 52       		.uleb128 0x52
 2892 026c 01       		.uleb128 0x1
 2893 026d 55       		.uleb128 0x55
 2894 026e 17       		.uleb128 0x17
 2895 026f 58       		.uleb128 0x58
 2896 0270 0B       		.uleb128 0xb
 2897 0271 59       		.uleb128 0x59
 2898 0272 0B       		.uleb128 0xb
 2899 0273 01       		.uleb128 0x1
 2900 0274 13       		.uleb128 0x13
 2901 0275 00       		.byte	0
 2902 0276 00       		.byte	0
 2903 0277 32       		.uleb128 0x32
 2904 0278 1D       		.uleb128 0x1d
 2905 0279 01       		.byte	0x1
 2906 027a 31       		.uleb128 0x31
 2907 027b 13       		.uleb128 0x13
ARM GAS  /tmp/cc68Sr28.s 			page 52


 2908 027c 52       		.uleb128 0x52
 2909 027d 01       		.uleb128 0x1
 2910 027e 55       		.uleb128 0x55
 2911 027f 17       		.uleb128 0x17
 2912 0280 58       		.uleb128 0x58
 2913 0281 0B       		.uleb128 0xb
 2914 0282 59       		.uleb128 0x59
 2915 0283 0B       		.uleb128 0xb
 2916 0284 00       		.byte	0
 2917 0285 00       		.byte	0
 2918 0286 33       		.uleb128 0x33
 2919 0287 1D       		.uleb128 0x1d
 2920 0288 00       		.byte	0
 2921 0289 31       		.uleb128 0x31
 2922 028a 13       		.uleb128 0x13
 2923 028b 52       		.uleb128 0x52
 2924 028c 01       		.uleb128 0x1
 2925 028d 55       		.uleb128 0x55
 2926 028e 17       		.uleb128 0x17
 2927 028f 58       		.uleb128 0x58
 2928 0290 0B       		.uleb128 0xb
 2929 0291 59       		.uleb128 0x59
 2930 0292 0B       		.uleb128 0xb
 2931 0293 00       		.byte	0
 2932 0294 00       		.byte	0
 2933 0295 34       		.uleb128 0x34
 2934 0296 2E       		.uleb128 0x2e
 2935 0297 00       		.byte	0
 2936 0298 3F       		.uleb128 0x3f
 2937 0299 19       		.uleb128 0x19
 2938 029a 03       		.uleb128 0x3
 2939 029b 0E       		.uleb128 0xe
 2940 029c 3A       		.uleb128 0x3a
 2941 029d 0B       		.uleb128 0xb
 2942 029e 3B       		.uleb128 0x3b
 2943 029f 0B       		.uleb128 0xb
 2944 02a0 27       		.uleb128 0x27
 2945 02a1 19       		.uleb128 0x19
 2946 02a2 11       		.uleb128 0x11
 2947 02a3 01       		.uleb128 0x1
 2948 02a4 12       		.uleb128 0x12
 2949 02a5 06       		.uleb128 0x6
 2950 02a6 40       		.uleb128 0x40
 2951 02a7 18       		.uleb128 0x18
 2952 02a8 9742     		.uleb128 0x2117
 2953 02aa 19       		.uleb128 0x19
 2954 02ab 00       		.byte	0
 2955 02ac 00       		.byte	0
 2956 02ad 35       		.uleb128 0x35
 2957 02ae 2E       		.uleb128 0x2e
 2958 02af 00       		.byte	0
 2959 02b0 03       		.uleb128 0x3
 2960 02b1 0E       		.uleb128 0xe
 2961 02b2 3A       		.uleb128 0x3a
 2962 02b3 0B       		.uleb128 0xb
 2963 02b4 3B       		.uleb128 0x3b
 2964 02b5 0B       		.uleb128 0xb
ARM GAS  /tmp/cc68Sr28.s 			page 53


 2965 02b6 27       		.uleb128 0x27
 2966 02b7 19       		.uleb128 0x19
 2967 02b8 49       		.uleb128 0x49
 2968 02b9 13       		.uleb128 0x13
 2969 02ba 20       		.uleb128 0x20
 2970 02bb 0B       		.uleb128 0xb
 2971 02bc 00       		.byte	0
 2972 02bd 00       		.byte	0
 2973 02be 36       		.uleb128 0x36
 2974 02bf 2E       		.uleb128 0x2e
 2975 02c0 01       		.byte	0x1
 2976 02c1 03       		.uleb128 0x3
 2977 02c2 0E       		.uleb128 0xe
 2978 02c3 3A       		.uleb128 0x3a
 2979 02c4 0B       		.uleb128 0xb
 2980 02c5 3B       		.uleb128 0x3b
 2981 02c6 0B       		.uleb128 0xb
 2982 02c7 27       		.uleb128 0x27
 2983 02c8 19       		.uleb128 0x19
 2984 02c9 20       		.uleb128 0x20
 2985 02ca 0B       		.uleb128 0xb
 2986 02cb 01       		.uleb128 0x1
 2987 02cc 13       		.uleb128 0x13
 2988 02cd 00       		.byte	0
 2989 02ce 00       		.byte	0
 2990 02cf 37       		.uleb128 0x37
 2991 02d0 05       		.uleb128 0x5
 2992 02d1 00       		.byte	0
 2993 02d2 03       		.uleb128 0x3
 2994 02d3 0E       		.uleb128 0xe
 2995 02d4 3A       		.uleb128 0x3a
 2996 02d5 0B       		.uleb128 0xb
 2997 02d6 3B       		.uleb128 0x3b
 2998 02d7 0B       		.uleb128 0xb
 2999 02d8 49       		.uleb128 0x49
 3000 02d9 13       		.uleb128 0x13
 3001 02da 00       		.byte	0
 3002 02db 00       		.byte	0
 3003 02dc 38       		.uleb128 0x38
 3004 02dd 2E       		.uleb128 0x2e
 3005 02de 00       		.byte	0
 3006 02df 03       		.uleb128 0x3
 3007 02e0 0E       		.uleb128 0xe
 3008 02e1 3A       		.uleb128 0x3a
 3009 02e2 0B       		.uleb128 0xb
 3010 02e3 3B       		.uleb128 0x3b
 3011 02e4 0B       		.uleb128 0xb
 3012 02e5 27       		.uleb128 0x27
 3013 02e6 19       		.uleb128 0x19
 3014 02e7 20       		.uleb128 0x20
 3015 02e8 0B       		.uleb128 0xb
 3016 02e9 00       		.byte	0
 3017 02ea 00       		.byte	0
 3018 02eb 39       		.uleb128 0x39
 3019 02ec 2E       		.uleb128 0x2e
 3020 02ed 01       		.byte	0x1
 3021 02ee 03       		.uleb128 0x3
ARM GAS  /tmp/cc68Sr28.s 			page 54


 3022 02ef 0E       		.uleb128 0xe
 3023 02f0 3A       		.uleb128 0x3a
 3024 02f1 0B       		.uleb128 0xb
 3025 02f2 3B       		.uleb128 0x3b
 3026 02f3 05       		.uleb128 0x5
 3027 02f4 27       		.uleb128 0x27
 3028 02f5 19       		.uleb128 0x19
 3029 02f6 49       		.uleb128 0x49
 3030 02f7 13       		.uleb128 0x13
 3031 02f8 20       		.uleb128 0x20
 3032 02f9 0B       		.uleb128 0xb
 3033 02fa 01       		.uleb128 0x1
 3034 02fb 13       		.uleb128 0x13
 3035 02fc 00       		.byte	0
 3036 02fd 00       		.byte	0
 3037 02fe 3A       		.uleb128 0x3a
 3038 02ff 05       		.uleb128 0x5
 3039 0300 00       		.byte	0
 3040 0301 03       		.uleb128 0x3
 3041 0302 0E       		.uleb128 0xe
 3042 0303 3A       		.uleb128 0x3a
 3043 0304 0B       		.uleb128 0xb
 3044 0305 3B       		.uleb128 0x3b
 3045 0306 05       		.uleb128 0x5
 3046 0307 49       		.uleb128 0x49
 3047 0308 13       		.uleb128 0x13
 3048 0309 00       		.byte	0
 3049 030a 00       		.byte	0
 3050 030b 3B       		.uleb128 0x3b
 3051 030c 05       		.uleb128 0x5
 3052 030d 00       		.byte	0
 3053 030e 03       		.uleb128 0x3
 3054 030f 08       		.uleb128 0x8
 3055 0310 3A       		.uleb128 0x3a
 3056 0311 0B       		.uleb128 0xb
 3057 0312 3B       		.uleb128 0x3b
 3058 0313 05       		.uleb128 0x5
 3059 0314 49       		.uleb128 0x49
 3060 0315 13       		.uleb128 0x13
 3061 0316 00       		.byte	0
 3062 0317 00       		.byte	0
 3063 0318 3C       		.uleb128 0x3c
 3064 0319 2E       		.uleb128 0x2e
 3065 031a 00       		.byte	0
 3066 031b 3F       		.uleb128 0x3f
 3067 031c 19       		.uleb128 0x19
 3068 031d 3C       		.uleb128 0x3c
 3069 031e 19       		.uleb128 0x19
 3070 031f 6E       		.uleb128 0x6e
 3071 0320 0E       		.uleb128 0xe
 3072 0321 03       		.uleb128 0x3
 3073 0322 0E       		.uleb128 0xe
 3074 0323 3A       		.uleb128 0x3a
 3075 0324 0B       		.uleb128 0xb
 3076 0325 3B       		.uleb128 0x3b
 3077 0326 0B       		.uleb128 0xb
 3078 0327 00       		.byte	0
ARM GAS  /tmp/cc68Sr28.s 			page 55


 3079 0328 00       		.byte	0
 3080 0329 00       		.byte	0
 3081              		.section	.debug_loc,"",%progbits
 3082              	.Ldebug_loc0:
 3083              	.LLST9:
 3084 0000 00000000 		.4byte	.LVL17
 3085 0004 2A000000 		.4byte	.LVL18
 3086 0008 0100     		.2byte	0x1
 3087 000a 50       		.byte	0x50
 3088 000b 2A000000 		.4byte	.LVL18
 3089 000f 30000000 		.4byte	.LVL19
 3090 0013 0400     		.2byte	0x4
 3091 0015 F3       		.byte	0xf3
 3092 0016 01       		.uleb128 0x1
 3093 0017 50       		.byte	0x50
 3094 0018 9F       		.byte	0x9f
 3095 0019 30000000 		.4byte	.LVL19
 3096 001d 34000000 		.4byte	.LVL20
 3097 0021 0100     		.2byte	0x1
 3098 0023 50       		.byte	0x50
 3099 0024 34000000 		.4byte	.LVL20
 3100 0028 74000000 		.4byte	.LFE303
 3101 002c 0400     		.2byte	0x4
 3102 002e F3       		.byte	0xf3
 3103 002f 01       		.uleb128 0x1
 3104 0030 50       		.byte	0x50
 3105 0031 9F       		.byte	0x9f
 3106 0032 00000000 		.4byte	0
 3107 0036 00000000 		.4byte	0
 3108              	.LLST10:
 3109 003a 5C000000 		.4byte	.LVL24
 3110 003e 5E000000 		.4byte	.LVL25
 3111 0042 0600     		.2byte	0x6
 3112 0044 73       		.byte	0x73
 3113 0045 00       		.sleb128 0
 3114 0046 72       		.byte	0x72
 3115 0047 00       		.sleb128 0
 3116 0048 1C       		.byte	0x1c
 3117 0049 9F       		.byte	0x9f
 3118 004a 5E000000 		.4byte	.LVL25
 3119 004e 68000000 		.4byte	.LVL26
 3120 0052 0100     		.2byte	0x1
 3121 0054 51       		.byte	0x51
 3122 0055 68000000 		.4byte	.LVL26
 3123 0059 6D000000 		.4byte	.LVL27-1
 3124 005d 0100     		.2byte	0x1
 3125 005f 53       		.byte	0x53
 3126 0060 00000000 		.4byte	0
 3127 0064 00000000 		.4byte	0
 3128              	.LLST11:
 3129 0068 56000000 		.4byte	.LVL22
 3130 006c 58000000 		.4byte	.LVL23
 3131 0070 0100     		.2byte	0x1
 3132 0072 50       		.byte	0x50
 3133 0073 00000000 		.4byte	0
 3134 0077 00000000 		.4byte	0
 3135              	.LLST0:
ARM GAS  /tmp/cc68Sr28.s 			page 56


 3136 007b 00000000 		.4byte	.LVL0
 3137 007f 30000000 		.4byte	.LVL4
 3138 0083 0100     		.2byte	0x1
 3139 0085 50       		.byte	0x50
 3140 0086 30000000 		.4byte	.LVL4
 3141 008a 34000000 		.4byte	.LVL5
 3142 008e 0100     		.2byte	0x1
 3143 0090 56       		.byte	0x56
 3144 0091 34000000 		.4byte	.LVL5
 3145 0095 37000000 		.4byte	.LVL6-1
 3146 0099 0200     		.2byte	0x2
 3147 009b 72       		.byte	0x72
 3148 009c 00       		.sleb128 0
 3149 009d 37000000 		.4byte	.LVL6-1
 3150 00a1 38000000 		.4byte	.LVL6
 3151 00a5 0400     		.2byte	0x4
 3152 00a7 F3       		.byte	0xf3
 3153 00a8 01       		.uleb128 0x1
 3154 00a9 50       		.byte	0x50
 3155 00aa 9F       		.byte	0x9f
 3156 00ab 38000000 		.4byte	.LVL6
 3157 00af 3A000000 		.4byte	.LVL7
 3158 00b3 0100     		.2byte	0x1
 3159 00b5 50       		.byte	0x50
 3160 00b6 3A000000 		.4byte	.LVL7
 3161 00ba 72000000 		.4byte	.LVL16
 3162 00be 0100     		.2byte	0x1
 3163 00c0 56       		.byte	0x56
 3164 00c1 72000000 		.4byte	.LVL16
 3165 00c5 78000000 		.4byte	.LFE302
 3166 00c9 0400     		.2byte	0x4
 3167 00cb F3       		.byte	0xf3
 3168 00cc 01       		.uleb128 0x1
 3169 00cd 50       		.byte	0x50
 3170 00ce 9F       		.byte	0x9f
 3171 00cf 00000000 		.4byte	0
 3172 00d3 00000000 		.4byte	0
 3173              	.LLST1:
 3174 00d7 00000000 		.4byte	.LVL0
 3175 00db 16000000 		.4byte	.LVL2
 3176 00df 0100     		.2byte	0x1
 3177 00e1 51       		.byte	0x51
 3178 00e2 16000000 		.4byte	.LVL2
 3179 00e6 37000000 		.4byte	.LVL6-1
 3180 00ea 0100     		.2byte	0x1
 3181 00ec 51       		.byte	0x51
 3182 00ed 37000000 		.4byte	.LVL6-1
 3183 00f1 38000000 		.4byte	.LVL6
 3184 00f5 1700     		.2byte	0x17
 3185 00f7 32       		.byte	0x32
 3186 00f8 F3       		.byte	0xf3
 3187 00f9 01       		.uleb128 0x1
 3188 00fa 51       		.byte	0x51
 3189 00fb F3       		.byte	0xf3
 3190 00fc 01       		.uleb128 0x1
 3191 00fd 51       		.byte	0x51
 3192 00fe 40       		.byte	0x40
ARM GAS  /tmp/cc68Sr28.s 			page 57


 3193 00ff 4B       		.byte	0x4b
 3194 0100 24       		.byte	0x24
 3195 0101 22       		.byte	0x22
 3196 0102 0C       		.byte	0xc
 3197 0103 02000080 		.4byte	0x80000002
 3198 0107 2D       		.byte	0x2d
 3199 0108 28       		.byte	0x28
 3200 0109 0100     		.2byte	0x1
 3201 010b 16       		.byte	0x16
 3202 010c 13       		.byte	0x13
 3203 010d 9F       		.byte	0x9f
 3204 010e 38000000 		.4byte	.LVL6
 3205 0112 42000000 		.4byte	.LVL10
 3206 0116 0100     		.2byte	0x1
 3207 0118 51       		.byte	0x51
 3208 0119 42000000 		.4byte	.LVL10
 3209 011d 48000000 		.4byte	.LVL13
 3210 0121 1700     		.2byte	0x17
 3211 0123 32       		.byte	0x32
 3212 0124 F3       		.byte	0xf3
 3213 0125 01       		.uleb128 0x1
 3214 0126 51       		.byte	0x51
 3215 0127 F3       		.byte	0xf3
 3216 0128 01       		.uleb128 0x1
 3217 0129 51       		.byte	0x51
 3218 012a 40       		.byte	0x40
 3219 012b 4B       		.byte	0x4b
 3220 012c 24       		.byte	0x24
 3221 012d 22       		.byte	0x22
 3222 012e 0C       		.byte	0xc
 3223 012f 02000080 		.4byte	0x80000002
 3224 0133 2D       		.byte	0x2d
 3225 0134 28       		.byte	0x28
 3226 0135 0100     		.2byte	0x1
 3227 0137 16       		.byte	0x16
 3228 0138 13       		.byte	0x13
 3229 0139 9F       		.byte	0x9f
 3230 013a 48000000 		.4byte	.LVL13
 3231 013e 51000000 		.4byte	.LVL15-1
 3232 0142 0100     		.2byte	0x1
 3233 0144 51       		.byte	0x51
 3234 0145 51000000 		.4byte	.LVL15-1
 3235 0149 78000000 		.4byte	.LFE302
 3236 014d 1700     		.2byte	0x17
 3237 014f 32       		.byte	0x32
 3238 0150 F3       		.byte	0xf3
 3239 0151 01       		.uleb128 0x1
 3240 0152 51       		.byte	0x51
 3241 0153 F3       		.byte	0xf3
 3242 0154 01       		.uleb128 0x1
 3243 0155 51       		.byte	0x51
 3244 0156 40       		.byte	0x40
 3245 0157 4B       		.byte	0x4b
 3246 0158 24       		.byte	0x24
 3247 0159 22       		.byte	0x22
 3248 015a 0C       		.byte	0xc
 3249 015b 02000080 		.4byte	0x80000002
ARM GAS  /tmp/cc68Sr28.s 			page 58


 3250 015f 2D       		.byte	0x2d
 3251 0160 28       		.byte	0x28
 3252 0161 0100     		.2byte	0x1
 3253 0163 16       		.byte	0x16
 3254 0164 13       		.byte	0x13
 3255 0165 9F       		.byte	0x9f
 3256 0166 00000000 		.4byte	0
 3257 016a 00000000 		.4byte	0
 3258              	.LLST2:
 3259 016e 00000000 		.4byte	.LVL0
 3260 0172 18000000 		.4byte	.LVL3
 3261 0176 0100     		.2byte	0x1
 3262 0178 52       		.byte	0x52
 3263 0179 18000000 		.4byte	.LVL3
 3264 017d 30000000 		.4byte	.LVL4
 3265 0181 0200     		.2byte	0x2
 3266 0183 70       		.byte	0x70
 3267 0184 0C       		.sleb128 12
 3268 0185 30000000 		.4byte	.LVL4
 3269 0189 34000000 		.4byte	.LVL5
 3270 018d 0200     		.2byte	0x2
 3271 018f 76       		.byte	0x76
 3272 0190 0C       		.sleb128 12
 3273 0191 34000000 		.4byte	.LVL5
 3274 0195 37000000 		.4byte	.LVL6-1
 3275 0199 0500     		.2byte	0x5
 3276 019b 72       		.byte	0x72
 3277 019c 00       		.sleb128 0
 3278 019d 06       		.byte	0x6
 3279 019e 23       		.byte	0x23
 3280 019f 0C       		.uleb128 0xc
 3281 01a0 37000000 		.4byte	.LVL6-1
 3282 01a4 38000000 		.4byte	.LVL6
 3283 01a8 0400     		.2byte	0x4
 3284 01aa F3       		.byte	0xf3
 3285 01ab 01       		.uleb128 0x1
 3286 01ac 52       		.byte	0x52
 3287 01ad 9F       		.byte	0x9f
 3288 01ae 38000000 		.4byte	.LVL6
 3289 01b2 3A000000 		.4byte	.LVL7
 3290 01b6 0200     		.2byte	0x2
 3291 01b8 70       		.byte	0x70
 3292 01b9 0C       		.sleb128 12
 3293 01ba 3A000000 		.4byte	.LVL7
 3294 01be 42000000 		.4byte	.LVL10
 3295 01c2 0200     		.2byte	0x2
 3296 01c4 76       		.byte	0x76
 3297 01c5 0C       		.sleb128 12
 3298 01c6 42000000 		.4byte	.LVL10
 3299 01ca 48000000 		.4byte	.LVL13
 3300 01ce 0400     		.2byte	0x4
 3301 01d0 F3       		.byte	0xf3
 3302 01d1 01       		.uleb128 0x1
 3303 01d2 52       		.byte	0x52
 3304 01d3 9F       		.byte	0x9f
 3305 01d4 48000000 		.4byte	.LVL13
 3306 01d8 51000000 		.4byte	.LVL15-1
ARM GAS  /tmp/cc68Sr28.s 			page 59


 3307 01dc 0200     		.2byte	0x2
 3308 01de 76       		.byte	0x76
 3309 01df 0C       		.sleb128 12
 3310 01e0 51000000 		.4byte	.LVL15-1
 3311 01e4 78000000 		.4byte	.LFE302
 3312 01e8 0400     		.2byte	0x4
 3313 01ea F3       		.byte	0xf3
 3314 01eb 01       		.uleb128 0x1
 3315 01ec 52       		.byte	0x52
 3316 01ed 9F       		.byte	0x9f
 3317 01ee 00000000 		.4byte	0
 3318 01f2 00000000 		.4byte	0
 3319              	.LLST3:
 3320 01f6 00000000 		.4byte	.LVL0
 3321 01fa 08000000 		.4byte	.LVL1
 3322 01fe 0100     		.2byte	0x1
 3323 0200 53       		.byte	0x53
 3324 0201 08000000 		.4byte	.LVL1
 3325 0205 30000000 		.4byte	.LVL4
 3326 0209 0200     		.2byte	0x2
 3327 020b 70       		.byte	0x70
 3328 020c 10       		.sleb128 16
 3329 020d 30000000 		.4byte	.LVL4
 3330 0211 34000000 		.4byte	.LVL5
 3331 0215 0200     		.2byte	0x2
 3332 0217 76       		.byte	0x76
 3333 0218 10       		.sleb128 16
 3334 0219 34000000 		.4byte	.LVL5
 3335 021d 37000000 		.4byte	.LVL6-1
 3336 0221 0500     		.2byte	0x5
 3337 0223 72       		.byte	0x72
 3338 0224 00       		.sleb128 0
 3339 0225 06       		.byte	0x6
 3340 0226 23       		.byte	0x23
 3341 0227 10       		.uleb128 0x10
 3342 0228 37000000 		.4byte	.LVL6-1
 3343 022c 38000000 		.4byte	.LVL6
 3344 0230 0400     		.2byte	0x4
 3345 0232 F3       		.byte	0xf3
 3346 0233 01       		.uleb128 0x1
 3347 0234 53       		.byte	0x53
 3348 0235 9F       		.byte	0x9f
 3349 0236 38000000 		.4byte	.LVL6
 3350 023a 3A000000 		.4byte	.LVL7
 3351 023e 0200     		.2byte	0x2
 3352 0240 70       		.byte	0x70
 3353 0241 10       		.sleb128 16
 3354 0242 3A000000 		.4byte	.LVL7
 3355 0246 42000000 		.4byte	.LVL10
 3356 024a 0200     		.2byte	0x2
 3357 024c 76       		.byte	0x76
 3358 024d 10       		.sleb128 16
 3359 024e 42000000 		.4byte	.LVL10
 3360 0252 48000000 		.4byte	.LVL13
 3361 0256 0400     		.2byte	0x4
 3362 0258 F3       		.byte	0xf3
 3363 0259 01       		.uleb128 0x1
ARM GAS  /tmp/cc68Sr28.s 			page 60


 3364 025a 53       		.byte	0x53
 3365 025b 9F       		.byte	0x9f
 3366 025c 48000000 		.4byte	.LVL13
 3367 0260 51000000 		.4byte	.LVL15-1
 3368 0264 0200     		.2byte	0x2
 3369 0266 76       		.byte	0x76
 3370 0267 10       		.sleb128 16
 3371 0268 51000000 		.4byte	.LVL15-1
 3372 026c 78000000 		.4byte	.LFE302
 3373 0270 0400     		.2byte	0x4
 3374 0272 F3       		.byte	0xf3
 3375 0273 01       		.uleb128 0x1
 3376 0274 53       		.byte	0x53
 3377 0275 9F       		.byte	0x9f
 3378 0276 00000000 		.4byte	0
 3379 027a 00000000 		.4byte	0
 3380              	.LLST4:
 3381 027e 38000000 		.4byte	.LVL6
 3382 0282 72000000 		.4byte	.LVL16
 3383 0286 0100     		.2byte	0x1
 3384 0288 55       		.byte	0x55
 3385 0289 00000000 		.4byte	0
 3386 028d 00000000 		.4byte	0
 3387              	.LLST5:
 3388 0291 3E000000 		.4byte	.LVL8
 3389 0295 40000000 		.4byte	.LVL9
 3390 0299 0600     		.2byte	0x6
 3391 029b 71       		.byte	0x71
 3392 029c 00       		.sleb128 0
 3393 029d 74       		.byte	0x74
 3394 029e 00       		.sleb128 0
 3395 029f 22       		.byte	0x22
 3396 02a0 9F       		.byte	0x9f
 3397 02a1 40000000 		.4byte	.LVL9
 3398 02a5 72000000 		.4byte	.LVL16
 3399 02a9 0100     		.2byte	0x1
 3400 02ab 54       		.byte	0x54
 3401 02ac 00000000 		.4byte	0
 3402 02b0 00000000 		.4byte	0
 3403              	.LLST8:
 3404 02b4 4C000000 		.4byte	.LVL14
 3405 02b8 52000000 		.4byte	.LVL15
 3406 02bc 0100     		.2byte	0x1
 3407 02be 54       		.byte	0x54
 3408 02bf 00000000 		.4byte	0
 3409 02c3 00000000 		.4byte	0
 3410              	.LLST6:
 3411 02c7 3A000000 		.4byte	.LVL7
 3412 02cb 3E000000 		.4byte	.LVL8
 3413 02cf 0100     		.2byte	0x1
 3414 02d1 54       		.byte	0x54
 3415 02d2 00000000 		.4byte	0
 3416 02d6 00000000 		.4byte	0
 3417              	.LLST7:
 3418 02da 3A000000 		.4byte	.LVL7
 3419 02de 3E000000 		.4byte	.LVL8
 3420 02e2 0100     		.2byte	0x1
ARM GAS  /tmp/cc68Sr28.s 			page 61


 3421 02e4 50       		.byte	0x50
 3422 02e5 00000000 		.4byte	0
 3423 02e9 00000000 		.4byte	0
 3424              		.section	.debug_aranges,"",%progbits
 3425 0000 2C000000 		.4byte	0x2c
 3426 0004 0200     		.2byte	0x2
 3427 0006 00000000 		.4byte	.Ldebug_info0
 3428 000a 04       		.byte	0x4
 3429 000b 00       		.byte	0
 3430 000c 0000     		.2byte	0
 3431 000e 0000     		.2byte	0
 3432 0010 00000000 		.4byte	.LFB301
 3433 0014 1C000000 		.4byte	.LFE301-.LFB301
 3434 0018 00000000 		.4byte	.LFB302
 3435 001c 78000000 		.4byte	.LFE302-.LFB302
 3436 0020 00000000 		.4byte	.LFB303
 3437 0024 74000000 		.4byte	.LFE303-.LFB303
 3438 0028 00000000 		.4byte	0
 3439 002c 00000000 		.4byte	0
 3440              		.section	.debug_ranges,"",%progbits
 3441              	.Ldebug_ranges0:
 3442 0000 04000000 		.4byte	.LBB40
 3443 0004 08000000 		.4byte	.LBE40
 3444 0008 0C000000 		.4byte	.LBB58
 3445 000c 0E000000 		.4byte	.LBE58
 3446 0010 10000000 		.4byte	.LBB59
 3447 0014 30000000 		.4byte	.LBE59
 3448 0018 34000000 		.4byte	.LBB60
 3449 001c 42000000 		.4byte	.LBE60
 3450 0020 48000000 		.4byte	.LBB61
 3451 0024 52000000 		.4byte	.LBE61
 3452 0028 00000000 		.4byte	0
 3453 002c 00000000 		.4byte	0
 3454 0030 04000000 		.4byte	.LBB41
 3455 0034 08000000 		.4byte	.LBE41
 3456 0038 0C000000 		.4byte	.LBB48
 3457 003c 0E000000 		.4byte	.LBE48
 3458 0040 00000000 		.4byte	0
 3459 0044 00000000 		.4byte	0
 3460 0048 2E000000 		.4byte	.LBB49
 3461 004c 30000000 		.4byte	.LBE49
 3462 0050 34000000 		.4byte	.LBB52
 3463 0054 38000000 		.4byte	.LBE52
 3464 0058 00000000 		.4byte	0
 3465 005c 00000000 		.4byte	0
 3466 0060 00000000 		.4byte	.LFB301
 3467 0064 1C000000 		.4byte	.LFE301
 3468 0068 00000000 		.4byte	.LFB302
 3469 006c 78000000 		.4byte	.LFE302
 3470 0070 00000000 		.4byte	.LFB303
 3471 0074 74000000 		.4byte	.LFE303
 3472 0078 00000000 		.4byte	0
 3473 007c 00000000 		.4byte	0
 3474              		.section	.debug_line,"",%progbits
 3475              	.Ldebug_line0:
 3476 0000 CF040000 		.section	.debug_str,"MS",%progbits,1
 3476      0200E703 
ARM GAS  /tmp/cc68Sr28.s 			page 62


 3476      00000201 
 3476      FB0E0D00 
 3476      01010101 
 3477              	.LASF56:
 3478 0000 72656164 		.ascii	"ready_list_t\000"
 3478      795F6C69 
 3478      73745F74 
 3478      00
 3479              	.LASF88:
 3480 000d 44494552 		.ascii	"DIER\000"
 3480      00
 3481              	.LASF4:
 3482 0012 73697A65 		.ascii	"size_t\000"
 3482      5F7400
 3483              	.LASF52:
 3484 0019 6E657874 		.ascii	"next\000"
 3484      00
 3485              	.LASF62:
 3486 001e 64656C74 		.ascii	"delta\000"
 3486      6100
 3487              	.LASF109:
 3488 0024 7264796D 		.ascii	"rdymsg\000"
 3488      736700
 3489              	.LASF20:
 3490 002b 75696E74 		.ascii	"uint64_t\000"
 3490      36345F74 
 3490      00
 3491              	.LASF75:
 3492 0034 6B65726E 		.ascii	"kernel_stats\000"
 3492      656C5F73 
 3492      74617473 
 3492      00
 3493              	.LASF122:
 3494 0041 6964656E 		.ascii	"identifier\000"
 3494      74696669 
 3494      657200
 3495              	.LASF28:
 3496 004c 6576656E 		.ascii	"eventmask_t\000"
 3496      746D6173 
 3496      6B5F7400 
 3497              	.LASF5:
 3498 0058 5F5F7569 		.ascii	"__uint8_t\000"
 3498      6E74385F 
 3498      7400
 3499              	.LASF27:
 3500 0062 6D73675F 		.ascii	"msg_t\000"
 3500      7400
 3501              	.LASF55:
 3502 0068 70726576 		.ascii	"prev\000"
 3502      00
 3503              	.LASF86:
 3504 006d 706F7274 		.ascii	"port_intctx\000"
 3504      5F696E74 
 3504      63747800 
 3505              	.LASF54:
 3506 0079 63685F74 		.ascii	"ch_threads_queue\000"
 3506      68726561 
ARM GAS  /tmp/cc68Sr28.s 			page 63


 3506      64735F71 
 3506      75657565 
 3506      00
 3507              	.LASF67:
 3508 008a 73797374 		.ascii	"system_debug_t\000"
 3508      656D5F64 
 3508      65627567 
 3508      5F7400
 3509              	.LASF90:
 3510 0099 43434D52 		.ascii	"CCMR2\000"
 3510      3200
 3511              	.LASF152:
 3512 009f 70726F76 		.ascii	"provider\000"
 3512      69646572 
 3512      00
 3513              	.LASF162:
 3514 00a8 73656D5F 		.ascii	"sem_list\000"
 3514      6C697374 
 3514      00
 3515              	.LASF100:
 3516 00b1 776F7273 		.ascii	"worst\000"
 3516      7400
 3517              	.LASF103:
 3518 00b7 74696D65 		.ascii	"time_measurement_t\000"
 3518      5F6D6561 
 3518      73757265 
 3518      6D656E74 
 3518      5F7400
 3519              	.LASF15:
 3520 00ca 6C6F6E67 		.ascii	"long long unsigned int\000"
 3520      206C6F6E 
 3520      6720756E 
 3520      7369676E 
 3520      65642069 
 3521              	.LASF168:
 3522 00e1 63685654 		.ascii	"chVTDoResetI\000"
 3522      446F5265 
 3522      73657449 
 3522      00
 3523              	.LASF110:
 3524 00ee 65786974 		.ascii	"exitcode\000"
 3524      636F6465 
 3524      00
 3525              	.LASF74:
 3526 00f7 6D61696E 		.ascii	"mainthread\000"
 3526      74687265 
 3526      616400
 3527              	.LASF113:
 3528 0102 73656E74 		.ascii	"sentmsg\000"
 3528      6D736700 
 3529              	.LASF64:
 3530 010a 76697274 		.ascii	"virtual_timers_list_t\000"
 3530      75616C5F 
 3530      74696D65 
 3530      72735F6C 
 3530      6973745F 
 3531              	.LASF79:
ARM GAS  /tmp/cc68Sr28.s 			page 64


 3532 0120 49544D5F 		.ascii	"ITM_RxBuffer\000"
 3532      52784275 
 3532      66666572 
 3532      00
 3533              	.LASF63:
 3534 012d 66756E63 		.ascii	"func\000"
 3534      00
 3535              	.LASF92:
 3536 0132 42445452 		.ascii	"BDTR\000"
 3536      00
 3537              	.LASF22:
 3538 0137 72747469 		.ascii	"rttime_t\000"
 3538      6D655F74 
 3538      00
 3539              	.LASF89:
 3540 0140 43434D52 		.ascii	"CCMR1\000"
 3540      3100
 3541              	.LASF192:
 3542 0146 5F76745F 		.ascii	"_vt_init\000"
 3542      696E6974 
 3542      00
 3543              	.LASF94:
 3544 014f 43434D52 		.ascii	"CCMR3\000"
 3544      3300
 3545              	.LASF3:
 3546 0155 7369676E 		.ascii	"signed char\000"
 3546      65642063 
 3546      68617200 
 3547              	.LASF72:
 3548 0161 726C6973 		.ascii	"rlist\000"
 3548      7400
 3549              	.LASF181:
 3550 0167 73746172 		.ascii	"start\000"
 3550      7400
 3551              	.LASF73:
 3552 016d 76746C69 		.ascii	"vtlist\000"
 3552      737400
 3553              	.LASF191:
 3554 0174 2F686F6D 		.ascii	"/home/incsl/ardupilot/build/CUAVv5\000"
 3554      652F696E 
 3554      63736C2F 
 3554      61726475 
 3554      70696C6F 
 3555              	.LASF42:
 3556 0197 6D736771 		.ascii	"msgqueue\000"
 3556      75657565 
 3556      00
 3557              	.LASF38:
 3558 01a0 73746174 		.ascii	"state\000"
 3558      6500
 3559              	.LASF11:
 3560 01a6 6C6F6E67 		.ascii	"long int\000"
 3560      20696E74 
 3560      00
 3561              	.LASF23:
 3562 01af 746D6F64 		.ascii	"tmode_t\000"
 3562      655F7400 
ARM GAS  /tmp/cc68Sr28.s 			page 65


 3563              	.LASF24:
 3564 01b7 74737461 		.ascii	"tstate_t\000"
 3564      74655F74 
 3564      00
 3565              	.LASF0:
 3566 01c0 756E7369 		.ascii	"unsigned int\000"
 3566      676E6564 
 3566      20696E74 
 3566      00
 3567              	.LASF47:
 3568 01cd 73746174 		.ascii	"stats\000"
 3568      7300
 3569              	.LASF138:
 3570 01d3 6F66665F 		.ascii	"off_preempt\000"
 3570      70726565 
 3570      6D707400 
 3571              	.LASF35:
 3572 01df 6F6C6465 		.ascii	"older\000"
 3572      7200
 3573              	.LASF137:
 3574 01e5 6F66665F 		.ascii	"off_refs\000"
 3574      72656673 
 3574      00
 3575              	.LASF185:
 3576 01ee 696E7465 		.ascii	"interval\000"
 3576      7276616C 
 3576      00
 3577              	.LASF134:
 3578 01f7 6F66665F 		.ascii	"off_stklimit\000"
 3578      73746B6C 
 3578      696D6974 
 3578      00
 3579              	.LASF12:
 3580 0204 5F5F7569 		.ascii	"__uint32_t\000"
 3580      6E743332 
 3580      5F7400
 3581              	.LASF83:
 3582 020f 72656761 		.ascii	"regarm_t\000"
 3582      726D5F74 
 3582      00
 3583              	.LASF164:
 3584 0218 6D62785F 		.ascii	"mbx_list\000"
 3584      6C697374 
 3584      00
 3585              	.LASF68:
 3586 0221 63685F73 		.ascii	"ch_system_debug\000"
 3586      79737465 
 3586      6D5F6465 
 3586      62756700 
 3587              	.LASF41:
 3588 0231 77616974 		.ascii	"waiting\000"
 3588      696E6700 
 3589              	.LASF82:
 3590 0239 41504250 		.ascii	"APBPrescTable\000"
 3590      72657363 
 3590      5461626C 
 3590      6500
ARM GAS  /tmp/cc68Sr28.s 			page 66


 3591              	.LASF123:
 3592 0247 7A65726F 		.ascii	"zero\000"
 3592      00
 3593              	.LASF1:
 3594 024c 6C6F6E67 		.ascii	"long long int\000"
 3594      206C6F6E 
 3594      6720696E 
 3594      7400
 3595              	.LASF151:
 3596 025a 616C6967 		.ascii	"align\000"
 3596      6E00
 3597              	.LASF77:
 3598 0260 73797369 		.ascii	"sysinterval_t\000"
 3598      6E746572 
 3598      76616C5F 
 3598      7400
 3599              	.LASF29:
 3600 026e 636E745F 		.ascii	"cnt_t\000"
 3600      7400
 3601              	.LASF175:
 3602 0274 63685654 		.ascii	"chVTGetSystemTimeX\000"
 3602      47657453 
 3602      79737465 
 3602      6D54696D 
 3602      655800
 3603              	.LASF173:
 3604 0287 6E6F7764 		.ascii	"nowdelta\000"
 3604      656C7461 
 3604      00
 3605              	.LASF174:
 3606 0290 64656164 		.ascii	"deadline_delta\000"
 3606      6C696E65 
 3606      5F64656C 
 3606      746100
 3607              	.LASF17:
 3608 029f 75696E74 		.ascii	"uint16_t\000"
 3608      31365F74 
 3608      00
 3609              	.LASF80:
 3610 02a8 53797374 		.ascii	"SystemCoreClock\000"
 3610      656D436F 
 3610      7265436C 
 3610      6F636B00 
 3611              	.LASF114:
 3612 02b8 77747365 		.ascii	"wtsemp\000"
 3612      6D7000
 3613              	.LASF112:
 3614 02bf 77747472 		.ascii	"wttrp\000"
 3614      7000
 3615              	.LASF141:
 3616 02c5 63685F64 		.ascii	"ch_debug\000"
 3616      65627567 
 3616      00
 3617              	.LASF167:
 3618 02ce 63685F66 		.ascii	"ch_factory\000"
 3618      6163746F 
 3618      727900
ARM GAS  /tmp/cc68Sr28.s 			page 67


 3619              	.LASF153:
 3620 02d9 6D656D6F 		.ascii	"memory_pool_t\000"
 3620      72795F70 
 3620      6F6F6C5F 
 3620      7400
 3621              	.LASF104:
 3622 02e7 6E5F6972 		.ascii	"n_irq\000"
 3622      7100
 3623              	.LASF32:
 3624 02ed 71756575 		.ascii	"queue\000"
 3624      6500
 3625              	.LASF46:
 3626 02f3 6D706F6F 		.ascii	"mpool\000"
 3626      6C00
 3627              	.LASF99:
 3628 02f9 62657374 		.ascii	"best\000"
 3628      00
 3629              	.LASF87:
 3630 02fe 534D4352 		.ascii	"SMCR\000"
 3630      00
 3631              	.LASF108:
 3632 0303 6B65726E 		.ascii	"kernel_stats_t\000"
 3632      656C5F73 
 3632      74617473 
 3632      5F7400
 3633              	.LASF36:
 3634 0312 6E616D65 		.ascii	"name\000"
 3634      00
 3635              	.LASF50:
 3636 0317 63685F74 		.ascii	"ch_thread\000"
 3636      68726561 
 3636      6400
 3637              	.LASF178:
 3638 0321 706F7274 		.ascii	"port_timer_start_alarm\000"
 3638      5F74696D 
 3638      65725F73 
 3638      74617274 
 3638      5F616C61 
 3639              	.LASF101:
 3640 0338 6C617374 		.ascii	"last\000"
 3640      00
 3641              	.LASF30:
 3642 033d 75636E74 		.ascii	"ucnt_t\000"
 3642      5F7400
 3643              	.LASF43:
 3644 0344 6570656E 		.ascii	"epending\000"
 3644      64696E67 
 3644      00
 3645              	.LASF157:
 3646 034d 64796E5F 		.ascii	"dyn_list_t\000"
 3646      6C697374 
 3646      5F7400
 3647              	.LASF70:
 3648 0358 63685F73 		.ascii	"ch_system_t\000"
 3648      79737465 
 3648      6D5F7400 
 3649              	.LASF130:
ARM GAS  /tmp/cc68Sr28.s 			page 68


 3650 0364 6F66665F 		.ascii	"off_ctx\000"
 3650      63747800 
 3651              	.LASF96:
 3652 036c 73746D33 		.ascii	"stm32_tim_t\000"
 3652      325F7469 
 3652      6D5F7400 
 3653              	.LASF184:
 3654 0378 73797374 		.ascii	"systime\000"
 3654      696D6500 
 3655              	.LASF107:
 3656 0380 6D5F6372 		.ascii	"m_crit_isr\000"
 3656      69745F69 
 3656      737200
 3657              	.LASF57:
 3658 038b 63685F72 		.ascii	"ch_ready_list\000"
 3658      65616479 
 3658      5F6C6973 
 3658      7400
 3659              	.LASF169:
 3660 0399 63685654 		.ascii	"chVTDoSetI\000"
 3660      446F5365 
 3660      744900
 3661              	.LASF146:
 3662 03a4 656E646D 		.ascii	"endmem\000"
 3662      656D00
 3663              	.LASF10:
 3664 03ab 5F5F696E 		.ascii	"__int32_t\000"
 3664      7433325F 
 3664      7400
 3665              	.LASF84:
 3666 03b5 73746B61 		.ascii	"stkalign_t\000"
 3666      6C69676E 
 3666      5F7400
 3667              	.LASF34:
 3668 03c0 6E657765 		.ascii	"newer\000"
 3668      7200
 3669              	.LASF139:
 3670 03c6 6F66665F 		.ascii	"off_time\000"
 3670      74696D65 
 3670      00
 3671              	.LASF45:
 3672 03cf 7265616C 		.ascii	"realprio\000"
 3672      7072696F 
 3672      00
 3673              	.LASF125:
 3674 03d8 76657273 		.ascii	"version\000"
 3674      696F6E00 
 3675              	.LASF78:
 3676 03e0 73697A65 		.ascii	"sizetype\000"
 3676      74797065 
 3676      00
 3677              	.LASF155:
 3678 03e9 64796E5F 		.ascii	"dyn_element_t\000"
 3678      656C656D 
 3678      656E745F 
 3678      7400
 3679              	.LASF65:
ARM GAS  /tmp/cc68Sr28.s 			page 69


 3680 03f7 63685F76 		.ascii	"ch_virtual_timers_list\000"
 3680      69727475 
 3680      616C5F74 
 3680      696D6572 
 3680      735F6C69 
 3681              	.LASF2:
 3682 040e 6C6F6E67 		.ascii	"long double\000"
 3682      20646F75 
 3682      626C6500 
 3683              	.LASF156:
 3684 041a 63685F64 		.ascii	"ch_dyn_list\000"
 3684      796E5F6C 
 3684      69737400 
 3685              	.LASF131:
 3686 0426 6F66665F 		.ascii	"off_newer\000"
 3686      6E657765 
 3686      7200
 3687              	.LASF85:
 3688 0430 706F7274 		.ascii	"port_context\000"
 3688      5F636F6E 
 3688      74657874 
 3688      00
 3689              	.LASF98:
 3690 043d 746D5F63 		.ascii	"tm_calibration_t\000"
 3690      616C6962 
 3690      72617469 
 3690      6F6E5F74 
 3690      00
 3691              	.LASF190:
 3692 044e 2E2E2F2E 		.ascii	"../../modules/ChibiOS/os/rt/src/chvt.c\000"
 3692      2E2F6D6F 
 3692      64756C65 
 3692      732F4368 
 3692      6962694F 
 3693              	.LASF179:
 3694 0475 74696D65 		.ascii	"time\000"
 3694      00
 3695              	.LASF33:
 3696 047a 7072696F 		.ascii	"prio\000"
 3696      00
 3697              	.LASF163:
 3698 047f 73656D5F 		.ascii	"sem_pool\000"
 3698      706F6F6C 
 3698      00
 3699              	.LASF58:
 3700 0488 63757272 		.ascii	"current\000"
 3700      656E7400 
 3701              	.LASF183:
 3702 0490 63685469 		.ascii	"chTimeAddX\000"
 3702      6D654164 
 3702      645800
 3703              	.LASF14:
 3704 049b 5F5F7569 		.ascii	"__uint64_t\000"
 3704      6E743634 
 3704      5F7400
 3705              	.LASF147:
 3706 04a6 6D656D63 		.ascii	"memcore_t\000"
ARM GAS  /tmp/cc68Sr28.s 			page 70


 3706      6F72655F 
 3706      7400
 3707              	.LASF102:
 3708 04b0 63756D75 		.ascii	"cumulative\000"
 3708      6C617469 
 3708      766500
 3709              	.LASF25:
 3710 04bb 74726566 		.ascii	"trefs_t\000"
 3710      735F7400 
 3711              	.LASF140:
 3712 04c3 63686465 		.ascii	"chdebug_t\000"
 3712      6275675F 
 3712      7400
 3713              	.LASF128:
 3714 04cd 74687265 		.ascii	"threadsize\000"
 3714      61647369 
 3714      7A6500
 3715              	.LASF40:
 3716 04d8 72656673 		.ascii	"refs\000"
 3716      00
 3717              	.LASF60:
 3718 04dd 76697274 		.ascii	"virtual_timer_t\000"
 3718      75616C5F 
 3718      74696D65 
 3718      725F7400 
 3719              	.LASF154:
 3720 04ed 63685F64 		.ascii	"ch_dyn_element\000"
 3720      796E5F65 
 3720      6C656D65 
 3720      6E7400
 3721              	.LASF26:
 3722 04fc 74707269 		.ascii	"tprio_t\000"
 3722      6F5F7400 
 3723              	.LASF189:
 3724 0504 474E5520 		.ascii	"GNU C11 6.3.1 20170620 (release) [ARM/embedded-6-br"
 3724      43313120 
 3724      362E332E 
 3724      31203230 
 3724      31373036 
 3725 0537 616E6368 		.ascii	"anch revision 249437] -mcpu=cortex-m7 -mfloat-abi=h"
 3725      20726576 
 3725      6973696F 
 3725      6E203234 
 3725      39343337 
 3726 056a 61726420 		.ascii	"ard -mfpu=fpv4-sp-d16 -mno-thumb-interwork -mthumb "
 3726      2D6D6670 
 3726      753D6670 
 3726      76342D73 
 3726      702D6431 
 3727 059d 2D67202D 		.ascii	"-g -Os -fomit-frame-pointer -falign-functions=16 -f"
 3727      4F73202D 
 3727      666F6D69 
 3727      742D6672 
 3727      616D652D 
 3728 05d0 66756E63 		.ascii	"function-sections -fdata-sections -fno-common -fsin"
 3728      74696F6E 
 3728      2D736563 
ARM GAS  /tmp/cc68Sr28.s 			page 71


 3728      74696F6E 
 3728      73202D66 
 3729 0603 676C652D 		.ascii	"gle-precision-constant\000"
 3729      70726563 
 3729      6973696F 
 3729      6E2D636F 
 3729      6E737461 
 3730              	.LASF161:
 3731 061a 6275665F 		.ascii	"buf_list\000"
 3731      6C697374 
 3731      00
 3732              	.LASF105:
 3733 0623 6E5F6374 		.ascii	"n_ctxswc\000"
 3733      78737763 
 3733      00
 3734              	.LASF143:
 3735 062c 5F426F6F 		.ascii	"_Bool\000"
 3735      6C00
 3736              	.LASF18:
 3737 0632 696E7433 		.ascii	"int32_t\000"
 3737      325F7400 
 3738              	.LASF6:
 3739 063a 756E7369 		.ascii	"unsigned char\000"
 3739      676E6564 
 3739      20636861 
 3739      7200
 3740              	.LASF129:
 3741 0648 6F66665F 		.ascii	"off_prio\000"
 3741      7072696F 
 3741      00
 3742              	.LASF165:
 3743 0651 6669666F 		.ascii	"fifo_list\000"
 3743      5F6C6973 
 3743      7400
 3744              	.LASF170:
 3745 065b 64656C61 		.ascii	"delay\000"
 3745      7900
 3746              	.LASF7:
 3747 0661 73686F72 		.ascii	"short int\000"
 3747      7420696E 
 3747      7400
 3748              	.LASF66:
 3749 066b 6C617374 		.ascii	"lasttime\000"
 3749      74696D65 
 3749      00
 3750              	.LASF116:
 3751 0674 65776D61 		.ascii	"ewmask\000"
 3751      736B00
 3752              	.LASF71:
 3753 067b 63685F73 		.ascii	"ch_system\000"
 3753      79737465 
 3753      6D00
 3754              	.LASF16:
 3755 0685 75696E74 		.ascii	"uint8_t\000"
 3755      385F7400 
 3756              	.LASF172:
 3757 068d 5F5F6675 		.ascii	"__func__\000"
ARM GAS  /tmp/cc68Sr28.s 			page 72


 3757      6E635F5F 
 3757      00
 3758              	.LASF160:
 3759 0696 6F626A5F 		.ascii	"obj_pool\000"
 3759      706F6F6C 
 3759      00
 3760              	.LASF118:
 3761 069f 63685F6D 		.ascii	"ch_mutex\000"
 3761      75746578 
 3761      00
 3762              	.LASF61:
 3763 06a8 63685F76 		.ascii	"ch_virtual_timer\000"
 3763      69727475 
 3763      616C5F74 
 3763      696D6572 
 3763      00
 3764              	.LASF117:
 3765 06b9 63685F73 		.ascii	"ch_semaphore\000"
 3765      656D6170 
 3765      686F7265 
 3765      00
 3766              	.LASF95:
 3767 06c6 43435852 		.ascii	"CCXR\000"
 3767      00
 3768              	.LASF121:
 3769 06cb 63685F69 		.ascii	"ch_idle_thread_wa\000"
 3769      646C655F 
 3769      74687265 
 3769      61645F77 
 3769      6100
 3770              	.LASF127:
 3771 06dd 74696D65 		.ascii	"timesize\000"
 3771      73697A65 
 3771      00
 3772              	.LASF180:
 3773 06e6 73745F6C 		.ascii	"st_lld_get_counter\000"
 3773      6C645F67 
 3773      65745F63 
 3773      6F756E74 
 3773      657200
 3774              	.LASF19:
 3775 06f9 75696E74 		.ascii	"uint32_t\000"
 3775      33325F74 
 3775      00
 3776              	.LASF115:
 3777 0702 77746D74 		.ascii	"wtmtxp\000"
 3777      787000
 3778              	.LASF51:
 3779 0709 63685F74 		.ascii	"ch_threads_list\000"
 3779      68726561 
 3779      64735F6C 
 3779      69737400 
 3780              	.LASF119:
 3781 0719 6F776E65 		.ascii	"owner\000"
 3781      7200
 3782              	.LASF13:
 3783 071f 6C6F6E67 		.ascii	"long unsigned int\000"
ARM GAS  /tmp/cc68Sr28.s 			page 73


 3783      20756E73 
 3783      69676E65 
 3783      6420696E 
 3783      7400
 3784              	.LASF37:
 3785 0731 77616261 		.ascii	"wabase\000"
 3785      736500
 3786              	.LASF186:
 3787 0738 73745374 		.ascii	"stStopAlarm\000"
 3787      6F70416C 
 3787      61726D00 
 3788              	.LASF120:
 3789 0744 63686172 		.ascii	"char\000"
 3789      00
 3790              	.LASF8:
 3791 0749 5F5F7569 		.ascii	"__uint16_t\000"
 3791      6E743136 
 3791      5F7400
 3792              	.LASF159:
 3793 0754 6F626A5F 		.ascii	"obj_list\000"
 3793      6C697374 
 3793      00
 3794              	.LASF93:
 3795 075d 444D4152 		.ascii	"DMAR\000"
 3795      00
 3796              	.LASF31:
 3797 0762 74687265 		.ascii	"thread_t\000"
 3797      61645F74 
 3797      00
 3798              	.LASF91:
 3799 076b 43434552 		.ascii	"CCER\000"
 3799      00
 3800              	.LASF148:
 3801 0770 63685F6D 		.ascii	"ch_memcore\000"
 3801      656D636F 
 3801      726500
 3802              	.LASF76:
 3803 077b 73797374 		.ascii	"systime_t\000"
 3803      696D655F 
 3803      7400
 3804              	.LASF59:
 3805 0785 76746675 		.ascii	"vtfunc_t\000"
 3805      6E635F74 
 3805      00
 3806              	.LASF81:
 3807 078e 41484250 		.ascii	"AHBPrescTable\000"
 3807      72657363 
 3807      5461626C 
 3807      6500
 3808              	.LASF69:
 3809 079c 70616E69 		.ascii	"panic_msg\000"
 3809      635F6D73 
 3809      6700
 3810              	.LASF97:
 3811 07a6 6F666673 		.ascii	"offset\000"
 3811      657400
 3812              	.LASF188:
ARM GAS  /tmp/cc68Sr28.s 			page 74


 3813 07ad 73745374 		.ascii	"stStartAlarm\000"
 3813      61727441 
 3813      6C61726D 
 3813      00
 3814              	.LASF132:
 3815 07ba 6F66665F 		.ascii	"off_older\000"
 3815      6F6C6465 
 3815      7200
 3816              	.LASF9:
 3817 07c4 73686F72 		.ascii	"short unsigned int\000"
 3817      7420756E 
 3817      7369676E 
 3817      65642069 
 3817      6E7400
 3818              	.LASF176:
 3819 07d7 706F7274 		.ascii	"port_timer_get_time\000"
 3819      5F74696D 
 3819      65725F67 
 3819      65745F74 
 3819      696D6500 
 3820              	.LASF21:
 3821 07eb 7274636E 		.ascii	"rtcnt_t\000"
 3821      745F7400 
 3822              	.LASF144:
 3823 07f3 6D656D67 		.ascii	"memgetfunc_t\000"
 3823      65746675 
 3823      6E635F74 
 3823      00
 3824              	.LASF150:
 3825 0800 6F626A65 		.ascii	"object_size\000"
 3825      63745F73 
 3825      697A6500 
 3826              	.LASF171:
 3827 080c 76746675 		.ascii	"vtfunc\000"
 3827      6E6300
 3828              	.LASF126:
 3829 0813 70747273 		.ascii	"ptrsize\000"
 3829      697A6500 
 3830              	.LASF158:
 3831 081b 63685F6F 		.ascii	"ch_objects_factory\000"
 3831      626A6563 
 3831      74735F66 
 3831      6163746F 
 3831      727900
 3832              	.LASF53:
 3833 082e 74687265 		.ascii	"threads_queue_t\000"
 3833      6164735F 
 3833      71756575 
 3833      655F7400 
 3834              	.LASF149:
 3835 083e 706F6F6C 		.ascii	"pool_header\000"
 3835      5F686561 
 3835      64657200 
 3836              	.LASF182:
 3837 084a 63685469 		.ascii	"chTimeDiffX\000"
 3837      6D654469 
 3837      66665800 
ARM GAS  /tmp/cc68Sr28.s 			page 75


 3838              	.LASF133:
 3839 0856 6F66665F 		.ascii	"off_name\000"
 3839      6E616D65 
 3839      00
 3840              	.LASF187:
 3841 085f 73745365 		.ascii	"stSetAlarm\000"
 3841      74416C61 
 3841      726D00
 3842              	.LASF39:
 3843 086a 666C6167 		.ascii	"flags\000"
 3843      7300
 3844              	.LASF193:
 3845 0870 706F7274 		.ascii	"port_timer_stop_alarm\000"
 3845      5F74696D 
 3845      65725F73 
 3845      746F705F 
 3845      616C6172 
 3846              	.LASF48:
 3847 0886 74687265 		.ascii	"thread_reference_t\000"
 3847      61645F72 
 3847      65666572 
 3847      656E6365 
 3847      5F7400
 3848              	.LASF177:
 3849 0899 706F7274 		.ascii	"port_timer_set_alarm\000"
 3849      5F74696D 
 3849      65725F73 
 3849      65745F61 
 3849      6C61726D 
 3850              	.LASF111:
 3851 08ae 77746F62 		.ascii	"wtobjp\000"
 3851      6A7000
 3852              	.LASF124:
 3853 08b5 73697A65 		.ascii	"size\000"
 3853      00
 3854              	.LASF49:
 3855 08ba 74687265 		.ascii	"threads_list_t\000"
 3855      6164735F 
 3855      6C697374 
 3855      5F7400
 3856              	.LASF135:
 3857 08c9 6F66665F 		.ascii	"off_state\000"
 3857      73746174 
 3857      6500
 3858              	.LASF166:
 3859 08d3 6F626A65 		.ascii	"objects_factory_t\000"
 3859      6374735F 
 3859      66616374 
 3859      6F72795F 
 3859      7400
 3860              	.LASF136:
 3861 08e5 6F66665F 		.ascii	"off_flags\000"
 3861      666C6167 
 3861      7300
 3862              	.LASF44:
 3863 08ef 6D74786C 		.ascii	"mtxlist\000"
 3863      69737400 
ARM GAS  /tmp/cc68Sr28.s 			page 76


 3864              	.LASF142:
 3865 08f7 6D757465 		.ascii	"mutex_t\000"
 3865      785F7400 
 3866              	.LASF106:
 3867 08ff 6D5F6372 		.ascii	"m_crit_thd\000"
 3867      69745F74 
 3867      686400
 3868              	.LASF145:
 3869 090a 6E657874 		.ascii	"nextmem\000"
 3869      6D656D00 
 3870              		.ident	"GCC: (GNU Tools for ARM Embedded Processors 6-2017-q2-update) 6.3.1 20170620 (release) [AR
ARM GAS  /tmp/cc68Sr28.s 			page 77


DEFINED SYMBOLS
                            *ABS*:0000000000000000 chvt.c
     /tmp/cc68Sr28.s:18     .text._vt_init:0000000000000000 $t
     /tmp/cc68Sr28.s:25     .text._vt_init:0000000000000000 _vt_init
     /tmp/cc68Sr28.s:49     .text._vt_init:0000000000000018 $d
     /tmp/cc68Sr28.s:54     .text.chVTDoSetI:0000000000000000 $t
     /tmp/cc68Sr28.s:61     .text.chVTDoSetI:0000000000000000 chVTDoSetI
     /tmp/cc68Sr28.s:237    .text.chVTDoSetI:0000000000000074 $d
     /tmp/cc68Sr28.s:242    .text.chVTDoResetI:0000000000000000 $t
     /tmp/cc68Sr28.s:249    .text.chVTDoResetI:0000000000000000 chVTDoResetI
     /tmp/cc68Sr28.s:378    .text.chVTDoResetI:0000000000000070 $d
                     .debug_frame:0000000000000010 $d

UNDEFINED SYMBOLS
ch
stStartAlarm
stSetAlarm
stStopAlarm
