ARM GAS  /tmp/cc68Sr28.s 			page 1


   1              		.cpu cortex-m7
   2              		.eabi_attribute 27, 1
   3              		.eabi_attribute 28, 1
   4              		.eabi_attribute 20, 1
   5              		.eabi_attribute 21, 1
   6              		.eabi_attribute 23, 3
   7              		.eabi_attribute 24, 1
   8              		.eabi_attribute 25, 1
   9              		.eabi_attribute 26, 1
  10              		.eabi_attribute 30, 4
  11              		.eabi_attribute 34, 1
  12              		.eabi_attribute 18, 4
  13              		.file	"chvt.c"
  14              		.text
  15              	.Ltext0:
  16              		.cfi_sections	.debug_frame
  17              		.section	.text._vt_init,"ax",%progbits
  18              		.align	1
  19              		.global	_vt_init
  20              		.syntax unified
  21              		.thumb
  22              		.thumb_func
  23              		.fpu fpv4-sp-d16
  24              		.type	_vt_init, %function
  25              	_vt_init:
  26              	.LFB301:
  27              		.file 1 "../../modules/ChibiOS/os/rt/src/chvt.c"
  28              		.loc 1 61 0
  29              		.cfi_startproc
  30              		@ args = 0, pretend = 0, frame = 0
  31              		@ frame_needed = 0, uses_anonymous_args = 0
  32              		@ link register save eliminated.
  33              		.loc 1 63 0
  34 0000 054B     		ldr	r3, .L2
  35 0002 03F11C02 		add	r2, r3, #28
  36 0006 DA61     		str	r2, [r3, #28]
  37              		.loc 1 64 0
  38 0008 1A62     		str	r2, [r3, #32]
  39              		.loc 1 65 0
  40 000a 4FF0FF32 		mov	r2, #-1
  41 000e 5A62     		str	r2, [r3, #36]
  42              		.loc 1 69 0
  43 0010 0022     		movs	r2, #0
  44 0012 9A62     		str	r2, [r3, #40]
  45 0014 7047     		bx	lr
  46              	.L3:
  47 0016 00BF     		.align	2
  48              	.L2:
  49 0018 00000000 		.word	ch
  50              		.cfi_endproc
  51              	.LFE301:
  52              		.size	_vt_init, .-_vt_init
  53              		.section	.text.chVTDoSetI,"ax",%progbits
  54              		.align	1
  55              		.global	chVTDoSetI
  56              		.syntax unified
  57              		.thumb
ARM GAS  /tmp/cc68Sr28.s 			page 2


  58              		.thumb_func
  59              		.fpu fpv4-sp-d16
  60              		.type	chVTDoSetI, %function
  61              	chVTDoSetI:
  62              	.LFB302:
  63              		.loc 1 96 0
  64              		.cfi_startproc
  65              		@ args = 0, pretend = 0, frame = 0
  66              		@ frame_needed = 0, uses_anonymous_args = 0
  67              	.LVL0:
  68 0000 F8B5     		push	{r3, r4, r5, r6, r7, lr}
  69              		.cfi_def_cfa_offset 24
  70              		.cfi_offset 3, -24
  71              		.cfi_offset 4, -20
  72              		.cfi_offset 5, -16
  73              		.cfi_offset 6, -12
  74              		.cfi_offset 7, -8
  75              		.cfi_offset 14, -4
  76              		.loc 1 103 0
  77 0002 0361     		str	r3, [r0, #16]
  78              	.LBB40:
  79              	.LBB41:
  80              	.LBB42:
  81              	.LBB43:
  82              	.LBB44:
  83              		.file 2 "../../modules/ChibiOS/os/hal/ports/STM32/LLD/TIMv1/hal_st_lld.h"
  84              		.loc 2 168 0
  85 0004 4FF08043 		mov	r3, #1073741824
  86              	.LVL1:
  87              	.LBE44:
  88              	.LBE43:
  89              	.LBE42:
  90              	.LBE41:
  91              	.LBE40:
  92              		.loc 1 104 0
  93 0008 C260     		str	r2, [r0, #12]
  94 000a 0229     		cmp	r1, #2
  95              	.LBB58:
  96              	.LBB48:
  97              	.LBB47:
  98              	.LBB46:
  99              	.LBB45:
 100              		.loc 2 168 0
 101 000c 5C6A     		ldr	r4, [r3, #36]
 102              	.LBE45:
 103              	.LBE46:
 104              	.LBE47:
 105              	.LBE48:
 106              	.LBE58:
 107              		.loc 1 96 0
 108 000e 0646     		mov	r6, r0
 109              	.LBB59:
 110              		.loc 1 117 0
 111 0010 184B     		ldr	r3, .L10
 112 0012 38BF     		it	cc
 113 0014 0221     		movcc	r1, #2
 114              	.LVL2:
ARM GAS  /tmp/cc68Sr28.s 			page 3


 115 0016 1A46     		mov	r2, r3
 116              	.LVL3:
 117 0018 1F46     		mov	r7, r3
 118 001a 52F81C5F 		ldr	r5, [r2, #28]!
 119 001e 9542     		cmp	r5, r2
 120 0020 0AD1     		bne	.L5
 121              		.loc 1 122 0
 122 0022 D861     		str	r0, [r3, #28]
 123              		.loc 1 123 0
 124 0024 1862     		str	r0, [r3, #32]
 125              		.loc 1 121 0
 126 0026 9C62     		str	r4, [r3, #40]
 127              		.loc 1 124 0
 128 0028 0560     		str	r5, [r0]
 129              		.loc 1 125 0
 130 002a 4560     		str	r5, [r0, #4]
 131              		.loc 1 126 0
 132 002c 8160     		str	r1, [r0, #8]
 133              	.LBB49:
 134              	.LBB50:
 135              		.file 3 "../../modules/ChibiOS/os/common/ports/ARMCMx/chcore_timer.h"
 136              		.loc 3 73 0
 137 002e 0819     		adds	r0, r1, r4
 138              	.LVL4:
 139              	.LBE50:
 140              	.LBE49:
 141              	.LBE59:
 142              		.loc 1 201 0
 143 0030 BDE8F840 		pop	{r3, r4, r5, r6, r7, lr}
 144              		.cfi_remember_state
 145              		.cfi_restore 14
 146              		.cfi_restore 7
 147              		.cfi_restore 6
 148              		.cfi_restore 5
 149              		.cfi_restore 4
 150              		.cfi_restore 3
 151              		.cfi_def_cfa_offset 0
 152              	.LVL5:
 153              	.LBB60:
 154              	.LBB52:
 155              	.LBB51:
 156              		.loc 3 73 0
 157 0034 FFF7FEBF 		b	stStartAlarm
 158              	.LVL6:
 159              	.L5:
 160              		.cfi_restore_state
 161              	.LBE51:
 162              	.LBE52:
 163              		.loc 1 146 0
 164 0038 986A     		ldr	r0, [r3, #40]
 165              	.LVL7:
 166 003a AB68     		ldr	r3, [r5, #8]
 167              	.LBB53:
 168              	.LBB54:
 169              		.file 4 "../../modules/ChibiOS/os/rt/include/chtime.h"
 170              		.loc 4 514 0
 171 003c 241A     		subs	r4, r4, r0
ARM GAS  /tmp/cc68Sr28.s 			page 4


 172              	.LVL8:
 173              	.LBE54:
 174              	.LBE53:
 175              		.loc 1 148 0
 176 003e 0C19     		adds	r4, r1, r4
 177              	.LVL9:
 178 0040 02D3     		bcc	.L6
 179              	.LVL10:
 180              	.L9:
 181              	.LBE60:
 182              		.loc 1 184 0
 183 0042 E41A     		subs	r4, r4, r3
 184              	.LVL11:
 185              		.loc 1 185 0
 186 0044 2D68     		ldr	r5, [r5]
 187              	.LVL12:
 188 0046 04E0     		b	.L8
 189              	.LVL13:
 190              	.L6:
 191              	.LBB61:
 192              		.loc 1 155 0
 193 0048 9C42     		cmp	r4, r3
 194 004a 02D2     		bcs	.L8
 195              	.LVL14:
 196              	.LBB55:
 197              	.LBB56:
 198              	.LBB57:
 199              		.loc 3 95 0
 200 004c 2044     		add	r0, r0, r4
 201 004e FFF7FEFF 		bl	stSetAlarm
 202              	.LVL15:
 203              	.L8:
 204              	.LBE57:
 205              	.LBE56:
 206              	.LBE55:
 207              	.LBE61:
 208              		.loc 1 180 0
 209 0052 AB68     		ldr	r3, [r5, #8]
 210 0054 9C42     		cmp	r4, r3
 211 0056 F4D8     		bhi	.L9
 212              		.loc 1 190 0
 213 0058 6B68     		ldr	r3, [r5, #4]
 214              		.loc 1 189 0
 215 005a 3560     		str	r5, [r6]
 216              		.loc 1 190 0
 217 005c 7360     		str	r3, [r6, #4]
 218              		.loc 1 191 0
 219 005e 1E60     		str	r6, [r3]
 220              		.loc 1 200 0
 221 0060 4FF0FF33 		mov	r3, #-1
 222              		.loc 1 192 0
 223 0064 6E60     		str	r6, [r5, #4]
 224              		.loc 1 193 0
 225 0066 B460     		str	r4, [r6, #8]
 226              		.loc 1 196 0
 227 0068 A968     		ldr	r1, [r5, #8]
 228 006a 091B     		subs	r1, r1, r4
ARM GAS  /tmp/cc68Sr28.s 			page 5


 229 006c A960     		str	r1, [r5, #8]
 230              		.loc 1 200 0
 231 006e 7B62     		str	r3, [r7, #36]
 232 0070 F8BD     		pop	{r3, r4, r5, r6, r7, pc}
 233              	.LVL16:
 234              	.L11:
 235 0072 00BF     		.align	2
 236              	.L10:
 237 0074 00000000 		.word	ch
 238              		.cfi_endproc
 239              	.LFE302:
 240              		.size	chVTDoSetI, .-chVTDoSetI
 241              		.section	.text.chVTDoResetI,"ax",%progbits
 242              		.align	1
 243              		.global	chVTDoResetI
 244              		.syntax unified
 245              		.thumb
 246              		.thumb_func
 247              		.fpu fpv4-sp-d16
 248              		.type	chVTDoResetI, %function
 249              	chVTDoResetI:
 250              	.LFB303:
 251              		.loc 1 211 0
 252              		.cfi_startproc
 253              		@ args = 0, pretend = 0, frame = 0
 254              		@ frame_needed = 0, uses_anonymous_args = 0
 255              		@ link register save eliminated.
 256              	.LVL17:
 257 0000 10B4     		push	{r4}
 258              		.cfi_def_cfa_offset 4
 259              		.cfi_offset 4, -4
 260              		.loc 1 235 0
 261 0002 1B4C     		ldr	r4, .L19
 262 0004 2346     		mov	r3, r4
 263 0006 53F81C1F 		ldr	r1, [r3, #28]!
 264 000a 8142     		cmp	r1, r0
 265 000c 10D0     		beq	.L13
 266              		.loc 1 237 0
 267 000e 4168     		ldr	r1, [r0, #4]
 268 0010 0268     		ldr	r2, [r0]
 269 0012 0A60     		str	r2, [r1]
 270              		.loc 1 238 0
 271 0014 0268     		ldr	r2, [r0]
 272 0016 5160     		str	r1, [r2, #4]
 273              		.loc 1 242 0
 274 0018 9A42     		cmp	r2, r3
 275              		.loc 1 239 0
 276 001a 4FF00001 		mov	r1, #0
 277 001e C160     		str	r1, [r0, #12]
 278              		.loc 1 242 0
 279 0020 03D0     		beq	.L12
 280              		.loc 1 243 0
 281 0022 9368     		ldr	r3, [r2, #8]
 282 0024 8168     		ldr	r1, [r0, #8]
 283 0026 0B44     		add	r3, r3, r1
 284 0028 9360     		str	r3, [r2, #8]
 285              	.LVL18:
ARM GAS  /tmp/cc68Sr28.s 			page 6


 286              	.L12:
 287              		.loc 1 297 0
 288 002a 5DF8044B 		ldr	r4, [sp], #4
 289              		.cfi_remember_state
 290              		.cfi_restore 4
 291              		.cfi_def_cfa_offset 0
 292 002e 7047     		bx	lr
 293              	.LVL19:
 294              	.L13:
 295              		.cfi_restore_state
 296              		.loc 1 249 0
 297 0030 0A68     		ldr	r2, [r1]
 298              		.loc 1 251 0
 299 0032 0020     		movs	r0, #0
 300              	.LVL20:
 301              		.loc 1 254 0
 302 0034 9A42     		cmp	r2, r3
 303              		.loc 1 249 0
 304 0036 E261     		str	r2, [r4, #28]
 305              		.loc 1 250 0
 306 0038 5360     		str	r3, [r2, #4]
 307              		.loc 1 251 0
 308 003a C860     		str	r0, [r1, #12]
 309              		.loc 1 254 0
 310 003c 03D1     		bne	.L16
 311              		.loc 1 297 0
 312 003e 5DF8044B 		ldr	r4, [sp], #4
 313              		.cfi_remember_state
 314              		.cfi_restore 4
 315              		.cfi_def_cfa_offset 0
 316              	.LBB62:
 317              	.LBB63:
 318              		.loc 3 83 0
 319 0042 FFF7FEBF 		b	stStopAlarm
 320              	.LVL21:
 321              	.L16:
 322              		.cfi_restore_state
 323              	.LBE63:
 324              	.LBE62:
 325              		.loc 1 261 0
 326 0046 9368     		ldr	r3, [r2, #8]
 327 0048 8868     		ldr	r0, [r1, #8]
 328 004a 0344     		add	r3, r3, r0
 329              		.loc 1 270 0
 330 004c A06A     		ldr	r0, [r4, #40]
 331              		.loc 1 261 0
 332 004e 9360     		str	r3, [r2, #8]
 333              	.LBB64:
 334              	.LBB65:
 335              	.LBB66:
 336              	.LBB67:
 337              		.loc 2 168 0
 338 0050 4FF08042 		mov	r2, #1073741824
 339 0054 526A     		ldr	r2, [r2, #36]
 340              	.LVL22:
 341              	.LBE67:
 342              	.LBE66:
ARM GAS  /tmp/cc68Sr28.s 			page 7


 343              	.LBE65:
 344              	.LBE64:
 345              	.LBB68:
 346              	.LBB69:
 347              		.loc 4 514 0
 348 0056 121A     		subs	r2, r2, r0
 349              	.LVL23:
 350              	.LBE69:
 351              	.LBE68:
 352              		.loc 1 274 0
 353 0058 9342     		cmp	r3, r2
 354 005a E6D9     		bls	.L12
 355              	.LVL24:
 356              		.loc 1 279 0
 357 005c 991A     		subs	r1, r3, r2
 358              	.LVL25:
 359              		.loc 1 297 0
 360 005e 5DF8044B 		ldr	r4, [sp], #4
 361              		.cfi_restore 4
 362              		.cfi_def_cfa_offset 0
 363              		.loc 1 283 0
 364 0062 0129     		cmp	r1, #1
 365              		.loc 1 284 0
 366 0064 98BF     		it	ls
 367 0066 931C     		addls	r3, r2, #2
 368              	.LVL26:
 369              	.LBB70:
 370              	.LBB71:
 371              		.loc 3 95 0
 372 0068 1844     		add	r0, r0, r3
 373 006a FFF7FEBF 		b	stSetAlarm
 374              	.LVL27:
 375              	.L20:
 376 006e 00BF     		.align	2
 377              	.L19:
 378 0070 00000000 		.word	ch
 379              	.LBE71:
 380              	.LBE70:
 381              		.cfi_endproc
 382              	.LFE303:
 383              		.size	chVTDoResetI, .-chVTDoResetI
 384              		.text
 385              	.Letext0:
 386              		.file 5 "/opt/gcc-arm-none-eabi-6-2017-q2-update/lib/gcc/arm-none-eabi/6.3.1/include/stddef.h"
 387              		.file 6 "/opt/gcc-arm-none-eabi-6-2017-q2-update/arm-none-eabi/include/machine/_default_types.h"
 388              		.file 7 "/opt/gcc-arm-none-eabi-6-2017-q2-update/arm-none-eabi/include/sys/_stdint.h"
 389              		.file 8 "../../modules/ChibiOS/os/common/ports/ARMCMx/compilers/GCC/chtypes.h"
 390              		.file 9 "../../modules/ChibiOS/os/rt/include/chsystypes.h"
 391              		.file 10 "../../modules/ChibiOS/os/rt/include/chschd.h"
 392              		.file 11 "../../modules/ChibiOS/os/common/ext/ARM/CMSIS/Core/Include/core_cm7.h"
 393              		.file 12 "../../modules/ChibiOS/os/common/ext/ST/STM32F7xx/system_stm32f7xx.h"
 394              		.file 13 "../../modules/ChibiOS/os/common/ports/ARMCMx/chcore.h"
 395              		.file 14 "../../modules/ChibiOS/os/common/ports/ARMCMx/chcore_v7m.h"
 396              		.file 15 "../../modules/ChibiOS/os/hal/ports/STM32/LLD/TIMv1/stm32_tim.h"
 397              		.file 16 "../../modules/ChibiOS/os/rt/include/chtm.h"
 398              		.file 17 "../../modules/ChibiOS/os/rt/include/chstats.h"
 399              		.file 18 "../../modules/ChibiOS/os/rt/include/chsem.h"
ARM GAS  /tmp/cc68Sr28.s 			page 8


 400              		.file 19 "../../modules/ChibiOS/os/rt/include/chmtx.h"
 401              		.file 20 "../../modules/ChibiOS/os/rt/include/chsys.h"
 402              		.file 21 "../../modules/ChibiOS/os/rt/include/chregistry.h"
 403              		.file 22 "../../modules/ChibiOS/os/oslib/include/chmemcore.h"
 404              		.file 23 "../../modules/ChibiOS/os/oslib/include/chmempools.h"
 405              		.file 24 "../../modules/ChibiOS/os/oslib/include/chfactory.h"
 406              		.file 25 "../../modules/ChibiOS/os/rt/include/chvt.h"
 407              		.file 26 "../../modules/ChibiOS/os/hal/include/hal_st.h"