ARM GAS  /tmp/ccPSBNGu.s 			page 1


   1              		.cpu cortex-m7
   2              		.eabi_attribute 27, 1
   3              		.eabi_attribute 28, 1
   4              		.eabi_attribute 20, 1
   5              		.eabi_attribute 21, 1
   6              		.eabi_attribute 23, 3
   7              		.eabi_attribute 24, 1
   8              		.eabi_attribute 25, 1
   9              		.eabi_attribute 26, 1
  10              		.eabi_attribute 30, 4
  11              		.eabi_attribute 34, 1
  12              		.eabi_attribute 18, 4
  13              		.file	"crt1.c"
  14              		.text
  15              	.Ltext0:
  16              		.cfi_sections	.debug_frame
  17              		.section	.text.__core_init,"ax",%progbits
  18              		.align	1
  19              		.weak	__core_init
  20              		.syntax unified
  21              		.thumb
  22              		.thumb_func
  23              		.fpu fpv4-sp-d16
  24              		.type	__core_init, %function
  25              	__core_init:
  26              	.LFB141:
  27              		.file 1 "../../modules/ChibiOS/os/common/startup/ARMCMx/compilers/GCC/crt1.c"
  28              		.loc 1 137 0
  29              		.cfi_startproc
  30              		@ args = 0, pretend = 0, frame = 0
  31              		@ frame_needed = 0, uses_anonymous_args = 0
  32 0000 F0B5     		push	{r4, r5, r6, r7, lr}
  33              		.cfi_def_cfa_offset 20
  34              		.cfi_offset 4, -20
  35              		.cfi_offset 5, -16
  36              		.cfi_offset 6, -12
  37              		.cfi_offset 7, -8
  38              		.cfi_offset 14, -4
  39              	.LBB46:
  40              	.LBB47:
  41              	.LBB48:
  42              	.LBB49:
  43              		.file 2 "../../modules/ChibiOS/os/common/ext/ARM/CMSIS/Core/Include/cmsis_gcc.h"
  44              		.loc 2 879 0
  45              		.syntax unified
  46              	@ 879 "../../modules/ChibiOS/os/common/ext/ARM/CMSIS/Core/Include/cmsis_gcc.h" 1
  47 0002 BFF34F8F 		dsb 0xF
  48              	@ 0 "" 2
  49              		.thumb
  50              		.syntax unified
  51              	.LBE49:
  52              	.LBE48:
  53              	.LBB50:
  54              	.LBB51:
  55              		.loc 2 868 0
  56              		.syntax unified
  57              	@ 868 "../../modules/ChibiOS/os/common/ext/ARM/CMSIS/Core/Include/cmsis_gcc.h" 1
ARM GAS  /tmp/ccPSBNGu.s 			page 2


  58 0006 BFF36F8F 		isb 0xF
  59              	@ 0 "" 2
  60              		.thumb
  61              		.syntax unified
  62              	.LBE51:
  63              	.LBE50:
  64              		.file 3 "../../modules/ChibiOS/os/common/ext/ARM/CMSIS/Core/Include/core_cm7.h"
  65              		.loc 3 2234 0
  66 000a 1D4B     		ldr	r3, .L6
  67 000c 0021     		movs	r1, #0
  68 000e C3F85012 		str	r1, [r3, #592]
  69              	.LBB52:
  70              	.LBB53:
  71              		.loc 2 879 0
  72              		.syntax unified
  73              	@ 879 "../../modules/ChibiOS/os/common/ext/ARM/CMSIS/Core/Include/cmsis_gcc.h" 1
  74 0012 BFF34F8F 		dsb 0xF
  75              	@ 0 "" 2
  76              		.thumb
  77              		.syntax unified
  78              	.LBE53:
  79              	.LBE52:
  80              	.LBB54:
  81              	.LBB55:
  82              		.loc 2 868 0
  83              		.syntax unified
  84              	@ 868 "../../modules/ChibiOS/os/common/ext/ARM/CMSIS/Core/Include/cmsis_gcc.h" 1
  85 0016 BFF36F8F 		isb 0xF
  86              	@ 0 "" 2
  87              		.thumb
  88              		.syntax unified
  89              	.LBE55:
  90              	.LBE54:
  91              		.loc 3 2237 0
  92 001a 5A69     		ldr	r2, [r3, #20]
  93 001c 42F40032 		orr	r2, r2, #131072
  94 0020 5A61     		str	r2, [r3, #20]
  95              	.LBB56:
  96              	.LBB57:
  97              		.loc 2 879 0
  98              		.syntax unified
  99              	@ 879 "../../modules/ChibiOS/os/common/ext/ARM/CMSIS/Core/Include/cmsis_gcc.h" 1
 100 0022 BFF34F8F 		dsb 0xF
 101              	@ 0 "" 2
 102              		.thumb
 103              		.syntax unified
 104              	.LBE57:
 105              	.LBE56:
 106              	.LBB58:
 107              	.LBB59:
 108              		.loc 2 868 0
 109              		.syntax unified
 110              	@ 868 "../../modules/ChibiOS/os/common/ext/ARM/CMSIS/Core/Include/cmsis_gcc.h" 1
 111 0026 BFF36F8F 		isb 0xF
 112              	@ 0 "" 2
 113              		.thumb
 114              		.syntax unified
ARM GAS  /tmp/ccPSBNGu.s 			page 3


 115              	.LBE59:
 116              	.LBE58:
 117              	.LBE47:
 118              	.LBE46:
 119              	.LBB60:
 120              	.LBB61:
 121              		.loc 3 2288 0
 122 002a C3F88410 		str	r1, [r3, #132]
 123              	.LBB62:
 124              	.LBB63:
 125              		.loc 2 879 0
 126              		.syntax unified
 127              	@ 879 "../../modules/ChibiOS/os/common/ext/ARM/CMSIS/Core/Include/cmsis_gcc.h" 1
 128 002e BFF34F8F 		dsb 0xF
 129              	@ 0 "" 2
 130              		.thumb
 131              		.syntax unified
 132              	.LBE63:
 133              	.LBE62:
 134              		.loc 3 2291 0
 135 0032 D3F88020 		ldr	r2, [r3, #128]
 136              	.LVL0:
 137              		.loc 3 2298 0
 138 0036 43F6E076 		movw	r6, #16352
 139              		.loc 3 2296 0
 140 003a C2F3C904 		ubfx	r4, r2, #3, #10
 141              		.loc 3 2294 0
 142 003e C2F34E32 		ubfx	r2, r2, #13, #15
 143              	.LVL1:
 144 0042 A507     		lsls	r5, r4, #30
 145 0044 5201     		lsls	r2, r2, #5
 146              	.L3:
 147              	.LVL2:
 148              		.loc 3 2298 0
 149 0046 02EA060E 		and	lr, r2, r6
 150 004a 2846     		mov	r0, r5
 151              		.loc 3 2296 0
 152 004c 2146     		mov	r1, r4
 153              	.L2:
 154              	.LVL3:
 155              		.loc 3 2298 0
 156 004e 4EEA0007 		orr	r7, lr, r0
 157              		.loc 3 2303 0
 158 0052 0139     		subs	r1, r1, #1
 159              	.LVL4:
 160 0054 00F14040 		add	r0, r0, #-1073741824
 161              		.loc 3 2298 0
 162 0058 C3F86072 		str	r7, [r3, #608]
 163              		.loc 3 2303 0
 164 005c 4F1C     		adds	r7, r1, #1
 165 005e F6D1     		bne	.L2
 166 0060 203A     		subs	r2, r2, #32
 167              		.loc 3 2304 0
 168 0062 12F1200F 		cmn	r2, #32
 169 0066 EED1     		bne	.L3
 170              	.LBB64:
 171              	.LBB65:
ARM GAS  /tmp/ccPSBNGu.s 			page 4


 172              		.loc 2 879 0
 173              		.syntax unified
 174              	@ 879 "../../modules/ChibiOS/os/common/ext/ARM/CMSIS/Core/Include/cmsis_gcc.h" 1
 175 0068 BFF34F8F 		dsb 0xF
 176              	@ 0 "" 2
 177              		.thumb
 178              		.syntax unified
 179              	.LBE65:
 180              	.LBE64:
 181              		.loc 3 2307 0
 182 006c 5A69     		ldr	r2, [r3, #20]
 183 006e 42F48032 		orr	r2, r2, #65536
 184 0072 5A61     		str	r2, [r3, #20]
 185              	.LBB66:
 186              	.LBB67:
 187              		.loc 2 879 0
 188              		.syntax unified
 189              	@ 879 "../../modules/ChibiOS/os/common/ext/ARM/CMSIS/Core/Include/cmsis_gcc.h" 1
 190 0074 BFF34F8F 		dsb 0xF
 191              	@ 0 "" 2
 192              		.thumb
 193              		.syntax unified
 194              	.LBE67:
 195              	.LBE66:
 196              	.LBB68:
 197              	.LBB69:
 198              		.loc 2 868 0
 199              		.syntax unified
 200              	@ 868 "../../modules/ChibiOS/os/common/ext/ARM/CMSIS/Core/Include/cmsis_gcc.h" 1
 201 0078 BFF36F8F 		isb 0xF
 202              	@ 0 "" 2
 203              	.LVL5:
 204              		.thumb
 205              		.syntax unified
 206 007c F0BD     		pop	{r4, r5, r6, r7, pc}
 207              	.L7:
 208 007e 00BF     		.align	2
 209              	.L6:
 210 0080 00ED00E0 		.word	-536810240
 211              	.LBE69:
 212              	.LBE68:
 213              	.LBE61:
 214              	.LBE60:
 215              		.cfi_endproc
 216              	.LFE141:
 217              		.size	__core_init, .-__core_init
 218              		.section	.text.__default_exit,"ax",%progbits
 219              		.align	1
 220              		.weak	__default_exit
 221              		.syntax unified
 222              		.thumb
 223              		.thumb_func
 224              		.fpu fpv4-sp-d16
 225              		.type	__default_exit, %function
 226              	__default_exit:
 227              	.LFB142:
 228              		.loc 1 187 0
ARM GAS  /tmp/ccPSBNGu.s 			page 5


 229              		.cfi_startproc
 230              		@ Volatile: function does not return.
 231              		@ args = 0, pretend = 0, frame = 0
 232              		@ frame_needed = 0, uses_anonymous_args = 0
 233              		@ link register save eliminated.
 234              	.L9:
 235 0000 FEE7     		b	.L9
 236              		.cfi_endproc
 237              	.LFE142:
 238              		.size	__default_exit, .-__default_exit
 239              		.section	.text.__init_ram_areas,"ax",%progbits
 240              		.align	1
 241              		.global	__init_ram_areas
 242              		.syntax unified
 243              		.thumb
 244              		.thumb_func
 245              		.fpu fpv4-sp-d16
 246              		.type	__init_ram_areas, %function
 247              	__init_ram_areas:
 248              	.LFB143:
 249              		.loc 1 197 0
 250              		.cfi_startproc
 251              		@ args = 0, pretend = 0, frame = 0
 252              		@ frame_needed = 0, uses_anonymous_args = 0
 253              		@ link register save eliminated.
 254              	.LVL6:
 255 0000 084A     		ldr	r2, .L15
 256              	.LBB70:
 257              		.loc 1 203 0
 258 0002 094B     		ldr	r3, .L15+4
 259              		.loc 1 206 0
 260 0004 0949     		ldr	r1, .L15+8
 261              	.LVL7:
 262              	.L11:
 263 0006 8B42     		cmp	r3, r1
 264 0008 04D3     		bcc	.L12
 265              		.loc 1 213 0
 266 000a 094A     		ldr	r2, .L15+12
 267              		.loc 1 214 0
 268 000c 0021     		movs	r1, #0
 269              	.LVL8:
 270              	.L13:
 271              		.loc 1 213 0
 272 000e 9342     		cmp	r3, r2
 273 0010 05D3     		bcc	.L14
 274              	.LBE70:
 275              		.loc 1 221 0
 276 0012 7047     		bx	lr
 277              	.LVL9:
 278              	.L12:
 279              	.LBB71:
 280              		.loc 1 207 0
 281 0014 52F8040F 		ldr	r0, [r2, #4]!
 282 0018 43F8040B 		str	r0, [r3], #4
 283              	.LVL10:
 284 001c F3E7     		b	.L11
 285              	.LVL11:
ARM GAS  /tmp/ccPSBNGu.s 			page 6


 286              	.L14:
 287              		.loc 1 214 0
 288 001e 43F8041B 		str	r1, [r3], #4
 289              	.LVL12:
 290 0022 F4E7     		b	.L13
 291              	.L16:
 292              		.align	2
 293              	.L15:
 294 0024 FCFFFFFF 		.word	__ram0_init_text__-4
 295 0028 00000000 		.word	__ram0_init__
 296 002c 00000000 		.word	__ram0_clear__
 297 0030 00000000 		.word	__ram0_noinit__
 298              	.LBE71:
 299              		.cfi_endproc
 300              	.LFE143:
 301              		.size	__init_ram_areas, .-__init_ram_areas
 302              		.text
 303              	.Letext0:
 304              		.file 4 "/opt/gcc-arm-none-eabi-6-2017-q2-update/arm-none-eabi/include/machine/_default_types.h"
 305              		.file 5 "/opt/gcc-arm-none-eabi-6-2017-q2-update/arm-none-eabi/include/sys/_stdint.h"
 306              		.file 6 "../../modules/ChibiOS/os/common/ext/ST/STM32F7xx/system_stm32f7xx.h"