ARM GAS  /tmp/ccO9HEUj.s 			page 1


   1              		.cpu cortex-m7
   2              		.eabi_attribute 27, 1
   3              		.eabi_attribute 28, 1
   4              		.eabi_attribute 20, 1
   5              		.eabi_attribute 21, 1
   6              		.eabi_attribute 23, 3
   7              		.eabi_attribute 24, 1
   8              		.eabi_attribute 25, 1
   9              		.eabi_attribute 26, 1
  10              		.eabi_attribute 30, 4
  11              		.eabi_attribute 34, 1
  12              		.eabi_attribute 18, 4
  13              		.file	"ff.c"
  14              		.text
  15              	.Ltext0:
  16              		.cfi_sections	.debug_frame
  17              		.section	.text.ld_dword,"ax",%progbits
  18              		.align	1
  19              		.syntax unified
  20              		.thumb
  21              		.thumb_func
  22              		.fpu fpv4-sp-d16
  23              		.type	ld_dword, %function
  24              	ld_dword:
  25              	.LFB302:
  26              		.file 1 "../../modules/ChibiOS/ext/fatfs/src/ff.c"
  27              		.loc 1 559 0
  28              		.cfi_startproc
  29              		@ args = 0, pretend = 0, frame = 0
  30              		@ frame_needed = 0, uses_anonymous_args = 0
  31              		@ link register save eliminated.
  32              	.LVL0:
  33              		.loc 1 563 0
  34 0000 4288     		ldrh	r2, [r0, #2]	@ unaligned
  35              	.LVL1:
  36              		.loc 1 564 0
  37 0002 4378     		ldrb	r3, [r0, #1]	@ zero_extendqisi2
  38              		.loc 1 565 0
  39 0004 0078     		ldrb	r0, [r0]	@ zero_extendqisi2
  40              	.LVL2:
  41              		.loc 1 564 0
  42 0006 43EA0223 		orr	r3, r3, r2, lsl #8
  43              	.LVL3:
  44              		.loc 1 567 0
  45 000a 40EA0320 		orr	r0, r0, r3, lsl #8
  46 000e 7047     		bx	lr
  47              		.cfi_endproc
  48              	.LFE302:
  49              		.size	ld_dword, .-ld_dword
  50              		.section	.text.ld_qword,"ax",%progbits
  51              		.align	1
  52              		.syntax unified
  53              		.thumb
  54              		.thumb_func
  55              		.fpu fpv4-sp-d16
  56              		.type	ld_qword, %function
  57              	ld_qword:
ARM GAS  /tmp/ccO9HEUj.s 			page 2


  58              	.LFB303:
  59              		.loc 1 572 0
  60              		.cfi_startproc
  61              		@ args = 0, pretend = 0, frame = 0
  62              		@ frame_needed = 0, uses_anonymous_args = 0
  63              	.LVL4:
  64 0000 30B5     		push	{r4, r5, lr}
  65              		.cfi_def_cfa_offset 12
  66              		.cfi_offset 4, -12
  67              		.cfi_offset 5, -8
  68              		.cfi_offset 14, -4
  69              		.loc 1 578 0
  70 0002 4168     		ldr	r1, [r0, #4]	@ unaligned
  71              		.loc 1 579 0
  72 0004 0025     		movs	r5, #0
  73 0006 C478     		ldrb	r4, [r0, #3]	@ zero_extendqisi2
  74 0008 0B0E     		lsrs	r3, r1, #24
  75 000a 0A02     		lsls	r2, r1, #8
  76              	.LVL5:
  77              		.loc 1 582 0
  78 000c 0021     		movs	r1, #0
  79              		.loc 1 579 0
  80 000e 1D43     		orrs	r5, r5, r3
  81 0010 1443     		orrs	r4, r4, r2
  82              		.loc 1 580 0
  83 0012 2B02     		lsls	r3, r5, #8
  84 0014 0025     		movs	r5, #0
  85 0016 2202     		lsls	r2, r4, #8
  86              	.LVL6:
  87 0018 43EA1463 		orr	r3, r3, r4, lsr #24
  88              	.LVL7:
  89 001c 8478     		ldrb	r4, [r0, #2]	@ zero_extendqisi2
  90 001e 1D43     		orrs	r5, r5, r3
  91 0020 1443     		orrs	r4, r4, r2
  92              		.loc 1 581 0
  93 0022 2B02     		lsls	r3, r5, #8
  94 0024 0025     		movs	r5, #0
  95 0026 2202     		lsls	r2, r4, #8
  96              	.LVL8:
  97 0028 43EA1463 		orr	r3, r3, r4, lsr #24
  98              	.LVL9:
  99 002c 4478     		ldrb	r4, [r0, #1]	@ zero_extendqisi2
 100              		.loc 1 582 0
 101 002e 0078     		ldrb	r0, [r0]	@ zero_extendqisi2
 102              	.LVL10:
 103              		.loc 1 581 0
 104 0030 1D43     		orrs	r5, r5, r3
 105 0032 1443     		orrs	r4, r4, r2
 106              	.LVL11:
 107              		.loc 1 582 0
 108 0034 2B02     		lsls	r3, r5, #8
 109 0036 2202     		lsls	r2, r4, #8
 110              	.LVL12:
 111 0038 43EA1463 		orr	r3, r3, r4, lsr #24
 112              		.loc 1 584 0
 113 003c 1043     		orrs	r0, r0, r2
 114 003e 1943     		orrs	r1, r1, r3
ARM GAS  /tmp/ccO9HEUj.s 			page 3


 115 0040 30BD     		pop	{r4, r5, pc}
 116              		.cfi_endproc
 117              	.LFE303:
 118              		.size	ld_qword, .-ld_qword
 119              		.section	.text.st_dword,"ax",%progbits
 120              		.align	1
 121              		.syntax unified
 122              		.thumb
 123              		.thumb_func
 124              		.fpu fpv4-sp-d16
 125              		.type	st_dword, %function
 126              	st_dword:
 127              	.LFB305:
 128              		.loc 1 597 0
 129              		.cfi_startproc
 130              		@ args = 0, pretend = 0, frame = 0
 131              		@ frame_needed = 0, uses_anonymous_args = 0
 132              		@ link register save eliminated.
 133              	.LVL13:
 134              		.loc 1 598 0
 135 0000 0B0A     		lsrs	r3, r1, #8
 136 0002 0170     		strb	r1, [r0]
 137              	.LVL14:
 138              		.loc 1 599 0
 139 0004 4370     		strb	r3, [r0, #1]
 140              	.LVL15:
 141 0006 0B0C     		lsrs	r3, r1, #16
 142              	.LVL16:
 143              		.loc 1 600 0
 144 0008 090E     		lsrs	r1, r1, #24
 145 000a 8370     		strb	r3, [r0, #2]
 146              	.LVL17:
 147              		.loc 1 601 0
 148 000c C170     		strb	r1, [r0, #3]
 149 000e 7047     		bx	lr
 150              		.cfi_endproc
 151              	.LFE305:
 152              		.size	st_dword, .-st_dword
 153              		.section	.text.st_qword,"ax",%progbits
 154              		.align	1
 155              		.syntax unified
 156              		.thumb
 157              		.thumb_func
 158              		.fpu fpv4-sp-d16
 159              		.type	st_qword, %function
 160              	st_qword:
 161              	.LFB306:
 162              		.loc 1 607 0
 163              		.cfi_startproc
 164              		@ args = 0, pretend = 0, frame = 0
 165              		@ frame_needed = 0, uses_anonymous_args = 0
 166              		@ link register save eliminated.
 167              	.LVL18:
 168              		.loc 1 608 0
 169 0000 110A     		lsrs	r1, r2, #8
 170 0002 0270     		strb	r2, [r0]
 171              	.LVL19:
ARM GAS  /tmp/ccO9HEUj.s 			page 4


 172              		.loc 1 612 0
 173 0004 0371     		strb	r3, [r0, #4]
 174              		.loc 1 609 0
 175 0006 4170     		strb	r1, [r0, #1]
 176              	.LVL20:
 177 0008 110C     		lsrs	r1, r2, #16
 178              		.loc 1 610 0
 179 000a 120E     		lsrs	r2, r2, #24
 180              	.LVL21:
 181 000c 8170     		strb	r1, [r0, #2]
 182              	.LVL22:
 183              		.loc 1 611 0
 184 000e C270     		strb	r2, [r0, #3]
 185              	.LVL23:
 186              		.loc 1 612 0
 187 0010 1A0A     		lsrs	r2, r3, #8
 188              		.loc 1 613 0
 189 0012 4271     		strb	r2, [r0, #5]
 190              	.LVL24:
 191 0014 1A0C     		lsrs	r2, r3, #16
 192              		.loc 1 614 0
 193 0016 1B0E     		lsrs	r3, r3, #24
 194 0018 8271     		strb	r2, [r0, #6]
 195              	.LVL25:
 196              		.loc 1 615 0
 197 001a C371     		strb	r3, [r0, #7]
 198 001c 7047     		bx	lr
 199              		.cfi_endproc
 200              	.LFE306:
 201              		.size	st_qword, .-st_qword
 202              		.section	.text.mem_set,"ax",%progbits
 203              		.align	1
 204              		.syntax unified
 205              		.thumb
 206              		.thumb_func
 207              		.fpu fpv4-sp-d16
 208              		.type	mem_set, %function
 209              	mem_set:
 210              	.LFB308:
 211              		.loc 1 644 0
 212              		.cfi_startproc
 213              		@ args = 0, pretend = 0, frame = 0
 214              		@ frame_needed = 0, uses_anonymous_args = 0
 215              		@ link register save eliminated.
 216              	.LVL26:
 217 0000 0244     		add	r2, r2, r0
 218              	.LVL27:
 219              	.L6:
 220              		.loc 1 648 0 discriminator 1
 221 0002 00F8011B 		strb	r1, [r0], #1
 222              	.LVL28:
 223              		.loc 1 649 0 discriminator 1
 224 0006 9042     		cmp	r0, r2
 225 0008 FBD1     		bne	.L6
 226              		.loc 1 650 0
 227 000a 7047     		bx	lr
 228              		.cfi_endproc
ARM GAS  /tmp/ccO9HEUj.s 			page 5


 229              	.LFE308:
 230              		.size	mem_set, .-mem_set
 231              		.section	.text.mem_cmp,"ax",%progbits
 232              		.align	1
 233              		.syntax unified
 234              		.thumb
 235              		.thumb_func
 236              		.fpu fpv4-sp-d16
 237              		.type	mem_cmp, %function
 238              	mem_cmp:
 239              	.LFB309:
 240              		.loc 1 656 0
 241              		.cfi_startproc
 242              		@ args = 0, pretend = 0, frame = 0
 243              		@ frame_needed = 0, uses_anonymous_args = 0
 244              	.LVL29:
 245 0000 30B5     		push	{r4, r5, lr}
 246              		.cfi_def_cfa_offset 12
 247              		.cfi_offset 4, -12
 248              		.cfi_offset 5, -8
 249              		.cfi_offset 14, -4
 250              		.loc 1 657 0
 251 0002 0446     		mov	r4, r0
 252              	.LVL30:
 253              	.L10:
 254              		.loc 1 661 0 discriminator 2
 255 0004 14F8013B 		ldrb	r3, [r4], #1	@ zero_extendqisi2
 256              	.LVL31:
 257 0008 11F8015B 		ldrb	r5, [r1], #1	@ zero_extendqisi2
 258              	.LVL32:
 259 000c 5B1B     		subs	r3, r3, r5
 260              	.LVL33:
 261 000e 151B     		subs	r5, r2, r4
 262              		.loc 1 662 0 discriminator 2
 263 0010 E842     		cmn	r0, r5
 264 0012 01D0     		beq	.L8
 265              		.loc 1 662 0 is_stmt 0 discriminator 1
 266 0014 002B     		cmp	r3, #0
 267 0016 F5D0     		beq	.L10
 268              	.L8:
 269              		.loc 1 665 0 is_stmt 1
 270 0018 1846     		mov	r0, r3
 271              	.LVL34:
 272 001a 30BD     		pop	{r4, r5, pc}
 273              		.cfi_endproc
 274              	.LFE309:
 275              		.size	mem_cmp, .-mem_cmp
 276              		.section	.text.clst2sect,"ax",%progbits
 277              		.align	1
 278              		.syntax unified
 279              		.thumb
 280              		.thumb_func
 281              		.fpu fpv4-sp-d16
 282              		.type	clst2sect, %function
 283              	clst2sect:
 284              	.LFB316:
 285              		.loc 1 966 0
ARM GAS  /tmp/ccO9HEUj.s 			page 6


 286              		.cfi_startproc
 287              		@ args = 0, pretend = 0, frame = 0
 288              		@ frame_needed = 0, uses_anonymous_args = 0
 289              		@ link register save eliminated.
 290              	.LVL35:
 291              		.loc 1 968 0
 292 0000 C36A     		ldr	r3, [r0, #44]
 293              		.loc 1 967 0
 294 0002 0239     		subs	r1, r1, #2
 295              	.LVL36:
 296              		.loc 1 968 0
 297 0004 023B     		subs	r3, r3, #2
 298 0006 9942     		cmp	r1, r3
 299              		.loc 1 969 0
 300 0008 3DBF     		ittte	cc
 301 000a 4389     		ldrhcc	r3, [r0, #10]
 302 000c 006C     		ldrcc	r0, [r0, #64]
 303              	.LVL37:
 304 000e 01FB0300 		mlacc	r0, r1, r3, r0
 305              		.loc 1 968 0
 306 0012 0020     		movcs	r0, #0
 307              		.loc 1 970 0
 308 0014 7047     		bx	lr
 309              		.cfi_endproc
 310              	.LFE316:
 311              		.size	clst2sect, .-clst2sect
 312              		.section	.text.sum_sfn,"ax",%progbits
 313              		.align	1
 314              		.syntax unified
 315              		.thumb
 316              		.thumb_func
 317              		.fpu fpv4-sp-d16
 318              		.type	sum_sfn, %function
 319              	sum_sfn:
 320              	.LFB335:
 321              		.loc 1 1887 0
 322              		.cfi_startproc
 323              		@ args = 0, pretend = 0, frame = 0
 324              		@ frame_needed = 0, uses_anonymous_args = 0
 325              		@ link register save eliminated.
 326              	.LVL38:
 327              		.loc 1 1887 0
 328 0000 0246     		mov	r2, r0
 329 0002 00F10B01 		add	r1, r0, #11
 330              		.loc 1 1888 0
 331 0006 0020     		movs	r0, #0
 332              	.LVL39:
 333              	.L18:
 334              		.loc 1 1892 0 discriminator 1
 335 0008 C301     		lsls	r3, r0, #7
 336 000a 43EA5003 		orr	r3, r3, r0, lsr #1
 337 000e 12F8010B 		ldrb	r0, [r2], #1	@ zero_extendqisi2
 338              	.LVL40:
 339 0012 50FA83F3 		uxtab	r3, r0, r3
 340              		.loc 1 1893 0 discriminator 1
 341 0016 8A42     		cmp	r2, r1
 342              		.loc 1 1892 0 discriminator 1
ARM GAS  /tmp/ccO9HEUj.s 			page 7


 343 0018 D8B2     		uxtb	r0, r3
 344              	.LVL41:
 345              		.loc 1 1893 0 discriminator 1
 346 001a F5D1     		bne	.L18
 347              		.loc 1 1895 0
 348 001c 7047     		bx	lr
 349              		.cfi_endproc
 350              	.LFE335:
 351              		.size	sum_sfn, .-sum_sfn
 352              		.section	.text.xdir_sum,"ax",%progbits
 353              		.align	1
 354              		.syntax unified
 355              		.thumb
 356              		.thumb_func
 357              		.fpu fpv4-sp-d16
 358              		.type	xdir_sum, %function
 359              	xdir_sum:
 360              	.LFB336:
 361              		.loc 1 1910 0
 362              		.cfi_startproc
 363              		@ args = 0, pretend = 0, frame = 0
 364              		@ frame_needed = 0, uses_anonymous_args = 0
 365              	.LVL42:
 366 0000 30B5     		push	{r4, r5, lr}
 367              		.cfi_def_cfa_offset 12
 368              		.cfi_offset 4, -12
 369              		.cfi_offset 5, -8
 370              		.cfi_offset 14, -4
 371              		.loc 1 1915 0
 372 0002 4178     		ldrb	r1, [r0, #1]	@ zero_extendqisi2
 373              		.loc 1 1916 0
 374 0004 0022     		movs	r2, #0
 375              		.loc 1 1915 0
 376 0006 0131     		adds	r1, r1, #1
 377              		.loc 1 1916 0
 378 0008 1346     		mov	r3, r2
 379              		.loc 1 1915 0
 380 000a 4901     		lsls	r1, r1, #5
 381              	.LVL43:
 382              	.L23:
 383              		.loc 1 1917 0
 384 000c 022B     		cmp	r3, #2
 385 000e 0FD0     		beq	.L24
 386              		.loc 1 1920 0
 387 0010 12F0010F 		tst	r2, #1
 388 0014 C55C     		ldrb	r5, [r0, r3]	@ zero_extendqisi2
 389 0016 14BF     		ite	ne
 390 0018 4FF40044 		movne	r4, #32768
 391 001c 0024     		moveq	r4, #0
 392 001e 05EB5202 		add	r2, r5, r2, lsr #1
 393              	.LVL44:
 394 0022 2244     		add	r2, r2, r4
 395 0024 92B2     		uxth	r2, r2
 396              	.LVL45:
 397              	.L21:
 398              		.loc 1 1916 0 discriminator 2
 399 0026 0133     		adds	r3, r3, #1
ARM GAS  /tmp/ccO9HEUj.s 			page 8


 400              	.LVL46:
 401 0028 9942     		cmp	r1, r3
 402 002a EFD8     		bhi	.L23
 403              		.loc 1 1924 0
 404 002c 1046     		mov	r0, r2
 405              	.LVL47:
 406 002e 30BD     		pop	{r4, r5, pc}
 407              	.LVL48:
 408              	.L24:
 409              		.loc 1 1918 0
 410 0030 0323     		movs	r3, #3
 411              	.LVL49:
 412 0032 F8E7     		b	.L21
 413              		.cfi_endproc
 414              	.LFE336:
 415              		.size	xdir_sum, .-xdir_sum
 416              		.section	.text.get_ldnumber,"ax",%progbits
 417              		.align	1
 418              		.syntax unified
 419              		.thumb
 420              		.thumb_func
 421              		.fpu fpv4-sp-d16
 422              		.type	get_ldnumber, %function
 423              	get_ldnumber:
 424              	.LFB350:
 425              		.loc 1 2953 0
 426              		.cfi_startproc
 427              		@ args = 0, pretend = 0, frame = 0
 428              		@ frame_needed = 0, uses_anonymous_args = 0
 429              	.LVL50:
 430              		.loc 1 2965 0
 431 0000 0268     		ldr	r2, [r0]
 432              		.loc 1 2953 0
 433 0002 10B5     		push	{r4, lr}
 434              		.cfi_def_cfa_offset 8
 435              		.cfi_offset 4, -8
 436              		.cfi_offset 14, -4
 437              		.loc 1 2965 0
 438 0004 52B1     		cbz	r2, .L37
 439 0006 1146     		mov	r1, r2
 440              	.L29:
 441 0008 0B46     		mov	r3, r1
 442              	.LVL51:
 443              		.loc 1 2966 0 discriminator 1
 444 000a 11F8014B 		ldrb	r4, [r1], #1	@ zero_extendqisi2
 445              	.LVL52:
 446 000e 1F2C     		cmp	r4, #31
 447 0010 0CD9     		bls	.L33
 448              		.loc 1 2966 0 is_stmt 0 discriminator 3
 449 0012 3A2C     		cmp	r4, #58
 450 0014 F8D1     		bne	.L29
 451              	.LVL53:
 452              		.loc 1 2969 0 is_stmt 1
 453 0016 511C     		adds	r1, r2, #1
 454              	.LVL54:
 455              		.loc 1 2970 0
 456 0018 8B42     		cmp	r3, r1
ARM GAS  /tmp/ccO9HEUj.s 			page 9


 457 001a 02D0     		beq	.L31
 458              	.LVL55:
 459              	.L37:
 460              		.loc 1 2956 0
 461 001c 4FF0FF30 		mov	r0, #-1
 462              	.LVL56:
 463              		.loc 1 3001 0
 464 0020 10BD     		pop	{r4, pc}
 465              	.LVL57:
 466              	.L31:
 467              		.loc 1 2971 0
 468 0022 1278     		ldrb	r2, [r2]	@ zero_extendqisi2
 469              	.LVL58:
 470 0024 302A     		cmp	r2, #48
 471 0026 F9D1     		bne	.L37
 472              	.LVL59:
 473              		.loc 1 2973 0
 474 0028 0133     		adds	r3, r3, #1
 475              	.LVL60:
 476 002a 0360     		str	r3, [r0]
 477              	.LVL61:
 478              	.L33:
 479              		.loc 1 2996 0
 480 002c 0020     		movs	r0, #0
 481              	.LVL62:
 482 002e 10BD     		pop	{r4, pc}
 483              		.cfi_endproc
 484              	.LFE350:
 485              		.size	get_ldnumber, .-get_ldnumber
 486              		.section	.text.validate,"ax",%progbits
 487              		.align	1
 488              		.syntax unified
 489              		.thumb
 490              		.thumb_func
 491              		.fpu fpv4-sp-d16
 492              		.type	validate, %function
 493              	validate:
 494              	.LFB353:
 495              		.loc 1 3269 0
 496              		.cfi_startproc
 497              		@ args = 0, pretend = 0, frame = 0
 498              		@ frame_needed = 0, uses_anonymous_args = 0
 499              	.LVL63:
 500 0000 38B5     		push	{r3, r4, r5, lr}
 501              		.cfi_def_cfa_offset 16
 502              		.cfi_offset 3, -16
 503              		.cfi_offset 4, -12
 504              		.cfi_offset 5, -8
 505              		.cfi_offset 14, -4
 506              		.loc 1 3269 0
 507 0002 0D46     		mov	r5, r1
 508              		.loc 1 3273 0
 509 0004 0446     		mov	r4, r0
 510 0006 18B9     		cbnz	r0, .L39
 511              	.LVL64:
 512              	.L41:
 513              		.loc 1 3286 0
ARM GAS  /tmp/ccO9HEUj.s 			page 10


 514 0008 0920     		movs	r0, #9
 515              		.loc 1 3290 0
 516 000a 0023     		movs	r3, #0
 517              	.LVL65:
 518              	.L40:
 519              		.loc 1 3290 0 is_stmt 0 discriminator 4
 520 000c 2B60     		str	r3, [r5]
 521              		.loc 1 3292 0 is_stmt 1 discriminator 4
 522 000e 38BD     		pop	{r3, r4, r5, pc}
 523              	.LVL66:
 524              	.L39:
 525              		.loc 1 3273 0 discriminator 1
 526 0010 0368     		ldr	r3, [r0]
 527 0012 002B     		cmp	r3, #0
 528 0014 F8D0     		beq	.L41
 529              		.loc 1 3273 0 is_stmt 0 discriminator 2
 530 0016 1A78     		ldrb	r2, [r3]	@ zero_extendqisi2
 531 0018 002A     		cmp	r2, #0
 532 001a F5D0     		beq	.L41
 533              		.loc 1 3273 0 discriminator 3
 534 001c 8188     		ldrh	r1, [r0, #4]
 535              	.LVL67:
 536 001e DA88     		ldrh	r2, [r3, #6]
 537 0020 9142     		cmp	r1, r2
 538 0022 F1D1     		bne	.L41
 539              		.loc 1 3285 0 is_stmt 1
 540 0024 5878     		ldrb	r0, [r3, #1]	@ zero_extendqisi2
 541              	.LVL68:
 542 0026 FFF7FEFF 		bl	disk_status
 543              	.LVL69:
 544 002a 10F00100 		ands	r0, r0, #1
 545 002e EBD1     		bne	.L41
 546              	.LVL70:
 547              		.loc 1 3290 0
 548 0030 2368     		ldr	r3, [r4]
 549 0032 EBE7     		b	.L40
 550              		.cfi_endproc
 551              	.LFE353:
 552              		.size	validate, .-validate
 553              		.section	.text.get_fileinfo,"ax",%progbits
 554              		.align	1
 555              		.syntax unified
 556              		.thumb
 557              		.thumb_func
 558              		.fpu fpv4-sp-d16
 559              		.type	get_fileinfo, %function
 560              	get_fileinfo:
 561              	.LFB347:
 562              		.loc 1 2481 0
 563              		.cfi_startproc
 564              		@ args = 0, pretend = 0, frame = 0
 565              		@ frame_needed = 0, uses_anonymous_args = 0
 566              	.LVL71:
 567 0000 2DE9F041 		push	{r4, r5, r6, r7, r8, lr}
 568              		.cfi_def_cfa_offset 24
 569              		.cfi_offset 4, -24
 570              		.cfi_offset 5, -20
ARM GAS  /tmp/ccO9HEUj.s 			page 11


 571              		.cfi_offset 6, -16
 572              		.cfi_offset 7, -12
 573              		.cfi_offset 8, -8
 574              		.cfi_offset 14, -4
 575              		.loc 1 2491 0
 576 0004 0025     		movs	r5, #0
 577              		.loc 1 2487 0
 578 0006 D0F80080 		ldr	r8, [r0]
 579              	.LVL72:
 580              		.loc 1 2481 0
 581 000a 0746     		mov	r7, r0
 582 000c 0C46     		mov	r4, r1
 583              		.loc 1 2491 0
 584 000e 8D76     		strb	r5, [r1, #26]
 585              		.loc 1 2492 0
 586 0010 836B     		ldr	r3, [r0, #56]
 587 0012 002B     		cmp	r3, #0
 588 0014 00F0AF80 		beq	.L50
 589              		.loc 1 2496 0
 590 0018 98F80030 		ldrb	r3, [r8]	@ zero_extendqisi2
 591 001c 042B     		cmp	r3, #4
 592 001e 4BD1     		bne	.L52
 593              		.loc 1 2497 0
 594 0020 D8F81070 		ldr	r7, [r8, #16]
 595              	.LVL73:
 596              	.LBB147:
 597              	.LBB148:
 598              		.loc 1 1974 0
 599 0024 2E46     		mov	r6, r5
 600 0026 4FF04008 		mov	r8, #64
 601              	.LVL74:
 602              	.L53:
 603 002a 97F82330 		ldrb	r3, [r7, #35]	@ zero_extendqisi2
 604 002e 9D42     		cmp	r5, r3
 605 0030 01D3     		bcc	.L59
 606              		.loc 1 1986 0
 607 0032 26BB     		cbnz	r6, .L57
 608 0034 20E0     		b	.L58
 609              	.L59:
 610              		.loc 1 1975 0
 611 0036 18F01F0F 		tst	r8, #31
 612              		.loc 1 1978 0
 613 003a 40F25231 		movw	r1, #850
 614              		.loc 1 1975 0
 615 003e 08BF     		it	eq
 616 0040 08F10208 		addeq	r8, r8, #2
 617              	.LVL75:
 618              		.loc 1 1976 0
 619 0044 07EB0803 		add	r3, r7, r8
 620              	.LBB149:
 621              	.LBB150:
 622              		.loc 1 553 0
 623 0048 5878     		ldrb	r0, [r3, #1]	@ zero_extendqisi2
 624 004a 17F80830 		ldrb	r3, [r7, r8]	@ zero_extendqisi2
 625              	.LBE150:
 626              	.LBE149:
 627              		.loc 1 1978 0
ARM GAS  /tmp/ccO9HEUj.s 			page 12


 628 004e 43EA0020 		orr	r0, r3, r0, lsl #8
 629 0052 FFF7FEFF 		bl	ff_uni2oem
 630              	.LVL76:
 631              		.loc 1 1979 0
 632 0056 FF28     		cmp	r0, #255
 633 0058 0CD9     		bls	.L55
 634              	.LVL77:
 635              		.loc 1 1980 0
 636 005a A319     		adds	r3, r4, r6
 637 005c 020A     		lsrs	r2, r0, #8
 638 005e 0136     		adds	r6, r6, #1
 639              	.LVL78:
 640 0060 9A76     		strb	r2, [r3, #26]
 641              	.LVL79:
 642              	.L56:
 643              		.loc 1 1983 0
 644 0062 FE2E     		cmp	r6, #254
 645 0064 08D8     		bhi	.L58
 646              	.LVL80:
 647              		.loc 1 1984 0
 648 0066 A319     		adds	r3, r4, r6
 649              		.loc 1 1974 0
 650 0068 08F10208 		add	r8, r8, #2
 651              	.LVL81:
 652 006c 0135     		adds	r5, r5, #1
 653              	.LVL82:
 654              		.loc 1 1984 0
 655 006e 0136     		adds	r6, r6, #1
 656              	.LVL83:
 657 0070 9876     		strb	r0, [r3, #26]
 658 0072 DAE7     		b	.L53
 659              	.L55:
 660              		.loc 1 1983 0
 661 0074 0028     		cmp	r0, #0
 662 0076 F4D1     		bne	.L56
 663              	.LVL84:
 664              	.L58:
 665              		.loc 1 1986 0
 666 0078 3F23     		movs	r3, #63
 667 007a 0126     		movs	r6, #1
 668 007c A376     		strb	r3, [r4, #26]
 669              	.LVL85:
 670              	.L57:
 671              		.loc 1 1987 0
 672 007e 0023     		movs	r3, #0
 673 0080 2644     		add	r6, r6, r4
 674              	.LVL86:
 675 0082 B376     		strb	r3, [r6, #26]
 676              		.loc 1 1989 0
 677 0084 6373     		strb	r3, [r4, #13]
 678              		.loc 1 1990 0
 679 0086 3B79     		ldrb	r3, [r7, #4]	@ zero_extendqisi2
 680 0088 2373     		strb	r3, [r4, #12]
 681              		.loc 1 1991 0
 682 008a DB06     		lsls	r3, r3, #27
 683 008c 11D4     		bmi	.L77
 684 008e 07F13800 		add	r0, r7, #56
ARM GAS  /tmp/ccO9HEUj.s 			page 13


 685 0092 FFF7FEFF 		bl	ld_qword
 686              	.LVL87:
 687              	.L60:
 688 0096 C4E90001 		strd	r0, [r4]
 689              	.LBB151:
 690              	.LBB152:
 691              		.loc 1 553 0
 692 009a 7A7B     		ldrb	r2, [r7, #13]	@ zero_extendqisi2
 693 009c 3B7B     		ldrb	r3, [r7, #12]	@ zero_extendqisi2
 694 009e 43EA0223 		orr	r3, r3, r2, lsl #8
 695              	.LBE152:
 696              	.LBE151:
 697              		.loc 1 1992 0
 698 00a2 6381     		strh	r3, [r4, #10]	@ movhi
 699              	.LBB153:
 700              	.LBB154:
 701              		.loc 1 553 0
 702 00a4 FA7B     		ldrb	r2, [r7, #15]	@ zero_extendqisi2
 703 00a6 BB7B     		ldrb	r3, [r7, #14]	@ zero_extendqisi2
 704 00a8 43EA0223 		orr	r3, r3, r2, lsl #8
 705              	.LBE154:
 706              	.LBE153:
 707              		.loc 1 1993 0
 708 00ac 2381     		strh	r3, [r4, #8]	@ movhi
 709 00ae BDE8F081 		pop	{r4, r5, r6, r7, r8, pc}
 710              	.LVL88:
 711              	.L77:
 712              		.loc 1 1991 0
 713 00b2 0020     		movs	r0, #0
 714 00b4 0021     		movs	r1, #0
 715 00b6 EEE7     		b	.L60
 716              	.LVL89:
 717              	.L52:
 718              	.LBE148:
 719              	.LBE147:
 720              		.loc 1 2502 0
 721 00b8 C36C     		ldr	r3, [r0, #76]
 722 00ba 0133     		adds	r3, r3, #1
 723 00bc 0ED0     		beq	.L61
 724 00be 2E46     		mov	r6, r5
 725              	.LVL90:
 726              	.L62:
 727              		.loc 1 2504 0
 728 00c0 D8F80C30 		ldr	r3, [r8, #12]
 729 00c4 585B     		ldrh	r0, [r3, r5]
 730              	.LVL91:
 731 00c6 30B1     		cbz	r0, .L64
 732              		.loc 1 2506 0
 733 00c8 40F25231 		movw	r1, #850
 734 00cc FFF7FEFF 		bl	ff_uni2oem
 735              	.LVL92:
 736              		.loc 1 2507 0
 737 00d0 0028     		cmp	r0, #0
 738 00d2 52D1     		bne	.L63
 739              	.L66:
 740 00d4 0026     		movs	r6, #0
 741              	.LVL93:
ARM GAS  /tmp/ccO9HEUj.s 			page 14


 742              	.L64:
 743              		.loc 1 2515 0
 744 00d6 2644     		add	r6, r6, r4
 745              	.LVL94:
 746 00d8 0023     		movs	r3, #0
 747 00da B376     		strb	r3, [r6, #26]
 748              	.LVL95:
 749              	.L61:
 750              		.loc 1 2522 0
 751 00dc F96B     		ldr	r1, [r7, #60]
 752              		.loc 1 2519 0
 753 00de 0023     		movs	r3, #0
 754              		.loc 1 2520 0
 755 00e0 A57E     		ldrb	r5, [r4, #26]	@ zero_extendqisi2
 756              	.LVL96:
 757              		.loc 1 2527 0
 758 00e2 2E27     		movs	r7, #46
 759              	.LVL97:
 760 00e4 4E1E     		subs	r6, r1, #1
 761              		.loc 1 2519 0
 762 00e6 1846     		mov	r0, r3
 763              	.LVL98:
 764              	.L75:
 765              		.loc 1 2522 0
 766 00e8 16F8012F 		ldrb	r2, [r6, #1]!	@ zero_extendqisi2
 767 00ec 0130     		adds	r0, r0, #1
 768              	.LVL99:
 769              		.loc 1 2523 0
 770 00ee 202A     		cmp	r2, #32
 771 00f0 26D0     		beq	.L68
 772              		.loc 1 2524 0
 773 00f2 052A     		cmp	r2, #5
 774 00f4 08BF     		it	eq
 775 00f6 E522     		moveq	r2, #229
 776              	.LVL100:
 777              		.loc 1 2525 0
 778 00f8 0928     		cmp	r0, #9
 779 00fa 07D1     		bne	.L70
 780 00fc 04EB030E 		add	lr, r4, r3
 781              		.loc 1 2526 0
 782 0100 0DB9     		cbnz	r5, .L71
 783              		.loc 1 2526 0 is_stmt 0 discriminator 1
 784 0102 8EF81A70 		strb	r7, [lr, #26]
 785              	.L71:
 786              	.LVL101:
 787              		.loc 1 2527 0 is_stmt 1
 788 0106 0133     		adds	r3, r3, #1
 789              	.LVL102:
 790 0108 8EF80D70 		strb	r7, [lr, #13]
 791              	.L70:
 792              		.loc 1 2536 0
 793 010c 04EB030E 		add	lr, r4, r3
 794 0110 8EF80D20 		strb	r2, [lr, #13]
 795              		.loc 1 2537 0
 796 0114 9DB9     		cbnz	r5, .L72
 797              		.loc 1 2538 0
 798 0116 A2F1410C 		sub	ip, r2, #65
ARM GAS  /tmp/ccO9HEUj.s 			page 15


 799 011a BCF1190F 		cmp	ip, #25
 800 011e 0CD8     		bhi	.L73
 801              		.loc 1 2538 0 is_stmt 0 discriminator 1
 802 0120 0828     		cmp	r0, #8
 803 0122 91F80CC0 		ldrb	ip, [r1, #12]	@ zero_extendqisi2
 804 0126 8CBF     		ite	hi
 805 0128 4FF01008 		movhi	r8, #16
 806 012c 4FF00808 		movls	r8, #8
 807 0130 18EA0C0F 		tst	r8, ip
 808              		.loc 1 2539 0 is_stmt 1 discriminator 1
 809 0134 1CBF     		itt	ne
 810 0136 2032     		addne	r2, r2, #32
 811              	.LVL103:
 812 0138 D2B2     		uxtbne	r2, r2
 813              	.LVL104:
 814              	.L73:
 815              		.loc 1 2541 0
 816 013a 8EF81A20 		strb	r2, [lr, #26]
 817              	.L72:
 818              		.loc 1 2543 0
 819 013e 0133     		adds	r3, r3, #1
 820              	.LVL105:
 821              	.L68:
 822              		.loc 1 2521 0
 823 0140 0B28     		cmp	r0, #11
 824 0142 D1D1     		bne	.L75
 825              		.loc 1 2545 0
 826 0144 2DB9     		cbnz	r5, .L76
 827              		.loc 1 2546 0
 828 0146 E218     		adds	r2, r4, r3
 829              	.LVL106:
 830 0148 9576     		strb	r5, [r2, #26]
 831              		.loc 1 2547 0
 832 014a 0A7B     		ldrb	r2, [r1, #12]	@ zero_extendqisi2
 833 014c 002A     		cmp	r2, #0
 834 014e 08BF     		it	eq
 835 0150 0023     		moveq	r3, #0
 836              	.LVL107:
 837              	.L76:
 838              		.loc 1 2549 0
 839 0152 2344     		add	r3, r3, r4
 840              	.LVL108:
 841 0154 0025     		movs	r5, #0
 842              	.LVL109:
 843              		.loc 1 2564 0
 844 0156 01F11C00 		add	r0, r1, #28
 845              	.LVL110:
 846              		.loc 1 2549 0
 847 015a 5D73     		strb	r5, [r3, #13]
 848              		.loc 1 2563 0
 849 015c CB7A     		ldrb	r3, [r1, #11]	@ zero_extendqisi2
 850 015e 2373     		strb	r3, [r4, #12]
 851              		.loc 1 2564 0
 852 0160 FFF7FEFF 		bl	ld_dword
 853              	.LVL111:
 854 0164 84E82100 		stm	r4, {r0, r5}
 855              		.loc 1 2565 0
ARM GAS  /tmp/ccO9HEUj.s 			page 16


 856 0168 01F11600 		add	r0, r1, #22
 857 016c FFF7FEFF 		bl	ld_dword
 858              	.LVL112:
 859              		.loc 1 2566 0
 860 0170 6081     		strh	r0, [r4, #10]	@ movhi
 861 0172 000C     		lsrs	r0, r0, #16
 862              	.LVL113:
 863 0174 2081     		strh	r0, [r4, #8]	@ movhi
 864              	.L50:
 865 0176 BDE8F081 		pop	{r4, r5, r6, r7, r8, pc}
 866              	.LVL114:
 867              	.L63:
 868              		.loc 1 2508 0
 869 017a FF28     		cmp	r0, #255
 870 017c 05F10205 		add	r5, r5, #2
 871              		.loc 1 2509 0
 872 0180 81BF     		itttt	hi
 873 0182 A319     		addhi	r3, r4, r6
 874 0184 020A     		lsrhi	r2, r0, #8
 875 0186 0136     		addhi	r6, r6, #1
 876              	.LVL115:
 877 0188 9A76     		strbhi	r2, [r3, #26]
 878              		.loc 1 2512 0
 879 018a FE2E     		cmp	r6, #254
 880 018c A2D8     		bhi	.L66
 881              	.LVL116:
 882              		.loc 1 2513 0
 883 018e A319     		adds	r3, r4, r6
 884 0190 0136     		adds	r6, r6, #1
 885              	.LVL117:
 886 0192 9876     		strb	r0, [r3, #26]
 887 0194 94E7     		b	.L62
 888              		.cfi_endproc
 889              	.LFE347:
 890              		.size	get_fileinfo, .-get_fileinfo
 891              		.section	.text.xname_sum,"ax",%progbits
 892              		.align	1
 893              		.syntax unified
 894              		.thumb
 895              		.thumb_func
 896              		.fpu fpv4-sp-d16
 897              		.type	xname_sum, %function
 898              	xname_sum:
 899              	.LFB337:
 900              		.loc 1 1932 0
 901              		.cfi_startproc
 902              		@ args = 0, pretend = 0, frame = 0
 903              		@ frame_needed = 0, uses_anonymous_args = 0
 904              	.LVL118:
 905 0000 38B5     		push	{r3, r4, r5, lr}
 906              		.cfi_def_cfa_offset 16
 907              		.cfi_offset 3, -16
 908              		.cfi_offset 4, -12
 909              		.cfi_offset 5, -8
 910              		.cfi_offset 14, -4
 911              		.loc 1 1932 0
 912 0002 0546     		mov	r5, r0
ARM GAS  /tmp/ccO9HEUj.s 			page 17


 913              		.loc 1 1934 0
 914 0004 0024     		movs	r4, #0
 915              	.LVL119:
 916              	.L96:
 917              		.loc 1 1937 0
 918 0006 35F8020B 		ldrh	r0, [r5], #2
 919              	.LVL120:
 920 000a 08B9     		cbnz	r0, .L99
 921              		.loc 1 1943 0
 922 000c 2046     		mov	r0, r4
 923              	.LVL121:
 924 000e 38BD     		pop	{r3, r4, r5, pc}
 925              	.LVL122:
 926              	.L99:
 927              		.loc 1 1938 0
 928 0010 FFF7FEFF 		bl	ff_wtoupper
 929              	.LVL123:
 930              		.loc 1 1939 0
 931 0014 14F0010F 		tst	r4, #1
 932 0018 C2B2     		uxtb	r2, r0
 933 001a 14BF     		ite	ne
 934 001c 4FF40043 		movne	r3, #32768
 935 0020 0023     		moveq	r3, #0
 936 0022 02EB5404 		add	r4, r2, r4, lsr #1
 937              	.LVL124:
 938              		.loc 1 1940 0
 939 0026 000A     		lsrs	r0, r0, #8
 940              	.LVL125:
 941              		.loc 1 1939 0
 942 0028 2344     		add	r3, r3, r4
 943 002a 9BB2     		uxth	r3, r3
 944              	.LVL126:
 945              		.loc 1 1940 0
 946 002c 13F0010F 		tst	r3, #1
 947 0030 00EB5300 		add	r0, r0, r3, lsr #1
 948 0034 14BF     		ite	ne
 949 0036 4FF40042 		movne	r2, #32768
 950 003a 0022     		moveq	r2, #0
 951 003c 12FA80F0 		uxtah	r0, r2, r0
 952 0040 84B2     		uxth	r4, r0
 953              	.LVL127:
 954 0042 E0E7     		b	.L96
 955              		.cfi_endproc
 956              	.LFE337:
 957              		.size	xname_sum, .-xname_sum
 958              		.section	.text.mem_cpy.part.0,"ax",%progbits
 959              		.align	1
 960              		.syntax unified
 961              		.thumb
 962              		.thumb_func
 963              		.fpu fpv4-sp-d16
 964              		.type	mem_cpy.part.0, %function
 965              	mem_cpy.part.0:
 966              	.LFB373:
 967              		.loc 1 628 0
 968              		.cfi_startproc
 969              		@ args = 0, pretend = 0, frame = 0
ARM GAS  /tmp/ccO9HEUj.s 			page 18


 970              		@ frame_needed = 0, uses_anonymous_args = 0
 971              		@ link register save eliminated.
 972              	.LVL128:
 973 0000 0138     		subs	r0, r0, #1
 974              	.LVL129:
 975 0002 0A44     		add	r2, r2, r1
 976              	.LVL130:
 977              	.L103:
 978              		.loc 1 635 0
 979 0004 11F8013B 		ldrb	r3, [r1], #1	@ zero_extendqisi2
 980              	.LVL131:
 981              		.loc 1 636 0
 982 0008 9142     		cmp	r1, r2
 983              		.loc 1 635 0
 984 000a 00F8013F 		strb	r3, [r0, #1]!
 985              	.LVL132:
 986              		.loc 1 636 0
 987 000e F9D1     		bne	.L103
 988              		.loc 1 638 0
 989 0010 7047     		bx	lr
 990              		.cfi_endproc
 991              	.LFE373:
 992              		.size	mem_cpy.part.0, .-mem_cpy.part.0
 993              		.section	.text.ld_clust.isra.3,"ax",%progbits
 994              		.align	1
 995              		.syntax unified
 996              		.thumb
 997              		.thumb_func
 998              		.fpu fpv4-sp-d16
 999              		.type	ld_clust.isra.3, %function
 1000              	ld_clust.isra.3:
 1001              	.LFB376:
 1002              		.loc 1 1675 0
 1003              		.cfi_startproc
 1004              		@ args = 0, pretend = 0, frame = 0
 1005              		@ frame_needed = 0, uses_anonymous_args = 0
 1006              		@ link register save eliminated.
 1007              	.LVL133:
 1008              		.loc 1 1683 0
 1009 0000 0328     		cmp	r0, #3
 1010              	.LBB155:
 1011              	.LBB156:
 1012              		.loc 1 553 0
 1013 0002 CA7E     		ldrb	r2, [r1, #27]	@ zero_extendqisi2
 1014 0004 8B7E     		ldrb	r3, [r1, #26]	@ zero_extendqisi2
 1015              	.LBE156:
 1016              	.LBE155:
 1017              	.LBB157:
 1018              	.LBB158:
 1019 0006 08BF     		it	eq
 1020 0008 487D     		ldrbeq	r0, [r1, #21]	@ zero_extendqisi2
 1021              	.LBE158:
 1022              	.LBE157:
 1023              		.loc 1 1682 0
 1024 000a 43EA0223 		orr	r3, r3, r2, lsl #8
 1025              	.LVL134:
 1026              	.LBB160:
ARM GAS  /tmp/ccO9HEUj.s 			page 19


 1027              	.LBB159:
 1028              		.loc 1 553 0
 1029 000e 02BF     		ittt	eq
 1030 0010 0A7D     		ldrbeq	r2, [r1, #20]	@ zero_extendqisi2
 1031              	.LBE159:
 1032              	.LBE160:
 1033              		.loc 1 1684 0
 1034 0012 42EA0022 		orreq	r2, r2, r0, lsl #8
 1035 0016 43EA0243 		orreq	r3, r3, r2, lsl #16
 1036              	.LVL135:
 1037              		.loc 1 1688 0
 1038 001a 1846     		mov	r0, r3
 1039 001c 7047     		bx	lr
 1040              		.cfi_endproc
 1041              	.LFE376:
 1042              		.size	ld_clust.isra.3, .-ld_clust.isra.3
 1043              		.section	.text.st_clust.isra.4,"ax",%progbits
 1044              		.align	1
 1045              		.syntax unified
 1046              		.thumb
 1047              		.thumb_func
 1048              		.fpu fpv4-sp-d16
 1049              		.type	st_clust.isra.4, %function
 1050              	st_clust.isra.4:
 1051              	.LFB377:
 1052              		.loc 1 1693 0
 1053              		.cfi_startproc
 1054              		@ args = 0, pretend = 0, frame = 0
 1055              		@ frame_needed = 0, uses_anonymous_args = 0
 1056              		@ link register save eliminated.
 1057              	.LVL136:
 1058              	.LBB161:
 1059              	.LBB162:
 1060              		.loc 1 591 0
 1061 0000 C2F30723 		ubfx	r3, r2, #8, #8
 1062 0004 8A76     		strb	r2, [r1, #26]
 1063              	.LVL137:
 1064              		.loc 1 592 0
 1065 0006 CB76     		strb	r3, [r1, #27]
 1066              	.LVL138:
 1067              	.LBE162:
 1068              	.LBE161:
 1069              		.loc 1 1700 0
 1070 0008 0378     		ldrb	r3, [r0]	@ zero_extendqisi2
 1071 000a 032B     		cmp	r3, #3
 1072              		.loc 1 1701 0
 1073 000c 01BF     		itttt	eq
 1074 000e 120C     		lsreq	r2, r2, #16
 1075              	.LVL139:
 1076              	.LBB163:
 1077              	.LBB164:
 1078              		.loc 1 591 0
 1079 0010 0A75     		strbeq	r2, [r1, #20]
 1080              	.LVL140:
 1081 0012 120A     		lsreq	r2, r2, #8
 1082              	.LVL141:
 1083              		.loc 1 592 0
ARM GAS  /tmp/ccO9HEUj.s 			page 20


 1084 0014 4A75     		strbeq	r2, [r1, #21]
 1085 0016 7047     		bx	lr
 1086              	.LBE164:
 1087              	.LBE163:
 1088              		.cfi_endproc
 1089              	.LFE377:
 1090              		.size	st_clust.isra.4, .-st_clust.isra.4
 1091              		.section	.text.sync_window,"ax",%progbits
 1092              		.align	1
 1093              		.syntax unified
 1094              		.thumb
 1095              		.thumb_func
 1096              		.fpu fpv4-sp-d16
 1097              		.type	sync_window, %function
 1098              	sync_window:
 1099              	.LFB313:
 1100              		.loc 1 872 0
 1101              		.cfi_startproc
 1102              		@ args = 0, pretend = 0, frame = 0
 1103              		@ frame_needed = 0, uses_anonymous_args = 0
 1104              	.LVL142:
 1105 0000 70B5     		push	{r4, r5, r6, lr}
 1106              		.cfi_def_cfa_offset 16
 1107              		.cfi_offset 4, -16
 1108              		.cfi_offset 5, -12
 1109              		.cfi_offset 6, -8
 1110              		.cfi_offset 14, -4
 1111              		.loc 1 876 0
 1112 0002 C378     		ldrb	r3, [r0, #3]	@ zero_extendqisi2
 1113              		.loc 1 872 0
 1114 0004 0446     		mov	r4, r0
 1115              		.loc 1 876 0
 1116 0006 0BB9     		cbnz	r3, .L110
 1117              	.LVL143:
 1118              	.L112:
 1119              		.loc 1 873 0
 1120 0008 0020     		movs	r0, #0
 1121 000a 70BD     		pop	{r4, r5, r6, pc}
 1122              	.LVL144:
 1123              	.L110:
 1124              	.LBB167:
 1125              	.LBB168:
 1126              		.loc 1 877 0
 1127 000c 00F14806 		add	r6, r0, #72
 1128 0010 426C     		ldr	r2, [r0, #68]
 1129 0012 0123     		movs	r3, #1
 1130 0014 4078     		ldrb	r0, [r0, #1]	@ zero_extendqisi2
 1131              	.LVL145:
 1132 0016 3146     		mov	r1, r6
 1133 0018 FFF7FEFF 		bl	disk_write
 1134              	.LVL146:
 1135 001c 80B9     		cbnz	r0, .L113
 1136              		.loc 1 879 0
 1137 001e 616C     		ldr	r1, [r4, #68]
 1138 0020 A36B     		ldr	r3, [r4, #56]
 1139 0022 226B     		ldr	r2, [r4, #48]
 1140 0024 CB1A     		subs	r3, r1, r3
ARM GAS  /tmp/ccO9HEUj.s 			page 21


 1141              		.loc 1 878 0
 1142 0026 E070     		strb	r0, [r4, #3]
 1143              		.loc 1 879 0
 1144 0028 9342     		cmp	r3, r2
 1145 002a EDD2     		bcs	.L112
 1146              		.loc 1 880 0
 1147 002c A378     		ldrb	r3, [r4, #2]	@ zero_extendqisi2
 1148 002e 022B     		cmp	r3, #2
 1149 0030 EAD1     		bne	.L112
 1150 0032 0A44     		add	r2, r2, r1
 1151 0034 0123     		movs	r3, #1
 1152 0036 3146     		mov	r1, r6
 1153 0038 6078     		ldrb	r0, [r4, #1]	@ zero_extendqisi2
 1154 003a FFF7FEFF 		bl	disk_write
 1155              	.LVL147:
 1156 003e E3E7     		b	.L112
 1157              	.L113:
 1158              		.loc 1 883 0
 1159 0040 0120     		movs	r0, #1
 1160              	.LVL148:
 1161              	.LBE168:
 1162              	.LBE167:
 1163              		.loc 1 887 0
 1164 0042 70BD     		pop	{r4, r5, r6, pc}
 1165              		.cfi_endproc
 1166              	.LFE313:
 1167              		.size	sync_window, .-sync_window
 1168              		.section	.text.dir_clear,"ax",%progbits
 1169              		.align	1
 1170              		.syntax unified
 1171              		.thumb
 1172              		.thumb_func
 1173              		.fpu fpv4-sp-d16
 1174              		.type	dir_clear, %function
 1175              	dir_clear:
 1176              	.LFB325:
 1177              		.loc 1 1486 0
 1178              		.cfi_startproc
 1179              		@ args = 0, pretend = 0, frame = 0
 1180              		@ frame_needed = 0, uses_anonymous_args = 0
 1181              	.LVL149:
 1182 0000 2DE9F843 		push	{r3, r4, r5, r6, r7, r8, r9, lr}
 1183              		.cfi_def_cfa_offset 32
 1184              		.cfi_offset 3, -32
 1185              		.cfi_offset 4, -28
 1186              		.cfi_offset 5, -24
 1187              		.cfi_offset 6, -20
 1188              		.cfi_offset 7, -16
 1189              		.cfi_offset 8, -12
 1190              		.cfi_offset 9, -8
 1191              		.cfi_offset 14, -4
 1192              		.loc 1 1486 0
 1193 0004 0646     		mov	r6, r0
 1194 0006 0D46     		mov	r5, r1
 1195              		.loc 1 1492 0
 1196 0008 FFF7FEFF 		bl	sync_window
 1197              	.LVL150:
ARM GAS  /tmp/ccO9HEUj.s 			page 22


 1198 000c 0446     		mov	r4, r0
 1199 000e 0028     		cmp	r0, #0
 1200 0010 47D1     		bne	.L127
 1201              		.loc 1 1495 0
 1202 0012 06F14809 		add	r9, r6, #72
 1203              		.loc 1 1493 0
 1204 0016 2946     		mov	r1, r5
 1205 0018 3046     		mov	r0, r6
 1206 001a FFF7FEFF 		bl	clst2sect
 1207              	.LVL151:
 1208              		.loc 1 1495 0
 1209 001e 2146     		mov	r1, r4
 1210              		.loc 1 1494 0
 1211 0020 7064     		str	r0, [r6, #68]
 1212              		.loc 1 1493 0
 1213 0022 0746     		mov	r7, r0
 1214              	.LVL152:
 1215              		.loc 1 1495 0
 1216 0024 4FF40072 		mov	r2, #512
 1217 0028 4846     		mov	r0, r9
 1218              	.LVL153:
 1219 002a FFF7FEFF 		bl	mem_set
 1220              	.LVL154:
 1221              		.loc 1 1498 0
 1222 002e 7489     		ldrh	r4, [r6, #10]
 1223 0030 6402     		lsls	r4, r4, #9
 1224 0032 B4F5004F 		cmp	r4, #32768
 1225 0036 28BF     		it	cs
 1226 0038 4FF40044 		movcs	r4, #32768
 1227              	.LVL155:
 1228              	.L116:
 1229              		.loc 1 1498 0 is_stmt 0 discriminator 1
 1230 003c B4F5007F 		cmp	r4, #512
 1231 0040 0ED8     		bhi	.L117
 1232 0042 0025     		movs	r5, #0
 1233              	.LVL156:
 1234              	.L118:
 1235              		.loc 1 1508 0 is_stmt 1 discriminator 1
 1236 0044 7389     		ldrh	r3, [r6, #10]
 1237 0046 9D42     		cmp	r5, r3
 1238 0048 25D2     		bcs	.L122
 1239              		.loc 1 1508 0 is_stmt 0 discriminator 3
 1240 004a 0123     		movs	r3, #1
 1241 004c EA19     		adds	r2, r5, r7
 1242 004e 4946     		mov	r1, r9
 1243 0050 7078     		ldrb	r0, [r6, #1]	@ zero_extendqisi2
 1244 0052 FFF7FEFF 		bl	disk_write
 1245              	.LVL157:
 1246 0056 F0B9     		cbnz	r0, .L122
 1247              		.loc 1 1508 0 discriminator 4
 1248 0058 0135     		adds	r5, r5, #1
 1249              	.LVL158:
 1250 005a F3E7     		b	.L118
 1251              	.LVL159:
 1252              	.L119:
 1253              		.loc 1 1498 0 is_stmt 1 discriminator 4
 1254 005c 6408     		lsrs	r4, r4, #1
ARM GAS  /tmp/ccO9HEUj.s 			page 23


 1255              	.LVL160:
 1256 005e EDE7     		b	.L116
 1257              	.LVL161:
 1258              	.L117:
 1259              		.loc 1 1498 0 is_stmt 0 discriminator 3
 1260 0060 2046     		mov	r0, r4
 1261 0062 FFF7FEFF 		bl	ff_memalloc
 1262              	.LVL162:
 1263 0066 8046     		mov	r8, r0
 1264 0068 0028     		cmp	r0, #0
 1265 006a F7D0     		beq	.L119
 1266              		.loc 1 1500 0 is_stmt 1
 1267 006c 2246     		mov	r2, r4
 1268 006e 0021     		movs	r1, #0
 1269 0070 FFF7FEFF 		bl	mem_set
 1270              	.LVL163:
 1271              		.loc 1 1502 0
 1272 0074 0025     		movs	r5, #0
 1273              	.LVL164:
 1274              		.loc 1 1501 0
 1275 0076 640A     		lsrs	r4, r4, #9
 1276              	.LVL165:
 1277              		.loc 1 1502 0
 1278 0078 07E0     		b	.L126
 1279              	.LVL166:
 1280              	.L121:
 1281              		.loc 1 1502 0 is_stmt 0 discriminator 3
 1282 007a 2346     		mov	r3, r4
 1283 007c EA19     		adds	r2, r5, r7
 1284 007e 4146     		mov	r1, r8
 1285 0080 7078     		ldrb	r0, [r6, #1]	@ zero_extendqisi2
 1286 0082 FFF7FEFF 		bl	disk_write
 1287              	.LVL167:
 1288 0086 18B9     		cbnz	r0, .L124
 1289              		.loc 1 1502 0 discriminator 4
 1290 0088 2544     		add	r5, r5, r4
 1291              	.LVL168:
 1292              	.L126:
 1293              		.loc 1 1502 0 discriminator 1
 1294 008a 7389     		ldrh	r3, [r6, #10]
 1295 008c 9D42     		cmp	r5, r3
 1296 008e F4D3     		bcc	.L121
 1297              	.L124:
 1298              		.loc 1 1503 0 is_stmt 1
 1299 0090 4046     		mov	r0, r8
 1300 0092 FFF7FEFF 		bl	ff_memfree
 1301              	.LVL169:
 1302              	.L122:
 1303              		.loc 1 1510 0
 1304 0096 7089     		ldrh	r0, [r6, #10]
 1305 0098 401B     		subs	r0, r0, r5
 1306 009a 18BF     		it	ne
 1307 009c 0120     		movne	r0, #1
 1308 009e BDE8F883 		pop	{r3, r4, r5, r6, r7, r8, r9, pc}
 1309              	.LVL170:
 1310              	.L127:
 1311              		.loc 1 1492 0
ARM GAS  /tmp/ccO9HEUj.s 			page 24


 1312 00a2 0120     		movs	r0, #1
 1313 00a4 BDE8F883 		pop	{r3, r4, r5, r6, r7, r8, r9, pc}
 1314              		.cfi_endproc
 1315              	.LFE325:
 1316              		.size	dir_clear, .-dir_clear
 1317              		.section	.text.sync_fs,"ax",%progbits
 1318              		.align	1
 1319              		.syntax unified
 1320              		.thumb
 1321              		.thumb_func
 1322              		.fpu fpv4-sp-d16
 1323              		.type	sync_fs, %function
 1324              	sync_fs:
 1325              	.LFB315:
 1326              		.loc 1 927 0
 1327              		.cfi_startproc
 1328              		@ args = 0, pretend = 0, frame = 0
 1329              		@ frame_needed = 0, uses_anonymous_args = 0
 1330              	.LVL171:
 1331 0000 F8B5     		push	{r3, r4, r5, r6, r7, lr}
 1332              		.cfi_def_cfa_offset 24
 1333              		.cfi_offset 3, -24
 1334              		.cfi_offset 4, -20
 1335              		.cfi_offset 5, -16
 1336              		.cfi_offset 6, -12
 1337              		.cfi_offset 7, -8
 1338              		.cfi_offset 14, -4
 1339              		.loc 1 927 0
 1340 0002 0446     		mov	r4, r0
 1341              		.loc 1 931 0
 1342 0004 FFF7FEFF 		bl	sync_window
 1343              	.LVL172:
 1344 0008 0546     		mov	r5, r0
 1345              	.LVL173:
 1346              		.loc 1 932 0
 1347 000a 0028     		cmp	r0, #0
 1348 000c 42D1     		bne	.L131
 1349              		.loc 1 933 0
 1350 000e 2378     		ldrb	r3, [r4]	@ zero_extendqisi2
 1351 0010 032B     		cmp	r3, #3
 1352 0012 37D1     		bne	.L132
 1353              		.loc 1 933 0 is_stmt 0 discriminator 1
 1354 0014 2779     		ldrb	r7, [r4, #4]	@ zero_extendqisi2
 1355 0016 012F     		cmp	r7, #1
 1356 0018 34D1     		bne	.L132
 1357              		.loc 1 935 0 is_stmt 1
 1358 001a 04F14806 		add	r6, r4, #72
 1359 001e 0146     		mov	r1, r0
 1360 0020 4FF40072 		mov	r2, #512
 1361 0024 3046     		mov	r0, r6
 1362              	.LVL174:
 1363 0026 FFF7FEFF 		bl	mem_set
 1364              	.LVL175:
 1365              	.LBB169:
 1366              	.LBB170:
 1367              		.loc 1 591 0
 1368 002a 5523     		movs	r3, #85
ARM GAS  /tmp/ccO9HEUj.s 			page 25


 1369              	.LBE170:
 1370              	.LBE169:
 1371              	.LBB173:
 1372              	.LBB174:
 1373              		.loc 1 601 0
 1374 002c 4122     		movs	r2, #65
 1375              	.LBE174:
 1376              	.LBE173:
 1377              	.LBB179:
 1378              	.LBB180:
 1379              		.loc 1 598 0
 1380 002e 7221     		movs	r1, #114
 1381              	.LBE180:
 1382              	.LBE179:
 1383              	.LBB184:
 1384              	.LBB171:
 1385              		.loc 1 591 0
 1386 0030 84F84632 		strb	r3, [r4, #582]
 1387              	.LVL176:
 1388              		.loc 1 592 0
 1389 0034 AA23     		movs	r3, #170
 1390              	.LBE171:
 1391              	.LBE184:
 1392              	.LBB185:
 1393              	.LBB175:
 1394              		.loc 1 601 0
 1395 0036 84F84B20 		strb	r2, [r4, #75]
 1396              	.LBE175:
 1397              	.LBE185:
 1398              		.loc 1 939 0
 1399 003a 04F50C70 		add	r0, r4, #560
 1400              	.LBB186:
 1401              	.LBB172:
 1402              		.loc 1 592 0
 1403 003e 84F84732 		strb	r3, [r4, #583]
 1404              	.LVL177:
 1405              	.LBE172:
 1406              	.LBE186:
 1407              	.LBB187:
 1408              	.LBB176:
 1409              		.loc 1 598 0
 1410 0042 5223     		movs	r3, #82
 1411              	.LBE176:
 1412              	.LBE187:
 1413              	.LBB188:
 1414              	.LBB181:
 1415              		.loc 1 600 0
 1416 0044 84F82E22 		strb	r2, [r4, #558]
 1417              	.LBE181:
 1418              	.LBE188:
 1419              	.LBB189:
 1420              	.LBB177:
 1421              		.loc 1 598 0
 1422 0048 84F84830 		strb	r3, [r4, #72]
 1423              	.LVL178:
 1424              		.loc 1 599 0
 1425 004c 84F84930 		strb	r3, [r4, #73]
ARM GAS  /tmp/ccO9HEUj.s 			page 26


 1426              	.LVL179:
 1427              		.loc 1 600 0
 1428 0050 6123     		movs	r3, #97
 1429              	.LBE177:
 1430              	.LBE189:
 1431              	.LBB190:
 1432              	.LBB182:
 1433              		.loc 1 598 0
 1434 0052 84F82C12 		strb	r1, [r4, #556]
 1435              	.LBE182:
 1436              	.LBE190:
 1437              	.LBB191:
 1438              	.LBB178:
 1439              		.loc 1 600 0
 1440 0056 84F84A30 		strb	r3, [r4, #74]
 1441              	.LVL180:
 1442              	.LBE178:
 1443              	.LBE191:
 1444              	.LBB192:
 1445              	.LBB183:
 1446              		.loc 1 601 0
 1447 005a 84F82F32 		strb	r3, [r4, #559]
 1448              		.loc 1 599 0
 1449 005e 84F82D12 		strb	r1, [r4, #557]
 1450              	.LVL181:
 1451              	.LBE183:
 1452              	.LBE192:
 1453              		.loc 1 939 0
 1454 0062 A169     		ldr	r1, [r4, #24]
 1455 0064 FFF7FEFF 		bl	st_dword
 1456              	.LVL182:
 1457              		.loc 1 940 0
 1458 0068 6169     		ldr	r1, [r4, #20]
 1459 006a 04F50D70 		add	r0, r4, #564
 1460 006e FFF7FEFF 		bl	st_dword
 1461              	.LVL183:
 1462              		.loc 1 942 0
 1463 0072 626B     		ldr	r2, [r4, #52]
 1464              		.loc 1 943 0
 1465 0074 3B46     		mov	r3, r7
 1466 0076 3146     		mov	r1, r6
 1467              		.loc 1 942 0
 1468 0078 0132     		adds	r2, r2, #1
 1469              		.loc 1 943 0
 1470 007a 6078     		ldrb	r0, [r4, #1]	@ zero_extendqisi2
 1471              		.loc 1 942 0
 1472 007c 6264     		str	r2, [r4, #68]
 1473              		.loc 1 943 0
 1474 007e FFF7FEFF 		bl	disk_write
 1475              	.LVL184:
 1476              		.loc 1 944 0
 1477 0082 2571     		strb	r5, [r4, #4]
 1478              	.L132:
 1479              		.loc 1 947 0
 1480 0084 0022     		movs	r2, #0
 1481 0086 6078     		ldrb	r0, [r4, #1]	@ zero_extendqisi2
 1482 0088 1146     		mov	r1, r2
ARM GAS  /tmp/ccO9HEUj.s 			page 27


 1483 008a FFF7FEFF 		bl	disk_ioctl
 1484              	.LVL185:
 1485 008e 0030     		adds	r0, r0, #0
 1486 0090 18BF     		it	ne
 1487 0092 0120     		movne	r0, #1
 1488              	.L131:
 1489              	.LVL186:
 1490              		.loc 1 951 0
 1491 0094 F8BD     		pop	{r3, r4, r5, r6, r7, pc}
 1492              		.cfi_endproc
 1493              	.LFE315:
 1494              		.size	sync_fs, .-sync_fs
 1495              		.section	.text.move_window,"ax",%progbits
 1496              		.align	1
 1497              		.syntax unified
 1498              		.thumb
 1499              		.thumb_func
 1500              		.fpu fpv4-sp-d16
 1501              		.type	move_window, %function
 1502              	move_window:
 1503              	.LFB314:
 1504              		.loc 1 896 0
 1505              		.cfi_startproc
 1506              		@ args = 0, pretend = 0, frame = 0
 1507              		@ frame_needed = 0, uses_anonymous_args = 0
 1508              	.LVL187:
 1509              		.loc 1 900 0
 1510 0000 436C     		ldr	r3, [r0, #68]
 1511 0002 8B42     		cmp	r3, r1
 1512              		.loc 1 896 0
 1513 0004 70B5     		push	{r4, r5, r6, lr}
 1514              		.cfi_def_cfa_offset 16
 1515              		.cfi_offset 4, -16
 1516              		.cfi_offset 5, -12
 1517              		.cfi_offset 6, -8
 1518              		.cfi_offset 14, -4
 1519              		.loc 1 896 0
 1520 0006 0646     		mov	r6, r0
 1521 0008 0D46     		mov	r5, r1
 1522              		.loc 1 900 0
 1523 000a 12D0     		beq	.L136
 1524              	.LVL188:
 1525              	.LBB195:
 1526              	.LBB196:
 1527              		.loc 1 902 0
 1528 000c FFF7FEFF 		bl	sync_window
 1529              	.LVL189:
 1530              		.loc 1 904 0
 1531 0010 0446     		mov	r4, r0
 1532 0012 60B9     		cbnz	r0, .L134
 1533              		.loc 1 905 0
 1534 0014 2A46     		mov	r2, r5
 1535 0016 0123     		movs	r3, #1
 1536 0018 06F14801 		add	r1, r6, #72
 1537 001c 7078     		ldrb	r0, [r6, #1]	@ zero_extendqisi2
 1538              	.LVL190:
 1539 001e FFF7FEFF 		bl	disk_read
ARM GAS  /tmp/ccO9HEUj.s 			page 28


 1540              	.LVL191:
 1541 0022 0028     		cmp	r0, #0
 1542              		.loc 1 907 0
 1543 0024 1CBF     		itt	ne
 1544 0026 4FF0FF35 		movne	r5, #-1
 1545              	.LVL192:
 1546 002a 0124     		movne	r4, #1
 1547              	.LVL193:
 1548              		.loc 1 909 0
 1549 002c 7564     		str	r5, [r6, #68]
 1550              	.LVL194:
 1551              	.L134:
 1552              	.LBE196:
 1553              	.LBE195:
 1554              		.loc 1 913 0
 1555 002e 2046     		mov	r0, r4
 1556 0030 70BD     		pop	{r4, r5, r6, pc}
 1557              	.LVL195:
 1558              	.L136:
 1559              		.loc 1 897 0
 1560 0032 0024     		movs	r4, #0
 1561 0034 FBE7     		b	.L134
 1562              		.cfi_endproc
 1563              	.LFE314:
 1564              		.size	move_window, .-move_window
 1565              		.section	.text.change_bitmap,"ax",%progbits
 1566              		.align	1
 1567              		.syntax unified
 1568              		.thumb
 1569              		.thumb_func
 1570              		.fpu fpv4-sp-d16
 1571              		.type	change_bitmap, %function
 1572              	change_bitmap:
 1573              	.LFB320:
 1574              		.loc 1 1171 0
 1575              		.cfi_startproc
 1576              		@ args = 0, pretend = 0, frame = 0
 1577              		@ frame_needed = 0, uses_anonymous_args = 0
 1578              	.LVL196:
 1579 0000 2DE9F047 		push	{r4, r5, r6, r7, r8, r9, r10, lr}
 1580              		.cfi_def_cfa_offset 32
 1581              		.cfi_offset 4, -32
 1582              		.cfi_offset 5, -28
 1583              		.cfi_offset 6, -24
 1584              		.cfi_offset 7, -20
 1585              		.cfi_offset 8, -16
 1586              		.cfi_offset 9, -12
 1587              		.cfi_offset 10, -8
 1588              		.cfi_offset 14, -4
 1589              		.loc 1 1177 0
 1590 0004 8C1E     		subs	r4, r1, #2
 1591              	.LVL197:
 1592              		.loc 1 1178 0
 1593 0006 016C     		ldr	r1, [r0, #64]
 1594              		.loc 1 1180 0
 1595 0008 4FF00109 		mov	r9, #1
 1596              		.loc 1 1171 0
ARM GAS  /tmp/ccO9HEUj.s 			page 29


 1597 000c 0546     		mov	r5, r0
 1598              		.loc 1 1178 0
 1599 000e 01EB1431 		add	r1, r1, r4, lsr #12
 1600              	.LVL198:
 1601              		.loc 1 1179 0
 1602 0012 C4F3C808 		ubfx	r8, r4, #3, #9
 1603              	.LVL199:
 1604              		.loc 1 1180 0
 1605 0016 04F00704 		and	r4, r4, #7
 1606              	.LVL200:
 1607              		.loc 1 1171 0
 1608 001a 1646     		mov	r6, r2
 1609 001c 1F46     		mov	r7, r3
 1610              		.loc 1 1180 0
 1611 001e 09FA04F4 		lsl	r4, r9, r4
 1612 0022 E4B2     		uxtb	r4, r4
 1613              	.LVL201:
 1614              	.L143:
 1615              		.loc 1 1182 0
 1616 0024 2846     		mov	r0, r5
 1617 0026 01F1010A 		add	r10, r1, #1
 1618              	.LVL202:
 1619 002a FFF7FEFF 		bl	move_window
 1620              	.LVL203:
 1621 002e F8B9     		cbnz	r0, .L144
 1622 0030 4346     		mov	r3, r8
 1623              	.LVL204:
 1624              	.L141:
 1625              		.loc 1 1185 0
 1626 0032 E918     		adds	r1, r5, r3
 1627 0034 91F84820 		ldrb	r2, [r1, #72]	@ zero_extendqisi2
 1628 0038 1442     		tst	r4, r2
 1629 003a 14BF     		ite	ne
 1630 003c 4FF0010E 		movne	lr, #1
 1631 0040 4FF0000E 		moveq	lr, #0
 1632 0044 BE45     		cmp	lr, r7
 1633 0046 16D0     		beq	.L145
 1634              	.LVL205:
 1635              		.loc 1 1186 0
 1636 0048 6240     		eors	r2, r2, r4
 1637              		.loc 1 1188 0
 1638 004a 013E     		subs	r6, r6, #1
 1639              	.LVL206:
 1640              		.loc 1 1186 0
 1641 004c 81F84820 		strb	r2, [r1, #72]
 1642              		.loc 1 1187 0
 1643 0050 85F80390 		strb	r9, [r5, #3]
 1644              		.loc 1 1188 0
 1645 0054 10D0     		beq	.L140
 1646              		.loc 1 1189 0
 1647 0056 6400     		lsls	r4, r4, #1
 1648              	.LVL207:
 1649 0058 14F0FF04 		ands	r4, r4, #255
 1650              	.LVL208:
 1651 005c E9D1     		bne	.L141
 1652              	.LVL209:
 1653              		.loc 1 1191 0
ARM GAS  /tmp/ccO9HEUj.s 			page 30


 1654 005e 0133     		adds	r3, r3, #1
 1655              	.LVL210:
 1656              		.loc 1 1190 0
 1657 0060 0124     		movs	r4, #1
 1658              		.loc 1 1192 0
 1659 0062 4FF00008 		mov	r8, #0
 1660              		.loc 1 1182 0
 1661 0066 5146     		mov	r1, r10
 1662              		.loc 1 1191 0
 1663 0068 B3F5007F 		cmp	r3, #512
 1664 006c E1D1     		bne	.L141
 1665              	.LVL211:
 1666 006e D9E7     		b	.L143
 1667              	.LVL212:
 1668              	.L144:
 1669              		.loc 1 1182 0
 1670 0070 0120     		movs	r0, #1
 1671 0072 BDE8F087 		pop	{r4, r5, r6, r7, r8, r9, r10, pc}
 1672              	.LVL213:
 1673              	.L145:
 1674              		.loc 1 1185 0
 1675 0076 0220     		movs	r0, #2
 1676              	.L140:
 1677              		.loc 1 1194 0
 1678 0078 BDE8F087 		pop	{r4, r5, r6, r7, r8, r9, r10, pc}
 1679              		.cfi_endproc
 1680              	.LFE320:
 1681              		.size	change_bitmap, .-change_bitmap
 1682              		.section	.text.get_fat,"ax",%progbits
 1683              		.align	1
 1684              		.syntax unified
 1685              		.thumb
 1686              		.thumb_func
 1687              		.fpu fpv4-sp-d16
 1688              		.type	get_fat, %function
 1689              	get_fat:
 1690              	.LFB317:
 1691              		.loc 1 984 0
 1692              		.cfi_startproc
 1693              		@ args = 0, pretend = 0, frame = 0
 1694              		@ frame_needed = 0, uses_anonymous_args = 0
 1695              	.LVL214:
 1696              		.loc 1 990 0
 1697 0000 0129     		cmp	r1, #1
 1698              		.loc 1 984 0
 1699 0002 F8B5     		push	{r3, r4, r5, r6, r7, lr}
 1700              		.cfi_def_cfa_offset 24
 1701              		.cfi_offset 3, -24
 1702              		.cfi_offset 4, -20
 1703              		.cfi_offset 5, -16
 1704              		.cfi_offset 6, -12
 1705              		.cfi_offset 7, -8
 1706              		.cfi_offset 14, -4
 1707              		.loc 1 984 0
 1708 0004 0C46     		mov	r4, r1
 1709              		.loc 1 990 0
 1710 0006 40F28D80 		bls	.L168
ARM GAS  /tmp/ccO9HEUj.s 			page 31


 1711              		.loc 1 987 0 discriminator 1
 1712 000a 0568     		ldr	r5, [r0]
 1713              		.loc 1 990 0 discriminator 1
 1714 000c EB6A     		ldr	r3, [r5, #44]
 1715 000e 9942     		cmp	r1, r3
 1716 0010 80F08880 		bcs	.L168
 1717              	.LVL215:
 1718              		.loc 1 996 0
 1719 0014 2B78     		ldrb	r3, [r5]	@ zero_extendqisi2
 1720 0016 013B     		subs	r3, r3, #1
 1721 0018 032B     		cmp	r3, #3
 1722 001a 00F28380 		bhi	.L168
 1723 001e DFE803F0 		tbb	[pc, r3]
 1724              	.L154:
 1725 0022 02       		.byte	(.L153-.L154)/2
 1726 0023 29       		.byte	(.L155-.L154)/2
 1727 0024 3B       		.byte	(.L156-.L154)/2
 1728 0025 4E       		.byte	(.L157-.L154)/2
 1729              		.p2align 1
 1730              	.L153:
 1731              	.LVL216:
 1732              		.loc 1 998 0
 1733 0026 01EB5106 		add	r6, r1, r1, lsr #1
 1734              	.LVL217:
 1735              		.loc 1 999 0
 1736 002a A96B     		ldr	r1, [r5, #56]
 1737              	.LVL218:
 1738 002c 2846     		mov	r0, r5
 1739              	.LVL219:
 1740 002e 01EB5621 		add	r1, r1, r6, lsr #9
 1741 0032 FFF7FEFF 		bl	move_window
 1742              	.LVL220:
 1743 0036 10B1     		cbz	r0, .L158
 1744              	.LVL221:
 1745              	.L159:
 1746              		.loc 1 994 0
 1747 0038 4FF0FF30 		mov	r0, #-1
 1748 003c F8BD     		pop	{r3, r4, r5, r6, r7, pc}
 1749              	.LVL222:
 1750              	.L158:
 1751              		.loc 1 1000 0
 1752 003e 771C     		adds	r7, r6, #1
 1753              	.LVL223:
 1754 0040 C6F30806 		ubfx	r6, r6, #0, #9
 1755              		.loc 1 1001 0
 1756 0044 A96B     		ldr	r1, [r5, #56]
 1757 0046 2846     		mov	r0, r5
 1758              		.loc 1 1000 0
 1759 0048 2E44     		add	r6, r6, r5
 1760              		.loc 1 1001 0
 1761 004a 01EB5721 		add	r1, r1, r7, lsr #9
 1762              		.loc 1 1000 0
 1763 004e 96F84860 		ldrb	r6, [r6, #72]	@ zero_extendqisi2
 1764              	.LVL224:
 1765              		.loc 1 1001 0
 1766 0052 FFF7FEFF 		bl	move_window
 1767              	.LVL225:
ARM GAS  /tmp/ccO9HEUj.s 			page 32


 1768 0056 0028     		cmp	r0, #0
 1769 0058 EED1     		bne	.L159
 1770              		.loc 1 1002 0
 1771 005a C7F30807 		ubfx	r7, r7, #0, #9
 1772              	.LVL226:
 1773              		.loc 1 1003 0
 1774 005e E307     		lsls	r3, r4, #31
 1775              		.loc 1 1002 0
 1776 0060 3D44     		add	r5, r5, r7
 1777 0062 95F84800 		ldrb	r0, [r5, #72]	@ zero_extendqisi2
 1778 0066 46EA0020 		orr	r0, r6, r0, lsl #8
 1779              	.LVL227:
 1780              		.loc 1 1003 0
 1781 006a 4CBF     		ite	mi
 1782 006c 0009     		lsrmi	r0, r0, #4
 1783              	.LVL228:
 1784 006e C0F30B00 		ubfxpl	r0, r0, #0, #12
 1785 0072 F8BD     		pop	{r3, r4, r5, r6, r7, pc}
 1786              	.LVL229:
 1787              	.L155:
 1788              		.loc 1 1007 0
 1789 0074 A96B     		ldr	r1, [r5, #56]
 1790              	.LVL230:
 1791 0076 2846     		mov	r0, r5
 1792              	.LVL231:
 1793 0078 01EB1421 		add	r1, r1, r4, lsr #8
 1794 007c FFF7FEFF 		bl	move_window
 1795              	.LVL232:
 1796 0080 0028     		cmp	r0, #0
 1797 0082 D9D1     		bne	.L159
 1798              		.loc 1 1008 0
 1799 0084 6400     		lsls	r4, r4, #1
 1800              	.LVL233:
 1801 0086 4835     		adds	r5, r5, #72
 1802 0088 04F4FF73 		and	r3, r4, #510
 1803 008c EA18     		adds	r2, r5, r3
 1804              	.LBB197:
 1805              	.LBB198:
 1806              		.loc 1 553 0
 1807 008e E85C     		ldrb	r0, [r5, r3]	@ zero_extendqisi2
 1808 0090 5478     		ldrb	r4, [r2, #1]	@ zero_extendqisi2
 1809              	.LBE198:
 1810              	.LBE197:
 1811              		.loc 1 1008 0
 1812 0092 40EA0420 		orr	r0, r0, r4, lsl #8
 1813              	.LVL234:
 1814              		.loc 1 1009 0
 1815 0096 F8BD     		pop	{r3, r4, r5, r6, r7, pc}
 1816              	.LVL235:
 1817              	.L156:
 1818              		.loc 1 1012 0
 1819 0098 A96B     		ldr	r1, [r5, #56]
 1820              	.LVL236:
 1821 009a 2846     		mov	r0, r5
 1822              	.LVL237:
 1823 009c 01EBD411 		add	r1, r1, r4, lsr #7
 1824 00a0 FFF7FEFF 		bl	move_window
ARM GAS  /tmp/ccO9HEUj.s 			page 33


 1825              	.LVL238:
 1826 00a4 0028     		cmp	r0, #0
 1827 00a6 C7D1     		bne	.L159
 1828              		.loc 1 1013 0
 1829 00a8 A400     		lsls	r4, r4, #2
 1830              	.LVL239:
 1831 00aa 05F14800 		add	r0, r5, #72
 1832 00ae 04F4FE74 		and	r4, r4, #508
 1833 00b2 2044     		add	r0, r0, r4
 1834 00b4 FFF7FEFF 		bl	ld_dword
 1835              	.LVL240:
 1836 00b8 20F07040 		bic	r0, r0, #-268435456
 1837              	.LVL241:
 1838              		.loc 1 1014 0
 1839 00bc F8BD     		pop	{r3, r4, r5, r6, r7, pc}
 1840              	.LVL242:
 1841              	.L157:
 1842              		.loc 1 1017 0
 1843 00be D0E90423 		ldrd	r2, [r0, #16]
 1844 00c2 52EA0301 		orrs	r1, r2, r3
 1845              	.LVL243:
 1846 00c6 2DD0     		beq	.L168
 1847              	.LBB199:
 1848              		.loc 1 1021 0
 1849 00c8 C179     		ldrb	r1, [r0, #7]	@ zero_extendqisi2
 1850              		.loc 1 1018 0
 1851 00ca 8668     		ldr	r6, [r0, #8]
 1852              		.loc 1 1021 0
 1853 00cc 0229     		cmp	r1, #2
 1854              		.loc 1 1019 0
 1855 00ce 6F89     		ldrh	r7, [r5, #10]
 1856              		.loc 1 1018 0
 1857 00d0 A4EB0606 		sub	r6, r4, r6
 1858              	.LVL244:
 1859              		.loc 1 1021 0
 1860 00d4 0DD1     		bne	.L161
 1861              		.loc 1 1019 0 discriminator 1
 1862 00d6 12F1FF30 		adds	r0, r2, #-1
 1863              	.LVL245:
 1864 00da 43F1FF31 		adc	r1, r3, #-1
 1865 00de 430A     		lsrs	r3, r0, #9
 1866 00e0 43EAC153 		orr	r3, r3, r1, lsl #23
 1867 00e4 B3FBF7F3 		udiv	r3, r3, r7
 1868              		.loc 1 1021 0 discriminator 1
 1869 00e8 9E42     		cmp	r6, r3
 1870 00ea 1BD8     		bhi	.L168
 1871              		.loc 1 1022 0
 1872 00ec 1CD0     		beq	.L170
 1873              	.L163:
 1874              		.loc 1 1022 0 is_stmt 0 discriminator 1
 1875 00ee 601C     		adds	r0, r4, #1
 1876 00f0 F8BD     		pop	{r3, r4, r5, r6, r7, pc}
 1877              	.LVL246:
 1878              	.L161:
 1879              		.loc 1 1025 0 is_stmt 1
 1880 00f2 0329     		cmp	r1, #3
 1881 00f4 02D1     		bne	.L162
ARM GAS  /tmp/ccO9HEUj.s 			page 34


 1882              		.loc 1 1025 0 is_stmt 0 discriminator 1
 1883 00f6 8369     		ldr	r3, [r0, #24]
 1884 00f8 9E42     		cmp	r6, r3
 1885 00fa F8D3     		bcc	.L163
 1886              	.L162:
 1887              		.loc 1 1030 0 is_stmt 1
 1888 00fc C369     		ldr	r3, [r0, #28]
 1889 00fe 9BB9     		cbnz	r3, .L170
 1890              		.loc 1 1033 0
 1891 0100 A96B     		ldr	r1, [r5, #56]
 1892 0102 2846     		mov	r0, r5
 1893              	.LVL247:
 1894 0104 01EBD411 		add	r1, r1, r4, lsr #7
 1895 0108 FFF7FEFF 		bl	move_window
 1896              	.LVL248:
 1897 010c 0028     		cmp	r0, #0
 1898 010e 93D1     		bne	.L159
 1899              		.loc 1 1034 0
 1900 0110 A000     		lsls	r0, r4, #2
 1901 0112 4835     		adds	r5, r5, #72
 1902 0114 00F4FE70 		and	r0, r0, #508
 1903 0118 2844     		add	r0, r0, r5
 1904 011a FFF7FEFF 		bl	ld_dword
 1905              	.LVL249:
 1906 011e 20F00040 		bic	r0, r0, #-2147483648
 1907              	.LVL250:
 1908 0122 F8BD     		pop	{r3, r4, r5, r6, r7, pc}
 1909              	.LVL251:
 1910              	.L168:
 1911              	.LBE199:
 1912              		.loc 1 991 0
 1913 0124 0120     		movs	r0, #1
 1914 0126 F8BD     		pop	{r3, r4, r5, r6, r7, pc}
 1915              	.LVL252:
 1916              	.L170:
 1917              	.LBB200:
 1918              		.loc 1 1022 0
 1919 0128 6FF00040 		mvn	r0, #-2147483648
 1920              	.LVL253:
 1921              	.LBE200:
 1922              		.loc 1 1047 0
 1923 012c F8BD     		pop	{r3, r4, r5, r6, r7, pc}
 1924              		.cfi_endproc
 1925              	.LFE317:
 1926              		.size	get_fat, .-get_fat
 1927              		.section	.text.dir_sdi,"ax",%progbits
 1928              		.align	1
 1929              		.syntax unified
 1930              		.thumb
 1931              		.thumb_func
 1932              		.fpu fpv4-sp-d16
 1933              		.type	dir_sdi, %function
 1934              	dir_sdi:
 1935              	.LFB326:
 1936              		.loc 1 1526 0
 1937              		.cfi_startproc
 1938              		@ args = 0, pretend = 0, frame = 0
ARM GAS  /tmp/ccO9HEUj.s 			page 35


 1939              		@ frame_needed = 0, uses_anonymous_args = 0
 1940              	.LVL254:
 1941 0000 F8B5     		push	{r3, r4, r5, r6, r7, lr}
 1942              		.cfi_def_cfa_offset 24
 1943              		.cfi_offset 3, -24
 1944              		.cfi_offset 4, -20
 1945              		.cfi_offset 5, -16
 1946              		.cfi_offset 6, -12
 1947              		.cfi_offset 7, -8
 1948              		.cfi_offset 14, -4
 1949              		.loc 1 1528 0
 1950 0002 0468     		ldr	r4, [r0]
 1951              	.LVL255:
 1952              		.loc 1 1526 0
 1953 0004 0546     		mov	r5, r0
 1954 0006 0E46     		mov	r6, r1
 1955              		.loc 1 1531 0
 1956 0008 2378     		ldrb	r3, [r4]	@ zero_extendqisi2
 1957 000a 042B     		cmp	r3, #4
 1958 000c 0CBF     		ite	eq
 1959 000e 4FF08052 		moveq	r2, #268435456
 1960 0012 4FF40012 		movne	r2, #2097152
 1961 0016 8A42     		cmp	r2, r1
 1962 0018 01D8     		bhi	.L173
 1963              	.LVL256:
 1964              	.L175:
 1965              		.loc 1 1532 0
 1966 001a 0220     		movs	r0, #2
 1967 001c F8BD     		pop	{r3, r4, r5, r6, r7, pc}
 1968              	.LVL257:
 1969              	.L173:
 1970              		.loc 1 1531 0 discriminator 5
 1971 001e CA06     		lsls	r2, r1, #27
 1972 0020 FBD1     		bne	.L175
 1973              		.loc 1 1535 0
 1974 0022 8268     		ldr	r2, [r0, #8]
 1975              	.LVL258:
 1976              		.loc 1 1534 0
 1977 0024 2963     		str	r1, [r5, #48]
 1978              		.loc 1 1536 0
 1979 0026 22BB     		cbnz	r2, .L184
 1980              		.loc 1 1536 0 is_stmt 0 discriminator 1
 1981 0028 022B     		cmp	r3, #2
 1982 002a 13D8     		bhi	.L177
 1983              	.LVL259:
 1984              	.L179:
 1985              		.loc 1 1542 0 is_stmt 1
 1986 002c 2389     		ldrh	r3, [r4, #8]
 1987 002e B3EB561F 		cmp	r3, r6, lsr #5
 1988 0032 F2D9     		bls	.L175
 1989              		.loc 1 1543 0
 1990 0034 E36B     		ldr	r3, [r4, #60]
 1991 0036 AB63     		str	r3, [r5, #56]
 1992              	.LVL260:
 1993              	.L180:
 1994              		.loc 1 1556 0
 1995 0038 AB6B     		ldr	r3, [r5, #56]
ARM GAS  /tmp/ccO9HEUj.s 			page 36


 1996              		.loc 1 1555 0
 1997 003a 6A63     		str	r2, [r5, #52]
 1998              		.loc 1 1556 0
 1999 003c 002B     		cmp	r3, #0
 2000 003e ECD0     		beq	.L175
 2001              		.loc 1 1557 0
 2002 0040 03EB5623 		add	r3, r3, r6, lsr #9
 2003              		.loc 1 1558 0
 2004 0044 4834     		adds	r4, r4, #72
 2005              	.LVL261:
 2006 0046 C6F30806 		ubfx	r6, r6, #0, #9
 2007              	.LVL262:
 2008              		.loc 1 1560 0
 2009 004a 0020     		movs	r0, #0
 2010              		.loc 1 1557 0
 2011 004c AB63     		str	r3, [r5, #56]
 2012              		.loc 1 1558 0
 2013 004e 3444     		add	r4, r4, r6
 2014              	.LVL263:
 2015 0050 EC63     		str	r4, [r5, #60]
 2016              		.loc 1 1560 0
 2017 0052 F8BD     		pop	{r3, r4, r5, r6, r7, pc}
 2018              	.LVL264:
 2019              	.L177:
 2020              		.loc 1 1537 0
 2021 0054 E36B     		ldr	r3, [r4, #60]
 2022              	.LVL265:
 2023              		.loc 1 1538 0
 2024 0056 C271     		strb	r2, [r0, #7]
 2025              		.loc 1 1541 0
 2026 0058 002B     		cmp	r3, #0
 2027 005a E7D0     		beq	.L179
 2028              	.L176:
 2029              		.loc 1 1546 0
 2030 005c 6789     		ldrh	r7, [r4, #10]
 2031              		.loc 1 1547 0
 2032 005e 1A46     		mov	r2, r3
 2033              		.loc 1 1546 0
 2034 0060 7F02     		lsls	r7, r7, #9
 2035              	.LVL266:
 2036              	.L181:
 2037              		.loc 1 1547 0
 2038 0062 BE42     		cmp	r6, r7
 2039              		.loc 1 1548 0
 2040 0064 1146     		mov	r1, r2
 2041              		.loc 1 1547 0
 2042 0066 06D2     		bcs	.L182
 2043              	.LVL267:
 2044              		.loc 1 1553 0
 2045 0068 2046     		mov	r0, r4
 2046 006a FFF7FEFF 		bl	clst2sect
 2047              	.LVL268:
 2048 006e A863     		str	r0, [r5, #56]
 2049 0070 E2E7     		b	.L180
 2050              	.LVL269:
 2051              	.L184:
 2052 0072 1346     		mov	r3, r2
ARM GAS  /tmp/ccO9HEUj.s 			page 37


 2053 0074 F2E7     		b	.L176
 2054              	.LVL270:
 2055              	.L182:
 2056              		.loc 1 1548 0
 2057 0076 2846     		mov	r0, r5
 2058 0078 FFF7FEFF 		bl	get_fat
 2059              	.LVL271:
 2060              		.loc 1 1549 0
 2061 007c 431C     		adds	r3, r0, #1
 2062              		.loc 1 1548 0
 2063 007e 0246     		mov	r2, r0
 2064              	.LVL272:
 2065              		.loc 1 1549 0
 2066 0080 06D0     		beq	.L185
 2067              		.loc 1 1550 0
 2068 0082 0128     		cmp	r0, #1
 2069 0084 C9D9     		bls	.L175
 2070              		.loc 1 1550 0 is_stmt 0 discriminator 2
 2071 0086 E36A     		ldr	r3, [r4, #44]
 2072 0088 9842     		cmp	r0, r3
 2073 008a C6D2     		bcs	.L175
 2074              		.loc 1 1551 0 is_stmt 1
 2075 008c F61B     		subs	r6, r6, r7
 2076              	.LVL273:
 2077 008e E8E7     		b	.L181
 2078              	.L185:
 2079              		.loc 1 1549 0
 2080 0090 0120     		movs	r0, #1
 2081              	.LVL274:
 2082              		.loc 1 1561 0
 2083 0092 F8BD     		pop	{r3, r4, r5, r6, r7, pc}
 2084              		.cfi_endproc
 2085              	.LFE326:
 2086              		.size	dir_sdi, .-dir_sdi
 2087              		.section	.text.check_fs,"ax",%progbits
 2088              		.align	1
 2089              		.syntax unified
 2090              		.thumb
 2091              		.thumb_func
 2092              		.fpu fpv4-sp-d16
 2093              		.type	check_fs, %function
 2094              	check_fs:
 2095              	.LFB351:
 2096              		.loc 1 3015 0
 2097              		.cfi_startproc
 2098              		@ args = 0, pretend = 0, frame = 0
 2099              		@ frame_needed = 0, uses_anonymous_args = 0
 2100              	.LVL275:
 2101              		.loc 1 3016 0
 2102 0000 0023     		movs	r3, #0
 2103              		.loc 1 3015 0
 2104 0002 10B5     		push	{r4, lr}
 2105              		.cfi_def_cfa_offset 8
 2106              		.cfi_offset 4, -8
 2107              		.cfi_offset 14, -4
 2108              		.loc 1 3016 0
 2109 0004 C370     		strb	r3, [r0, #3]
ARM GAS  /tmp/ccO9HEUj.s 			page 38


 2110 0006 4FF0FF33 		mov	r3, #-1
 2111              		.loc 1 3015 0
 2112 000a 0446     		mov	r4, r0
 2113              		.loc 1 3016 0
 2114 000c 4364     		str	r3, [r0, #68]
 2115              		.loc 1 3017 0
 2116 000e FFF7FEFF 		bl	move_window
 2117              	.LVL276:
 2118 0012 60BB     		cbnz	r0, .L196
 2119              	.LBB207:
 2120              	.LBB208:
 2121              		.loc 1 553 0
 2122 0014 94F84722 		ldrb	r2, [r4, #583]	@ zero_extendqisi2
 2123 0018 94F84632 		ldrb	r3, [r4, #582]	@ zero_extendqisi2
 2124 001c 43EA0223 		orr	r3, r3, r2, lsl #8
 2125              	.LBE208:
 2126              	.LBE207:
 2127              		.loc 1 3019 0
 2128 0020 4AF65522 		movw	r2, #43605
 2129 0024 9342     		cmp	r3, r2
 2130 0026 24D1     		bne	.L197
 2131              		.loc 1 3022 0
 2132 0028 0B22     		movs	r2, #11
 2133 002a 1549     		ldr	r1, .L205
 2134 002c 04F14800 		add	r0, r4, #72
 2135 0030 FFF7FEFF 		bl	mem_cmp
 2136              	.LVL277:
 2137 0034 F8B1     		cbz	r0, .L198
 2138              		.loc 1 3024 0
 2139 0036 94F84830 		ldrb	r3, [r4, #72]	@ zero_extendqisi2
 2140 003a E92B     		cmp	r3, #233
 2141 003c 05D0     		beq	.L195
 2142              		.loc 1 3024 0 is_stmt 0 discriminator 1
 2143 003e A36C     		ldr	r3, [r4, #72]
 2144 0040 104A     		ldr	r2, .L205+4
 2145 0042 03F0FF13 		and	r3, r3, #16711935
 2146 0046 9342     		cmp	r3, r2
 2147 0048 17D1     		bne	.L199
 2148              	.L195:
 2149              		.loc 1 3025 0 is_stmt 1
 2150 004a 0322     		movs	r2, #3
 2151 004c 0E49     		ldr	r1, .L205+8
 2152 004e 04F17E00 		add	r0, r4, #126
 2153 0052 FFF7FEFF 		bl	mem_cmp
 2154              	.LVL278:
 2155 0056 88B1     		cbz	r0, .L194
 2156              	.LVL279:
 2157              	.LBB209:
 2158              	.LBB210:
 2159              		.loc 1 3026 0
 2160 0058 0522     		movs	r2, #5
 2161 005a 0C49     		ldr	r1, .L205+12
 2162 005c 04F19A00 		add	r0, r4, #154
 2163 0060 FFF7FEFF 		bl	mem_cmp
 2164              	.LVL280:
 2165              	.LBE210:
 2166              	.LBE209:
ARM GAS  /tmp/ccO9HEUj.s 			page 39


 2167              		.loc 1 3025 0
 2168 0064 0028     		cmp	r0, #0
 2169 0066 14BF     		ite	ne
 2170 0068 0220     		movne	r0, #2
 2171 006a 0020     		moveq	r0, #0
 2172 006c 10BD     		pop	{r4, pc}
 2173              	.LVL281:
 2174              	.L196:
 2175              		.loc 1 3017 0
 2176 006e 0420     		movs	r0, #4
 2177 0070 10BD     		pop	{r4, pc}
 2178              	.LVL282:
 2179              	.L197:
 2180              		.loc 1 3019 0
 2181 0072 0320     		movs	r0, #3
 2182 0074 10BD     		pop	{r4, pc}
 2183              	.LVL283:
 2184              	.L198:
 2185              		.loc 1 3022 0
 2186 0076 0120     		movs	r0, #1
 2187 0078 10BD     		pop	{r4, pc}
 2188              	.LVL284:
 2189              	.L199:
 2190              	.LBB212:
 2191              	.LBB211:
 2192              		.loc 1 3028 0
 2193 007a 0220     		movs	r0, #2
 2194              	.L194:
 2195              	.LBE211:
 2196              	.LBE212:
 2197              		.loc 1 3029 0
 2198 007c 10BD     		pop	{r4, pc}
 2199              	.LVL285:
 2200              	.L206:
 2201 007e 00BF     		.align	2
 2202              	.L205:
 2203 0080 00000000 		.word	.LC0
 2204 0084 EB009000 		.word	9437419
 2205 0088 0C000000 		.word	.LC1
 2206 008c 10000000 		.word	.LC2
 2207              		.cfi_endproc
 2208              	.LFE351:
 2209              		.size	check_fs, .-check_fs
 2210              		.section	.text.find_volume,"ax",%progbits
 2211              		.align	1
 2212              		.syntax unified
 2213              		.thumb
 2214              		.thumb_func
 2215              		.fpu fpv4-sp-d16
 2216              		.type	find_volume, %function
 2217              	find_volume:
 2218              	.LFB352:
 2219              		.loc 1 3044 0
 2220              		.cfi_startproc
 2221              		@ args = 0, pretend = 0, frame = 16
 2222              		@ frame_needed = 0, uses_anonymous_args = 0
 2223              	.LVL286:
ARM GAS  /tmp/ccO9HEUj.s 			page 40


 2224              		.loc 1 3055 0
 2225 0000 0023     		movs	r3, #0
 2226              		.loc 1 3044 0
 2227 0002 2DE9F043 		push	{r4, r5, r6, r7, r8, r9, lr}
 2228              		.cfi_def_cfa_offset 28
 2229              		.cfi_offset 4, -28
 2230              		.cfi_offset 5, -24
 2231              		.cfi_offset 6, -20
 2232              		.cfi_offset 7, -16
 2233              		.cfi_offset 8, -12
 2234              		.cfi_offset 9, -8
 2235              		.cfi_offset 14, -4
 2236              		.loc 1 3055 0
 2237 0006 0B60     		str	r3, [r1]
 2238              		.loc 1 3044 0
 2239 0008 85B0     		sub	sp, sp, #20
 2240              		.cfi_def_cfa_offset 48
 2241              		.loc 1 3044 0
 2242 000a 0F46     		mov	r7, r1
 2243 000c 1546     		mov	r5, r2
 2244              		.loc 1 3056 0
 2245 000e FFF7FEFF 		bl	get_ldnumber
 2246              	.LVL287:
 2247              		.loc 1 3057 0
 2248 0012 061E     		subs	r6, r0, #0
 2249 0014 C0F24781 		blt	.L242
 2250              		.loc 1 3060 0
 2251 0018 AA4B     		ldr	r3, .L284
 2252 001a 53F82640 		ldr	r4, [r3, r6, lsl #2]
 2253              	.LVL288:
 2254              		.loc 1 3061 0
 2255 001e 002C     		cmp	r4, #0
 2256 0020 00F04381 		beq	.L243
 2257              		.loc 1 3065 0
 2258 0024 3C60     		str	r4, [r7]
 2259              		.loc 1 3067 0
 2260 0026 05F0FE05 		and	r5, r5, #254
 2261              	.LVL289:
 2262              		.loc 1 3068 0
 2263 002a 2378     		ldrb	r3, [r4]	@ zero_extendqisi2
 2264 002c 73B1     		cbz	r3, .L209
 2265              		.loc 1 3069 0
 2266 002e 6078     		ldrb	r0, [r4, #1]	@ zero_extendqisi2
 2267              	.LVL290:
 2268 0030 FFF7FEFF 		bl	disk_status
 2269              	.LVL291:
 2270              		.loc 1 3070 0
 2271 0034 C707     		lsls	r7, r0, #31
 2272              	.LVL292:
 2273 0036 09D4     		bmi	.L209
 2274              		.loc 1 3071 0
 2275 0038 002D     		cmp	r5, #0
 2276 003a 00F03881 		beq	.L244
 2277              		.loc 1 3071 0 is_stmt 0 discriminator 1
 2278 003e 10F00400 		ands	r0, r0, #4
 2279              	.LVL293:
 2280 0042 00D0     		beq	.L278
ARM GAS  /tmp/ccO9HEUj.s 			page 41


 2281              	.L211:
 2282              		.loc 1 3072 0 is_stmt 1
 2283 0044 0A20     		movs	r0, #10
 2284              	.LVL294:
 2285              	.L278:
 2286              		.loc 1 3255 0
 2287 0046 05B0     		add	sp, sp, #20
 2288              		.cfi_remember_state
 2289              		.cfi_def_cfa_offset 28
 2290              		@ sp needed
 2291 0048 BDE8F083 		pop	{r4, r5, r6, r7, r8, r9, pc}
 2292              	.LVL295:
 2293              	.L209:
 2294              		.cfi_restore_state
 2295              		.loc 1 3081 0
 2296 004c 0023     		movs	r3, #0
 2297              		.loc 1 3082 0
 2298 004e F0B2     		uxtb	r0, r6
 2299              		.loc 1 3081 0
 2300 0050 2370     		strb	r3, [r4]
 2301              		.loc 1 3082 0
 2302 0052 6070     		strb	r0, [r4, #1]
 2303              		.loc 1 3083 0
 2304 0054 FFF7FEFF 		bl	disk_initialize
 2305              	.LVL296:
 2306              		.loc 1 3084 0
 2307 0058 C107     		lsls	r1, r0, #31
 2308 005a 00F12A81 		bmi	.L246
 2309              		.loc 1 3087 0
 2310 005e 0DB1     		cbz	r5, .L210
 2311              		.loc 1 3087 0 is_stmt 0 discriminator 1
 2312 0060 4207     		lsls	r2, r0, #29
 2313 0062 EFD4     		bmi	.L211
 2314              	.L210:
 2315              	.LVL297:
 2316              		.loc 1 3097 0 is_stmt 1
 2317 0064 0021     		movs	r1, #0
 2318 0066 2046     		mov	r0, r4
 2319              	.LVL298:
 2320 0068 FFF7FEFF 		bl	check_fs
 2321              	.LVL299:
 2322              		.loc 1 3098 0
 2323 006c 0228     		cmp	r0, #2
 2324 006e 40F0A280 		bne	.L212
 2325 0072 04F20E25 		addw	r5, r4, #526
 2326              	.LVL300:
 2327 0076 0021     		movs	r1, #0
 2328              	.LVL301:
 2329              	.L214:
 2330              		.loc 1 3101 0
 2331 0078 15F8040C 		ldrb	r0, [r5, #-4]	@ zero_extendqisi2
 2332 007c 10B1     		cbz	r0, .L213
 2333              		.loc 1 3101 0 is_stmt 0 discriminator 1
 2334 007e 2846     		mov	r0, r5
 2335 0080 FFF7FEFF 		bl	ld_dword
 2336              	.LVL302:
 2337              	.L213:
ARM GAS  /tmp/ccO9HEUj.s 			page 42


 2338              		.loc 1 3101 0 discriminator 4
 2339 0084 4DF82100 		str	r0, [sp, r1, lsl #2]
 2340              		.loc 1 3099 0 is_stmt 1 discriminator 4
 2341 0088 0131     		adds	r1, r1, #1
 2342              	.LVL303:
 2343 008a 1035     		adds	r5, r5, #16
 2344              	.LVL304:
 2345 008c 0429     		cmp	r1, #4
 2346 008e F3D1     		bne	.L214
 2347 0090 0026     		movs	r6, #0
 2348              	.LVL305:
 2349              	.L217:
 2350              		.loc 1 3106 0
 2351 0092 5DF82650 		ldr	r5, [sp, r6, lsl #2]
 2352              	.LVL306:
 2353              		.loc 1 3107 0
 2354 0096 002D     		cmp	r5, #0
 2355 0098 00F08580 		beq	.L248
 2356              		.loc 1 3107 0 is_stmt 0 discriminator 1
 2357 009c 2946     		mov	r1, r5
 2358 009e 2046     		mov	r0, r4
 2359 00a0 FFF7FEFF 		bl	check_fs
 2360              	.LVL307:
 2361              		.loc 1 3108 0 is_stmt 1 discriminator 1
 2362 00a4 0128     		cmp	r0, #1
 2363 00a6 7FD8     		bhi	.L215
 2364              	.LVL308:
 2365              	.L216:
 2366              		.loc 1 3116 0
 2367 00a8 0128     		cmp	r0, #1
 2368 00aa 40F08E80 		bne	.L220
 2369 00ae 04F15303 		add	r3, r4, #83
 2370 00b2 04F18801 		add	r1, r4, #136
 2371              	.L221:
 2372              	.LBB213:
 2373              		.loc 1 3119 0 discriminator 3
 2374 00b6 13F8012B 		ldrb	r2, [r3], #1	@ zero_extendqisi2
 2375 00ba 002A     		cmp	r2, #0
 2376 00bc 40F08180 		bne	.L224
 2377              		.loc 1 3119 0 is_stmt 0 discriminator 4
 2378 00c0 8B42     		cmp	r3, r1
 2379 00c2 F8D1     		bne	.L221
 2380              	.LBB214:
 2381              	.LBB215:
 2382              		.loc 1 553 0 is_stmt 1
 2383 00c4 94F8B120 		ldrb	r2, [r4, #177]	@ zero_extendqisi2
 2384 00c8 94F8B030 		ldrb	r3, [r4, #176]	@ zero_extendqisi2
 2385 00cc 43EA0223 		orr	r3, r3, r2, lsl #8
 2386              	.LBE215:
 2387              	.LBE214:
 2388              		.loc 1 3122 0
 2389 00d0 B3F5807F 		cmp	r3, #256
 2390 00d4 75D1     		bne	.L224
 2391              		.loc 1 3124 0
 2392 00d6 94F8B430 		ldrb	r3, [r4, #180]	@ zero_extendqisi2
 2393 00da 092B     		cmp	r3, #9
 2394 00dc 71D1     		bne	.L224
ARM GAS  /tmp/ccO9HEUj.s 			page 43


 2395              		.loc 1 3128 0
 2396 00de 04F19000 		add	r0, r4, #144
 2397              	.LVL309:
 2398 00e2 FFF7FEFF 		bl	ld_qword
 2399              	.LVL310:
 2400 00e6 4619     		adds	r6, r0, r5
 2401 00e8 41F10007 		adc	r7, r1, #0
 2402              	.LVL311:
 2403              		.loc 1 3129 0
 2404 00ec 012F     		cmp	r7, #1
 2405 00ee 08BF     		it	eq
 2406 00f0 002E     		cmpeq	r6, #0
 2407 00f2 66D2     		bcs	.L224
 2408              		.loc 1 3131 0
 2409 00f4 04F19C00 		add	r0, r4, #156
 2410 00f8 FFF7FEFF 		bl	ld_dword
 2411              	.LVL312:
 2412              		.loc 1 3133 0
 2413 00fc 94F8B680 		ldrb	r8, [r4, #182]	@ zero_extendqisi2
 2414              		.loc 1 3131 0
 2415 0100 2063     		str	r0, [r4, #48]
 2416              		.loc 1 3134 0
 2417 0102 B8F1010F 		cmp	r8, #1
 2418              		.loc 1 3133 0
 2419 0106 84F80280 		strb	r8, [r4, #2]
 2420              		.loc 1 3134 0
 2421 010a 5AD1     		bne	.L224
 2422              		.loc 1 3136 0
 2423 010c 94F8B530 		ldrb	r3, [r4, #181]	@ zero_extendqisi2
 2424 0110 08FA03F9 		lsl	r9, r8, r3
 2425 0114 1FFA89F3 		uxth	r3, r9
 2426 0118 6381     		strh	r3, [r4, #10]	@ movhi
 2427              		.loc 1 3137 0
 2428 011a 002B     		cmp	r3, #0
 2429 011c 51D0     		beq	.L224
 2430              		.loc 1 3139 0
 2431 011e 04F1A400 		add	r0, r4, #164
 2432 0122 FFF7FEFF 		bl	ld_dword
 2433              	.LVL313:
 2434              		.loc 1 3140 0
 2435 0126 684B     		ldr	r3, .L284+4
 2436              		.loc 1 3139 0
 2437 0128 8046     		mov	r8, r0
 2438              	.LVL314:
 2439              		.loc 1 3140 0
 2440 012a 9842     		cmp	r0, r3
 2441 012c 49D8     		bhi	.L224
 2442              		.loc 1 3141 0
 2443 012e 831C     		adds	r3, r0, #2
 2444              		.loc 1 3144 0
 2445 0130 6563     		str	r5, [r4, #52]
 2446              		.loc 1 3145 0
 2447 0132 04F1A000 		add	r0, r4, #160
 2448              	.LVL315:
 2449              		.loc 1 3141 0
 2450 0136 E362     		str	r3, [r4, #44]
 2451              		.loc 1 3145 0
ARM GAS  /tmp/ccO9HEUj.s 			page 44


 2452 0138 FFF7FEFF 		bl	ld_dword
 2453              	.LVL316:
 2454 013c 2918     		adds	r1, r5, r0
 2455              		.loc 1 3146 0
 2456 013e 04F19800 		add	r0, r4, #152
 2457              		.loc 1 3145 0
 2458 0142 2164     		str	r1, [r4, #64]
 2459              		.loc 1 3146 0
 2460 0144 FFF7FEFF 		bl	ld_dword
 2461              	.LVL317:
 2462 0148 2844     		add	r0, r0, r5
 2463              		.loc 1 3147 0
 2464 014a 1FFA89F3 		uxth	r3, r9
 2465              		.loc 1 3146 0
 2466 014e A063     		str	r0, [r4, #56]
 2467              		.loc 1 3147 0
 2468 0150 08FB03F8 		mul	r8, r8, r3
 2469              	.LVL318:
 2470 0154 0023     		movs	r3, #0
 2471 0156 11EB0802 		adds	r2, r1, r8
 2472 015a 43F10003 		adc	r3, r3, #0
 2473 015e 9F42     		cmp	r7, r3
 2474 0160 08BF     		it	eq
 2475 0162 9642     		cmpeq	r6, r2
 2476 0164 2DD3     		bcc	.L224
 2477              		.loc 1 3148 0
 2478 0166 04F1A800 		add	r0, r4, #168
 2479 016a FFF7FEFF 		bl	ld_dword
 2480              	.LVL319:
 2481 016e 0146     		mov	r1, r0
 2482 0170 E063     		str	r0, [r4, #60]
 2483              		.loc 1 3151 0
 2484 0172 2046     		mov	r0, r4
 2485 0174 FFF7FEFF 		bl	clst2sect
 2486              	.LVL320:
 2487 0178 0146     		mov	r1, r0
 2488 017a 2046     		mov	r0, r4
 2489 017c FFF7FEFF 		bl	move_window
 2490              	.LVL321:
 2491 0180 D8B9     		cbnz	r0, .L225
 2492 0182 04F15C01 		add	r1, r4, #92
 2493 0186 04F51775 		add	r5, r4, #604
 2494              	.L228:
 2495              		.loc 1 3153 0
 2496 018a 11F8143C 		ldrb	r3, [r1, #-20]	@ zero_extendqisi2
 2497 018e 812B     		cmp	r3, #129
 2498 0190 05D1     		bne	.L226
 2499              		.loc 1 3153 0 is_stmt 0 discriminator 1
 2500 0192 0846     		mov	r0, r1
 2501 0194 FFF7FEFF 		bl	ld_dword
 2502              	.LVL322:
 2503 0198 0228     		cmp	r0, #2
 2504 019a 00F08C80 		beq	.L227
 2505              	.L226:
 2506 019e 2031     		adds	r1, r1, #32
 2507              		.loc 1 3152 0 is_stmt 1 discriminator 2
 2508 01a0 8D42     		cmp	r5, r1
ARM GAS  /tmp/ccO9HEUj.s 			page 45


 2509 01a2 F2D1     		bne	.L228
 2510 01a4 0DE0     		b	.L224
 2511              	.LVL323:
 2512              	.L248:
 2513              	.LBE213:
 2514              		.loc 1 3107 0
 2515 01a6 0320     		movs	r0, #3
 2516              	.L215:
 2517              		.loc 1 3108 0 discriminator 1
 2518 01a8 0136     		adds	r6, r6, #1
 2519              	.LVL324:
 2520 01aa 042E     		cmp	r6, #4
 2521 01ac 7FF471AF 		bne	.L217
 2522              	.LVL325:
 2523              		.loc 1 3110 0
 2524 01b0 0428     		cmp	r0, #4
 2525 01b2 06D1     		bne	.L224
 2526 01b4 01E0     		b	.L225
 2527              	.LVL326:
 2528              	.L212:
 2529 01b6 0428     		cmp	r0, #4
 2530 01b8 01D1     		bne	.L219
 2531              	.LVL327:
 2532              	.L225:
 2533 01ba 0120     		movs	r0, #1
 2534 01bc 43E7     		b	.L278
 2535              	.LVL328:
 2536              	.L219:
 2537              		.loc 1 3111 0
 2538 01be 0128     		cmp	r0, #1
 2539 01c0 01D9     		bls	.L249
 2540              	.LVL329:
 2541              	.L224:
 2542 01c2 0D20     		movs	r0, #13
 2543 01c4 3FE7     		b	.L278
 2544              	.LVL330:
 2545              	.L249:
 2546              		.loc 1 3096 0
 2547 01c6 0025     		movs	r5, #0
 2548              	.LVL331:
 2549 01c8 6EE7     		b	.L216
 2550              	.LVL332:
 2551              	.L220:
 2552              	.LBB216:
 2553              	.LBB217:
 2554              		.loc 1 553 0
 2555 01ca 94F85420 		ldrb	r2, [r4, #84]	@ zero_extendqisi2
 2556 01ce 94F85330 		ldrb	r3, [r4, #83]	@ zero_extendqisi2
 2557 01d2 43EA0223 		orr	r3, r3, r2, lsl #8
 2558              	.LBE217:
 2559              	.LBE216:
 2560              		.loc 1 3163 0
 2561 01d6 B3F5007F 		cmp	r3, #512
 2562 01da F2D1     		bne	.L224
 2563              	.LVL333:
 2564              	.LBB218:
 2565              	.LBB219:
ARM GAS  /tmp/ccO9HEUj.s 			page 46


 2566              		.loc 1 553 0
 2567 01dc 94F85F30 		ldrb	r3, [r4, #95]	@ zero_extendqisi2
 2568 01e0 94F85E60 		ldrb	r6, [r4, #94]	@ zero_extendqisi2
 2569              	.LVL334:
 2570              	.LBE219:
 2571              	.LBE218:
 2572              		.loc 1 3166 0
 2573 01e4 56EA0326 		orrs	r6, r6, r3, lsl #8
 2574              	.LVL335:
 2575 01e8 04D1     		bne	.L230
 2576              		.loc 1 3166 0 is_stmt 0 discriminator 1
 2577 01ea 04F16C00 		add	r0, r4, #108
 2578              	.LVL336:
 2579 01ee FFF7FEFF 		bl	ld_dword
 2580              	.LVL337:
 2581 01f2 0646     		mov	r6, r0
 2582              	.LVL338:
 2583              	.L230:
 2584              		.loc 1 3169 0 is_stmt 1
 2585 01f4 94F85810 		ldrb	r1, [r4, #88]	@ zero_extendqisi2
 2586              		.loc 1 3167 0
 2587 01f8 2663     		str	r6, [r4, #48]
 2588              		.loc 1 3170 0
 2589 01fa 4B1E     		subs	r3, r1, #1
 2590              		.loc 1 3169 0
 2591 01fc A170     		strb	r1, [r4, #2]
 2592              		.loc 1 3170 0
 2593 01fe 012B     		cmp	r3, #1
 2594 0200 DFD8     		bhi	.L224
 2595              	.LVL339:
 2596              		.loc 1 3173 0
 2597 0202 94F85580 		ldrb	r8, [r4, #85]	@ zero_extendqisi2
 2598 0206 1FFA88F3 		uxth	r3, r8
 2599 020a 6381     		strh	r3, [r4, #10]	@ movhi
 2600              		.loc 1 3174 0
 2601 020c 002B     		cmp	r3, #0
 2602 020e D8D0     		beq	.L224
 2603              		.loc 1 3174 0 is_stmt 0 discriminator 2
 2604 0210 08F1FF33 		add	r3, r8, #-1
 2605 0214 13EA080F 		tst	r3, r8
 2606 0218 D3D1     		bne	.L224
 2607              	.LVL340:
 2608              	.LBB220:
 2609              	.LBB221:
 2610              		.loc 1 553 0 is_stmt 1
 2611 021a 94F85A30 		ldrb	r3, [r4, #90]	@ zero_extendqisi2
 2612 021e 94F85970 		ldrb	r7, [r4, #89]	@ zero_extendqisi2
 2613 0222 47EA0327 		orr	r7, r7, r3, lsl #8
 2614              	.LVL341:
 2615              	.LBE221:
 2616              	.LBE220:
 2617              		.loc 1 3177 0
 2618 0226 3B07     		lsls	r3, r7, #28
 2619              		.loc 1 3176 0
 2620 0228 2781     		strh	r7, [r4, #8]	@ movhi
 2621              		.loc 1 3177 0
 2622 022a CAD1     		bne	.L224
ARM GAS  /tmp/ccO9HEUj.s 			page 47


 2623              	.LVL342:
 2624              	.LBB222:
 2625              	.LBB223:
 2626              		.loc 1 553 0
 2627 022c 94F85C30 		ldrb	r3, [r4, #92]	@ zero_extendqisi2
 2628 0230 94F85B00 		ldrb	r0, [r4, #91]	@ zero_extendqisi2
 2629              	.LVL343:
 2630              	.LBE223:
 2631              	.LBE222:
 2632              		.loc 1 3180 0
 2633 0234 50EA0320 		orrs	r0, r0, r3, lsl #8
 2634              	.LVL344:
 2635 0238 03D1     		bne	.L231
 2636              		.loc 1 3180 0 is_stmt 0 discriminator 1
 2637 023a 04F16800 		add	r0, r4, #104
 2638              	.LVL345:
 2639 023e FFF7FEFF 		bl	ld_dword
 2640              	.LVL346:
 2641              	.L231:
 2642              	.LBB224:
 2643              	.LBB225:
 2644              		.loc 1 553 0 is_stmt 1
 2645 0242 94F85720 		ldrb	r2, [r4, #87]	@ zero_extendqisi2
 2646 0246 94F85630 		ldrb	r3, [r4, #86]	@ zero_extendqisi2
 2647              	.LBE225:
 2648              	.LBE224:
 2649              		.loc 1 3183 0
 2650 024a 53EA0223 		orrs	r3, r3, r2, lsl #8
 2651 024e B8D0     		beq	.L224
 2652              		.loc 1 3171 0
 2653 0250 06FB01FE 		mul	lr, r6, r1
 2654              		.loc 1 3186 0
 2655 0254 03EB1712 		add	r2, r3, r7, lsr #4
 2656 0258 7244     		add	r2, r2, lr
 2657              	.LVL347:
 2658              		.loc 1 3187 0
 2659 025a 9042     		cmp	r0, r2
 2660 025c B1D3     		bcc	.L224
 2661              		.loc 1 3188 0
 2662 025e 801A     		subs	r0, r0, r2
 2663              	.LVL348:
 2664              		.loc 1 3189 0
 2665 0260 1A49     		ldr	r1, .L284+8
 2666              	.LVL349:
 2667              		.loc 1 3188 0
 2668 0262 B0FBF8F0 		udiv	r0, r0, r8
 2669              	.LVL350:
 2670              		.loc 1 3189 0
 2671 0266 00F1FF3C 		add	ip, r0, #-1
 2672 026a 8C45     		cmp	ip, r1
 2673 026c A9D8     		bhi	.L224
 2674              	.LVL351:
 2675              		.loc 1 3192 0
 2676 026e 4FF6F571 		movw	r1, #65525
 2677 0272 2B44     		add	r3, r3, r5
 2678 0274 2A44     		add	r2, r2, r5
 2679              	.LVL352:
ARM GAS  /tmp/ccO9HEUj.s 			page 48


 2680 0276 8842     		cmp	r0, r1
 2681 0278 00F10201 		add	r1, r0, #2
 2682 027c 28D8     		bhi	.L232
 2683              	.LVL353:
 2684              		.loc 1 3193 0
 2685 027e 40F6F57C 		movw	ip, #4085
 2686              		.loc 1 3197 0
 2687 0282 E162     		str	r1, [r4, #44]
 2688              		.loc 1 3198 0
 2689 0284 6563     		str	r5, [r4, #52]
 2690              		.loc 1 3193 0
 2691 0286 6045     		cmp	r0, ip
 2692              		.loc 1 3199 0
 2693 0288 A363     		str	r3, [r4, #56]
 2694              		.loc 1 3200 0
 2695 028a 2264     		str	r2, [r4, #64]
 2696              		.loc 1 3193 0
 2697 028c 7FD8     		bhi	.L233
 2698              	.LVL354:
 2699              		.loc 1 3207 0
 2700 028e 002F     		cmp	r7, #0
 2701 0290 97D0     		beq	.L224
 2702              		.loc 1 3208 0
 2703 0292 7344     		add	r3, r3, lr
 2704              		.loc 1 3210 0
 2705 0294 0127     		movs	r7, #1
 2706              	.LVL355:
 2707              		.loc 1 3208 0
 2708 0296 E363     		str	r3, [r4, #60]
 2709              		.loc 1 3210 0
 2710 0298 01EB4103 		add	r3, r1, r1, lsl #1
 2711 029c 01F00101 		and	r1, r1, #1
 2712 02a0 01EB5301 		add	r1, r1, r3, lsr #1
 2713 02a4 2AE0     		b	.L241
 2714              	.LVL356:
 2715              	.L242:
 2716              		.loc 1 3057 0
 2717 02a6 0B20     		movs	r0, #11
 2718              	.LVL357:
 2719 02a8 CDE6     		b	.L278
 2720              	.LVL358:
 2721              	.L243:
 2722              		.loc 1 3061 0
 2723 02aa 0C20     		movs	r0, #12
 2724              	.LVL359:
 2725 02ac CBE6     		b	.L278
 2726              	.LVL360:
 2727              	.L244:
 2728              		.loc 1 3074 0
 2729 02ae 2846     		mov	r0, r5
 2730              	.LVL361:
 2731 02b0 C9E6     		b	.L278
 2732              	.LVL362:
 2733              	.L246:
 2734              		.loc 1 3085 0
 2735 02b2 0320     		movs	r0, #3
 2736              	.LVL363:
ARM GAS  /tmp/ccO9HEUj.s 			page 49


 2737 02b4 C7E6     		b	.L278
 2738              	.LVL364:
 2739              	.L227:
 2740              	.LBB226:
 2741              		.loc 1 3157 0
 2742 02b6 4FF0FF33 		mov	r3, #-1
 2743              		.loc 1 3159 0
 2744 02ba 0427     		movs	r7, #4
 2745              		.loc 1 3157 0
 2746 02bc A361     		str	r3, [r4, #24]
 2747 02be 6361     		str	r3, [r4, #20]
 2748              	.LVL365:
 2749              	.LBE226:
 2750 02c0 5BE0     		b	.L235
 2751              	.L285:
 2752 02c2 00BF     		.align	2
 2753              	.L284:
 2754 02c4 00000000 		.word	.LANCHOR0
 2755 02c8 FDFFFF7F 		.word	2147483645
 2756 02cc F4FFFF0F 		.word	268435444
 2757              	.LVL366:
 2758              	.L232:
 2759              		.loc 1 3199 0
 2760 02d0 A363     		str	r3, [r4, #56]
 2761              		.loc 1 3200 0
 2762 02d2 2264     		str	r2, [r4, #64]
 2763              	.LBB227:
 2764              	.LBB228:
 2765              		.loc 1 553 0
 2766 02d4 94F87230 		ldrb	r3, [r4, #114]	@ zero_extendqisi2
 2767 02d8 94F87320 		ldrb	r2, [r4, #115]	@ zero_extendqisi2
 2768              	.LBE228:
 2769              	.LBE227:
 2770              		.loc 1 3197 0
 2771 02dc E162     		str	r1, [r4, #44]
 2772              		.loc 1 3202 0
 2773 02de 53EA0223 		orrs	r3, r3, r2, lsl #8
 2774              		.loc 1 3198 0
 2775 02e2 6563     		str	r5, [r4, #52]
 2776              		.loc 1 3202 0
 2777 02e4 7FF46DAF 		bne	.L224
 2778              		.loc 1 3203 0
 2779 02e8 002F     		cmp	r7, #0
 2780 02ea 7FF46AAF 		bne	.L224
 2781              		.loc 1 3204 0
 2782 02ee 04F17400 		add	r0, r4, #116
 2783              	.LVL367:
 2784 02f2 0327     		movs	r7, #3
 2785              	.LVL368:
 2786 02f4 FFF7FEFF 		bl	ld_dword
 2787              	.LVL369:
 2788 02f8 E063     		str	r0, [r4, #60]
 2789              		.loc 1 3205 0
 2790 02fa 8900     		lsls	r1, r1, #2
 2791              	.LVL370:
 2792              	.L241:
 2793              		.loc 1 3212 0
ARM GAS  /tmp/ccO9HEUj.s 			page 50


 2794 02fc 01F2FF11 		addw	r1, r1, #511
 2795              	.LVL371:
 2796 0300 B6EB512F 		cmp	r6, r1, lsr #9
 2797 0304 FFF45DAF 		bcc	.L224
 2798              		.loc 1 3216 0
 2799 0308 4FF0FF33 		mov	r3, #-1
 2800              		.loc 1 3219 0
 2801 030c 032F     		cmp	r7, #3
 2802              		.loc 1 3216 0
 2803 030e A361     		str	r3, [r4, #24]
 2804 0310 6361     		str	r3, [r4, #20]
 2805              		.loc 1 3217 0
 2806 0312 4FF08003 		mov	r3, #128
 2807 0316 2371     		strb	r3, [r4, #4]
 2808              		.loc 1 3219 0
 2809 0318 2FD1     		bne	.L235
 2810              	.LBB229:
 2811              	.LBB230:
 2812              		.loc 1 553 0
 2813 031a 94F87920 		ldrb	r2, [r4, #121]	@ zero_extendqisi2
 2814 031e 94F87830 		ldrb	r3, [r4, #120]	@ zero_extendqisi2
 2815 0322 43EA0223 		orr	r3, r3, r2, lsl #8
 2816              	.LBE230:
 2817              	.LBE229:
 2818              		.loc 1 3220 0
 2819 0326 012B     		cmp	r3, #1
 2820 0328 27D1     		bne	.L235
 2821              		.loc 1 3221 0
 2822 032a 691C     		adds	r1, r5, #1
 2823              	.LVL372:
 2824 032c 2046     		mov	r0, r4
 2825 032e FFF7FEFF 		bl	move_window
 2826              	.LVL373:
 2827 0332 10BB     		cbnz	r0, .L235
 2828              	.LBB231:
 2829              	.LBB232:
 2830              		.loc 1 553 0
 2831 0334 94F84722 		ldrb	r2, [r4, #583]	@ zero_extendqisi2
 2832 0338 94F84632 		ldrb	r3, [r4, #582]	@ zero_extendqisi2
 2833              	.LBE232:
 2834              	.LBE231:
 2835              		.loc 1 3223 0
 2836 033c 2071     		strb	r0, [r4, #4]
 2837              	.LBB234:
 2838              	.LBB233:
 2839              		.loc 1 553 0
 2840 033e 43EA0223 		orr	r3, r3, r2, lsl #8
 2841              	.LBE233:
 2842              	.LBE234:
 2843              		.loc 1 3224 0
 2844 0342 4AF65522 		movw	r2, #43605
 2845 0346 9342     		cmp	r3, r2
 2846 0348 17D1     		bne	.L235
 2847              		.loc 1 3225 0
 2848 034a 04F14800 		add	r0, r4, #72
 2849 034e FFF7FEFF 		bl	ld_dword
 2850              	.LVL374:
ARM GAS  /tmp/ccO9HEUj.s 			page 51


 2851 0352 134B     		ldr	r3, .L286
 2852 0354 9842     		cmp	r0, r3
 2853 0356 10D1     		bne	.L235
 2854              		.loc 1 3226 0
 2855 0358 04F50B70 		add	r0, r4, #556
 2856 035c FFF7FEFF 		bl	ld_dword
 2857              	.LVL375:
 2858 0360 104B     		ldr	r3, .L286+4
 2859 0362 9842     		cmp	r0, r3
 2860 0364 09D1     		bne	.L235
 2861              		.loc 1 3229 0
 2862 0366 04F50C70 		add	r0, r4, #560
 2863 036a FFF7FEFF 		bl	ld_dword
 2864              	.LVL376:
 2865 036e A061     		str	r0, [r4, #24]
 2866              		.loc 1 3232 0
 2867 0370 04F50D70 		add	r0, r4, #564
 2868 0374 FFF7FEFF 		bl	ld_dword
 2869              	.LVL377:
 2870 0378 6061     		str	r0, [r4, #20]
 2871              	.L235:
 2872              	.LVL378:
 2873              		.loc 1 3241 0
 2874 037a 0B4A     		ldr	r2, .L286+8
 2875              		.loc 1 3249 0
 2876 037c 0020     		movs	r0, #0
 2877              		.loc 1 3240 0
 2878 037e 2770     		strb	r7, [r4]
 2879              		.loc 1 3241 0
 2880 0380 1388     		ldrh	r3, [r2]
 2881              		.loc 1 3249 0
 2882 0382 E061     		str	r0, [r4, #28]
 2883              		.loc 1 3241 0
 2884 0384 0133     		adds	r3, r3, #1
 2885 0386 9BB2     		uxth	r3, r3
 2886 0388 1380     		strh	r3, [r2]	@ movhi
 2887 038a E380     		strh	r3, [r4, #6]	@ movhi
 2888              		.loc 1 3254 0
 2889 038c 5BE6     		b	.L278
 2890              	.LVL379:
 2891              	.L233:
 2892              		.loc 1 3207 0
 2893 038e 002F     		cmp	r7, #0
 2894 0390 3FF417AF 		beq	.L224
 2895              		.loc 1 3208 0
 2896 0394 7344     		add	r3, r3, lr
 2897              		.loc 1 3210 0
 2898 0396 4900     		lsls	r1, r1, #1
 2899 0398 0227     		movs	r7, #2
 2900              	.LVL380:
 2901              		.loc 1 3208 0
 2902 039a E363     		str	r3, [r4, #60]
 2903 039c AEE7     		b	.L241
 2904              	.L287:
 2905 039e 00BF     		.align	2
 2906              	.L286:
 2907 03a0 52526141 		.word	1096897106
ARM GAS  /tmp/ccO9HEUj.s 			page 52


 2908 03a4 72724161 		.word	1631679090
 2909 03a8 00000000 		.word	.LANCHOR1
 2910              		.cfi_endproc
 2911              	.LFE352:
 2912              		.size	find_volume, .-find_volume
 2913              		.section	.text.put_fat,"ax",%progbits
 2914              		.align	1
 2915              		.syntax unified
 2916              		.thumb
 2917              		.thumb_func
 2918              		.fpu fpv4-sp-d16
 2919              		.type	put_fat, %function
 2920              	put_fat:
 2921              	.LFB318:
 2922              		.loc 1 1063 0
 2923              		.cfi_startproc
 2924              		@ args = 0, pretend = 0, frame = 0
 2925              		@ frame_needed = 0, uses_anonymous_args = 0
 2926              	.LVL381:
 2927              		.loc 1 1069 0
 2928 0000 0129     		cmp	r1, #1
 2929              		.loc 1 1063 0
 2930 0002 2DE9F047 		push	{r4, r5, r6, r7, r8, r9, r10, lr}
 2931              		.cfi_def_cfa_offset 32
 2932              		.cfi_offset 4, -32
 2933              		.cfi_offset 5, -28
 2934              		.cfi_offset 6, -24
 2935              		.cfi_offset 7, -20
 2936              		.cfi_offset 8, -16
 2937              		.cfi_offset 9, -12
 2938              		.cfi_offset 10, -8
 2939              		.cfi_offset 14, -4
 2940              		.loc 1 1063 0
 2941 0006 0546     		mov	r5, r0
 2942 0008 0C46     		mov	r4, r1
 2943 000a 1646     		mov	r6, r2
 2944              		.loc 1 1069 0
 2945 000c 7AD9     		bls	.L301
 2946              		.loc 1 1069 0 is_stmt 0 discriminator 1
 2947 000e C36A     		ldr	r3, [r0, #44]
 2948 0010 9942     		cmp	r1, r3
 2949 0012 77D2     		bcs	.L301
 2950              	.LVL382:
 2951              	.LBB239:
 2952              	.LBB240:
 2953              		.loc 1 1070 0 is_stmt 1
 2954 0014 0378     		ldrb	r3, [r0]	@ zero_extendqisi2
 2955 0016 013B     		subs	r3, r3, #1
 2956 0018 032B     		cmp	r3, #3
 2957 001a 73D8     		bhi	.L301
 2958 001c DFE803F0 		tbb	[pc, r3]
 2959              	.LVL383:
 2960              	.L291:
 2961 0020 02       		.byte	(.L290-.L291)/2
 2962 0021 3F       		.byte	(.L292-.L291)/2
 2963 0022 52       		.byte	(.L293-.L291)/2
 2964 0023 52       		.byte	(.L293-.L291)/2
ARM GAS  /tmp/ccO9HEUj.s 			page 53


 2965              		.p2align 1
 2966              	.L290:
 2967              		.loc 1 1072 0
 2968 0024 01EB5108 		add	r8, r1, r1, lsr #1
 2969              	.LVL384:
 2970              		.loc 1 1073 0
 2971 0028 816B     		ldr	r1, [r0, #56]
 2972              	.LVL385:
 2973 002a 01EB5821 		add	r1, r1, r8, lsr #9
 2974 002e FFF7FEFF 		bl	move_window
 2975              	.LVL386:
 2976              		.loc 1 1074 0
 2977 0032 0746     		mov	r7, r0
 2978 0034 40BB     		cbnz	r0, .L289
 2979              		.loc 1 1076 0
 2980 0036 14F00104 		ands	r4, r4, #1
 2981              	.LVL387:
 2982              		.loc 1 1075 0
 2983 003a 05F14809 		add	r9, r5, #72
 2984 003e 08F1010A 		add	r10, r8, #1
 2985              	.LVL388:
 2986 0042 C8F30808 		ubfx	r8, r8, #0, #9
 2987              	.LVL389:
 2988              		.loc 1 1076 0
 2989 0046 08BF     		it	eq
 2990 0048 F3B2     		uxtbeq	r3, r6
 2991              		.loc 1 1078 0
 2992 004a 2846     		mov	r0, r5
 2993              	.LVL390:
 2994              		.loc 1 1076 0
 2995 004c 1FBF     		itttt	ne
 2996 004e 19F80830 		ldrbne	r3, [r9, r8]	@ zero_extendqisi2
 2997 0052 03F00F02 		andne	r2, r3, #15
 2998 0056 3301     		lslne	r3, r6, #4
 2999 0058 03F0F003 		andne	r3, r3, #240
 3000 005c 18BF     		it	ne
 3001 005e 1343     		orrne	r3, r3, r2
 3002 0060 09F80830 		strb	r3, [r9, r8]
 3003              		.loc 1 1077 0
 3004 0064 0123     		movs	r3, #1
 3005              		.loc 1 1078 0
 3006 0066 A96B     		ldr	r1, [r5, #56]
 3007              		.loc 1 1077 0
 3008 0068 EB70     		strb	r3, [r5, #3]
 3009              		.loc 1 1078 0
 3010 006a 01EB5A21 		add	r1, r1, r10, lsr #9
 3011 006e FFF7FEFF 		bl	move_window
 3012              	.LVL391:
 3013              		.loc 1 1079 0
 3014 0072 0746     		mov	r7, r0
 3015 0074 40B9     		cbnz	r0, .L289
 3016              		.loc 1 1080 0
 3017 0076 CAF3080A 		ubfx	r10, r10, #0, #9
 3018              	.LVL392:
 3019              		.loc 1 1081 0
 3020 007a 44B1     		cbz	r4, .L296
 3021 007c C6F30716 		ubfx	r6, r6, #4, #8
ARM GAS  /tmp/ccO9HEUj.s 			page 54


 3022              	.LVL393:
 3023              	.L297:
 3024 0080 09F80A60 		strb	r6, [r9, r10]
 3025              	.LVL394:
 3026              	.L305:
 3027              		.loc 1 1102 0
 3028 0084 0123     		movs	r3, #1
 3029 0086 EB70     		strb	r3, [r5, #3]
 3030              	.LVL395:
 3031              	.L289:
 3032              	.LBE240:
 3033              	.LBE239:
 3034              		.loc 1 1107 0
 3035 0088 3846     		mov	r0, r7
 3036 008a BDE8F087 		pop	{r4, r5, r6, r7, r8, r9, r10, pc}
 3037              	.LVL396:
 3038              	.L296:
 3039              	.LBB246:
 3040              	.LBB245:
 3041              		.loc 1 1081 0
 3042 008e 19F80A20 		ldrb	r2, [r9, r10]	@ zero_extendqisi2
 3043 0092 C6F30326 		ubfx	r6, r6, #8, #4
 3044              	.LVL397:
 3045 0096 22F00F02 		bic	r2, r2, #15
 3046 009a 1643     		orrs	r6, r6, r2
 3047 009c F0E7     		b	.L297
 3048              	.LVL398:
 3049              	.L292:
 3050              		.loc 1 1086 0
 3051 009e 816B     		ldr	r1, [r0, #56]
 3052              	.LVL399:
 3053 00a0 01EB1421 		add	r1, r1, r4, lsr #8
 3054 00a4 FFF7FEFF 		bl	move_window
 3055              	.LVL400:
 3056              		.loc 1 1087 0
 3057 00a8 0746     		mov	r7, r0
 3058 00aa 0028     		cmp	r0, #0
 3059 00ac ECD1     		bne	.L289
 3060              		.loc 1 1088 0
 3061 00ae 6400     		lsls	r4, r4, #1
 3062              	.LVL401:
 3063 00b0 05F14803 		add	r3, r5, #72
 3064 00b4 04F4FF74 		and	r4, r4, #510
 3065              	.LBB241:
 3066              	.LBB242:
 3067              		.loc 1 591 0
 3068 00b8 1E55     		strb	r6, [r3, r4]
 3069              	.LBE242:
 3070              	.LBE241:
 3071              		.loc 1 1088 0
 3072 00ba 1919     		adds	r1, r3, r4
 3073              	.LVL402:
 3074              	.LBB244:
 3075              	.LBB243:
 3076              		.loc 1 591 0
 3077 00bc C6F30726 		ubfx	r6, r6, #8, #8
 3078              	.LVL403:
ARM GAS  /tmp/ccO9HEUj.s 			page 55


 3079              		.loc 1 592 0
 3080 00c0 4E70     		strb	r6, [r1, #1]
 3081              	.LVL404:
 3082 00c2 DFE7     		b	.L305
 3083              	.LVL405:
 3084              	.L293:
 3085              	.LBE243:
 3086              	.LBE244:
 3087              		.loc 1 1096 0
 3088 00c4 816B     		ldr	r1, [r0, #56]
 3089              	.LVL406:
 3090 00c6 01EBD411 		add	r1, r1, r4, lsr #7
 3091 00ca FFF7FEFF 		bl	move_window
 3092              	.LVL407:
 3093              		.loc 1 1097 0
 3094 00ce 0746     		mov	r7, r0
 3095 00d0 0028     		cmp	r0, #0
 3096 00d2 D9D1     		bne	.L289
 3097              		.loc 1 1098 0
 3098 00d4 A846     		mov	r8, r5
 3099 00d6 A400     		lsls	r4, r4, #2
 3100              	.LVL408:
 3101 00d8 18F8483B 		ldrb	r3, [r8], #72	@ zero_extendqisi2
 3102 00dc 042B     		cmp	r3, #4
 3103 00de 09D0     		beq	.L298
 3104              		.loc 1 1099 0
 3105 00e0 04F4FE70 		and	r0, r4, #508
 3106              	.LVL409:
 3107 00e4 26F07046 		bic	r6, r6, #-268435456
 3108              	.LVL410:
 3109 00e8 4044     		add	r0, r0, r8
 3110 00ea FFF7FEFF 		bl	ld_dword
 3111              	.LVL411:
 3112 00ee 00F07040 		and	r0, r0, #-268435456
 3113 00f2 0643     		orrs	r6, r6, r0
 3114              	.LVL412:
 3115              	.L298:
 3116              		.loc 1 1101 0
 3117 00f4 04F4FE74 		and	r4, r4, #508
 3118 00f8 3146     		mov	r1, r6
 3119 00fa 08EB0400 		add	r0, r8, r4
 3120 00fe FFF7FEFF 		bl	st_dword
 3121              	.LVL413:
 3122 0102 BFE7     		b	.L305
 3123              	.LVL414:
 3124              	.L301:
 3125              		.loc 1 1066 0
 3126 0104 0227     		movs	r7, #2
 3127 0106 BFE7     		b	.L289
 3128              	.LBE245:
 3129              	.LBE246:
 3130              		.cfi_endproc
 3131              	.LFE318:
 3132              		.size	put_fat, .-put_fat
 3133              		.section	.text.fill_last_frag,"ax",%progbits
 3134              		.align	1
 3135              		.syntax unified
ARM GAS  /tmp/ccO9HEUj.s 			page 56


 3136              		.thumb
 3137              		.thumb_func
 3138              		.fpu fpv4-sp-d16
 3139              		.type	fill_last_frag, %function
 3140              	fill_last_frag:
 3141              	.LFB322:
 3142              		.loc 1 1231 0
 3143              		.cfi_startproc
 3144              		@ args = 0, pretend = 0, frame = 0
 3145              		@ frame_needed = 0, uses_anonymous_args = 0
 3146              	.LVL415:
 3147 0000 70B5     		push	{r4, r5, r6, lr}
 3148              		.cfi_def_cfa_offset 16
 3149              		.cfi_offset 4, -16
 3150              		.cfi_offset 5, -12
 3151              		.cfi_offset 6, -8
 3152              		.cfi_offset 14, -4
 3153 0002 0446     		mov	r4, r0
 3154 0004 0D46     		mov	r5, r1
 3155 0006 1646     		mov	r6, r2
 3156              	.LVL416:
 3157              	.L307:
 3158              		.loc 1 1235 0
 3159 0008 E369     		ldr	r3, [r4, #28]
 3160 000a 0BB9     		cbnz	r3, .L310
 3161              		.loc 1 1240 0
 3162 000c 1846     		mov	r0, r3
 3163              	.L309:
 3164              		.loc 1 1241 0
 3165 000e 70BD     		pop	{r4, r5, r6, pc}
 3166              	.LVL417:
 3167              	.L310:
 3168              		.loc 1 1236 0
 3169 0010 EA1A     		subs	r2, r5, r3
 3170 0012 012B     		cmp	r3, #1
 3171 0014 2068     		ldr	r0, [r4]
 3172 0016 02F10101 		add	r1, r2, #1
 3173 001a 8CBF     		ite	hi
 3174 001c 0232     		addhi	r2, r2, #2
 3175 001e 3246     		movls	r2, r6
 3176 0020 FFF7FEFF 		bl	put_fat
 3177              	.LVL418:
 3178              		.loc 1 1237 0
 3179 0024 0028     		cmp	r0, #0
 3180 0026 F2D1     		bne	.L309
 3181              		.loc 1 1238 0
 3182 0028 E369     		ldr	r3, [r4, #28]
 3183 002a 013B     		subs	r3, r3, #1
 3184 002c E361     		str	r3, [r4, #28]
 3185 002e EBE7     		b	.L307
 3186              		.cfi_endproc
 3187              	.LFE322:
 3188              		.size	fill_last_frag, .-fill_last_frag
 3189              		.section	.text.remove_chain,"ax",%progbits
 3190              		.align	1
 3191              		.syntax unified
 3192              		.thumb
ARM GAS  /tmp/ccO9HEUj.s 			page 57


 3193              		.thumb_func
 3194              		.fpu fpv4-sp-d16
 3195              		.type	remove_chain, %function
 3196              	remove_chain:
 3197              	.LFB323:
 3198              		.loc 1 1257 0
 3199              		.cfi_startproc
 3200              		@ args = 0, pretend = 0, frame = 0
 3201              		@ frame_needed = 0, uses_anonymous_args = 0
 3202              	.LVL419:
 3203              		.loc 1 1268 0
 3204 0000 0129     		cmp	r1, #1
 3205              		.loc 1 1257 0
 3206 0002 2DE9F843 		push	{r3, r4, r5, r6, r7, r8, r9, lr}
 3207              		.cfi_def_cfa_offset 32
 3208              		.cfi_offset 3, -32
 3209              		.cfi_offset 4, -28
 3210              		.cfi_offset 5, -24
 3211              		.cfi_offset 6, -20
 3212              		.cfi_offset 7, -16
 3213              		.cfi_offset 8, -12
 3214              		.cfi_offset 9, -8
 3215              		.cfi_offset 14, -4
 3216              		.loc 1 1257 0
 3217 0006 0646     		mov	r6, r0
 3218 0008 0D46     		mov	r5, r1
 3219 000a 1746     		mov	r7, r2
 3220              		.loc 1 1268 0
 3221 000c 02D8     		bhi	.L313
 3222              	.LVL420:
 3223              	.L315:
 3224 000e 0220     		movs	r0, #2
 3225 0010 BDE8F883 		pop	{r3, r4, r5, r6, r7, r8, r9, pc}
 3226              	.LVL421:
 3227              	.L313:
 3228              		.loc 1 1260 0 discriminator 2
 3229 0014 0468     		ldr	r4, [r0]
 3230              		.loc 1 1268 0 discriminator 2
 3231 0016 E36A     		ldr	r3, [r4, #44]
 3232 0018 9942     		cmp	r1, r3
 3233 001a F8D2     		bcs	.L315
 3234              		.loc 1 1271 0
 3235 001c 7AB9     		cbnz	r2, .L316
 3236              	.LVL422:
 3237              	.L319:
 3238              		.loc 1 1257 0
 3239 001e A946     		mov	r9, r5
 3240              	.LVL423:
 3241              	.L317:
 3242              		.loc 1 1278 0
 3243 0020 2946     		mov	r1, r5
 3244 0022 3046     		mov	r0, r6
 3245 0024 FFF7FEFF 		bl	get_fat
 3246              	.LVL424:
 3247              		.loc 1 1279 0
 3248 0028 8046     		mov	r8, r0
 3249 002a C0B9     		cbnz	r0, .L320
ARM GAS  /tmp/ccO9HEUj.s 			page 58


 3250              	.LVL425:
 3251              	.L329:
 3252              		.loc 1 1313 0
 3253 002c 2378     		ldrb	r3, [r4]	@ zero_extendqisi2
 3254 002e 042B     		cmp	r3, #4
 3255 0030 02D1     		bne	.L347
 3256              		.loc 1 1314 0
 3257 0032 002F     		cmp	r7, #0
 3258 0034 48D1     		bne	.L330
 3259              		.loc 1 1315 0
 3260 0036 F771     		strb	r7, [r6, #7]
 3261              	.LVL426:
 3262              	.L347:
 3263              		.loc 1 1337 0
 3264 0038 0020     		movs	r0, #0
 3265              	.L314:
 3266              		.loc 1 1338 0
 3267 003a BDE8F883 		pop	{r3, r4, r5, r6, r7, r8, r9, pc}
 3268              	.LVL427:
 3269              	.L316:
 3270              		.loc 1 1271 0 discriminator 1
 3271 003e 2378     		ldrb	r3, [r4]	@ zero_extendqisi2
 3272 0040 042B     		cmp	r3, #4
 3273 0042 02D1     		bne	.L318
 3274              		.loc 1 1271 0 is_stmt 0 discriminator 2
 3275 0044 C379     		ldrb	r3, [r0, #7]	@ zero_extendqisi2
 3276 0046 022B     		cmp	r3, #2
 3277 0048 E9D0     		beq	.L319
 3278              	.L318:
 3279              		.loc 1 1272 0 is_stmt 1
 3280 004a 4FF0FF32 		mov	r2, #-1
 3281              	.LVL428:
 3282 004e 3946     		mov	r1, r7
 3283              	.LVL429:
 3284 0050 2046     		mov	r0, r4
 3285              	.LVL430:
 3286 0052 FFF7FEFF 		bl	put_fat
 3287              	.LVL431:
 3288              		.loc 1 1273 0
 3289 0056 0028     		cmp	r0, #0
 3290 0058 E1D0     		beq	.L319
 3291 005a BDE8F883 		pop	{r3, r4, r5, r6, r7, r8, r9, pc}
 3292              	.LVL432:
 3293              	.L320:
 3294              		.loc 1 1280 0
 3295 005e 0128     		cmp	r0, #1
 3296 0060 D5D0     		beq	.L315
 3297              		.loc 1 1281 0
 3298 0062 B0F1FF3F 		cmp	r0, #-1
 3299 0066 02D1     		bne	.L323
 3300              	.LVL433:
 3301              	.L333:
 3302 0068 0120     		movs	r0, #1
 3303              	.LVL434:
 3304 006a BDE8F883 		pop	{r3, r4, r5, r6, r7, r8, r9, pc}
 3305              	.LVL435:
 3306              	.L323:
ARM GAS  /tmp/ccO9HEUj.s 			page 59


 3307              		.loc 1 1282 0
 3308 006e 2378     		ldrb	r3, [r4]	@ zero_extendqisi2
 3309 0070 042B     		cmp	r3, #4
 3310 0072 19D1     		bne	.L324
 3311              	.LVL436:
 3312              	.L327:
 3313              		.loc 1 1286 0
 3314 0074 E26A     		ldr	r2, [r4, #44]
 3315 0076 A369     		ldr	r3, [r4, #24]
 3316 0078 023A     		subs	r2, r2, #2
 3317 007a 9342     		cmp	r3, r2
 3318 007c 1DD3     		bcc	.L325
 3319              	.L326:
 3320              		.loc 1 1291 0
 3321 007e 6A1C     		adds	r2, r5, #1
 3322 0080 9045     		cmp	r8, r2
 3323 0082 0CD0     		beq	.L328
 3324              		.loc 1 1295 0
 3325 0084 2378     		ldrb	r3, [r4]	@ zero_extendqisi2
 3326 0086 042B     		cmp	r3, #4
 3327 0088 08D1     		bne	.L336
 3328              		.loc 1 1296 0
 3329 008a 0023     		movs	r3, #0
 3330 008c A2EB0902 		sub	r2, r2, r9
 3331 0090 4946     		mov	r1, r9
 3332 0092 2046     		mov	r0, r4
 3333 0094 FFF7FEFF 		bl	change_bitmap
 3334              	.LVL437:
 3335              		.loc 1 1297 0
 3336 0098 0028     		cmp	r0, #0
 3337 009a CED1     		bne	.L314
 3338              	.LVL438:
 3339              	.L336:
 3340 009c C146     		mov	r9, r8
 3341              	.LVL439:
 3342              	.L328:
 3343              		.loc 1 1309 0
 3344 009e E36A     		ldr	r3, [r4, #44]
 3345 00a0 4546     		mov	r5, r8
 3346 00a2 9845     		cmp	r8, r3
 3347 00a4 BCD3     		bcc	.L317
 3348              	.LVL440:
 3349 00a6 C1E7     		b	.L329
 3350              	.LVL441:
 3351              	.L324:
 3352              		.loc 1 1283 0
 3353 00a8 0022     		movs	r2, #0
 3354 00aa 2946     		mov	r1, r5
 3355 00ac 2046     		mov	r0, r4
 3356              	.LVL442:
 3357 00ae FFF7FEFF 		bl	put_fat
 3358              	.LVL443:
 3359              		.loc 1 1284 0
 3360 00b2 0028     		cmp	r0, #0
 3361 00b4 DED0     		beq	.L327
 3362 00b6 BDE8F883 		pop	{r3, r4, r5, r6, r7, r8, r9, pc}
 3363              	.LVL444:
ARM GAS  /tmp/ccO9HEUj.s 			page 60


 3364              	.L325:
 3365              		.loc 1 1287 0
 3366 00ba 0133     		adds	r3, r3, #1
 3367 00bc A361     		str	r3, [r4, #24]
 3368              		.loc 1 1288 0
 3369 00be 2379     		ldrb	r3, [r4, #4]	@ zero_extendqisi2
 3370 00c0 43F00103 		orr	r3, r3, #1
 3371 00c4 2371     		strb	r3, [r4, #4]
 3372 00c6 DAE7     		b	.L326
 3373              	.L330:
 3374              		.loc 1 1317 0
 3375 00c8 F379     		ldrb	r3, [r6, #7]	@ zero_extendqisi2
 3376 00ca 93B9     		cbnz	r3, .L331
 3377              		.loc 1 1318 0
 3378 00cc B468     		ldr	r4, [r6, #8]
 3379              	.LVL445:
 3380              	.L332:
 3381              		.loc 1 1319 0
 3382 00ce BC42     		cmp	r4, r7
 3383 00d0 02D1     		bne	.L334
 3384              	.LVL446:
 3385              	.L335:
 3386              		.loc 1 1331 0
 3387 00d2 0223     		movs	r3, #2
 3388 00d4 F371     		strb	r3, [r6, #7]
 3389 00d6 AFE7     		b	.L347
 3390              	.LVL447:
 3391              	.L334:
 3392              		.loc 1 1320 0
 3393 00d8 2146     		mov	r1, r4
 3394 00da 3046     		mov	r0, r6
 3395 00dc FFF7FEFF 		bl	get_fat
 3396              	.LVL448:
 3397              		.loc 1 1321 0
 3398 00e0 0128     		cmp	r0, #1
 3399 00e2 94D9     		bls	.L315
 3400              		.loc 1 1322 0
 3401 00e4 431C     		adds	r3, r0, #1
 3402 00e6 BFD0     		beq	.L333
 3403              		.loc 1 1323 0
 3404 00e8 631C     		adds	r3, r4, #1
 3405 00ea 0446     		mov	r4, r0
 3406              	.LVL449:
 3407 00ec 9842     		cmp	r0, r3
 3408 00ee EED0     		beq	.L332
 3409 00f0 A2E7     		b	.L347
 3410              	.LVL450:
 3411              	.L331:
 3412              		.loc 1 1330 0
 3413 00f2 032B     		cmp	r3, #3
 3414 00f4 A0D1     		bne	.L347
 3415              		.loc 1 1330 0 is_stmt 0 discriminator 1
 3416 00f6 B368     		ldr	r3, [r6, #8]
 3417 00f8 9F42     		cmp	r7, r3
 3418 00fa 9DD3     		bcc	.L347
 3419              		.loc 1 1330 0 discriminator 2
 3420 00fc B269     		ldr	r2, [r6, #24]
ARM GAS  /tmp/ccO9HEUj.s 			page 61


 3421 00fe 1344     		add	r3, r3, r2
 3422 0100 9F42     		cmp	r7, r3
 3423 0102 E6D9     		bls	.L335
 3424 0104 98E7     		b	.L347
 3425              		.cfi_endproc
 3426              	.LFE323:
 3427              		.size	remove_chain, .-remove_chain
 3428              		.section	.text.fill_first_frag,"ax",%progbits
 3429              		.align	1
 3430              		.syntax unified
 3431              		.thumb
 3432              		.thumb_func
 3433              		.fpu fpv4-sp-d16
 3434              		.type	fill_first_frag, %function
 3435              	fill_first_frag:
 3436              	.LFB321:
 3437              		.loc 1 1205 0 is_stmt 1
 3438              		.cfi_startproc
 3439              		@ args = 0, pretend = 0, frame = 0
 3440              		@ frame_needed = 0, uses_anonymous_args = 0
 3441              	.LVL451:
 3442 0000 70B5     		push	{r4, r5, r6, lr}
 3443              		.cfi_def_cfa_offset 16
 3444              		.cfi_offset 4, -16
 3445              		.cfi_offset 5, -12
 3446              		.cfi_offset 6, -8
 3447              		.cfi_offset 14, -4
 3448              		.loc 1 1210 0
 3449 0002 C379     		ldrb	r3, [r0, #7]	@ zero_extendqisi2
 3450              		.loc 1 1205 0
 3451 0004 0446     		mov	r4, r0
 3452              		.loc 1 1210 0
 3453 0006 032B     		cmp	r3, #3
 3454 0008 10D1     		bne	.L352
 3455              	.LVL452:
 3456              	.LBB249:
 3457              	.LBB250:
 3458              		.loc 1 1211 0
 3459 000a 8168     		ldr	r1, [r0, #8]
 3460              	.LVL453:
 3461 000c 8369     		ldr	r3, [r0, #24]
 3462 000e CD18     		adds	r5, r1, r3
 3463              	.LVL454:
 3464              	.L350:
 3465 0010 A942     		cmp	r1, r5
 3466 0012 02D1     		bne	.L351
 3467              		.loc 1 1215 0
 3468 0014 0020     		movs	r0, #0
 3469 0016 E071     		strb	r0, [r4, #7]
 3470 0018 70BD     		pop	{r4, r5, r6, pc}
 3471              	.LVL455:
 3472              	.L351:
 3473              		.loc 1 1212 0
 3474 001a 4E1C     		adds	r6, r1, #1
 3475 001c 2068     		ldr	r0, [r4]
 3476 001e 3246     		mov	r2, r6
 3477 0020 FFF7FEFF 		bl	put_fat
ARM GAS  /tmp/ccO9HEUj.s 			page 62


 3478              	.LVL456:
 3479              		.loc 1 1211 0
 3480 0024 3146     		mov	r1, r6
 3481              		.loc 1 1213 0
 3482 0026 0028     		cmp	r0, #0
 3483 0028 F2D0     		beq	.L350
 3484              	.LVL457:
 3485              	.L349:
 3486              	.LBE250:
 3487              	.LBE249:
 3488              		.loc 1 1218 0
 3489 002a 70BD     		pop	{r4, r5, r6, pc}
 3490              	.LVL458:
 3491              	.L352:
 3492              		.loc 1 1217 0
 3493 002c 0020     		movs	r0, #0
 3494              	.LVL459:
 3495 002e FCE7     		b	.L349
 3496              		.cfi_endproc
 3497              	.LFE321:
 3498              		.size	fill_first_frag, .-fill_first_frag
 3499              		.section	.text.create_chain,"ax",%progbits
 3500              		.align	1
 3501              		.syntax unified
 3502              		.thumb
 3503              		.thumb_func
 3504              		.fpu fpv4-sp-d16
 3505              		.type	create_chain, %function
 3506              	create_chain:
 3507              	.LFB324:
 3508              		.loc 1 1351 0
 3509              		.cfi_startproc
 3510              		@ args = 0, pretend = 0, frame = 0
 3511              		@ frame_needed = 0, uses_anonymous_args = 0
 3512              	.LVL460:
 3513 0000 2DE9F84F 		push	{r3, r4, r5, r6, r7, r8, r9, r10, fp, lr}
 3514              		.cfi_def_cfa_offset 40
 3515              		.cfi_offset 3, -40
 3516              		.cfi_offset 4, -36
 3517              		.cfi_offset 5, -32
 3518              		.cfi_offset 6, -28
 3519              		.cfi_offset 7, -24
 3520              		.cfi_offset 8, -20
 3521              		.cfi_offset 9, -16
 3522              		.cfi_offset 10, -12
 3523              		.cfi_offset 11, -8
 3524              		.cfi_offset 14, -4
 3525              		.loc 1 1351 0
 3526 0004 0746     		mov	r7, r0
 3527              		.loc 1 1354 0
 3528 0006 0568     		ldr	r5, [r0]
 3529              	.LVL461:
 3530              		.loc 1 1357 0
 3531 0008 8946     		mov	r9, r1
 3532 000a 49B9     		cbnz	r1, .L354
 3533              		.loc 1 1358 0
 3534 000c 6E69     		ldr	r6, [r5, #20]
ARM GAS  /tmp/ccO9HEUj.s 			page 63


 3535              	.LVL462:
 3536              		.loc 1 1359 0
 3537 000e CEB1     		cbz	r6, .L385
 3538              		.loc 1 1359 0 is_stmt 0 discriminator 2
 3539 0010 EB6A     		ldr	r3, [r5, #44]
 3540 0012 9E42     		cmp	r6, r3
 3541 0014 28BF     		it	cs
 3542 0016 0126     		movcs	r6, #1
 3543              	.LVL463:
 3544              	.L355:
 3545              		.loc 1 1368 0 is_stmt 1
 3546 0018 AB69     		ldr	r3, [r5, #24]
 3547 001a ABB9     		cbnz	r3, .L359
 3548              	.L382:
 3549 001c 0024     		movs	r4, #0
 3550 001e 09E0     		b	.L353
 3551              	.LVL464:
 3552              	.L354:
 3553              		.loc 1 1362 0
 3554 0020 FFF7FEFF 		bl	get_fat
 3555              	.LVL465:
 3556              		.loc 1 1363 0
 3557 0024 0128     		cmp	r0, #1
 3558              		.loc 1 1362 0
 3559 0026 0446     		mov	r4, r0
 3560              	.LVL466:
 3561              		.loc 1 1363 0
 3562 0028 40F2DB80 		bls	.L356
 3563              		.loc 1 1364 0
 3564 002c 421C     		adds	r2, r0, #1
 3565 002e 04D1     		bne	.L357
 3566              	.LVL467:
 3567              	.L368:
 3568              		.loc 1 1414 0
 3569 0030 4FF0FF34 		mov	r4, #-1
 3570              	.L353:
 3571              		.loc 1 1438 0
 3572 0034 2046     		mov	r0, r4
 3573 0036 BDE8F88F 		pop	{r3, r4, r5, r6, r7, r8, r9, r10, fp, pc}
 3574              	.LVL468:
 3575              	.L357:
 3576              		.loc 1 1365 0
 3577 003a EB6A     		ldr	r3, [r5, #44]
 3578 003c 9842     		cmp	r0, r3
 3579 003e F9D3     		bcc	.L353
 3580 0040 4E46     		mov	r6, r9
 3581 0042 E9E7     		b	.L355
 3582              	.LVL469:
 3583              	.L385:
 3584              		.loc 1 1359 0
 3585 0044 0126     		movs	r6, #1
 3586              	.LVL470:
 3587 0046 E7E7     		b	.L355
 3588              	.LVL471:
 3589              	.L359:
 3590              		.loc 1 1371 0
 3591 0048 2B78     		ldrb	r3, [r5]	@ zero_extendqisi2
ARM GAS  /tmp/ccO9HEUj.s 			page 64


 3592 004a 042B     		cmp	r3, #4
 3593 004c EB6A     		ldr	r3, [r5, #44]
 3594 004e 40F08580 		bne	.L360
 3595              	.LVL472:
 3596              	.LBB253:
 3597              	.LBB254:
 3598              		.loc 1 1135 0
 3599 0052 A6F1020A 		sub	r10, r6, #2
 3600              	.LVL473:
 3601              		.loc 1 1136 0
 3602 0056 023B     		subs	r3, r3, #2
 3603              		.loc 1 1140 0
 3604 0058 4FF0010B 		mov	fp, #1
 3605              		.loc 1 1136 0
 3606 005c 9A45     		cmp	r10, r3
 3607 005e 28BF     		it	cs
 3608 0060 4FF0000A 		movcs	r10, #0
 3609              	.LVL474:
 3610              		.loc 1 1137 0
 3611 0064 D046     		mov	r8, r10
 3612              	.LVL475:
 3613              	.L367:
 3614              		.loc 1 1139 0
 3615 0066 296C     		ldr	r1, [r5, #64]
 3616 0068 2846     		mov	r0, r5
 3617 006a 01EB1831 		add	r1, r1, r8, lsr #12
 3618 006e FFF7FEFF 		bl	move_window
 3619              	.LVL476:
 3620 0072 0028     		cmp	r0, #0
 3621 0074 46D1     		bne	.L386
 3622              		.loc 1 1140 0
 3623 0076 08F00703 		and	r3, r8, #7
 3624              		.loc 1 1144 0
 3625 007a EA6A     		ldr	r2, [r5, #44]
 3626              		.loc 1 1140 0
 3627 007c C8F3C801 		ubfx	r1, r8, #3, #9
 3628              	.LVL477:
 3629 0080 0BFA03F3 		lsl	r3, fp, r3
 3630              		.loc 1 1144 0
 3631 0084 901E     		subs	r0, r2, #2
 3632              		.loc 1 1140 0
 3633 0086 DBB2     		uxtb	r3, r3
 3634              	.LVL478:
 3635              	.L366:
 3636              		.loc 1 1143 0
 3637 0088 6A18     		adds	r2, r5, r1
 3638              		.loc 1 1154 0
 3639 008a 4446     		mov	r4, r8
 3640              	.LVL479:
 3641              		.loc 1 1144 0
 3642 008c 08F10108 		add	r8, r8, #1
 3643              		.loc 1 1143 0
 3644 0090 92F84820 		ldrb	r2, [r2, #72]	@ zero_extendqisi2
 3645              		.loc 1 1144 0
 3646 0094 8045     		cmp	r8, r0
 3647              		.loc 1 1143 0
 3648 0096 02EA0302 		and	r2, r2, r3
ARM GAS  /tmp/ccO9HEUj.s 			page 65


 3649              	.LVL480:
 3650              		.loc 1 1145 0
 3651 009a 2BBF     		itete	cs
 3652 009c 4FF00008 		movcs	r8, #0
 3653              	.LVL481:
 3654              		.loc 1 1143 0
 3655 00a0 5B00     		lslcc	r3, r3, #1
 3656              	.LVL482:
 3657              		.loc 1 1145 0
 3658 00a2 4FF40071 		movcs	r1, #512
 3659              	.LVL483:
 3660              		.loc 1 1143 0
 3661 00a6 DBB2     		uxtbcc	r3, r3
 3662              		.loc 1 1145 0
 3663 00a8 28BF     		it	cs
 3664 00aa 4346     		movcs	r3, r8
 3665              	.LVL484:
 3666              		.loc 1 1147 0
 3667 00ac 02BB     		cbnz	r2, .L365
 3668              	.LVL485:
 3669              		.loc 1 1148 0
 3670 00ae 0234     		adds	r4, r4, #2
 3671              	.LVL486:
 3672              	.L362:
 3673              	.LBE254:
 3674              	.LBE253:
 3675              		.loc 1 1373 0
 3676 00b0 631E     		subs	r3, r4, #1
 3677 00b2 0333     		adds	r3, r3, #3
 3678 00b4 BED8     		bhi	.L353
 3679              		.loc 1 1374 0
 3680 00b6 0123     		movs	r3, #1
 3681 00b8 2146     		mov	r1, r4
 3682 00ba 2846     		mov	r0, r5
 3683 00bc 1A46     		mov	r2, r3
 3684 00be FFF7FEFF 		bl	change_bitmap
 3685              	.LVL487:
 3686              		.loc 1 1375 0
 3687 00c2 0228     		cmp	r0, #2
 3688 00c4 00F08D80 		beq	.L356
 3689              		.loc 1 1376 0
 3690 00c8 0128     		cmp	r0, #1
 3691 00ca B1D0     		beq	.L368
 3692              		.loc 1 1377 0
 3693 00cc B9F1000F 		cmp	r9, #0
 3694 00d0 1DD1     		bne	.L369
 3695              		.loc 1 1378 0
 3696 00d2 0223     		movs	r3, #2
 3697              	.LVL488:
 3698              	.L425:
 3699              		.loc 1 1382 0
 3700 00d4 FB71     		strb	r3, [r7, #7]
 3701              	.L370:
 3702              		.loc 1 1385 0
 3703 00d6 FB79     		ldrb	r3, [r7, #7]	@ zero_extendqisi2
 3704 00d8 022B     		cmp	r3, #2
 3705 00da 07D0     		beq	.L371
ARM GAS  /tmp/ccO9HEUj.s 			page 66


 3706              		.loc 1 1386 0
 3707 00dc 09F10103 		add	r3, r9, #1
 3708 00e0 A342     		cmp	r3, r4
 3709 00e2 FB69     		ldr	r3, [r7, #28]
 3710 00e4 20D1     		bne	.L372
 3711              		.loc 1 1387 0
 3712 00e6 EBB1     		cbz	r3, .L390
 3713              		.loc 1 1387 0 is_stmt 0 discriminator 1
 3714 00e8 0133     		adds	r3, r3, #1
 3715              	.L373:
 3716              		.loc 1 1387 0 discriminator 4
 3717 00ea FB61     		str	r3, [r7, #28]
 3718              	.L371:
 3719              	.LVL489:
 3720              		.loc 1 1429 0 is_stmt 1
 3721 00ec 40B3     		cbz	r0, .L376
 3722 00ee 78E0     		b	.L356
 3723              	.LVL490:
 3724              	.L365:
 3725              	.LBB256:
 3726              	.LBB255:
 3727              		.loc 1 1152 0
 3728 00f0 C245     		cmp	r10, r8
 3729 00f2 0AD0     		beq	.L388
 3730              		.loc 1 1153 0
 3731 00f4 002B     		cmp	r3, #0
 3732 00f6 C7D1     		bne	.L366
 3733              	.LVL491:
 3734              		.loc 1 1155 0
 3735 00f8 0131     		adds	r1, r1, #1
 3736              	.LVL492:
 3737 00fa B1F5007F 		cmp	r1, #512
 3738 00fe B2D2     		bcs	.L367
 3739              		.loc 1 1154 0
 3740 0100 0123     		movs	r3, #1
 3741 0102 C1E7     		b	.L366
 3742              	.LVL493:
 3743              	.L386:
 3744              		.loc 1 1139 0
 3745 0104 4FF0FF34 		mov	r4, #-1
 3746 0108 D2E7     		b	.L362
 3747              	.LVL494:
 3748              	.L388:
 3749              		.loc 1 1152 0
 3750 010a 0024     		movs	r4, #0
 3751 010c D0E7     		b	.L362
 3752              	.LVL495:
 3753              	.L369:
 3754              	.LBE255:
 3755              	.LBE256:
 3756              		.loc 1 1380 0
 3757 010e FB79     		ldrb	r3, [r7, #7]	@ zero_extendqisi2
 3758 0110 022B     		cmp	r3, #2
 3759 0112 E0D1     		bne	.L370
 3760              		.loc 1 1380 0 is_stmt 0 discriminator 1
 3761 0114 731C     		adds	r3, r6, #1
 3762 0116 A342     		cmp	r3, r4
ARM GAS  /tmp/ccO9HEUj.s 			page 67


 3763 0118 DDD0     		beq	.L370
 3764              		.loc 1 1381 0 is_stmt 1
 3765 011a BB68     		ldr	r3, [r7, #8]
 3766 011c F61A     		subs	r6, r6, r3
 3767              	.LVL496:
 3768              		.loc 1 1382 0
 3769 011e 0323     		movs	r3, #3
 3770              		.loc 1 1381 0
 3771 0120 BE61     		str	r6, [r7, #24]
 3772 0122 D7E7     		b	.L425
 3773              	.L390:
 3774              		.loc 1 1387 0
 3775 0124 0223     		movs	r3, #2
 3776 0126 E0E7     		b	.L373
 3777              	.L372:
 3778              		.loc 1 1389 0
 3779 0128 0BB9     		cbnz	r3, .L374
 3780              		.loc 1 1389 0 is_stmt 0 discriminator 1
 3781 012a 0123     		movs	r3, #1
 3782 012c FB61     		str	r3, [r7, #28]
 3783              	.L374:
 3784              		.loc 1 1390 0 is_stmt 1
 3785 012e 2246     		mov	r2, r4
 3786 0130 4946     		mov	r1, r9
 3787 0132 3846     		mov	r0, r7
 3788              	.LVL497:
 3789 0134 FFF7FEFF 		bl	fill_last_frag
 3790              	.LVL498:
 3791              		.loc 1 1391 0
 3792 0138 0028     		cmp	r0, #0
 3793 013a 4FD1     		bne	.L375
 3794              		.loc 1 1391 0 is_stmt 0 discriminator 1
 3795 013c 0123     		movs	r3, #1
 3796 013e FB61     		str	r3, [r7, #28]
 3797              	.L376:
 3798              	.LVL499:
 3799              		.loc 1 1431 0 is_stmt 1
 3800 0140 EA6A     		ldr	r2, [r5, #44]
 3801 0142 AB69     		ldr	r3, [r5, #24]
 3802 0144 023A     		subs	r2, r2, #2
 3803              		.loc 1 1430 0
 3804 0146 6C61     		str	r4, [r5, #20]
 3805              		.loc 1 1431 0
 3806 0148 9342     		cmp	r3, r2
 3807 014a 9CBF     		itt	ls
 3808 014c 03F1FF33 		addls	r3, r3, #-1
 3809 0150 AB61     		strls	r3, [r5, #24]
 3810              		.loc 1 1432 0
 3811 0152 2B79     		ldrb	r3, [r5, #4]	@ zero_extendqisi2
 3812 0154 43F00103 		orr	r3, r3, #1
 3813 0158 2B71     		strb	r3, [r5, #4]
 3814 015a 6BE7     		b	.L353
 3815              	.LVL500:
 3816              	.L360:
 3817              		.loc 1 1398 0
 3818 015c 4E45     		cmp	r6, r9
 3819 015e 14D1     		bne	.L377
ARM GAS  /tmp/ccO9HEUj.s 			page 68


 3820              		.loc 1 1399 0
 3821 0160 741C     		adds	r4, r6, #1
 3822              	.LVL501:
 3823              		.loc 1 1401 0
 3824 0162 3846     		mov	r0, r7
 3825              		.loc 1 1400 0
 3826 0164 9C42     		cmp	r4, r3
 3827 0166 28BF     		it	cs
 3828 0168 0224     		movcs	r4, #2
 3829              	.LVL502:
 3830              		.loc 1 1401 0
 3831 016a 2146     		mov	r1, r4
 3832 016c FFF7FEFF 		bl	get_fat
 3833              	.LVL503:
 3834              		.loc 1 1402 0
 3835 0170 0128     		cmp	r0, #1
 3836 0172 36D0     		beq	.L356
 3837              		.loc 1 1402 0 is_stmt 0 discriminator 2
 3838 0174 431C     		adds	r3, r0, #1
 3839 0176 3FF45BAF 		beq	.L368
 3840              		.loc 1 1403 0 is_stmt 1
 3841 017a E0B1     		cbz	r0, .L379
 3842              		.loc 1 1404 0
 3843 017c 6B69     		ldr	r3, [r5, #20]
 3844              	.LVL504:
 3845              		.loc 1 1405 0
 3846 017e 012B     		cmp	r3, #1
 3847 0180 03D9     		bls	.L377
 3848              		.loc 1 1405 0 is_stmt 0 discriminator 1
 3849 0182 EA6A     		ldr	r2, [r5, #44]
 3850 0184 9342     		cmp	r3, r2
 3851 0186 38BF     		it	cc
 3852 0188 1E46     		movcc	r6, r3
 3853              	.LVL505:
 3854              	.L377:
 3855 018a 3446     		mov	r4, r6
 3856              	.L383:
 3857              	.LVL506:
 3858              		.loc 1 1412 0 is_stmt 1
 3859 018c 0134     		adds	r4, r4, #1
 3860              	.LVL507:
 3861              		.loc 1 1413 0
 3862 018e EB6A     		ldr	r3, [r5, #44]
 3863 0190 9C42     		cmp	r4, r3
 3864 0192 03D3     		bcc	.L381
 3865              	.LVL508:
 3866              		.loc 1 1415 0
 3867 0194 012E     		cmp	r6, #1
 3868 0196 7FF641AF 		bls	.L382
 3869              		.loc 1 1414 0
 3870 019a 0224     		movs	r4, #2
 3871              	.LVL509:
 3872              	.L381:
 3873              		.loc 1 1417 0
 3874 019c 2146     		mov	r1, r4
 3875 019e 3846     		mov	r0, r7
 3876 01a0 FFF7FEFF 		bl	get_fat
ARM GAS  /tmp/ccO9HEUj.s 			page 69


 3877              	.LVL510:
 3878              		.loc 1 1418 0
 3879 01a4 48B1     		cbz	r0, .L380
 3880              		.loc 1 1419 0
 3881 01a6 0128     		cmp	r0, #1
 3882 01a8 1BD0     		beq	.L356
 3883              		.loc 1 1419 0 is_stmt 0 discriminator 2
 3884 01aa 0130     		adds	r0, r0, #1
 3885              	.LVL511:
 3886 01ac 3FF440AF 		beq	.L368
 3887              		.loc 1 1420 0 is_stmt 1
 3888 01b0 B442     		cmp	r4, r6
 3889 01b2 EBD1     		bne	.L383
 3890 01b4 32E7     		b	.L382
 3891              	.LVL512:
 3892              	.L379:
 3893              		.loc 1 1409 0
 3894 01b6 002C     		cmp	r4, #0
 3895 01b8 E7D0     		beq	.L377
 3896              	.L380:
 3897              		.loc 1 1423 0
 3898 01ba 4FF0FF32 		mov	r2, #-1
 3899 01be 2146     		mov	r1, r4
 3900 01c0 2846     		mov	r0, r5
 3901              	.LVL513:
 3902 01c2 FFF7FEFF 		bl	put_fat
 3903              	.LVL514:
 3904              		.loc 1 1424 0
 3905 01c6 48B9     		cbnz	r0, .L375
 3906              		.loc 1 1424 0 is_stmt 0 discriminator 1
 3907 01c8 B9F1000F 		cmp	r9, #0
 3908 01cc B8D0     		beq	.L376
 3909              		.loc 1 1425 0 is_stmt 1
 3910 01ce 2246     		mov	r2, r4
 3911 01d0 4946     		mov	r1, r9
 3912 01d2 2846     		mov	r0, r5
 3913              	.LVL515:
 3914 01d4 FFF7FEFF 		bl	put_fat
 3915              	.LVL516:
 3916              		.loc 1 1429 0
 3917 01d8 0028     		cmp	r0, #0
 3918 01da B1D0     		beq	.L376
 3919              	.LVL517:
 3920              	.L375:
 3921              		.loc 1 1434 0
 3922 01dc 0128     		cmp	r0, #1
 3923 01de 3FF427AF 		beq	.L368
 3924              	.LVL518:
 3925              	.L356:
 3926              		.loc 1 1434 0 is_stmt 0 discriminator 2
 3927 01e2 0124     		movs	r4, #1
 3928 01e4 26E7     		b	.L353
 3929              		.cfi_endproc
 3930              	.LFE324:
 3931              		.size	create_chain, .-create_chain
 3932              		.section	.text.dir_next,"ax",%progbits
 3933              		.align	1
ARM GAS  /tmp/ccO9HEUj.s 			page 70


 3934              		.syntax unified
 3935              		.thumb
 3936              		.thumb_func
 3937              		.fpu fpv4-sp-d16
 3938              		.type	dir_next, %function
 3939              	dir_next:
 3940              	.LFB327:
 3941              		.loc 1 1575 0 is_stmt 1
 3942              		.cfi_startproc
 3943              		@ args = 0, pretend = 0, frame = 0
 3944              		@ frame_needed = 0, uses_anonymous_args = 0
 3945              	.LVL519:
 3946 0000 2DE9F843 		push	{r3, r4, r5, r6, r7, r8, r9, lr}
 3947              		.cfi_def_cfa_offset 32
 3948              		.cfi_offset 3, -32
 3949              		.cfi_offset 4, -28
 3950              		.cfi_offset 5, -24
 3951              		.cfi_offset 6, -20
 3952              		.cfi_offset 7, -16
 3953              		.cfi_offset 8, -12
 3954              		.cfi_offset 9, -8
 3955              		.cfi_offset 14, -4
 3956              		.loc 1 1581 0
 3957 0004 836B     		ldr	r3, [r0, #56]
 3958              		.loc 1 1575 0
 3959 0006 0446     		mov	r4, r0
 3960 0008 8946     		mov	r9, r1
 3961              		.loc 1 1581 0
 3962 000a D3B1     		cbz	r3, .L441
 3963              		.loc 1 1577 0 discriminator 2
 3964 000c 0568     		ldr	r5, [r0]
 3965              		.loc 1 1580 0 discriminator 2
 3966 000e 076B     		ldr	r7, [r0, #48]
 3967              		.loc 1 1581 0 discriminator 2
 3968 0010 2A78     		ldrb	r2, [r5]	@ zero_extendqisi2
 3969              		.loc 1 1580 0 discriminator 2
 3970 0012 2037     		adds	r7, r7, #32
 3971              		.loc 1 1581 0 discriminator 2
 3972 0014 042A     		cmp	r2, #4
 3973 0016 0CBF     		ite	eq
 3974 0018 4FF08052 		moveq	r2, #268435456
 3975 001c 4FF40012 		movne	r2, #2097152
 3976 0020 BA42     		cmp	r2, r7
 3977 0022 0ED9     		bls	.L441
 3978              		.loc 1 1583 0
 3979 0024 C7F30808 		ubfx	r8, r7, #0, #9
 3980 0028 B8F1000F 		cmp	r8, #0
 3981 002c 3ED1     		bne	.L430
 3982              		.loc 1 1584 0
 3983 002e 0133     		adds	r3, r3, #1
 3984              		.loc 1 1586 0
 3985 0030 416B     		ldr	r1, [r0, #52]
 3986              	.LVL520:
 3987              		.loc 1 1584 0
 3988 0032 8363     		str	r3, [r0, #56]
 3989              		.loc 1 1586 0
 3990 0034 41B9     		cbnz	r1, .L431
ARM GAS  /tmp/ccO9HEUj.s 			page 71


 3991              		.loc 1 1587 0
 3992 0036 2B89     		ldrh	r3, [r5, #8]
 3993 0038 B3EB571F 		cmp	r3, r7, lsr #5
 3994 003c 36D8     		bhi	.L430
 3995              	.LVL521:
 3996              	.L436:
 3997              		.loc 1 1588 0
 3998 003e 0023     		movs	r3, #0
 3999 0040 A363     		str	r3, [r4, #56]
 4000              	.L441:
 4001              		.loc 1 1581 0
 4002 0042 0420     		movs	r0, #4
 4003 0044 BDE8F883 		pop	{r3, r4, r5, r6, r7, r8, r9, pc}
 4004              	.LVL522:
 4005              	.L431:
 4006              		.loc 1 1592 0
 4007 0048 6B89     		ldrh	r3, [r5, #10]
 4008 004a 013B     		subs	r3, r3, #1
 4009 004c 13EA5723 		ands	r3, r3, r7, lsr #9
 4010 0050 2CD1     		bne	.L430
 4011              		.loc 1 1593 0
 4012 0052 FFF7FEFF 		bl	get_fat
 4013              	.LVL523:
 4014              		.loc 1 1594 0
 4015 0056 0128     		cmp	r0, #1
 4016              		.loc 1 1593 0
 4017 0058 0646     		mov	r6, r0
 4018              	.LVL524:
 4019              		.loc 1 1594 0
 4020 005a 02D8     		bhi	.L433
 4021              	.L437:
 4022 005c 0220     		movs	r0, #2
 4023              	.LVL525:
 4024 005e BDE8F883 		pop	{r3, r4, r5, r6, r7, r8, r9, pc}
 4025              	.LVL526:
 4026              	.L433:
 4027              		.loc 1 1595 0
 4028 0062 421C     		adds	r2, r0, #1
 4029 0064 02D1     		bne	.L434
 4030              	.LVL527:
 4031              	.L438:
 4032 0066 0120     		movs	r0, #1
 4033 0068 BDE8F883 		pop	{r3, r4, r5, r6, r7, r8, r9, pc}
 4034              	.LVL528:
 4035              	.L434:
 4036              		.loc 1 1596 0
 4037 006c EB6A     		ldr	r3, [r5, #44]
 4038 006e 9842     		cmp	r0, r3
 4039 0070 16D3     		bcc	.L435
 4040              		.loc 1 1598 0
 4041 0072 B9F1000F 		cmp	r9, #0
 4042 0076 E2D0     		beq	.L436
 4043              		.loc 1 1601 0
 4044 0078 616B     		ldr	r1, [r4, #52]
 4045 007a 2046     		mov	r0, r4
 4046              	.LVL529:
 4047 007c FFF7FEFF 		bl	create_chain
ARM GAS  /tmp/ccO9HEUj.s 			page 72


 4048              	.LVL530:
 4049              		.loc 1 1602 0
 4050 0080 0646     		mov	r6, r0
 4051 0082 D0B1     		cbz	r0, .L442
 4052              		.loc 1 1603 0
 4053 0084 0128     		cmp	r0, #1
 4054 0086 E9D0     		beq	.L437
 4055              		.loc 1 1604 0
 4056 0088 431C     		adds	r3, r0, #1
 4057 008a ECD0     		beq	.L438
 4058              		.loc 1 1605 0
 4059 008c 0146     		mov	r1, r0
 4060 008e 2846     		mov	r0, r5
 4061              	.LVL531:
 4062 0090 FFF7FEFF 		bl	dir_clear
 4063              	.LVL532:
 4064 0094 0028     		cmp	r0, #0
 4065 0096 E6D1     		bne	.L438
 4066              		.loc 1 1606 0 discriminator 1
 4067 0098 E379     		ldrb	r3, [r4, #7]	@ zero_extendqisi2
 4068 009a 43F00403 		orr	r3, r3, #4
 4069 009e E371     		strb	r3, [r4, #7]
 4070              	.L435:
 4071              		.loc 1 1612 0
 4072 00a0 6663     		str	r6, [r4, #52]
 4073              		.loc 1 1613 0
 4074 00a2 3146     		mov	r1, r6
 4075 00a4 2846     		mov	r0, r5
 4076 00a6 FFF7FEFF 		bl	clst2sect
 4077              	.LVL533:
 4078 00aa A063     		str	r0, [r4, #56]
 4079              	.LVL534:
 4080              	.L430:
 4081              		.loc 1 1618 0
 4082 00ac 4835     		adds	r5, r5, #72
 4083              		.loc 1 1617 0
 4084 00ae 2763     		str	r7, [r4, #48]
 4085              		.loc 1 1620 0
 4086 00b0 0020     		movs	r0, #0
 4087              		.loc 1 1618 0
 4088 00b2 4544     		add	r5, r5, r8
 4089 00b4 E563     		str	r5, [r4, #60]
 4090              		.loc 1 1620 0
 4091 00b6 BDE8F883 		pop	{r3, r4, r5, r6, r7, r8, r9, pc}
 4092              	.LVL535:
 4093              	.L442:
 4094              		.loc 1 1602 0
 4095 00ba 0720     		movs	r0, #7
 4096              	.LVL536:
 4097              		.loc 1 1621 0
 4098 00bc BDE8F883 		pop	{r3, r4, r5, r6, r7, r8, r9, pc}
 4099              		.cfi_endproc
 4100              	.LFE327:
 4101              		.size	dir_next, .-dir_next
 4102              		.section	.text.load_xdir,"ax",%progbits
 4103              		.align	1
 4104              		.syntax unified
ARM GAS  /tmp/ccO9HEUj.s 			page 73


 4105              		.thumb
 4106              		.thumb_func
 4107              		.fpu fpv4-sp-d16
 4108              		.type	load_xdir, %function
 4109              	load_xdir:
 4110              	.LFB339:
 4111              		.loc 1 2007 0
 4112              		.cfi_startproc
 4113              		@ args = 0, pretend = 0, frame = 0
 4114              		@ frame_needed = 0, uses_anonymous_args = 0
 4115              	.LVL537:
 4116 0000 2DE9F041 		push	{r4, r5, r6, r7, r8, lr}
 4117              		.cfi_def_cfa_offset 24
 4118              		.cfi_offset 4, -24
 4119              		.cfi_offset 5, -20
 4120              		.cfi_offset 6, -16
 4121              		.cfi_offset 7, -12
 4122              		.cfi_offset 8, -8
 4123              		.cfi_offset 14, -4
 4124              		.loc 1 2007 0
 4125 0004 0546     		mov	r5, r0
 4126              		.loc 1 2010 0
 4127 0006 0068     		ldr	r0, [r0]
 4128              	.LVL538:
 4129              		.loc 1 2014 0
 4130 0008 A96B     		ldr	r1, [r5, #56]
 4131              		.loc 1 2010 0
 4132 000a 0669     		ldr	r6, [r0, #16]
 4133              	.LVL539:
 4134              		.loc 1 2014 0
 4135 000c FFF7FEFF 		bl	move_window
 4136              	.LVL540:
 4137              		.loc 1 2015 0
 4138 0010 0446     		mov	r4, r0
 4139 0012 20B9     		cbnz	r0, .L453
 4140              		.loc 1 2016 0
 4141 0014 E96B     		ldr	r1, [r5, #60]
 4142 0016 0B78     		ldrb	r3, [r1]	@ zero_extendqisi2
 4143 0018 852B     		cmp	r3, #133
 4144 001a 03D0     		beq	.L454
 4145              	.LVL541:
 4146              	.L455:
 4147 001c 0224     		movs	r4, #2
 4148              	.L453:
 4149              		.loc 1 2048 0
 4150 001e 2046     		mov	r0, r4
 4151 0020 BDE8F081 		pop	{r4, r5, r6, r7, r8, pc}
 4152              	.LVL542:
 4153              	.L454:
 4154              	.LBB257:
 4155              	.LBB258:
 4156 0024 2022     		movs	r2, #32
 4157 0026 3046     		mov	r0, r6
 4158              	.LVL543:
 4159 0028 FFF7FEFF 		bl	mem_cpy.part.0
 4160              	.LVL544:
 4161              	.LBE258:
ARM GAS  /tmp/ccO9HEUj.s 			page 74


 4162              	.LBE257:
 4163              		.loc 1 2018 0
 4164 002c 7778     		ldrb	r7, [r6, #1]	@ zero_extendqisi2
 4165 002e 0137     		adds	r7, r7, #1
 4166 0030 7F01     		lsls	r7, r7, #5
 4167              	.LVL545:
 4168              		.loc 1 2019 0
 4169 0032 A7F16003 		sub	r3, r7, #96
 4170 0036 B3F5007F 		cmp	r3, #512
 4171 003a EFD8     		bhi	.L455
 4172              		.loc 1 2022 0
 4173 003c 2146     		mov	r1, r4
 4174 003e 2846     		mov	r0, r5
 4175 0040 FFF7FEFF 		bl	dir_next
 4176              	.LVL546:
 4177              		.loc 1 2023 0
 4178 0044 0428     		cmp	r0, #4
 4179              		.loc 1 2022 0
 4180 0046 0446     		mov	r4, r0
 4181              	.LVL547:
 4182              		.loc 1 2023 0
 4183 0048 E8D0     		beq	.L455
 4184              		.loc 1 2024 0
 4185 004a 0028     		cmp	r0, #0
 4186 004c E7D1     		bne	.L453
 4187              		.loc 1 2025 0
 4188 004e A96B     		ldr	r1, [r5, #56]
 4189 0050 2868     		ldr	r0, [r5]
 4190              	.LVL548:
 4191 0052 FFF7FEFF 		bl	move_window
 4192              	.LVL549:
 4193              		.loc 1 2026 0
 4194 0056 0446     		mov	r4, r0
 4195 0058 0028     		cmp	r0, #0
 4196 005a E0D1     		bne	.L453
 4197              		.loc 1 2027 0
 4198 005c E96B     		ldr	r1, [r5, #60]
 4199 005e 0B78     		ldrb	r3, [r1]	@ zero_extendqisi2
 4200 0060 C02B     		cmp	r3, #192
 4201 0062 DBD1     		bne	.L455
 4202              	.LVL550:
 4203              	.LBB259:
 4204              	.LBB260:
 4205 0064 2022     		movs	r2, #32
 4206 0066 B018     		adds	r0, r6, r2
 4207              	.LVL551:
 4208 0068 FFF7FEFF 		bl	mem_cpy.part.0
 4209              	.LVL552:
 4210              	.LBE260:
 4211              	.LBE259:
 4212              		.loc 1 2029 0
 4213 006c 96F82330 		ldrb	r3, [r6, #35]	@ zero_extendqisi2
 4214 0070 0F22     		movs	r2, #15
 4215 0072 2C33     		adds	r3, r3, #44
 4216 0074 B3FBF2F3 		udiv	r3, r3, r2
 4217 0078 B7EB431F 		cmp	r7, r3, lsl #5
 4218 007c CED3     		bcc	.L455
ARM GAS  /tmp/ccO9HEUj.s 			page 75


 4219 007e 4FF04008 		mov	r8, #64
 4220              	.L457:
 4221              	.LVL553:
 4222              		.loc 1 2034 0
 4223 0082 0021     		movs	r1, #0
 4224 0084 2846     		mov	r0, r5
 4225 0086 FFF7FEFF 		bl	dir_next
 4226              	.LVL554:
 4227              		.loc 1 2035 0
 4228 008a 0428     		cmp	r0, #4
 4229              		.loc 1 2034 0
 4230 008c 0446     		mov	r4, r0
 4231              	.LVL555:
 4232              		.loc 1 2035 0
 4233 008e C5D0     		beq	.L455
 4234              		.loc 1 2036 0
 4235 0090 0028     		cmp	r0, #0
 4236 0092 C4D1     		bne	.L453
 4237              		.loc 1 2037 0
 4238 0094 A96B     		ldr	r1, [r5, #56]
 4239 0096 2868     		ldr	r0, [r5]
 4240              	.LVL556:
 4241 0098 FFF7FEFF 		bl	move_window
 4242              	.LVL557:
 4243              		.loc 1 2038 0
 4244 009c 0446     		mov	r4, r0
 4245 009e 0028     		cmp	r0, #0
 4246 00a0 BDD1     		bne	.L453
 4247              		.loc 1 2039 0
 4248 00a2 E96B     		ldr	r1, [r5, #60]
 4249 00a4 0B78     		ldrb	r3, [r1]	@ zero_extendqisi2
 4250 00a6 C12B     		cmp	r3, #193
 4251 00a8 B8D1     		bne	.L455
 4252              		.loc 1 2040 0
 4253 00aa B8F5187F 		cmp	r8, #608
 4254 00ae 04D2     		bcs	.L456
 4255              	.LVL558:
 4256              	.LBB261:
 4257              	.LBB262:
 4258 00b0 2022     		movs	r2, #32
 4259 00b2 06EB0800 		add	r0, r6, r8
 4260              	.LVL559:
 4261 00b6 FFF7FEFF 		bl	mem_cpy.part.0
 4262              	.LVL560:
 4263              	.L456:
 4264              	.LBE262:
 4265              	.LBE261:
 4266              		.loc 1 2041 0
 4267 00ba 08F12008 		add	r8, r8, #32
 4268              	.LVL561:
 4269 00be 4745     		cmp	r7, r8
 4270 00c0 DFD8     		bhi	.L457
 4271              		.loc 1 2044 0
 4272 00c2 B8F5187F 		cmp	r8, #608
 4273 00c6 AAD8     		bhi	.L453
 4274              		.loc 1 2045 0
 4275 00c8 3046     		mov	r0, r6
ARM GAS  /tmp/ccO9HEUj.s 			page 76


 4276 00ca FFF7FEFF 		bl	xdir_sum
 4277              	.LVL562:
 4278              	.LBB263:
 4279              	.LBB264:
 4280              		.loc 1 553 0
 4281 00ce F278     		ldrb	r2, [r6, #3]	@ zero_extendqisi2
 4282 00d0 B378     		ldrb	r3, [r6, #2]	@ zero_extendqisi2
 4283              	.LBE264:
 4284              	.LBE263:
 4285              		.loc 1 2045 0
 4286 00d2 43EA0223 		orr	r3, r3, r2, lsl #8
 4287 00d6 9842     		cmp	r0, r3
 4288 00d8 A0D1     		bne	.L455
 4289 00da A0E7     		b	.L453
 4290              		.cfi_endproc
 4291              	.LFE339:
 4292              		.size	load_xdir, .-load_xdir
 4293              		.section	.text.load_obj_xdir,"ax",%progbits
 4294              		.align	1
 4295              		.syntax unified
 4296              		.thumb
 4297              		.thumb_func
 4298              		.fpu fpv4-sp-d16
 4299              		.type	load_obj_xdir, %function
 4300              	load_obj_xdir:
 4301              	.LFB340:
 4302              		.loc 1 2060 0
 4303              		.cfi_startproc
 4304              		@ args = 0, pretend = 0, frame = 0
 4305              		@ frame_needed = 0, uses_anonymous_args = 0
 4306              	.LVL563:
 4307              		.loc 1 2064 0
 4308 0000 0B68     		ldr	r3, [r1]
 4309              		.loc 1 2067 0
 4310 0002 0022     		movs	r2, #0
 4311              		.loc 1 2060 0
 4312 0004 10B5     		push	{r4, lr}
 4313              		.cfi_def_cfa_offset 8
 4314              		.cfi_offset 4, -8
 4315              		.cfi_offset 14, -4
 4316              		.loc 1 2064 0
 4317 0006 0360     		str	r3, [r0]
 4318              		.loc 1 2060 0
 4319 0008 0446     		mov	r4, r0
 4320              		.loc 1 2065 0
 4321 000a 0B6A     		ldr	r3, [r1, #32]
 4322 000c 8360     		str	r3, [r0, #8]
 4323              		.loc 1 2066 0
 4324 000e 4B6A     		ldr	r3, [r1, #36]
 4325              		.loc 1 2067 0
 4326 0010 4261     		str	r2, [r0, #20]
 4327              		.loc 1 2066 0
 4328 0012 C371     		strb	r3, [r0, #7]
 4329              		.loc 1 2067 0
 4330 0014 23F0FF03 		bic	r3, r3, #255
 4331              		.loc 1 2069 0
 4332 0018 896A     		ldr	r1, [r1, #40]
ARM GAS  /tmp/ccO9HEUj.s 			page 77


 4333              	.LVL564:
 4334              		.loc 1 2067 0
 4335 001a 0361     		str	r3, [r0, #16]
 4336              		.loc 1 2068 0
 4337 001c C261     		str	r2, [r0, #28]
 4338              		.loc 1 2069 0
 4339 001e C164     		str	r1, [r0, #76]
 4340              		.loc 1 2071 0
 4341 0020 FFF7FEFF 		bl	dir_sdi
 4342              	.LVL565:
 4343              		.loc 1 2072 0
 4344 0024 20B9     		cbnz	r0, .L466
 4345              		.loc 1 2073 0
 4346 0026 2046     		mov	r0, r4
 4347              	.LVL566:
 4348              		.loc 1 2076 0
 4349 0028 BDE81040 		pop	{r4, lr}
 4350              		.cfi_remember_state
 4351              		.cfi_restore 14
 4352              		.cfi_restore 4
 4353              		.cfi_def_cfa_offset 0
 4354              	.LVL567:
 4355              		.loc 1 2073 0
 4356 002c FFF7FEBF 		b	load_xdir
 4357              	.LVL568:
 4358              	.L466:
 4359              		.cfi_restore_state
 4360              		.loc 1 2076 0
 4361 0030 10BD     		pop	{r4, pc}
 4362              		.cfi_endproc
 4363              	.LFE340:
 4364              		.size	load_obj_xdir, .-load_obj_xdir
 4365              		.section	.text.dir_alloc,"ax",%progbits
 4366              		.align	1
 4367              		.syntax unified
 4368              		.thumb
 4369              		.thumb_func
 4370              		.fpu fpv4-sp-d16
 4371              		.type	dir_alloc, %function
 4372              	dir_alloc:
 4373              	.LFB328:
 4374              		.loc 1 1636 0
 4375              		.cfi_startproc
 4376              		@ args = 0, pretend = 0, frame = 0
 4377              		@ frame_needed = 0, uses_anonymous_args = 0
 4378              	.LVL569:
 4379 0000 F8B5     		push	{r3, r4, r5, r6, r7, lr}
 4380              		.cfi_def_cfa_offset 24
 4381              		.cfi_offset 3, -24
 4382              		.cfi_offset 4, -20
 4383              		.cfi_offset 5, -16
 4384              		.cfi_offset 6, -12
 4385              		.cfi_offset 7, -8
 4386              		.cfi_offset 14, -4
 4387              		.loc 1 1636 0
 4388 0002 0E46     		mov	r6, r1
 4389              		.loc 1 1642 0
ARM GAS  /tmp/ccO9HEUj.s 			page 78


 4390 0004 0021     		movs	r1, #0
 4391              	.LVL570:
 4392              		.loc 1 1636 0
 4393 0006 0446     		mov	r4, r0
 4394              		.loc 1 1639 0
 4395 0008 0568     		ldr	r5, [r0]
 4396              	.LVL571:
 4397              		.loc 1 1642 0
 4398 000a FFF7FEFF 		bl	dir_sdi
 4399              	.LVL572:
 4400              		.loc 1 1643 0
 4401 000e F8B9     		cbnz	r0, .L468
 4402 0010 0746     		mov	r7, r0
 4403              	.L474:
 4404              	.LVL573:
 4405              		.loc 1 1646 0
 4406 0012 A16B     		ldr	r1, [r4, #56]
 4407 0014 2846     		mov	r0, r5
 4408              	.LVL574:
 4409 0016 FFF7FEFF 		bl	move_window
 4410              	.LVL575:
 4411              		.loc 1 1647 0
 4412 001a C8B9     		cbnz	r0, .L468
 4413              		.loc 1 1649 0
 4414 001c 2B78     		ldrb	r3, [r5]	@ zero_extendqisi2
 4415 001e 042B     		cmp	r3, #4
 4416 0020 E36B     		ldr	r3, [r4, #60]
 4417 0022 1B78     		ldrb	r3, [r3]	@ zero_extendqisi2
 4418 0024 07D1     		bne	.L469
 4419              		.loc 1 1649 0 is_stmt 0 discriminator 1
 4420 0026 DB43     		mvns	r3, r3
 4421 0028 C3F3C013 		ubfx	r3, r3, #7, #1
 4422              	.L470:
 4423              		.loc 1 1649 0 discriminator 10
 4424 002c 4BB1     		cbz	r3, .L475
 4425              	.L471:
 4426              		.loc 1 1653 0 is_stmt 1
 4427 002e 0137     		adds	r7, r7, #1
 4428              	.LVL576:
 4429 0030 B742     		cmp	r7, r6
 4430 0032 07D1     		bne	.L472
 4431 0034 F8BD     		pop	{r3, r4, r5, r6, r7, pc}
 4432              	.LVL577:
 4433              	.L469:
 4434              		.loc 1 1649 0 discriminator 2
 4435 0036 E52B     		cmp	r3, #229
 4436 0038 F9D0     		beq	.L471
 4437              		.loc 1 1649 0 is_stmt 0 discriminator 5
 4438 003a B3FA83F3 		clz	r3, r3
 4439 003e 5B09     		lsrs	r3, r3, #5
 4440 0040 F4E7     		b	.L470
 4441              	.L475:
 4442              		.loc 1 1655 0 is_stmt 1
 4443 0042 1F46     		mov	r7, r3
 4444              	.LVL578:
 4445              	.L472:
 4446              		.loc 1 1657 0
ARM GAS  /tmp/ccO9HEUj.s 			page 79


 4447 0044 0121     		movs	r1, #1
 4448 0046 2046     		mov	r0, r4
 4449              	.LVL579:
 4450 0048 FFF7FEFF 		bl	dir_next
 4451              	.LVL580:
 4452              		.loc 1 1658 0
 4453 004c 0028     		cmp	r0, #0
 4454 004e E0D0     		beq	.L474
 4455              	.LVL581:
 4456              	.L468:
 4457              		.loc 1 1661 0
 4458 0050 0428     		cmp	r0, #4
 4459 0052 08BF     		it	eq
 4460 0054 0720     		moveq	r0, #7
 4461              	.LVL582:
 4462              		.loc 1 1663 0
 4463 0056 F8BD     		pop	{r3, r4, r5, r6, r7, pc}
 4464              		.cfi_endproc
 4465              	.LFE328:
 4466              		.size	dir_alloc, .-dir_alloc
 4467              		.section	.text.store_xdir,"ax",%progbits
 4468              		.align	1
 4469              		.syntax unified
 4470              		.thumb
 4471              		.thumb_func
 4472              		.fpu fpv4-sp-d16
 4473              		.type	store_xdir, %function
 4474              	store_xdir:
 4475              	.LFB341:
 4476              		.loc 1 2088 0
 4477              		.cfi_startproc
 4478              		@ args = 0, pretend = 0, frame = 0
 4479              		@ frame_needed = 0, uses_anonymous_args = 0
 4480              	.LVL583:
 4481              		.loc 1 2091 0
 4482 0000 0368     		ldr	r3, [r0]
 4483              		.loc 1 2088 0
 4484 0002 2DE9F041 		push	{r4, r5, r6, r7, r8, lr}
 4485              		.cfi_def_cfa_offset 24
 4486              		.cfi_offset 4, -24
 4487              		.cfi_offset 5, -20
 4488              		.cfi_offset 6, -16
 4489              		.cfi_offset 7, -12
 4490              		.cfi_offset 8, -8
 4491              		.cfi_offset 14, -4
 4492              		.loc 1 2091 0
 4493 0006 1E69     		ldr	r6, [r3, #16]
 4494              	.LVL584:
 4495              		.loc 1 2088 0
 4496 0008 0546     		mov	r5, r0
 4497              		.loc 1 2103 0
 4498 000a 4FF00108 		mov	r8, #1
 4499              		.loc 1 2094 0
 4500 000e 3046     		mov	r0, r6
 4501              	.LVL585:
 4502 0010 FFF7FEFF 		bl	xdir_sum
 4503              	.LVL586:
ARM GAS  /tmp/ccO9HEUj.s 			page 80


 4504              	.LBB265:
 4505              	.LBB266:
 4506              		.loc 1 591 0
 4507 0014 B070     		strb	r0, [r6, #2]
 4508              	.LVL587:
 4509 0016 000A     		lsrs	r0, r0, #8
 4510              	.LVL588:
 4511              	.LBE266:
 4512              	.LBE265:
 4513              		.loc 1 2095 0
 4514 0018 7778     		ldrb	r7, [r6, #1]	@ zero_extendqisi2
 4515              	.LBB268:
 4516              	.LBB267:
 4517              		.loc 1 592 0
 4518 001a F070     		strb	r0, [r6, #3]
 4519              	.LVL589:
 4520              	.LBE267:
 4521              	.LBE268:
 4522              		.loc 1 2098 0
 4523 001c 2846     		mov	r0, r5
 4524 001e E96C     		ldr	r1, [r5, #76]
 4525 0020 FFF7FEFF 		bl	dir_sdi
 4526              	.LVL590:
 4527 0024 0446     		mov	r4, r0
 4528              	.LVL591:
 4529              	.L482:
 4530              		.loc 1 2099 0
 4531 0026 2CB1     		cbz	r4, .L484
 4532              	.LVL592:
 4533              	.L483:
 4534              		.loc 1 2108 0
 4535 0028 022C     		cmp	r4, #2
 4536 002a 28BF     		it	cs
 4537 002c 0224     		movcs	r4, #2
 4538              	.LVL593:
 4539              		.loc 1 2109 0
 4540 002e E0B2     		uxtb	r0, r4
 4541 0030 BDE8F081 		pop	{r4, r5, r6, r7, r8, pc}
 4542              	.LVL594:
 4543              	.L484:
 4544              		.loc 1 2100 0
 4545 0034 A96B     		ldr	r1, [r5, #56]
 4546 0036 2868     		ldr	r0, [r5]
 4547 0038 FFF7FEFF 		bl	move_window
 4548              	.LVL595:
 4549              		.loc 1 2101 0
 4550 003c 0446     		mov	r4, r0
 4551 003e 0028     		cmp	r0, #0
 4552 0040 F2D1     		bne	.L483
 4553              	.LVL596:
 4554              	.LBB269:
 4555              	.LBB270:
 4556 0042 2022     		movs	r2, #32
 4557 0044 3146     		mov	r1, r6
 4558 0046 E86B     		ldr	r0, [r5, #60]
 4559              	.LVL597:
 4560 0048 FFF7FEFF 		bl	mem_cpy.part.0
ARM GAS  /tmp/ccO9HEUj.s 			page 81


 4561              	.LVL598:
 4562              	.LBE270:
 4563              	.LBE269:
 4564              		.loc 1 2103 0
 4565 004c 2B68     		ldr	r3, [r5]
 4566 004e 83F80380 		strb	r8, [r3, #3]
 4567              	.LVL599:
 4568              		.loc 1 2104 0
 4569 0052 002F     		cmp	r7, #0
 4570 0054 E8D0     		beq	.L483
 4571              		.loc 1 2106 0
 4572 0056 2146     		mov	r1, r4
 4573 0058 2846     		mov	r0, r5
 4574 005a FFF7FEFF 		bl	dir_next
 4575              	.LVL600:
 4576              		.loc 1 2105 0
 4577 005e 2036     		adds	r6, r6, #32
 4578              	.LVL601:
 4579              		.loc 1 2106 0
 4580 0060 0446     		mov	r4, r0
 4581              	.LVL602:
 4582 0062 013F     		subs	r7, r7, #1
 4583              	.LVL603:
 4584 0064 DFE7     		b	.L482
 4585              		.cfi_endproc
 4586              	.LFE341:
 4587              		.size	store_xdir, .-store_xdir
 4588              		.section	.text.dir_remove,"ax",%progbits
 4589              		.align	1
 4590              		.syntax unified
 4591              		.thumb
 4592              		.thumb_func
 4593              		.fpu fpv4-sp-d16
 4594              		.type	dir_remove, %function
 4595              	dir_remove:
 4596              	.LFB346:
 4597              		.loc 1 2432 0
 4598              		.cfi_startproc
 4599              		@ args = 0, pretend = 0, frame = 0
 4600              		@ frame_needed = 0, uses_anonymous_args = 0
 4601              	.LVL604:
 4602              		.loc 1 2438 0
 4603 0000 C16C     		ldr	r1, [r0, #76]
 4604 0002 4B1C     		adds	r3, r1, #1
 4605              		.loc 1 2432 0
 4606 0004 2DE9F041 		push	{r4, r5, r6, r7, r8, lr}
 4607              		.cfi_def_cfa_offset 24
 4608              		.cfi_offset 4, -24
 4609              		.cfi_offset 5, -20
 4610              		.cfi_offset 6, -16
 4611              		.cfi_offset 7, -12
 4612              		.cfi_offset 8, -8
 4613              		.cfi_offset 14, -4
 4614              		.loc 1 2432 0
 4615 0008 0446     		mov	r4, r0
 4616              		.loc 1 2434 0
 4617 000a 0568     		ldr	r5, [r0]
ARM GAS  /tmp/ccO9HEUj.s 			page 82


 4618              	.LVL605:
 4619              		.loc 1 2436 0
 4620 000c 066B     		ldr	r6, [r0, #48]
 4621              	.LVL606:
 4622              		.loc 1 2438 0
 4623 000e 1FD1     		bne	.L489
 4624              	.LVL607:
 4625              	.L491:
 4626              		.loc 1 2447 0
 4627 0010 E527     		movs	r7, #229
 4628              		.loc 1 2449 0
 4629 0012 4FF00108 		mov	r8, #1
 4630              	.L490:
 4631              		.loc 1 2441 0
 4632 0016 A16B     		ldr	r1, [r4, #56]
 4633 0018 2846     		mov	r0, r5
 4634 001a FFF7FEFF 		bl	move_window
 4635              	.LVL608:
 4636              		.loc 1 2442 0
 4637 001e 98B9     		cbnz	r0, .L493
 4638              		.loc 1 2444 0
 4639 0020 2B78     		ldrb	r3, [r5]	@ zero_extendqisi2
 4640 0022 042B     		cmp	r3, #4
 4641 0024 E36B     		ldr	r3, [r4, #60]
 4642              		.loc 1 2445 0
 4643 0026 09BF     		itett	eq
 4644 0028 1A78     		ldrbeq	r2, [r3]	@ zero_extendqisi2
 4645              		.loc 1 2447 0
 4646 002a 1F70     		strbne	r7, [r3]
 4647              		.loc 1 2445 0
 4648 002c 02F07F02 		andeq	r2, r2, #127
 4649 0030 1A70     		strbeq	r2, [r3]
 4650              		.loc 1 2449 0
 4651 0032 85F80380 		strb	r8, [r5, #3]
 4652              		.loc 1 2450 0
 4653 0036 236B     		ldr	r3, [r4, #48]
 4654 0038 9E42     		cmp	r6, r3
 4655 003a 0DD9     		bls	.L492
 4656              		.loc 1 2451 0
 4657 003c 0021     		movs	r1, #0
 4658 003e 2046     		mov	r0, r4
 4659              	.LVL609:
 4660 0040 FFF7FEFF 		bl	dir_next
 4661              	.LVL610:
 4662              		.loc 1 2452 0
 4663 0044 0028     		cmp	r0, #0
 4664 0046 E6D0     		beq	.L490
 4665              	.L493:
 4666              		.loc 1 2453 0
 4667 0048 0428     		cmp	r0, #4
 4668 004a 08BF     		it	eq
 4669 004c 0220     		moveq	r0, #2
 4670              	.LVL611:
 4671 004e 03E0     		b	.L492
 4672              	.LVL612:
 4673              	.L489:
 4674              		.loc 1 2438 0 discriminator 1
ARM GAS  /tmp/ccO9HEUj.s 			page 83


 4675 0050 FFF7FEFF 		bl	dir_sdi
 4676              	.LVL613:
 4677              		.loc 1 2439 0 discriminator 1
 4678 0054 0028     		cmp	r0, #0
 4679 0056 DBD0     		beq	.L491
 4680              	.LVL614:
 4681              	.L492:
 4682              		.loc 1 2465 0
 4683 0058 BDE8F081 		pop	{r4, r5, r6, r7, r8, pc}
 4684              		.cfi_endproc
 4685              	.LFE346:
 4686              		.size	dir_remove, .-dir_remove
 4687              		.section	.text.dir_read.constprop.10,"ax",%progbits
 4688              		.align	1
 4689              		.syntax unified
 4690              		.thumb
 4691              		.thumb_func
 4692              		.fpu fpv4-sp-d16
 4693              		.type	dir_read.constprop.10, %function
 4694              	dir_read.constprop.10:
 4695              	.LFB384:
 4696              		.loc 1 2161 0
 4697              		.cfi_startproc
 4698              		@ args = 0, pretend = 0, frame = 0
 4699              		@ frame_needed = 0, uses_anonymous_args = 0
 4700              	.LVL615:
 4701 0000 2DE9F84F 		push	{r3, r4, r5, r6, r7, r8, r9, r10, fp, lr}
 4702              		.cfi_def_cfa_offset 40
 4703              		.cfi_offset 3, -40
 4704              		.cfi_offset 4, -36
 4705              		.cfi_offset 5, -32
 4706              		.cfi_offset 6, -28
 4707              		.cfi_offset 7, -24
 4708              		.cfi_offset 8, -20
 4709              		.cfi_offset 9, -16
 4710              		.cfi_offset 10, -12
 4711              		.cfi_offset 11, -8
 4712              		.cfi_offset 14, -4
 4713              		.loc 1 2170 0
 4714 0004 FF27     		movs	r7, #255
 4715              		.loc 1 2161 0
 4716 0006 0546     		mov	r5, r0
 4717              		.loc 1 2167 0
 4718 0008 0668     		ldr	r6, [r0]
 4719              	.LVL616:
 4720              		.loc 1 2166 0
 4721 000a 4FF0040A 		mov	r10, #4
 4722              		.loc 1 2170 0
 4723 000e 3C46     		mov	r4, r7
 4724              	.LBB277:
 4725              	.LBB278:
 4726              		.loc 1 1763 0
 4727 0010 DFF82881 		ldr	r8, .L535
 4728              		.loc 1 1768 0
 4729 0014 4FF6FF79 		movw	r9, #65535
 4730              	.LVL617:
 4731              	.L502:
ARM GAS  /tmp/ccO9HEUj.s 			page 84


 4732              	.LBE278:
 4733              	.LBE277:
 4734              		.loc 1 2173 0
 4735 0018 A96B     		ldr	r1, [r5, #56]
 4736 001a 21B9     		cbnz	r1, .L515
 4737              	.LVL618:
 4738              		.loc 1 2227 0
 4739 001c BAF1000F 		cmp	r10, #0
 4740 0020 00F08280 		beq	.L516
 4741 0024 75E0     		b	.L503
 4742              	.LVL619:
 4743              	.L515:
 4744              		.loc 1 2174 0
 4745 0026 3046     		mov	r0, r6
 4746 0028 FFF7FEFF 		bl	move_window
 4747              	.LVL620:
 4748              		.loc 1 2175 0
 4749 002c 8246     		mov	r10, r0
 4750 002e 0028     		cmp	r0, #0
 4751 0030 6FD1     		bne	.L503
 4752              		.loc 1 2176 0
 4753 0032 E86B     		ldr	r0, [r5, #60]
 4754              	.LVL621:
 4755 0034 0378     		ldrb	r3, [r0]	@ zero_extendqisi2
 4756              	.LVL622:
 4757              		.loc 1 2177 0
 4758 0036 002B     		cmp	r3, #0
 4759 0038 7DD0     		beq	.L517
 4760              		.loc 1 2181 0
 4761 003a 3278     		ldrb	r2, [r6]	@ zero_extendqisi2
 4762 003c 042A     		cmp	r2, #4
 4763 003e 11D1     		bne	.L504
 4764              		.loc 1 2185 0
 4765 0040 852B     		cmp	r3, #133
 4766 0042 5FD1     		bne	.L505
 4767              		.loc 1 2186 0
 4768 0044 2B6B     		ldr	r3, [r5, #48]
 4769              	.LVL623:
 4770              		.loc 1 2187 0
 4771 0046 2846     		mov	r0, r5
 4772              	.LVL624:
 4773              		.loc 1 2186 0
 4774 0048 EB64     		str	r3, [r5, #76]
 4775              	.LVL625:
 4776              		.loc 1 2187 0
 4777 004a FFF7FEFF 		bl	load_xdir
 4778              	.LVL626:
 4779              		.loc 1 2188 0
 4780 004e 8246     		mov	r10, r0
 4781 0050 0028     		cmp	r0, #0
 4782 0052 5ED1     		bne	.L503
 4783              		.loc 1 2189 0
 4784 0054 3369     		ldr	r3, [r6, #16]
 4785 0056 1B79     		ldrb	r3, [r3, #4]	@ zero_extendqisi2
 4786 0058 03F03F03 		and	r3, r3, #63
 4787 005c AB71     		strb	r3, [r5, #6]
 4788              	.LVL627:
ARM GAS  /tmp/ccO9HEUj.s 			page 85


 4789              	.L534:
 4790              		.loc 1 2229 0
 4791 005e 5046     		mov	r0, r10
 4792 0060 BDE8F88F 		pop	{r3, r4, r5, r6, r7, r8, r9, r10, fp, pc}
 4793              	.LVL628:
 4794              	.L504:
 4795              		.loc 1 2197 0
 4796 0064 C27A     		ldrb	r2, [r0, #11]	@ zero_extendqisi2
 4797              		.loc 1 2199 0
 4798 0066 E52B     		cmp	r3, #229
 4799              		.loc 1 2197 0
 4800 0068 02F03F02 		and	r2, r2, #63
 4801              	.LVL629:
 4802 006c AA71     		strb	r2, [r5, #6]
 4803              		.loc 1 2199 0
 4804 006e 48D0     		beq	.L526
 4805 0070 2E2B     		cmp	r3, #46
 4806 0072 46D0     		beq	.L526
 4807 0074 22F02001 		bic	r1, r2, #32
 4808 0078 0829     		cmp	r1, #8
 4809 007a 42D0     		beq	.L526
 4810              		.loc 1 2202 0
 4811 007c 0F2A     		cmp	r2, #15
 4812 007e 4ED1     		bne	.L507
 4813              		.loc 1 2203 0
 4814 0080 5A06     		lsls	r2, r3, #25
 4815              	.LVL630:
 4816 0082 3CD5     		bpl	.L508
 4817              		.loc 1 2205 0
 4818 0084 03F0BF04 		and	r4, r3, #191
 4819              	.LVL631:
 4820              		.loc 1 2206 0
 4821 0088 2B6B     		ldr	r3, [r5, #48]
 4822              	.LVL632:
 4823              		.loc 1 2204 0
 4824 008a 477B     		ldrb	r7, [r0, #13]	@ zero_extendqisi2
 4825              	.LVL633:
 4826              		.loc 1 2206 0
 4827 008c EB64     		str	r3, [r5, #76]
 4828              	.LVL634:
 4829              	.L509:
 4830              		.loc 1 2209 0
 4831 008e 437B     		ldrb	r3, [r0, #13]	@ zero_extendqisi2
 4832 0090 BB42     		cmp	r3, r7
 4833 0092 36D1     		bne	.L526
 4834              	.LVL635:
 4835              	.LBB288:
 4836              	.LBB285:
 4837              	.LBB279:
 4838              	.LBB280:
 4839              		.loc 1 553 0
 4840 0094 C27E     		ldrb	r2, [r0, #27]	@ zero_extendqisi2
 4841 0096 837E     		ldrb	r3, [r0, #26]	@ zero_extendqisi2
 4842 0098 43EA0223 		orr	r3, r3, r2, lsl #8
 4843              	.LBE280:
 4844              	.LBE279:
 4845              		.loc 1 1758 0
ARM GAS  /tmp/ccO9HEUj.s 			page 86


 4846 009c 1BB2     		sxth	r3, r3
 4847 009e 83BB     		cbnz	r3, .L526
 4848              		.loc 1 1760 0
 4849 00a0 0278     		ldrb	r2, [r0]	@ zero_extendqisi2
 4850 00a2 4FF00D0E 		mov	lr, #13
 4851              	.LBE285:
 4852              	.LBE288:
 4853              		.loc 1 2209 0
 4854 00a6 F168     		ldr	r1, [r6, #12]
 4855              	.LBB289:
 4856              	.LBB286:
 4857              		.loc 1 1762 0
 4858 00a8 4FF0010C 		mov	ip, #1
 4859              		.loc 1 1760 0
 4860 00ac 22F04002 		bic	r2, r2, #64
 4861 00b0 013A     		subs	r2, r2, #1
 4862 00b2 0EFB02FE 		mul	lr, lr, r2
 4863              	.LVL636:
 4864              	.L512:
 4865              		.loc 1 1763 0
 4866 00b6 13F808A0 		ldrb	r10, [r3, r8]	@ zero_extendqisi2
 4867 00ba 00EB0A02 		add	r2, r0, r10
 4868              	.LVL637:
 4869              	.LBB281:
 4870              	.LBB282:
 4871              		.loc 1 553 0
 4872 00be 92F801B0 		ldrb	fp, [r2, #1]	@ zero_extendqisi2
 4873 00c2 10F80A20 		ldrb	r2, [r0, r10]	@ zero_extendqisi2
 4874              	.LVL638:
 4875 00c6 42EA0B22 		orr	r2, r2, fp, lsl #8
 4876              	.LVL639:
 4877              	.LBE282:
 4878              	.LBE281:
 4879              		.loc 1 1764 0
 4880 00ca BCF1000F 		cmp	ip, #0
 4881 00ce 23D0     		beq	.L510
 4882              		.loc 1 1765 0
 4883 00d0 BEF1FE0F 		cmp	lr, #254
 4884 00d4 15D8     		bhi	.L526
 4885              	.LVL640:
 4886              		.loc 1 1766 0
 4887 00d6 21F81E20 		strh	r2, [r1, lr, lsl #1]	@ movhi
 4888              	.LBB284:
 4889              	.LBB283:
 4890              		.loc 1 553 0
 4891 00da 9446     		mov	ip, r2
 4892              	.LBE283:
 4893              	.LBE284:
 4894              		.loc 1 1766 0
 4895 00dc 0EF1010E 		add	lr, lr, #1
 4896              	.LVL641:
 4897              	.L511:
 4898              		.loc 1 1762 0
 4899 00e0 0133     		adds	r3, r3, #1
 4900              	.LVL642:
 4901 00e2 0D2B     		cmp	r3, #13
 4902 00e4 E7D1     		bne	.L512
ARM GAS  /tmp/ccO9HEUj.s 			page 87


 4903              		.loc 1 1772 0
 4904 00e6 0378     		ldrb	r3, [r0]	@ zero_extendqisi2
 4905              	.LVL643:
 4906 00e8 5B06     		lsls	r3, r3, #25
 4907 00ea 05D5     		bpl	.L513
 4908              		.loc 1 1773 0
 4909 00ec BEF1FE0F 		cmp	lr, #254
 4910 00f0 07D8     		bhi	.L526
 4911              		.loc 1 1774 0
 4912 00f2 0023     		movs	r3, #0
 4913 00f4 21F81E30 		strh	r3, [r1, lr, lsl #1]	@ movhi
 4914              	.L513:
 4915              	.LVL644:
 4916              	.LBE286:
 4917              	.LBE289:
 4918              		.loc 1 2209 0
 4919 00f8 013C     		subs	r4, r4, #1
 4920              	.LVL645:
 4921 00fa E4B2     		uxtb	r4, r4
 4922 00fc 02E0     		b	.L505
 4923              	.LVL646:
 4924              	.L508:
 4925 00fe A342     		cmp	r3, r4
 4926 0100 C5D0     		beq	.L509
 4927              	.LVL647:
 4928              	.L526:
 4929 0102 FF24     		movs	r4, #255
 4930              	.LVL648:
 4931              	.L505:
 4932              		.loc 1 2223 0
 4933 0104 0021     		movs	r1, #0
 4934 0106 2846     		mov	r0, r5
 4935 0108 FFF7FEFF 		bl	dir_next
 4936              	.LVL649:
 4937              		.loc 1 2224 0
 4938 010c 8246     		mov	r10, r0
 4939 010e 0028     		cmp	r0, #0
 4940 0110 82D0     		beq	.L502
 4941              	.LVL650:
 4942              	.L503:
 4943              		.loc 1 2227 0
 4944 0112 0023     		movs	r3, #0
 4945 0114 AB63     		str	r3, [r5, #56]
 4946 0116 A2E7     		b	.L534
 4947              	.LVL651:
 4948              	.L510:
 4949              	.LBB290:
 4950              	.LBB287:
 4951              		.loc 1 1768 0
 4952 0118 4A45     		cmp	r2, r9
 4953 011a E1D0     		beq	.L511
 4954 011c F1E7     		b	.L526
 4955              	.LVL652:
 4956              	.L507:
 4957              	.LBE287:
 4958              	.LBE290:
 4959              		.loc 1 2211 0
ARM GAS  /tmp/ccO9HEUj.s 			page 88


 4960 011e 34B9     		cbnz	r4, .L514
 4961 0120 FFF7FEFF 		bl	sum_sfn
 4962              	.LVL653:
 4963 0124 B842     		cmp	r0, r7
 4964 0126 02D1     		bne	.L514
 4965              	.L516:
 4966              		.loc 1 2178 0
 4967 0128 4FF0000A 		mov	r10, #0
 4968 012c 97E7     		b	.L534
 4969              	.L514:
 4970              		.loc 1 2212 0
 4971 012e 4FF0FF33 		mov	r3, #-1
 4972 0132 EB64     		str	r3, [r5, #76]
 4973 0134 93E7     		b	.L534
 4974              	.LVL654:
 4975              	.L517:
 4976              		.loc 1 2178 0
 4977 0136 4FF0040A 		mov	r10, #4
 4978 013a EAE7     		b	.L503
 4979              	.L536:
 4980              		.align	2
 4981              	.L535:
 4982 013c 00000000 		.word	.LANCHOR2
 4983              		.cfi_endproc
 4984              	.LFE384:
 4985              		.size	dir_read.constprop.10, .-dir_read.constprop.10
 4986              		.section	.text.dir_find,"ax",%progbits
 4987              		.align	1
 4988              		.syntax unified
 4989              		.thumb
 4990              		.thumb_func
 4991              		.fpu fpv4-sp-d16
 4992              		.type	dir_find, %function
 4993              	dir_find:
 4994              	.LFB344:
 4995              		.loc 1 2243 0
 4996              		.cfi_startproc
 4997              		@ args = 0, pretend = 0, frame = 16
 4998              		@ frame_needed = 0, uses_anonymous_args = 0
 4999              	.LVL655:
 5000 0000 2DE9F04F 		push	{r4, r5, r6, r7, r8, r9, r10, fp, lr}
 5001              		.cfi_def_cfa_offset 36
 5002              		.cfi_offset 4, -36
 5003              		.cfi_offset 5, -32
 5004              		.cfi_offset 6, -28
 5005              		.cfi_offset 7, -24
 5006              		.cfi_offset 8, -20
 5007              		.cfi_offset 9, -16
 5008              		.cfi_offset 10, -12
 5009              		.cfi_offset 11, -8
 5010              		.cfi_offset 14, -4
 5011              		.loc 1 2251 0
 5012 0004 0021     		movs	r1, #0
 5013              		.loc 1 2243 0
 5014 0006 85B0     		sub	sp, sp, #20
 5015              		.cfi_def_cfa_offset 56
 5016              		.loc 1 2243 0
ARM GAS  /tmp/ccO9HEUj.s 			page 89


 5017 0008 0446     		mov	r4, r0
 5018              		.loc 1 2245 0
 5019 000a D0F80080 		ldr	r8, [r0]
 5020              	.LVL656:
 5021              		.loc 1 2251 0
 5022 000e FFF7FEFF 		bl	dir_sdi
 5023              	.LVL657:
 5024              		.loc 1 2252 0
 5025 0012 8246     		mov	r10, r0
 5026 0014 0028     		cmp	r0, #0
 5027 0016 40F0D280 		bne	.L572
 5028              		.loc 1 2254 0
 5029 001a 98F80030 		ldrb	r3, [r8]	@ zero_extendqisi2
 5030 001e 042B     		cmp	r3, #4
 5031 0020 39D1     		bne	.L539
 5032              	.LBB302:
 5033              		.loc 1 2257 0
 5034 0022 D8F80C00 		ldr	r0, [r8, #12]
 5035              	.LVL658:
 5036 0026 FFF7FEFF 		bl	xname_sum
 5037              	.LVL659:
 5038 002a 0746     		mov	r7, r0
 5039              	.LVL660:
 5040              	.L541:
 5041              		.loc 1 2259 0
 5042 002c 2046     		mov	r0, r4
 5043 002e FFF7FEFF 		bl	dir_read.constprop.10
 5044              	.LVL661:
 5045 0032 08B1     		cbz	r0, .L547
 5046              	.LVL662:
 5047              	.L563:
 5048              	.LBE302:
 5049              		.loc 1 2278 0
 5050 0034 8246     		mov	r10, r0
 5051 0036 C2E0     		b	.L572
 5052              	.LVL663:
 5053              	.L547:
 5054              	.LBB307:
 5055              		.loc 1 2263 0
 5056 0038 D8F81030 		ldr	r3, [r8, #16]
 5057              	.LBB303:
 5058              	.LBB304:
 5059              		.loc 1 553 0
 5060 003c 93F82510 		ldrb	r1, [r3, #37]	@ zero_extendqisi2
 5061 0040 93F82420 		ldrb	r2, [r3, #36]	@ zero_extendqisi2
 5062              	.LBE304:
 5063              	.LBE303:
 5064              		.loc 1 2263 0
 5065 0044 42EA0122 		orr	r2, r2, r1, lsl #8
 5066 0048 9742     		cmp	r7, r2
 5067 004a EFD1     		bne	.L541
 5068              	.LVL664:
 5069 004c 93F82390 		ldrb	r9, [r3, #35]	@ zero_extendqisi2
 5070              		.loc 1 2264 0
 5071 0050 0546     		mov	r5, r0
 5072 0052 4026     		movs	r6, #64
 5073              	.LVL665:
ARM GAS  /tmp/ccO9HEUj.s 			page 90


 5074              	.L542:
 5075              		.loc 1 2264 0 is_stmt 0 discriminator 1
 5076 0054 4D45     		cmp	r5, r9
 5077 0056 06D1     		bne	.L545
 5078              		.loc 1 2268 0 is_stmt 1
 5079 0058 D8F80C30 		ldr	r3, [r8, #12]
 5080 005c 33F81530 		ldrh	r3, [r3, r5, lsl #1]
 5081 0060 002B     		cmp	r3, #0
 5082 0062 E3D1     		bne	.L541
 5083 0064 ABE0     		b	.L572
 5084              	.L545:
 5085              		.loc 1 2265 0
 5086 0066 F106     		lsls	r1, r6, #27
 5087              		.loc 1 2266 0
 5088 0068 D8F81030 		ldr	r3, [r8, #16]
 5089              		.loc 1 2265 0
 5090 006c 08BF     		it	eq
 5091 006e 0236     		addeq	r6, r6, #2
 5092              	.LVL666:
 5093              		.loc 1 2266 0
 5094 0070 9A19     		adds	r2, r3, r6
 5095              	.LBB305:
 5096              	.LBB306:
 5097              		.loc 1 553 0
 5098 0072 9B5D     		ldrb	r3, [r3, r6]	@ zero_extendqisi2
 5099 0074 5078     		ldrb	r0, [r2, #1]	@ zero_extendqisi2
 5100              	.LBE306:
 5101              	.LBE305:
 5102              		.loc 1 2266 0
 5103 0076 43EA0020 		orr	r0, r3, r0, lsl #8
 5104 007a FFF7FEFF 		bl	ff_wtoupper
 5105              	.LVL667:
 5106 007e D8F80C30 		ldr	r3, [r8, #12]
 5107 0082 8346     		mov	fp, r0
 5108 0084 33F81500 		ldrh	r0, [r3, r5, lsl #1]
 5109 0088 FFF7FEFF 		bl	ff_wtoupper
 5110              	.LVL668:
 5111 008c 8345     		cmp	fp, r0
 5112 008e CDD1     		bne	.L541
 5113              	.LVL669:
 5114              		.loc 1 2264 0 discriminator 2
 5115 0090 0236     		adds	r6, r6, #2
 5116              	.LVL670:
 5117 0092 0135     		adds	r5, r5, #1
 5118              	.LVL671:
 5119 0094 DEE7     		b	.L542
 5120              	.LVL672:
 5121              	.L539:
 5122              	.LBE307:
 5123              		.loc 1 2275 0
 5124 0096 4FF0FF0B 		mov	fp, #255
 5125 009a 4FF0FF33 		mov	r3, #-1
 5126 009e 5E46     		mov	r6, fp
 5127 00a0 E364     		str	r3, [r4, #76]
 5128              	.LVL673:
 5129              	.L562:
 5130              		.loc 1 2278 0
ARM GAS  /tmp/ccO9HEUj.s 			page 91


 5131 00a2 A16B     		ldr	r1, [r4, #56]
 5132 00a4 4046     		mov	r0, r8
 5133              	.LVL674:
 5134 00a6 FFF7FEFF 		bl	move_window
 5135              	.LVL675:
 5136              		.loc 1 2279 0
 5137 00aa 0028     		cmp	r0, #0
 5138 00ac C2D1     		bne	.L563
 5139              		.loc 1 2280 0
 5140 00ae E56B     		ldr	r5, [r4, #60]
 5141 00b0 2F78     		ldrb	r7, [r5]	@ zero_extendqisi2
 5142              	.LVL676:
 5143              		.loc 1 2281 0
 5144 00b2 002F     		cmp	r7, #0
 5145 00b4 00F08980 		beq	.L564
 5146              		.loc 1 2283 0
 5147 00b8 EA7A     		ldrb	r2, [r5, #11]	@ zero_extendqisi2
 5148              		.loc 1 2284 0
 5149 00ba E52F     		cmp	r7, #229
 5150              		.loc 1 2283 0
 5151 00bc 02F03F03 		and	r3, r2, #63
 5152              	.LVL677:
 5153 00c0 A371     		strb	r3, [r4, #6]
 5154              		.loc 1 2284 0
 5155 00c2 03D0     		beq	.L560
 5156              		.loc 1 2284 0 is_stmt 0 discriminator 1
 5157 00c4 1207     		lsls	r2, r2, #28
 5158 00c6 05D5     		bpl	.L549
 5159              		.loc 1 2284 0 discriminator 2
 5160 00c8 0F2B     		cmp	r3, #15
 5161 00ca 05D0     		beq	.L550
 5162              	.LVL678:
 5163              	.L560:
 5164              		.loc 1 2300 0 is_stmt 1
 5165 00cc 4FF0FF33 		mov	r3, #-1
 5166 00d0 E364     		str	r3, [r4, #76]
 5167 00d2 5AE0     		b	.L571
 5168              	.LVL679:
 5169              	.L549:
 5170              		.loc 1 2287 0
 5171 00d4 0F2B     		cmp	r3, #15
 5172 00d6 60D1     		bne	.L552
 5173              	.L550:
 5174              		.loc 1 2288 0
 5175 00d8 94F84B30 		ldrb	r3, [r4, #75]	@ zero_extendqisi2
 5176              	.LVL680:
 5177 00dc 5806     		lsls	r0, r3, #25
 5178              	.LVL681:
 5179 00de 55D4     		bmi	.L551
 5180              		.loc 1 2289 0
 5181 00e0 7906     		lsls	r1, r7, #25
 5182 00e2 4AD5     		bpl	.L553
 5183              		.loc 1 2292 0
 5184 00e4 226B     		ldr	r2, [r4, #48]
 5185              		.loc 1 2291 0
 5186 00e6 07F0BF07 		and	r7, r7, #191
 5187              	.LVL682:
ARM GAS  /tmp/ccO9HEUj.s 			page 92


 5188              		.loc 1 2290 0
 5189 00ea 6B7B     		ldrb	r3, [r5, #13]	@ zero_extendqisi2
 5190              	.LVL683:
 5191              		.loc 1 2292 0
 5192 00ec E264     		str	r2, [r4, #76]
 5193              	.LVL684:
 5194              	.L554:
 5195              		.loc 1 2295 0 discriminator 1
 5196 00ee 95F80DB0 		ldrb	fp, [r5, #13]	@ zero_extendqisi2
 5197 00f2 9B45     		cmp	fp, r3
 5198 00f4 67D1     		bne	.L566
 5199              	.LVL685:
 5200              	.LBB308:
 5201              	.LBB309:
 5202              	.LBB310:
 5203              	.LBB311:
 5204              		.loc 1 553 0 discriminator 3
 5205 00f6 EB7E     		ldrb	r3, [r5, #27]	@ zero_extendqisi2
 5206              	.LVL686:
 5207 00f8 AE7E     		ldrb	r6, [r5, #26]	@ zero_extendqisi2
 5208 00fa 46EA0326 		orr	r6, r6, r3, lsl #8
 5209              	.LBE311:
 5210              	.LBE310:
 5211              		.loc 1 1722 0 discriminator 3
 5212 00fe 36B2     		sxth	r6, r6
 5213 0100 002E     		cmp	r6, #0
 5214 0102 42D1     		bne	.L571
 5215              		.loc 1 1724 0
 5216 0104 95F80090 		ldrb	r9, [r5]	@ zero_extendqisi2
 5217              		.loc 1 1726 0
 5218 0108 0121     		movs	r1, #1
 5219              	.LBE309:
 5220              	.LBE308:
 5221              		.loc 1 2295 0
 5222 010a D8F80C30 		ldr	r3, [r8, #12]
 5223              	.LBB321:
 5224              	.LBB318:
 5225              		.loc 1 1724 0
 5226 010e 09F03F09 		and	r9, r9, #63
 5227              	.LBE318:
 5228              	.LBE321:
 5229              		.loc 1 2295 0
 5230 0112 0093     		str	r3, [sp]
 5231              	.LBB322:
 5232              	.LBB319:
 5233              		.loc 1 1724 0
 5234 0114 09F1FF33 		add	r3, r9, #-1
 5235 0118 4FF00D09 		mov	r9, #13
 5236 011c 09FB03F9 		mul	r9, r9, r3
 5237              	.LVL687:
 5238              	.L557:
 5239              		.loc 1 1727 0
 5240 0120 2B4B     		ldr	r3, .L596
 5241 0122 F25C     		ldrb	r2, [r6, r3]	@ zero_extendqisi2
 5242 0124 AB18     		adds	r3, r5, r2
 5243              	.LVL688:
 5244              	.LBB312:
ARM GAS  /tmp/ccO9HEUj.s 			page 93


 5245              	.LBB313:
 5246              		.loc 1 553 0
 5247 0126 AA5C     		ldrb	r2, [r5, r2]	@ zero_extendqisi2
 5248 0128 5B78     		ldrb	r3, [r3, #1]	@ zero_extendqisi2
 5249              	.LVL689:
 5250 012a 42EA0323 		orr	r3, r2, r3, lsl #8
 5251              	.LVL690:
 5252              	.LBE313:
 5253              	.LBE312:
 5254              		.loc 1 1728 0
 5255 012e 41B3     		cbz	r1, .L555
 5256              		.loc 1 1729 0
 5257 0130 B9F1FE0F 		cmp	r9, #254
 5258 0134 29D8     		bhi	.L571
 5259 0136 1846     		mov	r0, r3
 5260 0138 0393     		str	r3, [sp, #12]
 5261 013a FFF7FEFF 		bl	ff_wtoupper
 5262              	.LVL691:
 5263 013e 009B     		ldr	r3, [sp]
 5264 0140 09F10102 		add	r2, r9, #1
 5265 0144 0290     		str	r0, [sp, #8]
 5266 0146 33F81900 		ldrh	r0, [r3, r9, lsl #1]
 5267 014a 0192     		str	r2, [sp, #4]
 5268              	.LVL692:
 5269 014c FFF7FEFF 		bl	ff_wtoupper
 5270              	.LVL693:
 5271 0150 0299     		ldr	r1, [sp, #8]
 5272 0152 8142     		cmp	r1, r0
 5273 0154 19D1     		bne	.L571
 5274              	.LVL694:
 5275              	.LBB316:
 5276              	.LBB314:
 5277              		.loc 1 553 0
 5278 0156 039B     		ldr	r3, [sp, #12]
 5279              	.LBE314:
 5280              	.LBE316:
 5281              		.loc 1 1729 0
 5282 0158 019A     		ldr	r2, [sp, #4]
 5283              	.LBB317:
 5284              	.LBB315:
 5285              		.loc 1 553 0
 5286 015a 1946     		mov	r1, r3
 5287              	.LBE315:
 5288              	.LBE317:
 5289              		.loc 1 1729 0
 5290 015c 9146     		mov	r9, r2
 5291              	.LVL695:
 5292              	.L556:
 5293              		.loc 1 1726 0
 5294 015e 0136     		adds	r6, r6, #1
 5295              	.LVL696:
 5296 0160 0D2E     		cmp	r6, #13
 5297 0162 DDD1     		bne	.L557
 5298              		.loc 1 1738 0
 5299 0164 2B78     		ldrb	r3, [r5]	@ zero_extendqisi2
 5300 0166 5A06     		lsls	r2, r3, #25
 5301 0168 04D5     		bpl	.L558
ARM GAS  /tmp/ccO9HEUj.s 			page 94


 5302 016a 19B1     		cbz	r1, .L558
 5303 016c 009B     		ldr	r3, [sp]
 5304 016e 33F81930 		ldrh	r3, [r3, r9, lsl #1]
 5305 0172 53B9     		cbnz	r3, .L571
 5306              	.L558:
 5307              	.LVL697:
 5308              	.LBE319:
 5309              	.LBE322:
 5310              		.loc 1 2295 0
 5311 0174 013F     		subs	r7, r7, #1
 5312              	.LVL698:
 5313 0176 FEB2     		uxtb	r6, r7
 5314 0178 08E0     		b	.L551
 5315              	.LVL699:
 5316              	.L553:
 5317 017a BE42     		cmp	r6, r7
 5318 017c 05D1     		bne	.L571
 5319 017e 5B46     		mov	r3, fp
 5320 0180 B5E7     		b	.L554
 5321              	.LVL700:
 5322              	.L555:
 5323              	.LBB323:
 5324              	.LBB320:
 5325              		.loc 1 1734 0
 5326 0182 4FF6FF72 		movw	r2, #65535
 5327 0186 9342     		cmp	r3, r2
 5328 0188 E9D0     		beq	.L556
 5329              	.LVL701:
 5330              	.L571:
 5331              	.LBE320:
 5332              	.LBE323:
 5333              		.loc 1 2295 0
 5334 018a FF26     		movs	r6, #255
 5335              	.L551:
 5336              	.LVL702:
 5337              		.loc 1 2307 0
 5338 018c 0021     		movs	r1, #0
 5339 018e 2046     		mov	r0, r4
 5340 0190 FFF7FEFF 		bl	dir_next
 5341              	.LVL703:
 5342              		.loc 1 2308 0
 5343 0194 0028     		cmp	r0, #0
 5344 0196 84D0     		beq	.L562
 5345 0198 4CE7     		b	.L563
 5346              	.LVL704:
 5347              	.L552:
 5348              		.loc 1 2298 0
 5349 019a 26B9     		cbnz	r6, .L559
 5350              		.loc 1 2298 0 is_stmt 0 discriminator 1
 5351 019c 2846     		mov	r0, r5
 5352              	.LVL705:
 5353 019e FFF7FEFF 		bl	sum_sfn
 5354              	.LVL706:
 5355 01a2 8345     		cmp	fp, r0
 5356 01a4 0BD0     		beq	.L572
 5357              	.L559:
 5358              		.loc 1 2299 0 is_stmt 1
ARM GAS  /tmp/ccO9HEUj.s 			page 95


 5359 01a6 94F84B30 		ldrb	r3, [r4, #75]	@ zero_extendqisi2
 5360 01aa DB07     		lsls	r3, r3, #31
 5361 01ac 8ED4     		bmi	.L560
 5362              		.loc 1 2299 0 is_stmt 0 discriminator 1
 5363 01ae 0B22     		movs	r2, #11
 5364 01b0 04F14001 		add	r1, r4, #64
 5365 01b4 2846     		mov	r0, r5
 5366 01b6 FFF7FEFF 		bl	mem_cmp
 5367              	.LVL707:
 5368 01ba 0028     		cmp	r0, #0
 5369 01bc 86D1     		bne	.L560
 5370              	.LVL708:
 5371              	.L572:
 5372              		.loc 1 2311 0 is_stmt 1
 5373 01be 5046     		mov	r0, r10
 5374 01c0 05B0     		add	sp, sp, #20
 5375              		.cfi_remember_state
 5376              		.cfi_def_cfa_offset 36
 5377              		@ sp needed
 5378 01c2 BDE8F08F 		pop	{r4, r5, r6, r7, r8, r9, r10, fp, pc}
 5379              	.LVL709:
 5380              	.L566:
 5381              		.cfi_restore_state
 5382 01c6 9B46     		mov	fp, r3
 5383 01c8 DFE7     		b	.L571
 5384              	.LVL710:
 5385              	.L564:
 5386              		.loc 1 2281 0
 5387 01ca 4FF0040A 		mov	r10, #4
 5388 01ce F6E7     		b	.L572
 5389              	.L597:
 5390              		.align	2
 5391              	.L596:
 5392 01d0 00000000 		.word	.LANCHOR2
 5393              		.cfi_endproc
 5394              	.LFE344:
 5395              		.size	dir_find, .-dir_find
 5396              		.section	.text.dir_register,"ax",%progbits
 5397              		.align	1
 5398              		.syntax unified
 5399              		.thumb
 5400              		.thumb_func
 5401              		.fpu fpv4-sp-d16
 5402              		.type	dir_register, %function
 5403              	dir_register:
 5404              	.LFB345:
 5405              		.loc 1 2325 0
 5406              		.cfi_startproc
 5407              		@ args = 0, pretend = 0, frame = 96
 5408              		@ frame_needed = 0, uses_anonymous_args = 0
 5409              	.LVL711:
 5410 0000 2DE9F04F 		push	{r4, r5, r6, r7, r8, r9, r10, fp, lr}
 5411              		.cfi_def_cfa_offset 36
 5412              		.cfi_offset 4, -36
 5413              		.cfi_offset 5, -32
 5414              		.cfi_offset 6, -28
 5415              		.cfi_offset 7, -24
ARM GAS  /tmp/ccO9HEUj.s 			page 96


 5416              		.cfi_offset 8, -20
 5417              		.cfi_offset 9, -16
 5418              		.cfi_offset 10, -12
 5419              		.cfi_offset 11, -8
 5420              		.cfi_offset 14, -4
 5421              		.loc 1 2333 0
 5422 0004 90F84B40 		ldrb	r4, [r0, #75]	@ zero_extendqisi2
 5423              		.loc 1 2325 0
 5424 0008 99B0     		sub	sp, sp, #100
 5425              		.cfi_def_cfa_offset 136
 5426              		.loc 1 2325 0
 5427 000a 0546     		mov	r5, r0
 5428              		.loc 1 2333 0
 5429 000c 14F0A004 		ands	r4, r4, #160
 5430 0010 40F0FF80 		bne	.L635
 5431              		.loc 1 2327 0 discriminator 1
 5432 0014 0668     		ldr	r6, [r0]
 5433              		.loc 1 2334 0 discriminator 1
 5434 0016 F268     		ldr	r2, [r6, #12]
 5435              	.L600:
 5436              	.LVL712:
 5437 0018 32F81430 		ldrh	r3, [r2, r4, lsl #1]
 5438 001c 002B     		cmp	r3, #0
 5439 001e 4CD1     		bne	.L601
 5440              		.loc 1 2337 0
 5441 0020 3378     		ldrb	r3, [r6]	@ zero_extendqisi2
 5442 0022 042B     		cmp	r3, #4
 5443 0024 40F08980 		bne	.L602
 5444              		.loc 1 2338 0
 5445 0028 0F23     		movs	r3, #15
 5446 002a 0E34     		adds	r4, r4, #14
 5447              	.LVL713:
 5448              		.loc 1 2339 0
 5449 002c 2846     		mov	r0, r5
 5450              	.LVL714:
 5451              		.loc 1 2338 0
 5452 002e B4FBF3F4 		udiv	r4, r4, r3
 5453              	.LVL715:
 5454              		.loc 1 2339 0
 5455 0032 A11C     		adds	r1, r4, #2
 5456              	.LVL716:
 5457 0034 FFF7FEFF 		bl	dir_alloc
 5458              	.LVL717:
 5459              		.loc 1 2340 0
 5460 0038 8246     		mov	r10, r0
 5461 003a 0028     		cmp	r0, #0
 5462 003c 79D1     		bne	.L642
 5463              		.loc 1 2341 0
 5464 003e 04F10064 		add	r4, r4, #134217728
 5465              	.LVL718:
 5466 0042 2B6B     		ldr	r3, [r5, #48]
 5467 0044 0134     		adds	r4, r4, #1
 5468              	.LVL719:
 5469 0046 A3EB4414 		sub	r4, r3, r4, lsl #5
 5470              	.LVL720:
 5471              		.loc 1 2343 0
 5472 004a EB79     		ldrb	r3, [r5, #7]	@ zero_extendqisi2
ARM GAS  /tmp/ccO9HEUj.s 			page 97


 5473 004c 5A07     		lsls	r2, r3, #29
 5474              		.loc 1 2341 0
 5475 004e EC64     		str	r4, [r5, #76]
 5476              		.loc 1 2343 0
 5477 0050 35D5     		bpl	.L605
 5478              		.loc 1 2344 0
 5479 0052 23F00403 		bic	r3, r3, #4
 5480              		.loc 1 2345 0
 5481 0056 2846     		mov	r0, r5
 5482              	.LVL721:
 5483              		.loc 1 2344 0
 5484 0058 EB71     		strb	r3, [r5, #7]
 5485              		.loc 1 2345 0
 5486 005a FFF7FEFF 		bl	fill_first_frag
 5487              	.LVL722:
 5488              		.loc 1 2346 0
 5489 005e 50BB     		cbnz	r0, .L637
 5490              		.loc 1 2347 0
 5491 0060 4FF0FF32 		mov	r2, #-1
 5492 0064 696B     		ldr	r1, [r5, #52]
 5493 0066 2846     		mov	r0, r5
 5494              	.LVL723:
 5495 0068 FFF7FEFF 		bl	fill_last_frag
 5496              	.LVL724:
 5497              		.loc 1 2348 0
 5498 006c 18BB     		cbnz	r0, .L637
 5499              		.loc 1 2349 0
 5500 006e AB68     		ldr	r3, [r5, #8]
 5501 0070 2BB3     		cbz	r3, .L605
 5502              	.LBB345:
 5503              		.loc 1 2352 0
 5504 0072 2946     		mov	r1, r5
 5505 0074 04A8     		add	r0, sp, #16
 5506              	.LVL725:
 5507 0076 FFF7FEFF 		bl	load_obj_xdir
 5508              	.LVL726:
 5509              		.loc 1 2353 0
 5510 007a E0B9     		cbnz	r0, .L637
 5511              		.loc 1 2354 0
 5512 007c 7089     		ldrh	r0, [r6, #10]
 5513              	.LVL727:
 5514 007e 4FF40071 		mov	r1, #512
 5515 0082 D5E90423 		ldrd	r2, [r5, #16]
 5516 0086 E1FB0023 		umlal	r2, r3, r1, r0
 5517              		.loc 1 2355 0
 5518 008a 3069     		ldr	r0, [r6, #16]
 5519              		.loc 1 2354 0
 5520 008c C5E90423 		strd	r2, [r5, #16]
 5521              		.loc 1 2355 0
 5522 0090 3830     		adds	r0, r0, #56
 5523 0092 FFF7FEFF 		bl	st_qword
 5524              	.LVL728:
 5525              		.loc 1 2356 0
 5526 0096 3069     		ldr	r0, [r6, #16]
 5527 0098 D5E90423 		ldrd	r2, [r5, #16]
 5528 009c 2830     		adds	r0, r0, #40
 5529 009e FFF7FEFF 		bl	st_qword
ARM GAS  /tmp/ccO9HEUj.s 			page 98


 5530              	.LVL729:
 5531              		.loc 1 2357 0
 5532 00a2 EB79     		ldrb	r3, [r5, #7]	@ zero_extendqisi2
 5533 00a4 3269     		ldr	r2, [r6, #16]
 5534              		.loc 1 2358 0
 5535 00a6 04A8     		add	r0, sp, #16
 5536              		.loc 1 2357 0
 5537 00a8 43F00103 		orr	r3, r3, #1
 5538 00ac 82F82130 		strb	r3, [r2, #33]
 5539              		.loc 1 2358 0
 5540 00b0 FFF7FEFF 		bl	store_xdir
 5541              	.LVL730:
 5542              		.loc 1 2359 0
 5543 00b4 18B1     		cbz	r0, .L605
 5544              	.L637:
 5545              	.LBE345:
 5546 00b6 8246     		mov	r10, r0
 5547 00b8 3BE0     		b	.L642
 5548              	.LVL731:
 5549              	.L601:
 5550              		.loc 1 2334 0 discriminator 3
 5551 00ba 0134     		adds	r4, r4, #1
 5552              	.LVL732:
 5553 00bc ACE7     		b	.L600
 5554              	.LVL733:
 5555              	.L605:
 5556              		.loc 1 2363 0
 5557 00be 3469     		ldr	r4, [r6, #16]
 5558              	.LBB346:
 5559              	.LBB347:
 5560              		.loc 1 2129 0
 5561 00c0 4022     		movs	r2, #64
 5562 00c2 0021     		movs	r1, #0
 5563              	.LBE347:
 5564              	.LBE346:
 5565              		.loc 1 2363 0
 5566 00c4 F568     		ldr	r5, [r6, #12]
 5567              	.LVL734:
 5568              	.LBB355:
 5569              	.LBB354:
 5570              		.loc 1 2129 0
 5571 00c6 2046     		mov	r0, r4
 5572              	.LVL735:
 5573 00c8 FFF7FEFF 		bl	mem_set
 5574              	.LVL736:
 5575              		.loc 1 2130 0
 5576 00cc 8523     		movs	r3, #133
 5577              		.loc 1 2131 0
 5578 00ce 0021     		movs	r1, #0
 5579              		.loc 1 2134 0
 5580 00d0 0120     		movs	r0, #1
 5581              		.loc 1 2130 0
 5582 00d2 2370     		strb	r3, [r4]
 5583              		.loc 1 2131 0
 5584 00d4 C023     		movs	r3, #192
 5585              		.loc 1 2134 0
 5586 00d6 0A46     		mov	r2, r1
ARM GAS  /tmp/ccO9HEUj.s 			page 99


 5587              		.loc 1 2136 0
 5588 00d8 4FF0C10E 		mov	lr, #193
 5589              		.loc 1 2131 0
 5590 00dc 84F82030 		strb	r3, [r4, #32]
 5591              	.LVL737:
 5592              		.loc 1 2136 0
 5593 00e0 8C46     		mov	ip, r1
 5594              		.loc 1 2134 0
 5595 00e2 4023     		movs	r3, #64
 5596              	.LVL738:
 5597              	.L608:
 5598              		.loc 1 2136 0
 5599 00e4 5F1C     		adds	r7, r3, #1
 5600 00e6 04F803E0 		strb	lr, [r4, r3]
 5601 00ea CEB2     		uxtb	r6, r1
 5602              	.LVL739:
 5603 00ec 0233     		adds	r3, r3, #2
 5604              	.LVL740:
 5605 00ee 04F807C0 		strb	ip, [r4, r7]
 5606              	.LVL741:
 5607              	.L607:
 5608              		.loc 1 2138 0
 5609 00f2 20B1     		cbz	r0, .L606
 5610 00f4 35F81200 		ldrh	r0, [r5, r2, lsl #1]
 5611              	.LVL742:
 5612 00f8 08B1     		cbz	r0, .L606
 5613 00fa 0132     		adds	r2, r2, #1
 5614              	.LVL743:
 5615 00fc D2B2     		uxtb	r2, r2
 5616              	.LVL744:
 5617              	.L606:
 5618              	.LBB348:
 5619              	.LBB349:
 5620              		.loc 1 592 0
 5621 00fe E718     		adds	r7, r4, r3
 5622              	.LVL745:
 5623              		.loc 1 591 0
 5624 0100 E054     		strb	r0, [r4, r3]
 5625              	.LVL746:
 5626 0102 4FEA1028 		lsr	r8, r0, #8
 5627              	.LBE349:
 5628              	.LBE348:
 5629              		.loc 1 2140 0
 5630 0106 0233     		adds	r3, r3, #2
 5631              	.LVL747:
 5632              	.LBB351:
 5633              	.LBB350:
 5634              		.loc 1 592 0
 5635 0108 87F80180 		strb	r8, [r7, #1]
 5636              	.LVL748:
 5637              	.LBE350:
 5638              	.LBE351:
 5639              		.loc 1 2141 0
 5640 010c DF06     		lsls	r7, r3, #27
 5641 010e F0D1     		bne	.L607
 5642              	.LVL749:
 5643              		.loc 1 2143 0
ARM GAS  /tmp/ccO9HEUj.s 			page 100


 5644 0110 35F81270 		ldrh	r7, [r5, r2, lsl #1]
 5645 0114 0131     		adds	r1, r1, #1
 5646              	.LVL750:
 5647 0116 002F     		cmp	r7, #0
 5648 0118 E4D1     		bne	.L608
 5649              		.loc 1 2146 0
 5650 011a B31C     		adds	r3, r6, #2
 5651              	.LVL751:
 5652              		.loc 1 2145 0
 5653 011c 84F82320 		strb	r2, [r4, #35]
 5654              		.loc 1 2147 0
 5655 0120 2846     		mov	r0, r5
 5656              	.LVL752:
 5657              		.loc 1 2146 0
 5658 0122 6370     		strb	r3, [r4, #1]
 5659              		.loc 1 2147 0
 5660 0124 FFF7FEFF 		bl	xname_sum
 5661              	.LVL753:
 5662              	.LBB352:
 5663              	.LBB353:
 5664              		.loc 1 591 0
 5665 0128 84F82400 		strb	r0, [r4, #36]
 5666              	.LVL754:
 5667 012c 000A     		lsrs	r0, r0, #8
 5668              	.LVL755:
 5669              		.loc 1 592 0
 5670 012e 84F82500 		strb	r0, [r4, #37]
 5671              	.LVL756:
 5672              	.L642:
 5673              	.LBE353:
 5674              	.LBE352:
 5675              	.LBE354:
 5676              	.LBE355:
 5677              		.loc 1 2417 0
 5678 0132 5046     		mov	r0, r10
 5679 0134 19B0     		add	sp, sp, #100
 5680              		.cfi_remember_state
 5681              		.cfi_def_cfa_offset 36
 5682              		@ sp needed
 5683 0136 BDE8F08F 		pop	{r4, r5, r6, r7, r8, r9, r10, fp, pc}
 5684              	.LVL757:
 5685              	.L602:
 5686              		.cfi_restore_state
 5687              		.loc 1 2368 0
 5688 013a 05F14007 		add	r7, r5, #64
 5689              	.LVL758:
 5690              	.LBB356:
 5691              	.LBB357:
 5692 013e 0C22     		movs	r2, #12
 5693 0140 04A8     		add	r0, sp, #16
 5694              	.LVL759:
 5695 0142 3946     		mov	r1, r7
 5696 0144 FFF7FEFF 		bl	mem_cpy.part.0
 5697              	.LVL760:
 5698              	.LBE357:
 5699              	.LBE356:
 5700              		.loc 1 2369 0
ARM GAS  /tmp/ccO9HEUj.s 			page 101


 5701 0148 9DF81B30 		ldrb	r3, [sp, #27]	@ zero_extendqisi2
 5702 014c DB07     		lsls	r3, r3, #31
 5703 014e 69D5     		bpl	.L609
 5704              		.loc 1 2370 0
 5705 0150 4023     		movs	r3, #64
 5706              		.loc 1 2371 0
 5707 0152 4FF00109 		mov	r9, #1
 5708              	.LBB358:
 5709              	.LBB359:
 5710              		.loc 1 1847 0
 5711 0156 DFF8E481 		ldr	r8, .L674+4
 5712              	.LBE359:
 5713              	.LBE358:
 5714              		.loc 1 2370 0
 5715 015a 85F84B30 		strb	r3, [r5, #75]
 5716              	.LVL761:
 5717              	.L624:
 5718              	.LBB367:
 5719              	.LBB364:
 5720              	.LBB360:
 5721              	.LBB361:
 5722 015e 0B22     		movs	r2, #11
 5723 0160 04A9     		add	r1, sp, #16
 5724 0162 3846     		mov	r0, r7
 5725              	.LBE361:
 5726              	.LBE360:
 5727              	.LBE364:
 5728              	.LBE367:
 5729              		.loc 1 2372 0
 5730 0164 D6F80CA0 		ldr	r10, [r6, #12]
 5731              	.LVL762:
 5732              	.LBB368:
 5733              	.LBB365:
 5734              	.LBB363:
 5735              	.LBB362:
 5736 0168 FFF7FEFF 		bl	mem_cpy.part.0
 5737              	.LVL763:
 5738              	.LBE362:
 5739              	.LBE363:
 5740              		.loc 1 1840 0
 5741 016c B9F1050F 		cmp	r9, #5
 5742 0170 47D8     		bhi	.L610
 5743 0172 4B46     		mov	r3, r9
 5744              	.LVL764:
 5745              	.L611:
 5746              		.loc 1 1842 0
 5747 0174 0722     		movs	r2, #7
 5748              	.LVL765:
 5749              	.L617:
 5750              		.loc 1 1856 0
 5751 0176 03F00F00 		and	r0, r3, #15
 5752              		.loc 1 1858 0
 5753 017a 013A     		subs	r2, r2, #1
 5754              	.LVL766:
 5755              		.loc 1 1856 0
 5756 017c 00F13001 		add	r1, r0, #48
 5757              	.LVL767:
ARM GAS  /tmp/ccO9HEUj.s 			page 102


 5758              		.loc 1 1857 0
 5759 0180 3929     		cmp	r1, #57
 5760 0182 88BF     		it	hi
 5761 0184 00F13701 		addhi	r1, r0, #55
 5762              	.LVL768:
 5763              		.loc 1 1858 0
 5764 0188 02A8     		add	r0, sp, #8
 5765              		.loc 1 1860 0
 5766 018a 1B09     		lsrs	r3, r3, #4
 5767              	.LVL769:
 5768              		.loc 1 1858 0
 5769 018c 1044     		add	r0, r0, r2
 5770 018e 4170     		strb	r1, [r0, #1]
 5771              		.loc 1 1860 0
 5772 0190 F1D1     		bne	.L617
 5773              		.loc 1 1861 0
 5774 0192 18A9     		add	r1, sp, #96
 5775              	.LVL770:
 5776 0194 7E20     		movs	r0, #126
 5777              	.LVL771:
 5778 0196 1144     		add	r1, r1, r2
 5779 0198 01F8580C 		strb	r0, [r1, #-88]
 5780              	.LVL772:
 5781              	.L618:
 5782              		.loc 1 1864 0
 5783 019c 9A42     		cmp	r2, r3
 5784 019e 36D0     		beq	.L638
 5785 01a0 F95C     		ldrb	r1, [r7, r3]	@ zero_extendqisi2
 5786 01a2 2029     		cmp	r1, #32
 5787 01a4 31D1     		bne	.L620
 5788              	.LVL773:
 5789              	.L619:
 5790 01a6 3B44     		add	r3, r3, r7
 5791              	.LVL774:
 5792              	.L622:
 5793              		.loc 1 1871 0
 5794 01a8 072A     		cmp	r2, #7
 5795 01aa 97BF     		itett	ls
 5796 01ac 18A9     		addls	r1, sp, #96
 5797 01ae 2021     		movhi	r1, #32
 5798 01b0 8918     		addls	r1, r1, r2
 5799 01b2 0132     		addls	r2, r2, #1
 5800              	.LVL775:
 5801 01b4 98BF     		it	ls
 5802 01b6 11F8581C 		ldrbls	r1, [r1, #-88]	@ zero_extendqisi2
 5803 01ba 03F8011B 		strb	r1, [r3], #1
 5804              		.loc 1 1872 0
 5805 01be D91B     		subs	r1, r3, r7
 5806 01c0 0729     		cmp	r1, #7
 5807 01c2 F1D9     		bls	.L622
 5808              	.LVL776:
 5809              	.LBE365:
 5810              	.LBE368:
 5811              		.loc 1 2373 0
 5812 01c4 2846     		mov	r0, r5
 5813 01c6 FFF7FEFF 		bl	dir_find
 5814              	.LVL777:
ARM GAS  /tmp/ccO9HEUj.s 			page 103


 5815              		.loc 1 2374 0
 5816 01ca 8246     		mov	r10, r0
 5817 01cc 20BB     		cbnz	r0, .L623
 5818              		.loc 1 2371 0 discriminator 2
 5819 01ce 09F10109 		add	r9, r9, #1
 5820              	.LVL778:
 5821 01d2 B9F1640F 		cmp	r9, #100
 5822 01d6 C2D1     		bne	.L624
 5823              		.loc 1 2376 0
 5824 01d8 4FF0070A 		mov	r10, #7
 5825 01dc A9E7     		b	.L642
 5826              	.LVL779:
 5827              	.L615:
 5828              	.LBB369:
 5829              	.LBB366:
 5830              		.loc 1 1842 0
 5831 01de 1020     		movs	r0, #16
 5832              	.L613:
 5833              	.LVL780:
 5834              		.loc 1 1845 0
 5835 01e0 02F0010E 		and	lr, r2, #1
 5836              		.loc 1 1846 0
 5837 01e4 5208     		lsrs	r2, r2, #1
 5838              	.LVL781:
 5839              		.loc 1 1845 0
 5840 01e6 0EEB4303 		add	r3, lr, r3, lsl #1
 5841              	.LVL782:
 5842              		.loc 1 1847 0
 5843 01ea 13F4803F 		tst	r3, #65536
 5844 01ee 18BF     		it	ne
 5845 01f0 83EA0803 		eorne	r3, r3, r8
 5846              	.LVL783:
 5847              		.loc 1 1844 0
 5848 01f4 0138     		subs	r0, r0, #1
 5849              	.LVL784:
 5850 01f6 F3D1     		bne	.L613
 5851              	.LVL785:
 5852              	.L614:
 5853              		.loc 1 1842 0
 5854 01f8 31F8022F 		ldrh	r2, [r1, #2]!
 5855              	.LVL786:
 5856 01fc 002A     		cmp	r2, #0
 5857 01fe EED1     		bne	.L615
 5858 0200 B8E7     		b	.L611
 5859              	.LVL787:
 5860              	.L610:
 5861 0202 AAF10201 		sub	r1, r10, #2
 5862              		.loc 1 1840 0
 5863 0206 4B46     		mov	r3, r9
 5864 0208 F6E7     		b	.L614
 5865              	.LVL788:
 5866              	.L620:
 5867              		.loc 1 1864 0
 5868 020a 0133     		adds	r3, r3, #1
 5869              	.LVL789:
 5870 020c C6E7     		b	.L618
 5871              	.L638:
ARM GAS  /tmp/ccO9HEUj.s 			page 104


 5872 020e 1346     		mov	r3, r2
 5873              	.LVL790:
 5874 0210 C9E7     		b	.L619
 5875              	.LVL791:
 5876              	.L635:
 5877              	.LBE366:
 5878              	.LBE369:
 5879              		.loc 1 2333 0
 5880 0212 4FF0060A 		mov	r10, #6
 5881 0216 8CE7     		b	.L642
 5882              	.LVL792:
 5883              	.L623:
 5884              		.loc 1 2377 0
 5885 0218 0428     		cmp	r0, #4
 5886 021a 8AD1     		bne	.L642
 5887              		.loc 1 2378 0
 5888 021c 9DF81B30 		ldrb	r3, [sp, #27]	@ zero_extendqisi2
 5889 0220 85F84B30 		strb	r3, [r5, #75]
 5890              	.LVL793:
 5891              	.L609:
 5892              		.loc 1 2382 0
 5893 0224 9DF81B30 		ldrb	r3, [sp, #27]	@ zero_extendqisi2
 5894              		.loc 1 2383 0
 5895 0228 2846     		mov	r0, r5
 5896              		.loc 1 2382 0
 5897 022a 9B07     		lsls	r3, r3, #30
 5898 022c 45BF     		ittet	mi
 5899 022e 0C34     		addmi	r4, r4, #12
 5900              	.LVL794:
 5901 0230 0D23     		movmi	r3, #13
 5902 0232 0124     		movpl	r4, #1
 5903 0234 B4FBF3F4 		udivmi	r4, r4, r3
 5904 0238 48BF     		it	mi
 5905 023a 0134     		addmi	r4, r4, #1
 5906              	.LVL795:
 5907              		.loc 1 2383 0
 5908 023c 2146     		mov	r1, r4
 5909 023e FFF7FEFF 		bl	dir_alloc
 5910              	.LVL796:
 5911              		.loc 1 2384 0
 5912 0242 8246     		mov	r10, r0
 5913 0244 0028     		cmp	r0, #0
 5914 0246 7FF474AF 		bne	.L642
 5915              	.LVL797:
 5916              		.loc 1 2384 0 is_stmt 0 discriminator 1
 5917 024a 013C     		subs	r4, r4, #1
 5918              	.LVL798:
 5919 024c 58D0     		beq	.L626
 5920              		.loc 1 2385 0 is_stmt 1
 5921 024e 296B     		ldr	r1, [r5, #48]
 5922 0250 2846     		mov	r0, r5
 5923              	.LVL799:
 5924 0252 A1EB4411 		sub	r1, r1, r4, lsl #5
 5925 0256 FFF7FEFF 		bl	dir_sdi
 5926              	.LVL800:
 5927              		.loc 1 2386 0
 5928 025a 8246     		mov	r10, r0
ARM GAS  /tmp/ccO9HEUj.s 			page 105


 5929 025c 0028     		cmp	r0, #0
 5930 025e 7FF468AF 		bne	.L642
 5931              		.loc 1 2387 0
 5932 0262 3846     		mov	r0, r7
 5933              	.LVL801:
 5934              	.LBB370:
 5935              	.LBB371:
 5936              		.loc 1 1806 0
 5937 0264 4FF6FF79 		movw	r9, #65535
 5938              	.LBE371:
 5939              	.LBE370:
 5940              		.loc 1 2387 0
 5941 0268 FFF7FEFF 		bl	sum_sfn
 5942              	.LVL802:
 5943 026c 8046     		mov	r8, r0
 5944              	.LVL803:
 5945              	.L632:
 5946              		.loc 1 2389 0
 5947 026e A96B     		ldr	r1, [r5, #56]
 5948 0270 3046     		mov	r0, r6
 5949 0272 FFF7FEFF 		bl	move_window
 5950              	.LVL804:
 5951 0276 8246     		mov	r10, r0
 5952              	.LVL805:
 5953              		.loc 1 2390 0
 5954 0278 0028     		cmp	r0, #0
 5955 027a 7FF45AAF 		bne	.L642
 5956              		.loc 1 2391 0
 5957 027e EB6B     		ldr	r3, [r5, #60]
 5958              	.LBB382:
 5959              	.LBB380:
 5960              		.loc 1 1799 0
 5961 0280 0F22     		movs	r2, #15
 5962              	.LBE380:
 5963              	.LBE382:
 5964              		.loc 1 2391 0
 5965 0282 E1B2     		uxtb	r1, r4
 5966 0284 D6F80CC0 		ldr	ip, [r6, #12]
 5967              	.LVL806:
 5968              	.LBB383:
 5969              	.LBB381:
 5970              		.loc 1 1803 0
 5971 0288 4FF00D0E 		mov	lr, #13
 5972              		.loc 1 1799 0
 5973 028c DA72     		strb	r2, [r3, #11]
 5974              		.loc 1 1803 0
 5975 028e 4A1E     		subs	r2, r1, #1
 5976              		.loc 1 1798 0
 5977 0290 83F80D80 		strb	r8, [r3, #13]
 5978              		.loc 1 1800 0
 5979 0294 1873     		strb	r0, [r3, #12]
 5980              	.LVL807:
 5981              		.loc 1 1803 0
 5982 0296 0EFB02F2 		mul	r2, lr, r2
 5983              		.loc 1 1804 0
 5984 029a 8646     		mov	lr, r0
 5985              	.LBB372:
ARM GAS  /tmp/ccO9HEUj.s 			page 106


 5986              	.LBB373:
 5987              		.loc 1 591 0
 5988 029c 9876     		strb	r0, [r3, #26]
 5989              	.LVL808:
 5990              		.loc 1 592 0
 5991 029e D876     		strb	r0, [r3, #27]
 5992              	.LVL809:
 5993              	.LBE373:
 5994              	.LBE372:
 5995              		.loc 1 1803 0
 5996 02a0 0192     		str	r2, [sp, #4]
 5997              	.LVL810:
 5998              	.L629:
 5999              		.loc 1 1806 0
 6000 02a2 4845     		cmp	r0, r9
 6001              	.LVL811:
 6002 02a4 1FBF     		itttt	ne
 6003 02a6 019A     		ldrne	r2, [sp, #4]
 6004 02a8 3CF81200 		ldrhne	r0, [ip, r2, lsl #1]
 6005 02ac 0132     		addne	r2, r2, #1
 6006 02ae 0192     		strne	r2, [sp, #4]
 6007              	.LVL812:
 6008              		.loc 1 1807 0
 6009 02b0 214A     		ldr	r2, .L674
 6010 02b2 1EF802A0 		ldrb	r10, [lr, r2]	@ zero_extendqisi2
 6011              		.loc 1 1809 0
 6012 02b6 0EF1010E 		add	lr, lr, #1
 6013              	.LVL813:
 6014              	.LBB374:
 6015              	.LBB375:
 6016              		.loc 1 591 0
 6017 02ba 03F80A00 		strb	r0, [r3, r10]
 6018              	.LBE375:
 6019              	.LBE374:
 6020              		.loc 1 1807 0
 6021 02be 03EB0A0B 		add	fp, r3, r10
 6022              	.LVL814:
 6023              	.LBB378:
 6024              	.LBB376:
 6025              		.loc 1 591 0
 6026 02c2 4FEA102A 		lsr	r10, r0, #8
 6027              	.LBE376:
 6028              	.LBE378:
 6029              		.loc 1 1808 0
 6030 02c6 0028     		cmp	r0, #0
 6031 02c8 08BF     		it	eq
 6032 02ca 4846     		moveq	r0, r9
 6033              		.loc 1 1809 0
 6034 02cc BEF10D0F 		cmp	lr, #13
 6035              	.LBB379:
 6036              	.LBB377:
 6037              		.loc 1 592 0
 6038 02d0 8BF801A0 		strb	r10, [fp, #1]
 6039              	.LVL815:
 6040              	.LBE377:
 6041              	.LBE379:
 6042              		.loc 1 1809 0
ARM GAS  /tmp/ccO9HEUj.s 			page 107


 6043 02d4 E5D1     		bne	.L629
 6044              		.loc 1 1810 0
 6045 02d6 4845     		cmp	r0, r9
 6046 02d8 03D0     		beq	.L630
 6047 02da 019A     		ldr	r2, [sp, #4]
 6048 02dc 3CF81220 		ldrh	r2, [ip, r2, lsl #1]
 6049 02e0 0AB9     		cbnz	r2, .L631
 6050              	.L630:
 6051 02e2 41F04001 		orr	r1, r1, #64
 6052              	.LVL816:
 6053              	.L631:
 6054              		.loc 1 1811 0
 6055 02e6 1970     		strb	r1, [r3]
 6056              	.LVL817:
 6057              	.LBE381:
 6058              	.LBE383:
 6059              		.loc 1 2392 0
 6060 02e8 0123     		movs	r3, #1
 6061              		.loc 1 2393 0
 6062 02ea 0021     		movs	r1, #0
 6063 02ec 2846     		mov	r0, r5
 6064              		.loc 1 2392 0
 6065 02ee F370     		strb	r3, [r6, #3]
 6066              		.loc 1 2393 0
 6067 02f0 FFF7FEFF 		bl	dir_next
 6068              	.LVL818:
 6069              		.loc 1 2394 0
 6070 02f4 8246     		mov	r10, r0
 6071 02f6 0028     		cmp	r0, #0
 6072 02f8 7FF41BAF 		bne	.L642
 6073              	.LVL819:
 6074              		.loc 1 2394 0 is_stmt 0 discriminator 1
 6075 02fc 013C     		subs	r4, r4, #1
 6076              	.LVL820:
 6077 02fe B6D1     		bne	.L632
 6078              	.LVL821:
 6079              	.L626:
 6080              		.loc 1 2405 0 is_stmt 1
 6081 0300 A96B     		ldr	r1, [r5, #56]
 6082 0302 3046     		mov	r0, r6
 6083 0304 FFF7FEFF 		bl	move_window
 6084              	.LVL822:
 6085              		.loc 1 2406 0
 6086 0308 8246     		mov	r10, r0
 6087 030a 0028     		cmp	r0, #0
 6088 030c 7FF411AF 		bne	.L642
 6089              		.loc 1 2407 0
 6090 0310 2022     		movs	r2, #32
 6091 0312 5146     		mov	r1, r10
 6092 0314 E86B     		ldr	r0, [r5, #60]
 6093              	.LVL823:
 6094 0316 FFF7FEFF 		bl	mem_set
 6095              	.LVL824:
 6096              	.LBB384:
 6097              	.LBB385:
 6098 031a 0B22     		movs	r2, #11
 6099 031c 3946     		mov	r1, r7
ARM GAS  /tmp/ccO9HEUj.s 			page 108


 6100 031e E86B     		ldr	r0, [r5, #60]
 6101 0320 FFF7FEFF 		bl	mem_cpy.part.0
 6102              	.LVL825:
 6103              	.LBE385:
 6104              	.LBE384:
 6105              		.loc 1 2410 0
 6106 0324 95F84B30 		ldrb	r3, [r5, #75]	@ zero_extendqisi2
 6107 0328 EA6B     		ldr	r2, [r5, #60]
 6108 032a 03F01803 		and	r3, r3, #24
 6109 032e 1373     		strb	r3, [r2, #12]
 6110              		.loc 1 2412 0
 6111 0330 0123     		movs	r3, #1
 6112 0332 F370     		strb	r3, [r6, #3]
 6113 0334 FDE6     		b	.L642
 6114              	.L675:
 6115 0336 00BF     		.align	2
 6116              	.L674:
 6117 0338 00000000 		.word	.LANCHOR2
 6118 033c 21100100 		.word	69665
 6119              		.cfi_endproc
 6120              	.LFE345:
 6121              		.size	dir_register, .-dir_register
 6122              		.section	.text.follow_path,"ax",%progbits
 6123              		.align	1
 6124              		.syntax unified
 6125              		.thumb
 6126              		.thumb_func
 6127              		.fpu fpv4-sp-d16
 6128              		.type	follow_path, %function
 6129              	follow_path:
 6130              	.LFB349:
 6131              		.loc 1 2864 0
 6132              		.cfi_startproc
 6133              		@ args = 0, pretend = 0, frame = 96
 6134              		@ frame_needed = 0, uses_anonymous_args = 0
 6135              	.LVL826:
 6136 0000 2DE9F04F 		push	{r4, r5, r6, r7, r8, r9, r10, fp, lr}
 6137              		.cfi_def_cfa_offset 36
 6138              		.cfi_offset 4, -36
 6139              		.cfi_offset 5, -32
 6140              		.cfi_offset 6, -28
 6141              		.cfi_offset 7, -24
 6142              		.cfi_offset 8, -20
 6143              		.cfi_offset 9, -16
 6144              		.cfi_offset 10, -12
 6145              		.cfi_offset 11, -8
 6146              		.cfi_offset 14, -4
 6147              		.loc 1 2871 0
 6148 0004 0B78     		ldrb	r3, [r1]	@ zero_extendqisi2
 6149              		.loc 1 2864 0
 6150 0006 99B0     		sub	sp, sp, #100
 6151              		.cfi_def_cfa_offset 136
 6152              		.loc 1 2864 0
 6153 0008 0546     		mov	r5, r0
 6154 000a 8946     		mov	r9, r1
 6155              		.loc 1 2871 0
 6156 000c 2F2B     		cmp	r3, #47
ARM GAS  /tmp/ccO9HEUj.s 			page 109


 6157              		.loc 1 2867 0
 6158 000e D0F800B0 		ldr	fp, [r0]
 6159              	.LVL827:
 6160              		.loc 1 2871 0
 6161 0012 01D0     		beq	.L677
 6162              		.loc 1 2871 0 is_stmt 0 discriminator 1
 6163 0014 5C2B     		cmp	r3, #92
 6164 0016 09D1     		bne	.L678
 6165              	.L677:
 6166 0018 4A46     		mov	r2, r9
 6167              	.LVL828:
 6168              	.L679:
 6169              		.loc 1 2876 0 is_stmt 1 discriminator 1
 6170 001a 1378     		ldrb	r3, [r2]	@ zero_extendqisi2
 6171 001c 9146     		mov	r9, r2
 6172              	.LVL829:
 6173 001e 0132     		adds	r2, r2, #1
 6174              	.LVL830:
 6175 0020 2F2B     		cmp	r3, #47
 6176 0022 FAD0     		beq	.L679
 6177              		.loc 1 2876 0 is_stmt 0 discriminator 3
 6178 0024 5C2B     		cmp	r3, #92
 6179 0026 F8D0     		beq	.L679
 6180              		.loc 1 2877 0 is_stmt 1
 6181 0028 0023     		movs	r3, #0
 6182 002a 01E0     		b	.L827
 6183              	.LVL831:
 6184              	.L678:
 6185              		.loc 1 2872 0
 6186 002c DBF81C30 		ldr	r3, [fp, #28]
 6187              	.LVL832:
 6188              	.L827:
 6189              		.loc 1 2877 0
 6190 0030 AB60     		str	r3, [r5, #8]
 6191              		.loc 1 2880 0
 6192 0032 0023     		movs	r3, #0
 6193 0034 EB61     		str	r3, [r5, #28]
 6194              		.loc 1 2882 0
 6195 0036 9BF80030 		ldrb	r3, [fp]	@ zero_extendqisi2
 6196 003a 042B     		cmp	r3, #4
 6197 003c 1DD1     		bne	.L682
 6198              		.loc 1 2882 0 is_stmt 0 discriminator 1
 6199 003e AB68     		ldr	r3, [r5, #8]
 6200 0040 DBB1     		cbz	r3, .L682
 6201              	.LBB393:
 6202              		.loc 1 2885 0 is_stmt 1
 6203 0042 DBF82030 		ldr	r3, [fp, #32]
 6204              		.loc 1 2888 0
 6205 0046 2946     		mov	r1, r5
 6206 0048 04A8     		add	r0, sp, #16
 6207              	.LVL833:
 6208              		.loc 1 2885 0
 6209 004a 2B62     		str	r3, [r5, #32]
 6210              		.loc 1 2886 0
 6211 004c DBF82430 		ldr	r3, [fp, #36]
 6212 0050 6B62     		str	r3, [r5, #36]
 6213              		.loc 1 2887 0
ARM GAS  /tmp/ccO9HEUj.s 			page 110


 6214 0052 DBF82830 		ldr	r3, [fp, #40]
 6215 0056 AB62     		str	r3, [r5, #40]
 6216              		.loc 1 2888 0
 6217 0058 FFF7FEFF 		bl	load_obj_xdir
 6218              	.LVL834:
 6219 005c 0146     		mov	r1, r0
 6220              	.LVL835:
 6221              		.loc 1 2889 0
 6222 005e B8B9     		cbnz	r0, .L752
 6223              		.loc 1 2890 0
 6224 0060 DBF81040 		ldr	r4, [fp, #16]
 6225 0064 04F13800 		add	r0, r4, #56
 6226              	.LVL836:
 6227 0068 FFF7FEFF 		bl	ld_dword
 6228              	.LVL837:
 6229 006c 2861     		str	r0, [r5, #16]
 6230 006e 6961     		str	r1, [r5, #20]
 6231              		.loc 1 2891 0
 6232 0070 94F82130 		ldrb	r3, [r4, #33]	@ zero_extendqisi2
 6233 0074 03F00203 		and	r3, r3, #2
 6234 0078 EB71     		strb	r3, [r5, #7]
 6235              	.L682:
 6236              	.LBE393:
 6237              		.loc 1 2896 0
 6238 007a 99F80030 		ldrb	r3, [r9]	@ zero_extendqisi2
 6239 007e 1F2B     		cmp	r3, #31
 6240 0080 69D8     		bhi	.L686
 6241              		.loc 1 2897 0
 6242 0082 8023     		movs	r3, #128
 6243              		.loc 1 2898 0
 6244 0084 0021     		movs	r1, #0
 6245 0086 2846     		mov	r0, r5
 6246              		.loc 1 2897 0
 6247 0088 85F84B30 		strb	r3, [r5, #75]
 6248              		.loc 1 2898 0
 6249 008c FFF7FEFF 		bl	dir_sdi
 6250              	.LVL838:
 6251              	.L752:
 6252              		.loc 1 2940 0
 6253 0090 19B0     		add	sp, sp, #100
 6254              		.cfi_remember_state
 6255              		.cfi_def_cfa_offset 36
 6256              		@ sp needed
 6257 0092 BDE8F08F 		pop	{r4, r5, r6, r7, r8, r9, r10, fp, pc}
 6258              	.LVL839:
 6259              	.L688:
 6260              		.cfi_restore_state
 6261              	.LBB394:
 6262              	.LBB395:
 6263              		.loc 1 2671 0
 6264 0096 5C28     		cmp	r0, #92
 6265 0098 6CD0     		beq	.L690
 6266              		.loc 1 2675 0
 6267 009a B4F5807F 		cmp	r4, #256
 6268 009e 0CD0     		beq	.L693
 6269              	.LVL840:
 6270              		.loc 1 2683 0
ARM GAS  /tmp/ccO9HEUj.s 			page 111


 6271 00a0 40F25231 		movw	r1, #850
 6272 00a4 FFF7FEFF 		bl	ff_oem2uni
 6273              	.LVL841:
 6274              		.loc 1 2684 0
 6275 00a8 38B1     		cbz	r0, .L693
 6276              		.loc 1 2686 0
 6277 00aa 7F28     		cmp	r0, #127
 6278 00ac 07D8     		bhi	.L694
 6279 00ae B64A     		ldr	r2, .L829
 6280              	.L695:
 6281              	.LVL842:
 6282              	.LBB396:
 6283              	.LBB397:
 6284              		.loc 1 672 0
 6285 00b0 12F8013F 		ldrb	r3, [r2, #1]!	@ zero_extendqisi2
 6286              	.LVL843:
 6287 00b4 1BB1     		cbz	r3, .L694
 6288 00b6 9842     		cmp	r0, r3
 6289 00b8 FAD1     		bne	.L695
 6290              	.LVL844:
 6291              	.L693:
 6292              	.LBE397:
 6293              	.LBE396:
 6294              	.LBE395:
 6295              	.LBE394:
 6296              		.loc 1 2913 0
 6297 00ba 0620     		movs	r0, #6
 6298 00bc E8E7     		b	.L752
 6299              	.LVL845:
 6300              	.L694:
 6301              	.LBB403:
 6302              	.LBB400:
 6303              		.loc 1 2687 0
 6304 00be 27F8020F 		strh	r0, [r7, #2]!	@ movhi
 6305 00c2 2646     		mov	r6, r4
 6306 00c4 4FE0     		b	.L696
 6307              	.LVL846:
 6308              	.L698:
 6309              		.loc 1 2692 0
 6310 00c6 022E     		cmp	r6, #2
 6311 00c8 69D1     		bne	.L701
 6312              		.loc 1 2693 0
 6313 00ca BAF80230 		ldrh	r3, [r10, #2]
 6314 00ce 2E2B     		cmp	r3, #46
 6315 00d0 65D1     		bne	.L701
 6316 00d2 60E0     		b	.L828
 6317              	.L699:
 6318              		.loc 1 2694 0
 6319 00d4 0023     		movs	r3, #0
 6320 00d6 05F14002 		add	r2, r5, #64
 6321 00da 2AF81630 		strh	r3, [r10, r6, lsl #1]	@ movhi
 6322              	.LVL847:
 6323              	.L703:
 6324              		.loc 1 2696 0
 6325 00de 9E42     		cmp	r6, r3
 6326 00e0 94BF     		ite	ls
 6327 00e2 2021     		movls	r1, #32
ARM GAS  /tmp/ccO9HEUj.s 			page 112


 6328 00e4 2E21     		movhi	r1, #46
 6329              		.loc 1 2695 0
 6330 00e6 0133     		adds	r3, r3, #1
 6331              	.LVL848:
 6332 00e8 0B2B     		cmp	r3, #11
 6333              		.loc 1 2696 0
 6334 00ea 02F8011B 		strb	r1, [r2], #1
 6335              		.loc 1 2695 0
 6336 00ee F6D1     		bne	.L703
 6337              		.loc 1 2697 0
 6338 00f0 44F02004 		orr	r4, r4, #32
 6339              	.LVL849:
 6340              	.L737:
 6341              		.loc 1 2783 0
 6342 00f4 85F84B40 		strb	r4, [r5, #75]
 6343              	.LVL850:
 6344              	.LBE400:
 6345              	.LBE403:
 6346              		.loc 1 2904 0
 6347 00f8 2846     		mov	r0, r5
 6348 00fa FFF7FEFF 		bl	dir_find
 6349              	.LVL851:
 6350              		.loc 1 2905 0
 6351 00fe 95F84B30 		ldrb	r3, [r5, #75]	@ zero_extendqisi2
 6352              	.LVL852:
 6353              		.loc 1 2906 0
 6354 0102 0028     		cmp	r0, #0
 6355 0104 40F0E280 		bne	.L742
 6356              		.loc 1 2918 0
 6357 0108 5A07     		lsls	r2, r3, #29
 6358 010a C1D4     		bmi	.L752
 6359              		.loc 1 2920 0
 6360 010c AB79     		ldrb	r3, [r5, #6]	@ zero_extendqisi2
 6361              	.LVL853:
 6362 010e DB06     		lsls	r3, r3, #27
 6363 0110 40F1FA80 		bpl	.L751
 6364              		.loc 1 2924 0
 6365 0114 9BF80000 		ldrb	r0, [fp]	@ zero_extendqisi2
 6366              	.LVL854:
 6367 0118 0428     		cmp	r0, #4
 6368 011a 40F0EB80 		bne	.L741
 6369              		.loc 1 2925 0
 6370 011e AB68     		ldr	r3, [r5, #8]
 6371              		.loc 1 2926 0
 6372 0120 EA79     		ldrb	r2, [r5, #7]	@ zero_extendqisi2
 6373              		.loc 1 2925 0
 6374 0122 2B62     		str	r3, [r5, #32]
 6375              		.loc 1 2926 0
 6376 0124 2B69     		ldr	r3, [r5, #16]
 6377              		.loc 1 2928 0
 6378 0126 DBF81010 		ldr	r1, [fp, #16]
 6379              		.loc 1 2926 0
 6380 012a 23F0FF03 		bic	r3, r3, #255
 6381              		.loc 1 2928 0
 6382 012e 01F13400 		add	r0, r1, #52
 6383              		.loc 1 2926 0
 6384 0132 1343     		orrs	r3, r3, r2
ARM GAS  /tmp/ccO9HEUj.s 			page 113


 6385 0134 6B62     		str	r3, [r5, #36]
 6386              		.loc 1 2927 0
 6387 0136 EB6C     		ldr	r3, [r5, #76]
 6388 0138 AB62     		str	r3, [r5, #40]
 6389              		.loc 1 2928 0
 6390 013a FFF7FEFF 		bl	ld_dword
 6391              	.LVL855:
 6392 013e A860     		str	r0, [r5, #8]
 6393              		.loc 1 2929 0
 6394 0140 91F82130 		ldrb	r3, [r1, #33]	@ zero_extendqisi2
 6395              		.loc 1 2930 0
 6396 0144 01F13800 		add	r0, r1, #56
 6397              		.loc 1 2929 0
 6398 0148 03F00203 		and	r3, r3, #2
 6399 014c EB71     		strb	r3, [r5, #7]
 6400              		.loc 1 2930 0
 6401 014e FFF7FEFF 		bl	ld_qword
 6402              	.LVL856:
 6403 0152 C5E90401 		strd	r0, [r5, #16]
 6404              	.L686:
 6405              	.LVL857:
 6406              	.LBB404:
 6407              	.LBB401:
 6408              		.loc 1 2667 0
 6409 0156 2B68     		ldr	r3, [r5]
 6410 0158 09F1FF38 		add	r8, r9, #-1
 6411 015c 0026     		movs	r6, #0
 6412 015e D3F80CA0 		ldr	r10, [r3, #12]
 6413              	.LVL858:
 6414 0162 AAF10207 		sub	r7, r10, #2
 6415              	.LVL859:
 6416              	.L696:
 6417              		.loc 1 2669 0
 6418 0166 18F8010F 		ldrb	r0, [r8, #1]!	@ zero_extendqisi2
 6419 016a 741C     		adds	r4, r6, #1
 6420              	.LVL860:
 6421              		.loc 1 2670 0
 6422 016c 1F28     		cmp	r0, #31
 6423 016e 0BD9     		bls	.L687
 6424              		.loc 1 2671 0
 6425 0170 2F28     		cmp	r0, #47
 6426 0172 90D1     		bne	.L688
 6427              	.L690:
 6428 0174 09EB0403 		add	r3, r9, r4
 6429              	.L689:
 6430 0178 A3EB0904 		sub	r4, r3, r9
 6431              	.LVL861:
 6432              		.loc 1 2672 0
 6433 017c 13F8012B 		ldrb	r2, [r3], #1	@ zero_extendqisi2
 6434 0180 2F2A     		cmp	r2, #47
 6435 0182 F9D0     		beq	.L689
 6436 0184 5C2A     		cmp	r2, #92
 6437 0186 F7D0     		beq	.L689
 6438              	.L687:
 6439              		.loc 1 2690 0
 6440 0188 1F28     		cmp	r0, #31
 6441              		.loc 1 2689 0
ARM GAS  /tmp/ccO9HEUj.s 			page 114


 6442 018a A144     		add	r9, r9, r4
 6443              	.LVL862:
 6444              		.loc 1 2690 0
 6445 018c 8CBF     		ite	hi
 6446 018e 0024     		movhi	r4, #0
 6447              	.LVL863:
 6448 0190 0424     		movls	r4, #4
 6449              	.LVL864:
 6450              		.loc 1 2692 0
 6451 0192 012E     		cmp	r6, #1
 6452 0194 97D1     		bne	.L698
 6453              	.L828:
 6454 0196 BAF80030 		ldrh	r3, [r10]
 6455 019a 2E2B     		cmp	r3, #46
 6456 019c 9AD0     		beq	.L699
 6457              	.L701:
 6458 019e 0AEB4603 		add	r3, r10, r6, lsl #1
 6459              	.LVL865:
 6460              	.L700:
 6461              		.loc 1 2701 0
 6462 01a2 9EBB     		cbnz	r6, .L707
 6463              	.L706:
 6464              		.loc 1 2706 0
 6465 01a4 0027     		movs	r7, #0
 6466 01a6 0AEB4603 		add	r3, r10, r6, lsl #1
 6467 01aa 2AF81670 		strh	r7, [r10, r6, lsl #1]	@ movhi
 6468              		.loc 1 2707 0
 6469 01ae 002E     		cmp	r6, #0
 6470 01b0 83D0     		beq	.L693
 6471              		.loc 1 2710 0
 6472 01b2 2021     		movs	r1, #32
 6473 01b4 0B22     		movs	r2, #11
 6474 01b6 05F14000 		add	r0, r5, #64
 6475 01ba FFF7FEFF 		bl	mem_set
 6476              	.LVL866:
 6477              		.loc 1 2711 0
 6478 01be 3946     		mov	r1, r7
 6479              	.LVL867:
 6480              	.L708:
 6481 01c0 3AF81120 		ldrh	r2, [r10, r1, lsl #1]
 6482 01c4 202A     		cmp	r2, #32
 6483 01c6 29D0     		beq	.L709
 6484 01c8 2E2A     		cmp	r2, #46
 6485 01ca 27D0     		beq	.L709
 6486              		.loc 1 2712 0
 6487 01cc 11B1     		cbz	r1, .L711
 6488 01ce 44F00304 		orr	r4, r4, #3
 6489              	.LVL868:
 6490 01d2 E4B2     		uxtb	r4, r4
 6491              	.LVL869:
 6492              	.L711:
 6493              		.loc 1 2713 0
 6494 01d4 33F8022D 		ldrh	r2, [r3, #-2]!
 6495 01d8 2E2A     		cmp	r2, #46
 6496 01da 01D0     		beq	.L714
 6497              	.LVL870:
 6498 01dc 013E     		subs	r6, r6, #1
ARM GAS  /tmp/ccO9HEUj.s 			page 115


 6499              	.LVL871:
 6500 01de F9D1     		bne	.L711
 6501              	.L714:
 6502              		.loc 1 2754 0
 6503 01e0 4FF00008 		mov	r8, #0
 6504 01e4 0823     		movs	r3, #8
 6505 01e6 4746     		mov	r7, r8
 6506              	.LVL872:
 6507              	.L712:
 6508              		.loc 1 2717 0
 6509 01e8 3AF81100 		ldrh	r0, [r10, r1, lsl #1]
 6510 01ec 4A1C     		adds	r2, r1, #1
 6511              	.LVL873:
 6512              		.loc 1 2718 0
 6513 01ee 0028     		cmp	r0, #0
 6514 01f0 00F09480 		beq	.L715
 6515              		.loc 1 2719 0
 6516 01f4 2028     		cmp	r0, #32
 6517 01f6 04D0     		beq	.L716
 6518 01f8 2E28     		cmp	r0, #46
 6519 01fa 11D1     		bne	.L717
 6520 01fc 9642     		cmp	r6, r2
 6521 01fe 00F08580 		beq	.L718
 6522              	.L716:
 6523              		.loc 1 2720 0
 6524 0202 44F00304 		orr	r4, r4, #3
 6525              	.LVL874:
 6526 0206 E4B2     		uxtb	r4, r4
 6527              	.LVL875:
 6528              	.L719:
 6529              		.loc 1 2754 0
 6530 0208 1146     		mov	r1, r2
 6531 020a EDE7     		b	.L712
 6532              	.LVL876:
 6533              	.L707:
 6534              		.loc 1 2702 0
 6535 020c 33F8022D 		ldrh	r2, [r3, #-2]!
 6536              	.LVL877:
 6537              		.loc 1 2703 0
 6538 0210 202A     		cmp	r2, #32
 6539 0212 01D0     		beq	.L705
 6540 0214 2E2A     		cmp	r2, #46
 6541 0216 C5D1     		bne	.L706
 6542              	.L705:
 6543              		.loc 1 2704 0
 6544 0218 013E     		subs	r6, r6, #1
 6545              	.LVL878:
 6546 021a C2E7     		b	.L700
 6547              	.LVL879:
 6548              	.L709:
 6549              		.loc 1 2711 0
 6550 021c 0131     		adds	r1, r1, #1
 6551              	.LVL880:
 6552 021e CFE7     		b	.L708
 6553              	.LVL881:
 6554              	.L717:
 6555              		.loc 1 2724 0
ARM GAS  /tmp/ccO9HEUj.s 			page 116


 6556 0220 9845     		cmp	r8, r3
 6557 0222 75D2     		bcs	.L720
 6558 0224 9642     		cmp	r6, r2
 6559 0226 0FD1     		bne	.L824
 6560              	.L721:
 6561              		.loc 1 2725 0
 6562 0228 0B2B     		cmp	r3, #11
 6563 022a 06D1     		bne	.L724
 6564 022c 72E0     		b	.L744
 6565              	.L723:
 6566              		.loc 1 2729 0
 6567 022e 9642     		cmp	r6, r2
 6568 0230 03D0     		beq	.L724
 6569 0232 44F00304 		orr	r4, r4, #3
 6570              	.LVL882:
 6571 0236 E4B2     		uxtb	r4, r4
 6572              	.LVL883:
 6573              		.loc 1 2730 0
 6574 0238 70D3     		bcc	.L715
 6575              	.L724:
 6576              	.LVL884:
 6577              		.loc 1 2732 0
 6578 023a BF00     		lsls	r7, r7, #2
 6579              	.LVL885:
 6580 023c 3246     		mov	r2, r6
 6581              		.loc 1 2731 0
 6582 023e 0B23     		movs	r3, #11
 6583 0240 4FF00808 		mov	r8, #8
 6584              		.loc 1 2732 0
 6585 0244 FFB2     		uxtb	r7, r7
 6586              	.LVL886:
 6587 0246 DFE7     		b	.L719
 6588              	.LVL887:
 6589              	.L824:
 6590              		.loc 1 2735 0
 6591 0248 7F28     		cmp	r0, #127
 6592 024a 3AD9     		bls	.L749
 6593              		.loc 1 2736 0
 6594 024c 44F00201 		orr	r1, r4, #2
 6595 0250 0393     		str	r3, [sp, #12]
 6596 0252 0292     		str	r2, [sp, #8]
 6597 0254 CBB2     		uxtb	r3, r1
 6598              	.LVL888:
 6599              		.loc 1 2745 0
 6600 0256 40F25231 		movw	r1, #850
 6601              		.loc 1 2736 0
 6602 025a 0193     		str	r3, [sp, #4]
 6603              	.LVL889:
 6604              		.loc 1 2745 0
 6605 025c FFF7FEFF 		bl	ff_uni2oem
 6606              	.LVL890:
 6607              		.loc 1 2746 0
 6608 0260 10F0800F 		tst	r0, #128
 6609 0264 029A     		ldr	r2, [sp, #8]
 6610 0266 039B     		ldr	r3, [sp, #12]
 6611 0268 12D0     		beq	.L726
 6612 026a 00F07F00 		and	r0, r0, #127
ARM GAS  /tmp/ccO9HEUj.s 			page 117


 6613              	.LVL891:
 6614 026e 4749     		ldr	r1, .L829+4
 6615 0270 085C     		ldrb	r0, [r1, r0]	@ zero_extendqisi2
 6616              	.LVL892:
 6617              	.L727:
 6618              		.loc 1 2759 0
 6619 0272 30B1     		cbz	r0, .L730
 6620              	.LVL893:
 6621              	.L725:
 6622 0274 464C     		ldr	r4, .L829+8
 6623              	.L732:
 6624              	.LVL894:
 6625              	.LBB398:
 6626              	.LBB399:
 6627              		.loc 1 672 0
 6628 0276 14F8011F 		ldrb	r1, [r4, #1]!	@ zero_extendqisi2
 6629              	.LVL895:
 6630 027a 0029     		cmp	r1, #0
 6631 027c 74D0     		beq	.L731
 6632 027e 8142     		cmp	r1, r0
 6633 0280 F9D1     		bne	.L732
 6634              	.LVL896:
 6635              	.L730:
 6636              	.LBE399:
 6637              	.LBE398:
 6638              		.loc 1 2760 0
 6639 0282 0199     		ldr	r1, [sp, #4]
 6640 0284 5F20     		movs	r0, #95
 6641 0286 41F00301 		orr	r1, r1, #3
 6642 028a C9B2     		uxtb	r1, r1
 6643 028c 0191     		str	r1, [sp, #4]
 6644              	.LVL897:
 6645 028e 10E0     		b	.L729
 6646              	.LVL898:
 6647              	.L726:
 6648              		.loc 1 2752 0
 6649 0290 FF28     		cmp	r0, #255
 6650 0292 EED9     		bls	.L727
 6651              		.loc 1 2753 0
 6652 0294 591E     		subs	r1, r3, #1
 6653 0296 8845     		cmp	r8, r1
 6654 0298 04D3     		bcc	.L728
 6655              		.loc 1 2754 0
 6656 029a 44F00304 		orr	r4, r4, #3
 6657 029e 9846     		mov	r8, r3
 6658              	.LVL899:
 6659 02a0 E4B2     		uxtb	r4, r4
 6660              	.LVL900:
 6661 02a2 B1E7     		b	.L719
 6662              	.LVL901:
 6663              	.L728:
 6664              		.loc 1 2757 0
 6665 02a4 05EB0801 		add	r1, r5, r8
 6666 02a8 040A     		lsrs	r4, r0, #8
 6667 02aa 08F10108 		add	r8, r8, #1
 6668              	.LVL902:
 6669 02ae 81F84040 		strb	r4, [r1, #64]
ARM GAS  /tmp/ccO9HEUj.s 			page 118


 6670              	.LVL903:
 6671              	.L729:
 6672              		.loc 1 2771 0
 6673 02b2 05EB0801 		add	r1, r5, r8
 6674 02b6 019C     		ldr	r4, [sp, #4]
 6675 02b8 08F10108 		add	r8, r8, #1
 6676              	.LVL904:
 6677 02bc 81F84000 		strb	r0, [r1, #64]
 6678 02c0 A2E7     		b	.L719
 6679              	.LVL905:
 6680              	.L749:
 6681              		.loc 1 2735 0
 6682 02c2 0194     		str	r4, [sp, #4]
 6683 02c4 D6E7     		b	.L725
 6684              	.LVL906:
 6685              	.L745:
 6686              		.loc 1 2763 0
 6687 02c6 47F00207 		orr	r7, r7, #2
 6688              	.LVL907:
 6689 02ca F2E7     		b	.L729
 6690              	.LVL908:
 6691              	.L742:
 6692              	.LBE401:
 6693              	.LBE404:
 6694              		.loc 1 2907 0
 6695 02cc 0428     		cmp	r0, #4
 6696 02ce 7FF4DFAE 		bne	.L752
 6697              		.loc 1 2908 0
 6698 02d2 13F0200F 		tst	r3, #32
 6699 02d6 03F00403 		and	r3, r3, #4
 6700              	.LVL909:
 6701 02da 07D0     		beq	.L739
 6702              		.loc 1 2909 0
 6703 02dc 002B     		cmp	r3, #0
 6704 02de 3FF43AAF 		beq	.L686
 6705              		.loc 1 2910 0
 6706 02e2 8023     		movs	r3, #128
 6707              		.loc 1 2911 0
 6708 02e4 0020     		movs	r0, #0
 6709              	.LVL910:
 6710              		.loc 1 2910 0
 6711 02e6 85F84B30 		strb	r3, [r5, #75]
 6712              	.LVL911:
 6713 02ea D1E6     		b	.L752
 6714              	.LVL912:
 6715              	.L739:
 6716              		.loc 1 2913 0
 6717 02ec 002B     		cmp	r3, #0
 6718 02ee 08BF     		it	eq
 6719 02f0 0520     		moveq	r0, #5
 6720              	.LVL913:
 6721 02f2 CDE6     		b	.L752
 6722              	.L741:
 6723              		.loc 1 2934 0
 6724 02f4 2B6B     		ldr	r3, [r5, #48]
 6725 02f6 0BF14801 		add	r1, fp, #72
 6726 02fa C3F30803 		ubfx	r3, r3, #0, #9
ARM GAS  /tmp/ccO9HEUj.s 			page 119


 6727 02fe 1944     		add	r1, r1, r3
 6728 0300 FFF7FEFF 		bl	ld_clust.isra.3
 6729              	.LVL914:
 6730 0304 A860     		str	r0, [r5, #8]
 6731 0306 26E7     		b	.L686
 6732              	.LVL915:
 6733              	.L751:
 6734              		.loc 1 2913 0
 6735 0308 0520     		movs	r0, #5
 6736              	.LVL916:
 6737 030a C1E6     		b	.L752
 6738              	.LVL917:
 6739              	.L718:
 6740              	.LBB405:
 6741              	.LBB402:
 6742              		.loc 1 2724 0
 6743 030c 9845     		cmp	r8, r3
 6744 030e 8BD3     		bcc	.L721
 6745              	.L720:
 6746              		.loc 1 2725 0
 6747 0310 0B2B     		cmp	r3, #11
 6748 0312 8CD1     		bne	.L723
 6749              	.L744:
 6750              		.loc 1 2726 0
 6751 0314 44F00304 		orr	r4, r4, #3
 6752              	.LVL918:
 6753 0318 0B23     		movs	r3, #11
 6754              	.LVL919:
 6755 031a E4B2     		uxtb	r4, r4
 6756              	.LVL920:
 6757              	.L715:
 6758              		.loc 1 2774 0
 6759 031c 95F84020 		ldrb	r2, [r5, #64]	@ zero_extendqisi2
 6760              	.LVL921:
 6761 0320 E52A     		cmp	r2, #229
 6762 0322 04BF     		itt	eq
 6763 0324 0522     		moveq	r2, #5
 6764 0326 85F84020 		strbeq	r2, [r5, #64]
 6765              		.loc 1 2776 0
 6766 032a 082B     		cmp	r3, #8
 6767 032c 04BF     		itt	eq
 6768 032e BF00     		lsleq	r7, r7, #2
 6769              	.LVL922:
 6770 0330 FFB2     		uxtbeq	r7, r7
 6771              	.LVL923:
 6772 0332 07F00C03 		and	r3, r7, #12
 6773              		.loc 1 2777 0
 6774 0336 0C2B     		cmp	r3, #12
 6775 0338 03D0     		beq	.L735
 6776 033a 07F00302 		and	r2, r7, #3
 6777 033e 032A     		cmp	r2, #3
 6778 0340 02D1     		bne	.L736
 6779              	.L735:
 6780 0342 44F00204 		orr	r4, r4, #2
 6781              	.LVL924:
 6782 0346 E4B2     		uxtb	r4, r4
 6783              	.LVL925:
ARM GAS  /tmp/ccO9HEUj.s 			page 120


 6784              	.L736:
 6785              		.loc 1 2778 0
 6786 0348 A107     		lsls	r1, r4, #30
 6787              	.LVL926:
 6788 034a 3FF5D3AE 		bmi	.L737
 6789              		.loc 1 2779 0
 6790 034e 07F00307 		and	r7, r7, #3
 6791              	.LVL927:
 6792 0352 012F     		cmp	r7, #1
 6793 0354 04BF     		itt	eq
 6794 0356 44F01004 		orreq	r4, r4, #16
 6795              	.LVL928:
 6796 035a E4B2     		uxtbeq	r4, r4
 6797              	.LVL929:
 6798              		.loc 1 2780 0
 6799 035c 042B     		cmp	r3, #4
 6800 035e 04BF     		itt	eq
 6801 0360 44F00804 		orreq	r4, r4, #8
 6802              	.LVL930:
 6803 0364 E4B2     		uxtbeq	r4, r4
 6804              	.LVL931:
 6805 0366 C5E6     		b	.L737
 6806              	.LVL932:
 6807              	.L731:
 6808              		.loc 1 2762 0
 6809 0368 A0F14101 		sub	r1, r0, #65
 6810 036c 89B2     		uxth	r1, r1
 6811 036e 1929     		cmp	r1, #25
 6812 0370 A9D9     		bls	.L745
 6813              		.loc 1 2765 0
 6814 0372 A0F16101 		sub	r1, r0, #97
 6815 0376 89B2     		uxth	r1, r1
 6816 0378 1929     		cmp	r1, #25
 6817              		.loc 1 2766 0
 6818 037a 9EBF     		ittt	ls
 6819 037c 2038     		subls	r0, r0, #32
 6820              	.LVL933:
 6821 037e 47F00107 		orrls	r7, r7, #1
 6822              	.LVL934:
 6823 0382 80B2     		uxthls	r0, r0
 6824              	.LVL935:
 6825 0384 95E7     		b	.L729
 6826              	.L830:
 6827 0386 00BF     		.align	2
 6828              	.L829:
 6829 0388 FFFFFFFF 		.word	.LC3-1
 6830 038c 00000000 		.word	.LANCHOR3
 6831 0390 FFFFFFFF 		.word	.LC4-1
 6832              	.LBE402:
 6833              	.LBE405:
 6834              		.cfi_endproc
 6835              	.LFE349:
 6836              		.size	follow_path, .-follow_path
 6837              		.section	.text.f_mount,"ax",%progbits
 6838              		.align	1
 6839              		.global	f_mount
 6840              		.syntax unified
ARM GAS  /tmp/ccO9HEUj.s 			page 121


 6841              		.thumb
 6842              		.thumb_func
 6843              		.fpu fpv4-sp-d16
 6844              		.type	f_mount, %function
 6845              	f_mount:
 6846              	.LFB354:
 6847              		.loc 1 3314 0
 6848              		.cfi_startproc
 6849              		@ args = 0, pretend = 0, frame = 16
 6850              		@ frame_needed = 0, uses_anonymous_args = 0
 6851              	.LVL936:
 6852 0000 1FB5     		push	{r0, r1, r2, r3, r4, lr}
 6853              		.cfi_def_cfa_offset 24
 6854              		.cfi_offset 4, -8
 6855              		.cfi_offset 14, -4
 6856              		.loc 1 3314 0
 6857 0002 0190     		str	r0, [sp, #4]
 6858              		.loc 1 3318 0
 6859 0004 04A8     		add	r0, sp, #16
 6860              	.LVL937:
 6861              		.loc 1 3314 0
 6862 0006 0091     		str	r1, [sp]
 6863 0008 1446     		mov	r4, r2
 6864              		.loc 1 3318 0
 6865 000a 40F8041D 		str	r1, [r0, #-4]!
 6866              		.loc 1 3322 0
 6867 000e FFF7FEFF 		bl	get_ldnumber
 6868              	.LVL938:
 6869              		.loc 1 3323 0
 6870 0012 0028     		cmp	r0, #0
 6871 0014 13DB     		blt	.L835
 6872              		.loc 1 3324 0
 6873 0016 0C4B     		ldr	r3, .L843
 6874 0018 53F82020 		ldr	r2, [r3, r0, lsl #2]
 6875              	.LVL939:
 6876              		.loc 1 3326 0
 6877 001c 0AB1     		cbz	r2, .L833
 6878              		.loc 1 3333 0
 6879 001e 0021     		movs	r1, #0
 6880 0020 1170     		strb	r1, [r2]
 6881              	.L833:
 6882              		.loc 1 3336 0
 6883 0022 019A     		ldr	r2, [sp, #4]
 6884              	.LVL940:
 6885 0024 0AB1     		cbz	r2, .L834
 6886              		.loc 1 3337 0
 6887 0026 0021     		movs	r1, #0
 6888 0028 1170     		strb	r1, [r2]
 6889              	.L834:
 6890              		.loc 1 3342 0
 6891 002a 43F82020 		str	r2, [r3, r0, lsl #2]
 6892              		.loc 1 3344 0
 6893 002e 44B1     		cbz	r4, .L836
 6894              		.loc 1 3346 0
 6895 0030 0022     		movs	r2, #0
 6896 0032 01A9     		add	r1, sp, #4
 6897 0034 6846     		mov	r0, sp
ARM GAS  /tmp/ccO9HEUj.s 			page 122


 6898              	.LVL941:
 6899 0036 FFF7FEFF 		bl	find_volume
 6900              	.LVL942:
 6901              	.L832:
 6902              		.loc 1 3348 0
 6903 003a 04B0     		add	sp, sp, #16
 6904              		.cfi_remember_state
 6905              		.cfi_def_cfa_offset 8
 6906              		@ sp needed
 6907 003c 10BD     		pop	{r4, pc}
 6908              	.LVL943:
 6909              	.L835:
 6910              		.cfi_restore_state
 6911              		.loc 1 3323 0
 6912 003e 0B20     		movs	r0, #11
 6913              	.LVL944:
 6914 0040 FBE7     		b	.L832
 6915              	.LVL945:
 6916              	.L836:
 6917              		.loc 1 3344 0
 6918 0042 2046     		mov	r0, r4
 6919              	.LVL946:
 6920 0044 F9E7     		b	.L832
 6921              	.L844:
 6922 0046 00BF     		.align	2
 6923              	.L843:
 6924 0048 00000000 		.word	.LANCHOR0
 6925              		.cfi_endproc
 6926              	.LFE354:
