ARM GAS  /tmp/ccTNznmT.s 			page 1


   1              		.cpu cortex-m7
   2              		.eabi_attribute 27, 1
   3              		.eabi_attribute 28, 1
   4              		.eabi_attribute 20, 1
   5              		.eabi_attribute 21, 1
   6              		.eabi_attribute 23, 3
   7              		.eabi_attribute 24, 1
   8              		.eabi_attribute 25, 1
   9              		.eabi_attribute 26, 1
  10              		.eabi_attribute 30, 4
  11              		.eabi_attribute 34, 1
  12              		.eabi_attribute 18, 4
  13              		.file	"flash.c"
  14              		.text
  15              	.Ltext0:
  16              		.cfi_sections	.debug_frame
  17              		.section	.text.stm32_flash_wait_idle,"ax",%progbits
  18              		.align	1
  19              		.syntax unified
  20              		.thumb
  21              		.thumb_func
  22              		.fpu fpv4-sp-d16
  23              		.type	stm32_flash_wait_idle, %function
  24              	stm32_flash_wait_idle:
  25              	.LFB338:
  26              		.file 1 "../../libraries/AP_HAL_ChibiOS/hwdef/common/flash.c"
  27              		.loc 1 184 0
  28              		.cfi_startproc
  29              		@ args = 0, pretend = 0, frame = 0
  30              		@ frame_needed = 0, uses_anonymous_args = 0
  31              		@ link register save eliminated.
  32              	.LBB44:
  33              	.LBB45:
  34              		.file 2 "../../modules/ChibiOS/os/common/ext/ARM/CMSIS/Core/Include/cmsis_gcc.h"
  35              		.loc 2 879 0
  36              		.syntax unified
  37              	@ 879 "../../modules/ChibiOS/os/common/ext/ARM/CMSIS/Core/Include/cmsis_gcc.h" 1
  38 0000 BFF34F8F 		dsb 0xF
  39              	@ 0 "" 2
  40              		.thumb
  41              		.syntax unified
  42              	.LBE45:
  43              	.LBE44:
  44              		.loc 1 192 0
  45 0004 024A     		ldr	r2, .L4
  46              	.L2:
  47              		.loc 1 192 0 is_stmt 0 discriminator 1
  48 0006 D368     		ldr	r3, [r2, #12]
  49 0008 DB03     		lsls	r3, r3, #15
  50 000a FCD4     		bmi	.L2
  51              		.loc 1 196 0 is_stmt 1
  52 000c 7047     		bx	lr
  53              	.L5:
  54 000e 00BF     		.align	2
  55              	.L4:
  56 0010 003C0240 		.word	1073888256
  57              		.cfi_endproc
ARM GAS  /tmp/ccTNznmT.s 			page 2


  58              	.LFE338:
  59              		.size	stm32_flash_wait_idle, .-stm32_flash_wait_idle
  60              		.section	.text.stm32_flash_unlock,"ax",%progbits
  61              		.align	1
  62              		.syntax unified
  63              		.thumb
  64              		.thumb_func
  65              		.fpu fpv4-sp-d16
  66              		.type	stm32_flash_unlock, %function
  67              	stm32_flash_unlock:
  68              	.LFB340:
  69              		.loc 1 209 0
  70              		.cfi_startproc
  71              		@ args = 0, pretend = 0, frame = 0
  72              		@ frame_needed = 0, uses_anonymous_args = 0
  73 0000 08B5     		push	{r3, lr}
  74              		.cfi_def_cfa_offset 8
  75              		.cfi_offset 3, -8
  76              		.cfi_offset 14, -4
  77              		.loc 1 210 0
  78 0002 074B     		ldr	r3, .L10
  79 0004 1B78     		ldrb	r3, [r3]	@ zero_extendqisi2
  80 0006 53B9     		cbnz	r3, .L6
  81              	.LBB48:
  82              	.LBB49:
  83              		.loc 1 213 0
  84 0008 FFF7FEFF 		bl	stm32_flash_wait_idle
  85              	.LVL0:
  86              		.loc 1 227 0
  87 000c 054B     		ldr	r3, .L10+4
  88 000e 1A69     		ldr	r2, [r3, #16]
  89 0010 002A     		cmp	r2, #0
  90 0012 04DA     		bge	.L6
  91              		.loc 1 229 0
  92 0014 044A     		ldr	r2, .L10+8
  93 0016 5A60     		str	r2, [r3, #4]
  94              		.loc 1 230 0
  95 0018 02F18832 		add	r2, r2, #-2004318072
  96 001c 5A60     		str	r2, [r3, #4]
  97              	.L6:
  98 001e 08BD     		pop	{r3, pc}
  99              	.L11:
 100              		.align	2
 101              	.L10:
 102 0020 00000000 		.word	.LANCHOR0
 103 0024 003C0240 		.word	1073888256
 104 0028 23016745 		.word	1164378403
 105              	.LBE49:
 106              	.LBE48:
 107              		.cfi_endproc
 108              	.LFE340:
 109              		.size	stm32_flash_unlock, .-stm32_flash_unlock
 110              		.section	.text.stm32_flash_lock,"ax",%progbits
 111              		.align	1
 112              		.global	stm32_flash_lock
 113              		.syntax unified
 114              		.thumb
ARM GAS  /tmp/ccTNznmT.s 			page 3


 115              		.thumb_func
 116              		.fpu fpv4-sp-d16
 117              		.type	stm32_flash_lock, %function
 118              	stm32_flash_lock:
 119              	.LFB341:
 120              		.loc 1 241 0
 121              		.cfi_startproc
 122              		@ args = 0, pretend = 0, frame = 0
 123              		@ frame_needed = 0, uses_anonymous_args = 0
 124 0000 08B5     		push	{r3, lr}
 125              		.cfi_def_cfa_offset 8
 126              		.cfi_offset 3, -8
 127              		.cfi_offset 14, -4
 128              		.loc 1 242 0
 129 0002 054B     		ldr	r3, .L14
 130 0004 1B78     		ldrb	r3, [r3]	@ zero_extendqisi2
 131 0006 33B9     		cbnz	r3, .L12
 132              	.LBB52:
 133              	.LBB53:
 134              		.loc 1 256 0
 135 0008 FFF7FEFF 		bl	stm32_flash_wait_idle
 136              	.LVL1:
 137              		.loc 1 257 0
 138 000c 034A     		ldr	r2, .L14+4
 139 000e 1369     		ldr	r3, [r2, #16]
 140 0010 43F00043 		orr	r3, r3, #-2147483648
 141 0014 1361     		str	r3, [r2, #16]
 142              	.L12:
 143 0016 08BD     		pop	{r3, pc}
 144              	.L15:
 145              		.align	2
 146              	.L14:
 147 0018 00000000 		.word	.LANCHOR0
 148 001c 003C0240 		.word	1073888256
 149              	.LBE53:
 150              	.LBE52:
 151              		.cfi_endproc
 152              	.LFE341:
 153              		.size	stm32_flash_lock, .-stm32_flash_lock
 154              		.section	.text.stm32_flash_getpageaddr,"ax",%progbits
 155              		.align	1
 156              		.global	stm32_flash_getpageaddr
 157              		.syntax unified
 158              		.thumb
 159              		.thumb_func
 160              		.fpu fpv4-sp-d16
 161              		.type	stm32_flash_getpageaddr, %function
 162              	stm32_flash_getpageaddr:
 163              	.LFB342:
 164              		.loc 1 274 0
 165              		.cfi_startproc
 166              		@ args = 0, pretend = 0, frame = 0
 167              		@ frame_needed = 0, uses_anonymous_args = 0
 168              	.LVL2:
 169              		.loc 1 275 0
 170 0000 0B28     		cmp	r0, #11
 171              		.loc 1 274 0
ARM GAS  /tmp/ccTNznmT.s 			page 4


 172 0002 70B5     		push	{r4, r5, r6, lr}
 173              		.cfi_def_cfa_offset 16
 174              		.cfi_offset 4, -16
 175              		.cfi_offset 5, -12
 176              		.cfi_offset 6, -8
 177              		.cfi_offset 14, -4
 178              		.loc 1 275 0
 179 0004 13D8     		bhi	.L20
 180              	.LVL3:
 181              	.LBB59:
 182              	.LBB60:
 183              		.loc 1 281 0
 184 0006 0B4A     		ldr	r2, .L22
 185 0008 0B4C     		ldr	r4, .L22+4
 186 000a 1378     		ldrb	r3, [r2]	@ zero_extendqisi2
 187 000c 63B9     		cbnz	r3, .L18
 188 000e 4FF00061 		mov	r1, #134217728
 189              	.LBB61:
 190              	.LBB62:
 191              	.LBB63:
 192              		.loc 1 305 0
 193 0012 0A4E     		ldr	r6, .L22+8
 194              	.L19:
 195              	.LVL4:
 196              	.LBE63:
 197              	.LBE62:
 198              		.loc 1 286 0
 199 0014 44F82310 		str	r1, [r4, r3, lsl #2]
 200              		.loc 1 287 0
 201 0018 56F82350 		ldr	r5, [r6, r3, lsl #2]
 202 001c 0133     		adds	r3, r3, #1
 203              	.LVL5:
 204              		.loc 1 285 0
 205 001e 0C2B     		cmp	r3, #12
 206              		.loc 1 287 0
 207 0020 2944     		add	r1, r1, r5
 208              	.LVL6:
 209              		.loc 1 285 0
 210 0022 F7D1     		bne	.L19
 211              		.loc 1 289 0
 212 0024 0123     		movs	r3, #1
 213 0026 1370     		strb	r3, [r2]
 214              	.LVL7:
 215              	.L18:
 216              	.LBE61:
 217              		.loc 1 292 0
 218 0028 54F82000 		ldr	r0, [r4, r0, lsl #2]
 219              	.LVL8:
 220 002c 70BD     		pop	{r4, r5, r6, pc}
 221              	.LVL9:
 222              	.L20:
 223              	.LBE60:
 224              	.LBE59:
 225              		.loc 1 276 0
 226 002e 0020     		movs	r0, #0
 227              	.LVL10:
 228              		.loc 1 294 0
ARM GAS  /tmp/ccTNznmT.s 			page 5


 229 0030 70BD     		pop	{r4, r5, r6, pc}
 230              	.L23:
 231 0032 00BF     		.align	2
 232              	.L22:
 233 0034 00000000 		.word	.LANCHOR1
 234 0038 00000000 		.word	.LANCHOR2
 235 003c 00000000 		.word	.LANCHOR3
 236              		.cfi_endproc
 237              	.LFE342:
 238              		.size	stm32_flash_getpageaddr, .-stm32_flash_getpageaddr
 239              		.section	.text.stm32_flash_getpagesize,"ax",%progbits
 240              		.align	1
 241              		.global	stm32_flash_getpagesize
 242              		.syntax unified
 243              		.thumb
 244              		.thumb_func
 245              		.fpu fpv4-sp-d16
 246              		.type	stm32_flash_getpagesize, %function
 247              	stm32_flash_getpagesize:
 248              	.LFB343:
 249              		.loc 1 300 0
 250              		.cfi_startproc
 251              		@ args = 0, pretend = 0, frame = 0
 252              		@ frame_needed = 0, uses_anonymous_args = 0
 253              		@ link register save eliminated.
 254              	.LVL11:
 255              		.loc 1 307 0
 256 0000 014B     		ldr	r3, .L25
 257 0002 53F82000 		ldr	r0, [r3, r0, lsl #2]
 258              	.LVL12:
 259 0006 7047     		bx	lr
 260              	.L26:
 261              		.align	2
 262              	.L25:
 263 0008 00000000 		.word	.LANCHOR3
 264              		.cfi_endproc
 265              	.LFE343:
 266              		.size	stm32_flash_getpagesize, .-stm32_flash_getpagesize
 267              		.section	.text.stm32_flash_getnumpages,"ax",%progbits
 268              		.align	1
 269              		.global	stm32_flash_getnumpages
 270              		.syntax unified
 271              		.thumb
 272              		.thumb_func
 273              		.fpu fpv4-sp-d16
 274              		.type	stm32_flash_getnumpages, %function
 275              	stm32_flash_getnumpages:
 276              	.LFB344:
 277              		.loc 1 313 0
 278              		.cfi_startproc
 279              		@ args = 0, pretend = 0, frame = 0
 280              		@ frame_needed = 0, uses_anonymous_args = 0
 281              		@ link register save eliminated.
 282              		.loc 1 315 0
 283 0000 0C20     		movs	r0, #12
 284 0002 7047     		bx	lr
 285              		.cfi_endproc
ARM GAS  /tmp/ccTNznmT.s 			page 6


 286              	.LFE344:
 287              		.size	stm32_flash_getnumpages, .-stm32_flash_getnumpages
 288              		.section	.text.stm32_flash_ispageerased,"ax",%progbits
 289              		.align	1
 290              		.global	stm32_flash_ispageerased
 291              		.syntax unified
 292              		.thumb
 293              		.thumb_func
 294              		.fpu fpv4-sp-d16
 295              		.type	stm32_flash_ispageerased, %function
 296              	stm32_flash_ispageerased:
 297              	.LFB345:
 298              		.loc 1 318 0
 299              		.cfi_startproc
 300              		@ args = 0, pretend = 0, frame = 0
 301              		@ frame_needed = 0, uses_anonymous_args = 0
 302              	.LVL13:
 303              		.loc 1 322 0
 304 0000 0B28     		cmp	r0, #11
 305              		.loc 1 318 0
 306 0002 10B5     		push	{r4, lr}
 307              		.cfi_def_cfa_offset 8
 308              		.cfi_offset 4, -8
 309              		.cfi_offset 14, -4
 310              		.loc 1 318 0
 311 0004 0446     		mov	r4, r0
 312              		.loc 1 322 0
 313 0006 01D9     		bls	.L29
 314              	.LVL14:
 315              	.L32:
 316              		.loc 1 323 0
 317 0008 0020     		movs	r0, #0
 318 000a 10BD     		pop	{r4, pc}
 319              	.LVL15:
 320              	.L29:
 321              	.LBB71:
 322              	.LBB72:
 323              		.loc 1 326 0
 324 000c FFF7FEFF 		bl	stm32_flash_getpageaddr
 325              	.LVL16:
 326              	.LBB73:
 327              	.LBB74:
 328              		.loc 1 305 0
 329 0010 064B     		ldr	r3, .L34
 330 0012 53F82430 		ldr	r3, [r3, r4, lsl #2]
 331              	.LVL17:
 332 0016 1844     		add	r0, r0, r3
 333              	.LVL18:
 334              	.L31:
 335 0018 C21A     		subs	r2, r0, r3
 336              	.LVL19:
 337              	.LBE74:
 338              	.LBE73:
 339              		.loc 1 326 0
 340 001a 0BB9     		cbnz	r3, .L33
 341              		.loc 1 334 0
 342 001c 0120     		movs	r0, #1
ARM GAS  /tmp/ccTNznmT.s 			page 7


 343              	.LBE72:
 344              	.LBE71:
 345              		.loc 1 335 0
 346 001e 10BD     		pop	{r4, pc}
 347              	.LVL20:
 348              	.L33:
 349              	.LBB79:
 350              	.LBB78:
 351              	.LBB75:
 352              	.LBB76:
 353              	.LBB77:
 354              		.loc 1 173 0
 355              		.syntax unified
 356              	@ 173 "../../libraries/AP_HAL_ChibiOS/hwdef/common/flash.c" 1
 357 0020 1268     			ldr r2, [r2]
 358              		
 359              	@ 0 "" 2
 360              	.LVL21:
 361              		.thumb
 362              		.syntax unified
 363              	.LBE77:
 364              	.LBE76:
 365              		.loc 1 329 0
 366 0022 0132     		adds	r2, r2, #1
 367 0024 F0D1     		bne	.L32
 368              	.LBE75:
 369              		.loc 1 327 0
 370 0026 043B     		subs	r3, r3, #4
 371              	.LVL22:
 372 0028 F6E7     		b	.L31
 373              	.L35:
 374 002a 00BF     		.align	2
 375              	.L34:
 376 002c 00000000 		.word	.LANCHOR3
 377              	.LBE78:
 378              	.LBE79:
 379              		.cfi_endproc
 380              	.LFE345:
 381              		.size	stm32_flash_ispageerased, .-stm32_flash_ispageerased
 382              		.section	.text.stm32_flash_erasepage,"ax",%progbits
 383              		.align	1
 384              		.global	stm32_flash_erasepage
 385              		.syntax unified
 386              		.thumb
 387              		.thumb_func
 388              		.fpu fpv4-sp-d16
 389              		.type	stm32_flash_erasepage, %function
 390              	stm32_flash_erasepage:
 391              	.LFB346:
 392              		.loc 1 341 0
 393              		.cfi_startproc
 394              		@ args = 0, pretend = 0, frame = 0
 395              		@ frame_needed = 0, uses_anonymous_args = 0
 396              	.LVL23:
 397              		.loc 1 342 0
 398 0000 0B28     		cmp	r0, #11
 399              		.loc 1 341 0
ARM GAS  /tmp/ccTNznmT.s 			page 8


 400 0002 10B5     		push	{r4, lr}
 401              		.cfi_def_cfa_offset 8
 402              		.cfi_offset 4, -8
 403              		.cfi_offset 14, -4
 404              		.loc 1 341 0
 405 0004 0446     		mov	r4, r0
 406              		.loc 1 342 0
 407 0006 21D8     		bhi	.L37
 408              		.loc 1 349 0
 409 0008 FFF7FEFF 		bl	stm32_flash_wait_idle
 410              	.LVL24:
 411              		.loc 1 350 0
 412 000c FFF7FEFF 		bl	stm32_flash_unlock
 413              	.LVL25:
 414              	.LBB80:
 415              	.LBB81:
 416              		.loc 1 204 0
 417 0010 0F4A     		ldr	r2, .L38
 418 0012 F323     		movs	r3, #243
 419 0014 D360     		str	r3, [r2, #12]
 420              	.LVL26:
 421              	.LBE81:
 422              	.LBE80:
 423              		.loc 1 387 0
 424 0016 C300     		lsls	r3, r0, #3
 425              		.loc 1 390 0
 426 0018 DBB2     		uxtb	r3, r3
 427 001a 43F40073 		orr	r3, r3, #512
 428 001e 43F00203 		orr	r3, r3, #2
 429 0022 1361     		str	r3, [r2, #16]
 430              		.loc 1 391 0
 431 0024 1369     		ldr	r3, [r2, #16]
 432 0026 43F48033 		orr	r3, r3, #65536
 433 002a 1361     		str	r3, [r2, #16]
 434              		.loc 1 396 0
 435 002c FFF7FEFF 		bl	stm32_flash_wait_idle
 436              	.LVL27:
 437              		.loc 1 398 0
 438 0030 FFF7FEFF 		bl	stm32_flash_getpageaddr
 439              	.LVL28:
 440              	.LBB82:
 441              	.LBB83:
 442              		.loc 1 305 0
 443 0034 074B     		ldr	r3, .L38+4
 444              	.LBE83:
 445              	.LBE82:
 446              		.loc 1 398 0
 447 0036 53F82410 		ldr	r1, [r3, r4, lsl #2]
 448 003a FFF7FEFF 		bl	stm32_cacheBufferInvalidate
 449              	.LVL29:
 450              		.loc 1 400 0
 451 003e FFF7FEFF 		bl	stm32_flash_lock
 452              	.LVL30:
 453              		.loc 1 404 0
 454 0042 2046     		mov	r0, r4
 455              		.loc 1 405 0
 456 0044 BDE81040 		pop	{r4, lr}
ARM GAS  /tmp/ccTNznmT.s 			page 9


 457              		.cfi_remember_state
 458              		.cfi_restore 14
 459              		.cfi_restore 4
 460              		.cfi_def_cfa_offset 0
 461              	.LVL31:
 462              		.loc 1 404 0
 463 0048 FFF7FEBF 		b	stm32_flash_ispageerased
 464              	.LVL32:
 465              	.L37:
 466              		.cfi_restore_state
 467              		.loc 1 405 0
 468 004c 0020     		movs	r0, #0
 469              	.LVL33:
 470 004e 10BD     		pop	{r4, pc}
 471              	.LVL34:
 472              	.L39:
 473              		.align	2
 474              	.L38:
 475 0050 003C0240 		.word	1073888256
 476 0054 00000000 		.word	.LANCHOR3
 477              		.cfi_endproc
 478              	.LFE346:
 479              		.size	stm32_flash_erasepage, .-stm32_flash_erasepage
 480              		.section	.text.stm32_flash_write,"ax",%progbits
 481              		.align	1
 482              		.global	stm32_flash_write
 483              		.syntax unified
 484              		.thumb
 485              		.thumb_func
 486              		.fpu fpv4-sp-d16
 487              		.type	stm32_flash_write, %function
 488              	stm32_flash_write:
 489              	.LFB348:
 490              		.loc 1 635 0
 491              		.cfi_startproc
 492              		@ args = 0, pretend = 0, frame = 0
 493              		@ frame_needed = 0, uses_anonymous_args = 0
 494              	.LVL35:
 495 0000 2DE9F843 		push	{r3, r4, r5, r6, r7, r8, r9, lr}
 496              		.cfi_def_cfa_offset 32
 497              		.cfi_offset 3, -32
 498              		.cfi_offset 4, -28
 499              		.cfi_offset 5, -24
 500              		.cfi_offset 6, -20
 501              		.cfi_offset 7, -16
 502              		.cfi_offset 8, -12
 503              		.cfi_offset 9, -8
 504              		.cfi_offset 14, -4
 505              	.LBB101:
 506              	.LBB102:
 507              		.loc 1 478 0
 508 0004 12F00103 		ands	r3, r2, #1
 509              	.LBE102:
 510              	.LBE101:
 511              		.loc 1 635 0
 512 0008 1546     		mov	r5, r2
 513              	.LBB124:
ARM GAS  /tmp/ccTNznmT.s 			page 10


 514              	.LBB122:
 515              		.loc 1 478 0
 516 000a 3FD1     		bne	.L54
 517              		.loc 1 482 0
 518 000c 8218     		adds	r2, r0, r2
 519              	.LVL36:
 520 000e B2F1026F 		cmp	r2, #136314880
 521 0012 3BD2     		bcs	.L54
 522              		.loc 1 488 0
 523 0014 2B4B     		ldr	r3, .L55
 524 0016 1B68     		ldr	r3, [r3]
 525 0018 13F00103 		ands	r3, r3, #1
 526 001c 36D0     		beq	.L54
 527              		.loc 1 496 0
 528 001e FFF7FEFF 		bl	stm32_flash_unlock
 529              	.LVL37:
 530              	.LBB103:
 531              	.LBB104:
 532              		.loc 1 204 0
 533 0022 294C     		ldr	r4, .L55+4
 534 0024 F323     		movs	r3, #243
 535              	.LBE104:
 536              	.LBE103:
 537              	.LBB106:
 538              		.loc 1 506 0
 539 0026 40F20127 		movw	r7, #513
 540              	.LBE106:
 541              	.LBB113:
 542              	.LBB105:
 543              		.loc 1 204 0
 544 002a E360     		str	r3, [r4, #12]
 545              	.LBE105:
 546              	.LBE113:
 547              		.loc 1 501 0
 548 002c FFF7FEFF 		bl	stm32_flash_wait_idle
 549              	.LVL38:
 550              	.L42:
 551              		.loc 1 504 0
 552 0030 032D     		cmp	r5, #3
 553 0032 01D9     		bls	.L45
 554 0034 8307     		lsls	r3, r0, #30
 555 0036 12D0     		beq	.L46
 556              	.L45:
 557              	.LBE122:
 558              	.LBE124:
 559              		.loc 1 635 0
 560 0038 0F46     		mov	r7, r1
 561 003a 401A     		subs	r0, r0, r1
 562              	.LVL39:
 563 003c 224C     		ldr	r4, .L55+4
 564              	.LBB125:
 565              	.LBB123:
 566              		.loc 1 530 0
 567 003e 40F20118 		movw	r8, #257
 568              	.LVL40:
 569              	.L47:
 570 0042 EB1B     		subs	r3, r5, r7
ARM GAS  /tmp/ccTNznmT.s 			page 11


 571 0044 C619     		adds	r6, r0, r7
 572              	.LVL41:
 573 0046 0B44     		add	r3, r3, r1
 574              		.loc 1 528 0
 575 0048 012B     		cmp	r3, #1
 576              		.loc 1 529 0
 577 004a 2369     		ldr	r3, [r4, #16]
 578              		.loc 1 528 0
 579 004c 24D8     		bhi	.L48
 580              		.loc 1 549 0
 581 004e 23F00103 		bic	r3, r3, #1
 582 0052 2361     		str	r3, [r4, #16]
 583              		.loc 1 551 0
 584 0054 FFF7FEFF 		bl	stm32_flash_lock
 585              	.LVL42:
 586              		.loc 1 555 0
 587 0058 0120     		movs	r0, #1
 588 005a BDE8F883 		pop	{r3, r4, r5, r6, r7, r8, r9, pc}
 589              	.LVL43:
 590              	.L46:
 591              	.LBB114:
 592              		.loc 1 505 0
 593 005e 2369     		ldr	r3, [r4, #16]
 594 0060 23F44073 		bic	r3, r3, #768
 595 0064 2361     		str	r3, [r4, #16]
 596              		.loc 1 506 0
 597 0066 2369     		ldr	r3, [r4, #16]
 598 0068 3B43     		orrs	r3, r3, r7
 599 006a 2361     		str	r3, [r4, #16]
 600              		.loc 1 507 0
 601 006c 51F8046B 		ldr	r6, [r1], #4
 602              	.LVL44:
 603              	.LBB107:
 604              	.LBB108:
 605              		.loc 1 180 0
 606 0070 0660     		str	r6, [r0]
 607              	.LVL45:
 608              	.LBE108:
 609              	.LBE107:
 610              	.LBB109:
 611              	.LBB110:
 612              		.loc 2 879 0
 613              		.syntax unified
 614              	@ 879 "../../modules/ChibiOS/os/common/ext/ARM/CMSIS/Core/Include/cmsis_gcc.h" 1
 615 0072 BFF34F8F 		dsb 0xF
 616              	@ 0 "" 2
 617              		.thumb
 618              		.syntax unified
 619              	.LBE110:
 620              	.LBE109:
 621              		.loc 1 514 0
 622 0076 FFF7FEFF 		bl	stm32_flash_wait_idle
 623              	.LVL46:
 624              	.LBB111:
 625              	.LBB112:
 626              		.loc 1 173 0
 627              		.syntax unified
ARM GAS  /tmp/ccTNznmT.s 			page 12


 628              	@ 173 "../../libraries/AP_HAL_ChibiOS/hwdef/common/flash.c" 1
 629 007a 0368     			ldr r3, [r0]
 630              		
 631              	@ 0 "" 2
 632              	.LVL47:
 633              		.thumb
 634              		.syntax unified
 635              	.LBE112:
 636              	.LBE111:
 637              		.loc 1 517 0
 638 007c 9E42     		cmp	r6, r3
 639 007e 08D0     		beq	.L43
 640              	.LVL48:
 641              	.L53:
 642              	.L44:
 643              	.LBE114:
 644              		.loc 1 540 0
 645 0080 2369     		ldr	r3, [r4, #16]
 646 0082 23F00103 		bic	r3, r3, #1
 647 0086 2361     		str	r3, [r4, #16]
 648              		.loc 1 558 0
 649 0088 FFF7FEFF 		bl	stm32_flash_lock
 650              	.LVL49:
 651              	.L54:
 652              		.loc 1 562 0
 653 008c 0020     		movs	r0, #0
 654 008e BDE8F883 		pop	{r3, r4, r5, r6, r7, r8, r9, pc}
 655              	.LVL50:
 656              	.L43:
 657              	.LBB115:
 658              		.loc 1 522 0
 659 0092 043D     		subs	r5, r5, #4
 660              	.LVL51:
 661              		.loc 1 524 0
 662 0094 0430     		adds	r0, r0, #4
 663              	.LVL52:
 664 0096 CBE7     		b	.L42
 665              	.LVL53:
 666              	.L48:
 667              	.LBE115:
 668              		.loc 1 529 0
 669 0098 23F44073 		bic	r3, r3, #768
 670 009c B946     		mov	r9, r7
 671              	.LVL54:
 672 009e 2361     		str	r3, [r4, #16]
 673              	.LVL55:
 674              		.loc 1 530 0
 675 00a0 2369     		ldr	r3, [r4, #16]
 676 00a2 43EA0803 		orr	r3, r3, r8
 677 00a6 2361     		str	r3, [r4, #16]
 678              	.LBB116:
 679              	.LBB117:
 680              		.loc 1 166 0
 681 00a8 37F8023B 		ldrh	r3, [r7], #2
 682              	.LVL56:
 683              		.syntax unified
 684              	@ 166 "../../libraries/AP_HAL_ChibiOS/hwdef/common/flash.c" 1
ARM GAS  /tmp/ccTNznmT.s 			page 13


 685 00ac 3380     			strh r3, [r6]
 686              		
 687              	@ 0 "" 2
 688              	.LVL57:
 689              		.thumb
 690              		.syntax unified
 691              	.LBE117:
 692              	.LBE116:
 693              	.LBB118:
 694              	.LBB119:
 695              		.loc 2 879 0
 696              		.syntax unified
 697              	@ 879 "../../modules/ChibiOS/os/common/ext/ARM/CMSIS/Core/Include/cmsis_gcc.h" 1
 698 00ae BFF34F8F 		dsb 0xF
 699              	@ 0 "" 2
 700              		.thumb
 701              		.syntax unified
 702              	.LBE119:
 703              	.LBE118:
 704              		.loc 1 537 0
 705 00b2 FFF7FEFF 		bl	stm32_flash_wait_idle
 706              	.LVL58:
 707              	.LBB120:
 708              	.LBB121:
 709              		.loc 1 159 0
 710              		.syntax unified
 711              	@ 159 "../../libraries/AP_HAL_ChibiOS/hwdef/common/flash.c" 1
 712 00b6 3688     			ldrh r6, [r6]
 713              		
 714              	@ 0 "" 2
 715              	.LVL59:
 716              		.thumb
 717              		.syntax unified
 718 00b8 B6B2     		uxth	r6, r6
 719              	.LVL60:
 720              	.LBE121:
 721              	.LBE120:
 722              		.loc 1 539 0
 723 00ba B9F80030 		ldrh	r3, [r9]
 724 00be B342     		cmp	r3, r6
 725 00c0 BFD0     		beq	.L47
 726 00c2 DDE7     		b	.L53
 727              	.L56:
 728              		.align	2
 729              	.L55:
 730 00c4 00380240 		.word	1073887232
 731 00c8 003C0240 		.word	1073888256
 732              	.LBE123:
 733              	.LBE125:
 734              		.cfi_endproc
 735              	.LFE348:
 736              		.size	stm32_flash_write, .-stm32_flash_write
 737              		.section	.text.stm32_flash_keep_unlocked,"ax",%progbits
 738              		.align	1
 739              		.global	stm32_flash_keep_unlocked
 740              		.syntax unified
 741              		.thumb
ARM GAS  /tmp/ccTNznmT.s 			page 14


 742              		.thumb_func
 743              		.fpu fpv4-sp-d16
 744              		.type	stm32_flash_keep_unlocked, %function
 745              	stm32_flash_keep_unlocked:
 746              	.LFB349:
 747              		.loc 1 648 0
 748              		.cfi_startproc
 749              		@ args = 0, pretend = 0, frame = 0
 750              		@ frame_needed = 0, uses_anonymous_args = 0
 751              	.LVL61:
 752 0000 0849     		ldr	r1, .L63
 753 0002 08B5     		push	{r3, lr}
 754              		.cfi_def_cfa_offset 8
 755              		.cfi_offset 3, -8
 756              		.cfi_offset 14, -4
 757              		.loc 1 649 0
 758 0004 0B78     		ldrb	r3, [r1]	@ zero_extendqisi2
 759 0006 28B1     		cbz	r0, .L58
 760              		.loc 1 649 0 is_stmt 0 discriminator 1
 761 0008 53B9     		cbnz	r3, .L57
 762              		.loc 1 650 0 is_stmt 1
 763 000a FFF7FEFF 		bl	stm32_flash_unlock
 764              	.LVL62:
 765              		.loc 1 651 0
 766 000e 0123     		movs	r3, #1
 767 0010 0B70     		strb	r3, [r1]
 768 0012 08BD     		pop	{r3, pc}
 769              	.L58:
 770              		.loc 1 652 0 discriminator 1
 771 0014 23B1     		cbz	r3, .L57
 772              		.loc 1 653 0
 773 0016 0870     		strb	r0, [r1]
 774              		.loc 1 656 0
 775 0018 BDE80840 		pop	{r3, lr}
 776              		.cfi_remember_state
 777              		.cfi_restore 14
 778              		.cfi_restore 3
 779              		.cfi_def_cfa_offset 0
 780              		.loc 1 654 0
 781 001c FFF7FEBF 		b	stm32_flash_lock
 782              	.LVL63:
 783              	.L57:
 784              		.cfi_restore_state
 785 0020 08BD     		pop	{r3, pc}
 786              	.L64:
 787 0022 00BF     		.align	2
 788              	.L63:
 789 0024 00000000 		.word	.LANCHOR0
 790              		.cfi_endproc
 791              	.LFE349:
 792              		.size	stm32_flash_keep_unlocked, .-stm32_flash_keep_unlocked
 793              		.global	_flash_fail_buf
 794              		.global	_flash_fail_count
 795              		.global	_flash_fail_addr
 796              		.global	_flash_fail_line
 797              		.section	.bss._flash_fail_addr,"aw",%nobits
 798              		.align	2
ARM GAS  /tmp/ccTNznmT.s 			page 15


 799              		.type	_flash_fail_addr, %object
 800              		.size	_flash_fail_addr, 4
 801              	_flash_fail_addr:
 802 0000 00000000 		.space	4
 803              		.section	.bss._flash_fail_buf,"aw",%nobits
 804              		.align	2
 805              		.type	_flash_fail_buf, %object
 806              		.size	_flash_fail_buf, 4
 807              	_flash_fail_buf:
 808 0000 00000000 		.space	4
 809              		.section	.bss._flash_fail_count,"aw",%nobits
 810              		.align	2
 811              		.type	_flash_fail_count, %object
 812              		.size	_flash_fail_count, 4
 813              	_flash_fail_count:
 814 0000 00000000 		.space	4
 815              		.section	.bss._flash_fail_line,"aw",%nobits
 816              		.align	2
 817              		.type	_flash_fail_line, %object
 818              		.size	_flash_fail_line, 4
 819              	_flash_fail_line:
 820 0000 00000000 		.space	4
 821              		.section	.bss.flash_keep_unlocked,"aw",%nobits
 822              		.set	.LANCHOR0,. + 0
 823              		.type	flash_keep_unlocked, %object
 824              		.size	flash_keep_unlocked, 1
 825              	flash_keep_unlocked:
 826 0000 00       		.space	1
 827              		.section	.bss.flash_pageaddr,"aw",%nobits
 828              		.align	2
 829              		.set	.LANCHOR2,. + 0
 830              		.type	flash_pageaddr, %object
 831              		.size	flash_pageaddr, 48
 832              	flash_pageaddr:
 833 0000 00000000 		.space	48
 833      00000000 
 833      00000000 
 833      00000000 
 833      00000000 
 834              		.section	.bss.flash_pageaddr_initialised,"aw",%nobits
 835              		.set	.LANCHOR1,. + 0
 836              		.type	flash_pageaddr_initialised, %object
 837              		.size	flash_pageaddr_initialised, 1
 838              	flash_pageaddr_initialised:
 839 0000 00       		.space	1
 840              		.section	.rodata.flash_memmap,"a",%progbits
 841              		.align	2
 842              		.set	.LANCHOR3,. + 0
 843              		.type	flash_memmap, %object
 844              		.size	flash_memmap, 48
 845              	flash_memmap:
 846 0000 00800000 		.word	32768
 847 0004 00800000 		.word	32768
 848 0008 00800000 		.word	32768
 849 000c 00800000 		.word	32768
 850 0010 00000200 		.word	131072
 851 0014 00000400 		.word	262144
ARM GAS  /tmp/ccTNznmT.s 			page 16


 852 0018 00000400 		.word	262144
 853 001c 00000400 		.word	262144
 854 0020 00000400 		.word	262144
 855 0024 00000400 		.word	262144
 856 0028 00000400 		.word	262144
 857 002c 00000400 		.word	262144
 858              		.text
 859              	.Letext0:
 860              		.file 3 "/opt/gcc-arm-none-eabi-6-2017-q2-update/lib/gcc/arm-none-eabi/6.3.1/include/stddef.h"
 861              		.file 4 "/opt/gcc-arm-none-eabi-6-2017-q2-update/arm-none-eabi/include/machine/_default_types.h"
 862              		.file 5 "/opt/gcc-arm-none-eabi-6-2017-q2-update/arm-none-eabi/include/sys/_stdint.h"
 863              		.file 6 "/opt/gcc-arm-none-eabi-6-2017-q2-update/arm-none-eabi/include/stdint.h"
 864              		.file 7 "../../modules/ChibiOS/os/common/ports/ARMCMx/compilers/GCC/chtypes.h"
 865              		.file 8 "../../modules/ChibiOS/os/rt/include/chsystypes.h"
 866              		.file 9 "../../modules/ChibiOS/os/rt/include/chschd.h"
 867              		.file 10 "../../modules/ChibiOS/os/rt/include/chtime.h"
 868              		.file 11 "../../modules/ChibiOS/os/common/ext/ARM/CMSIS/Core/Include/core_cm7.h"
 869              		.file 12 "../../modules/ChibiOS/os/common/ext/ST/STM32F7xx/system_stm32f7xx.h"
 870              		.file 13 "../../modules/ChibiOS/os/common/ext/ST/STM32F7xx/stm32f767xx.h"
 871              		.file 14 "../../modules/ChibiOS/os/common/ports/ARMCMx/chcore.h"
 872              		.file 15 "../../modules/ChibiOS/os/common/ports/ARMCMx/chcore_v7m.h"
 873              		.file 16 "../../modules/ChibiOS/os/hal/ports/STM32/LLD/TIMv1/stm32_tim.h"
 874              		.file 17 "../../modules/ChibiOS/os/rt/include/chtm.h"
 875              		.file 18 "../../modules/ChibiOS/os/rt/include/chstats.h"
 876              		.file 19 "../../modules/ChibiOS/os/rt/include/chsem.h"
 877              		.file 20 "../../modules/ChibiOS/os/rt/include/chmtx.h"
 878              		.file 21 "../../modules/ChibiOS/os/rt/include/chsys.h"
 879              		.file 22 "../../modules/ChibiOS/os/rt/include/chregistry.h"
 880              		.file 23 "../../modules/ChibiOS/os/rt/include/chevents.h"
 881              		.file 24 "../../modules/ChibiOS/os/oslib/include/chmemcore.h"
 882              		.file 25 "../../modules/ChibiOS/os/oslib/include/chmempools.h"
 883              		.file 26 "../../modules/ChibiOS/os/oslib/include/chfactory.h"
 884              		.file 27 "../../modules/ChibiOS/os/hal/ports/STM32/LLD/DMAv2/stm32_dma.h"
 885              		.file 28 "../../modules/ChibiOS/os/hal/include/hal_ioblock.h"
 886              		.file 29 "../../modules/ChibiOS/os/hal/include/hal_queues.h"
 887              		.file 30 "../../modules/ChibiOS/os/hal/include/hal_pal.h"
 888              		.file 31 "../../modules/ChibiOS/os/hal/ports/STM32/LLD/GPIOv2/stm32_gpio.h"
 889              		.file 32 "../../modules/ChibiOS/os/hal/ports/STM32/LLD/GPIOv2/hal_pal_lld.h"
 890              		.file 33 "../../modules/ChibiOS/os/hal/include/hal_adc.h"
 891              		.file 34 "../../modules/ChibiOS/os/hal/ports/STM32/LLD/ADCv2/hal_adc_lld.h"
 892              		.file 35 "../../modules/ChibiOS/os/hal/include/hal_i2c.h"
 893              		.file 36 "../../modules/ChibiOS/os/hal/ports/STM32/LLD/I2Cv2/hal_i2c_lld.h"
 894              		.file 37 "../../modules/ChibiOS/os/hal/include/hal_pwm.h"
 895              		.file 38 "../../modules/ChibiOS/os/hal/ports/STM32/LLD/TIMv1/hal_pwm_lld.h"
 896              		.file 39 "../../modules/ChibiOS/os/hal/include/hal_serial.h"
 897              		.file 40 "../../modules/ChibiOS/os/hal/ports/STM32/LLD/USARTv2/hal_serial_lld.h"
 898              		.file 41 "../../modules/ChibiOS/os/hal/include/hal_sdc.h"
 899              		.file 42 "../../modules/ChibiOS/os/hal/ports/STM32/LLD/SDMMCv1/hal_sdc_lld.h"
 900              		.file 43 "../../modules/ChibiOS/os/hal/include/hal_spi.h"
 901              		.file 44 "../../modules/ChibiOS/os/hal/ports/STM32/LLD/SPIv2/hal_spi_lld.h"
 902              		.file 45 "../../modules/ChibiOS/os/hal/include/hal_usb.h"
 903              		.file 46 "../../modules/ChibiOS/os/hal/ports/STM32/LLD/OTGv1/hal_usb_lld.h"
 904              		.file 47 "../../modules/ChibiOS/os/hal/ports/STM32/LLD/OTGv1/stm32_otg.h"
 905              		.file 48 "/opt/gcc-arm-none-eabi-6-2017-q2-update/arm-none-eabi/include/sys/lock.h"
 906              		.file 49 "/opt/gcc-arm-none-eabi-6-2017-q2-update/arm-none-eabi/include/sys/_types.h"
 907              		.file 50 "/opt/gcc-arm-none-eabi-6-2017-q2-update/arm-none-eabi/include/sys/reent.h"
 908              		.file 51 "../../libraries/AP_HAL_ChibiOS/hwdef/common/stm32_util.h"
ARM GAS  /tmp/ccTNznmT.s 			page 17

