ARM GAS  /tmp/ccYm74WD.s 			page 1


   1              		.cpu cortex-m7
   2              		.eabi_attribute 27, 1
   3              		.eabi_attribute 28, 1
   4              		.eabi_attribute 20, 1
   5              		.eabi_attribute 21, 1
   6              		.eabi_attribute 23, 3
   7              		.eabi_attribute 24, 1
   8              		.eabi_attribute 25, 1
   9              		.eabi_attribute 26, 1
  10              		.eabi_attribute 30, 4
  11              		.eabi_attribute 34, 1
  12              		.eabi_attribute 18, 4
  13              		.file	"hal_usb.c"
  14              		.text
  15              	.Ltext0:
  16              		.cfi_sections	.debug_frame
  17              		.section	.text.chSysLockFromISR,"ax",%progbits
  18              		.align	1
  19              		.syntax unified
  20              		.thumb
  21              		.thumb_func
  22              		.fpu fpv4-sp-d16
  23              		.type	chSysLockFromISR, %function
  24              	chSysLockFromISR:
  25              	.LFB197:
  26              		.file 1 "../../modules/ChibiOS/os/rt/include/chsys.h"
  27              		.loc 1 393 0
  28              		.cfi_startproc
  29              		@ args = 0, pretend = 0, frame = 0
  30              		@ frame_needed = 0, uses_anonymous_args = 0
  31              		@ link register save eliminated.
  32              	.LVL0:
  33              	.LBB82:
  34              	.LBB83:
  35              	.LBB84:
  36              	.LBB85:
  37              		.file 2 "../../modules/ChibiOS/os/common/ext/ARM/CMSIS/Core/Include/cmsis_gcc.h"
  38              		.loc 2 493 0
  39 0000 2023     		movs	r3, #32
  40              		.syntax unified
  41              	@ 493 "../../modules/ChibiOS/os/common/ext/ARM/CMSIS/Core/Include/cmsis_gcc.h" 1
  42 0002 83F31188 		MSR basepri, r3
  43              	@ 0 "" 2
  44              	.LVL1:
  45              		.thumb
  46              		.syntax unified
  47              	.LBE85:
  48              	.LBE84:
  49              	.LBE83:
  50              	.LBE82:
  51              		.loc 1 396 0
  52 0006 FFF7FEBF 		b	_stats_start_measure_crit_isr
  53              	.LVL2:
  54              		.cfi_endproc
  55              	.LFE197:
  56              		.size	chSysLockFromISR, .-chSysLockFromISR
  57              		.section	.text.chSysUnlockFromISR,"ax",%progbits
ARM GAS  /tmp/ccYm74WD.s 			page 2


  58              		.align	1
  59              		.syntax unified
  60              		.thumb
  61              		.thumb_func
  62              		.fpu fpv4-sp-d16
  63              		.type	chSysUnlockFromISR, %function
  64              	chSysUnlockFromISR:
  65              	.LFB198:
  66              		.loc 1 413 0
  67              		.cfi_startproc
  68              		@ args = 0, pretend = 0, frame = 0
  69              		@ frame_needed = 0, uses_anonymous_args = 0
  70 0000 08B5     		push	{r3, lr}
  71              		.cfi_def_cfa_offset 8
  72              		.cfi_offset 3, -8
  73              		.cfi_offset 14, -4
  74              		.loc 1 416 0
  75 0002 FFF7FEFF 		bl	_stats_stop_measure_crit_isr
  76              	.LVL3:
  77              	.LBB86:
  78              	.LBB87:
  79              	.LBB88:
  80              	.LBB89:
  81              		.loc 2 493 0
  82 0006 0023     		movs	r3, #0
  83              		.syntax unified
  84              	@ 493 "../../modules/ChibiOS/os/common/ext/ARM/CMSIS/Core/Include/cmsis_gcc.h" 1
  85 0008 83F31188 		MSR basepri, r3
  86              	@ 0 "" 2
  87              	.LVL4:
  88              		.thumb
  89              		.syntax unified
  90 000c 08BD     		pop	{r3, pc}
  91              	.LBE89:
  92              	.LBE88:
  93              	.LBE87:
  94              	.LBE86:
  95              		.cfi_endproc
  96              	.LFE198:
  97              		.size	chSysUnlockFromISR, .-chSysUnlockFromISR
  98              		.section	.text.usbInit,"ax",%progbits
  99              		.align	1
 100              		.global	usbInit
 101              		.syntax unified
 102              		.thumb
 103              		.thumb_func
 104              		.fpu fpv4-sp-d16
 105              		.type	usbInit, %function
 106              	usbInit:
 107              	.LFB337:
 108              		.file 3 "../../modules/ChibiOS/os/hal/src/hal_usb.c"
 109              		.loc 3 270 0
 110              		.cfi_startproc
 111              		@ args = 0, pretend = 0, frame = 0
 112              		@ frame_needed = 0, uses_anonymous_args = 0
 113              		@ link register save eliminated.
 114              		.loc 3 272 0
ARM GAS  /tmp/ccYm74WD.s 			page 3


 115 0000 FFF7FEBF 		b	usb_lld_init
 116              	.LVL5:
 117              		.cfi_endproc
 118              	.LFE337:
 119              		.size	usbInit, .-usbInit
 120              		.section	.text.usbObjectInit,"ax",%progbits
 121              		.align	1
 122              		.global	usbObjectInit
 123              		.syntax unified
 124              		.thumb
 125              		.thumb_func
 126              		.fpu fpv4-sp-d16
 127              		.type	usbObjectInit, %function
 128              	usbObjectInit:
 129              	.LFB338:
 130              		.loc 3 282 0
 131              		.cfi_startproc
 132              		@ args = 0, pretend = 0, frame = 0
 133              		@ frame_needed = 0, uses_anonymous_args = 0
 134              		@ link register save eliminated.
 135              	.LVL6:
 136              		.loc 3 285 0
 137 0000 0123     		movs	r3, #1
 138 0002 00F12402 		add	r2, r0, #36
 139 0006 00F13801 		add	r1, r0, #56
 140 000a 0370     		strb	r3, [r0]
 141              		.loc 3 286 0
 142 000c 0023     		movs	r3, #0
 143 000e 4360     		str	r3, [r0, #4]
 144              	.LVL7:
 145              	.L5:
 146              		.loc 3 288 0 discriminator 3
 147 0010 42F8043B 		str	r3, [r2], #4
 148              		.loc 3 287 0 discriminator 3
 149 0014 8A42     		cmp	r2, r1
 150              		.loc 3 289 0 discriminator 3
 151 0016 1361     		str	r3, [r2, #16]
 152              		.loc 3 287 0 discriminator 3
 153 0018 FAD1     		bne	.L5
 154              		.loc 3 291 0
 155 001a 0381     		strh	r3, [r0, #8]	@ movhi
 156              		.loc 3 292 0
 157 001c 4381     		strh	r3, [r0, #10]	@ movhi
 158 001e 7047     		bx	lr
 159              		.cfi_endproc
 160              	.LFE338:
 161              		.size	usbObjectInit, .-usbObjectInit
 162              		.section	.text.usbStart,"ax",%progbits
 163              		.align	1
 164              		.global	usbStart
 165              		.syntax unified
 166              		.thumb
 167              		.thumb_func
 168              		.fpu fpv4-sp-d16
 169              		.type	usbStart, %function
 170              	usbStart:
 171              	.LFB339:
ARM GAS  /tmp/ccYm74WD.s 			page 4


 172              		.loc 3 303 0
 173              		.cfi_startproc
 174              		@ args = 0, pretend = 0, frame = 0
 175              		@ frame_needed = 0, uses_anonymous_args = 0
 176              	.LVL8:
 177 0000 38B5     		push	{r3, r4, r5, lr}
 178              		.cfi_def_cfa_offset 16
 179              		.cfi_offset 3, -16
 180              		.cfi_offset 4, -12
 181              		.cfi_offset 5, -8
 182              		.cfi_offset 14, -4
 183              		.loc 3 303 0
 184 0002 0446     		mov	r4, r0
 185 0004 0D46     		mov	r5, r1
 186              	.LBB104:
 187              	.LBB105:
 188              	.LBB106:
 189              	.LBB107:
 190              	.LBB108:
 191              	.LBB109:
 192              		.loc 2 493 0
 193 0006 2023     		movs	r3, #32
 194              		.syntax unified
 195              	@ 493 "../../modules/ChibiOS/os/common/ext/ARM/CMSIS/Core/Include/cmsis_gcc.h" 1
 196 0008 83F31188 		MSR basepri, r3
 197              	@ 0 "" 2
 198              	.LVL9:
 199              		.thumb
 200              		.syntax unified
 201              	.LBE109:
 202              	.LBE108:
 203              	.LBE107:
 204              		.loc 1 356 0
 205 000c FFF7FEFF 		bl	_stats_start_measure_crit_thd
 206              	.LVL10:
 207              	.LBE106:
 208              	.LBE105:
 209              	.LBE104:
 210              		.loc 3 311 0
 211 0010 6560     		str	r5, [r4, #4]
 212              	.LVL11:
 213              		.loc 3 313 0
 214 0012 0025     		movs	r5, #0
 215              	.LVL12:
 216              		.loc 3 315 0
 217 0014 2046     		mov	r0, r4
 218              		.loc 3 313 0
 219 0016 E560     		str	r5, [r4, #12]
 220              	.LVL13:
 221 0018 2561     		str	r5, [r4, #16]
 222              	.LVL14:
 223 001a 6561     		str	r5, [r4, #20]
 224              	.LVL15:
 225 001c A561     		str	r5, [r4, #24]
 226              	.LVL16:
 227 001e E561     		str	r5, [r4, #28]
 228              	.LVL17:
ARM GAS  /tmp/ccYm74WD.s 			page 5


 229 0020 2562     		str	r5, [r4, #32]
 230              	.LVL18:
 231              		.loc 3 315 0
 232 0022 FFF7FEFF 		bl	usb_lld_start
 233              	.LVL19:
 234              		.loc 3 316 0
 235 0026 0223     		movs	r3, #2
 236 0028 2370     		strb	r3, [r4]
 237              	.LBB110:
 238              	.LBB111:
 239              	.LBB112:
 240              		.loc 1 368 0
 241 002a FFF7FEFF 		bl	_stats_stop_measure_crit_thd
 242              	.LVL20:
 243              	.LBB113:
 244              	.LBB114:
 245              	.LBB115:
 246              		.loc 2 493 0
 247              		.syntax unified
 248              	@ 493 "../../modules/ChibiOS/os/common/ext/ARM/CMSIS/Core/Include/cmsis_gcc.h" 1
 249 002e 85F31188 		MSR basepri, r5
 250              	@ 0 "" 2
 251              	.LVL21:
 252              		.thumb
 253              		.syntax unified
 254 0032 38BD     		pop	{r3, r4, r5, pc}
 255              	.LBE115:
 256              	.LBE114:
 257              	.LBE113:
 258              	.LBE112:
 259              	.LBE111:
 260              	.LBE110:
 261              		.cfi_endproc
 262              	.LFE339:
 263              		.size	usbStart, .-usbStart
 264              		.section	.text.usbStop,"ax",%progbits
 265              		.align	1
 266              		.global	usbStop
 267              		.syntax unified
 268              		.thumb
 269              		.thumb_func
 270              		.fpu fpv4-sp-d16
 271              		.type	usbStop, %function
 272              	usbStop:
 273              	.LFB340:
 274              		.loc 3 327 0
 275              		.cfi_startproc
 276              		@ args = 0, pretend = 0, frame = 0
 277              		@ frame_needed = 0, uses_anonymous_args = 0
 278              	.LVL22:
 279 0000 38B5     		push	{r3, r4, r5, lr}
 280              		.cfi_def_cfa_offset 16
 281              		.cfi_offset 3, -16
 282              		.cfi_offset 4, -12
 283              		.cfi_offset 5, -8
 284              		.cfi_offset 14, -4
 285              		.loc 3 327 0
ARM GAS  /tmp/ccYm74WD.s 			page 6


 286 0002 0446     		mov	r4, r0
 287              	.LBB132:
 288              	.LBB133:
 289              	.LBB134:
 290              	.LBB135:
 291              	.LBB136:
 292              	.LBB137:
 293              		.loc 2 493 0
 294 0004 2023     		movs	r3, #32
 295              		.syntax unified
 296              	@ 493 "../../modules/ChibiOS/os/common/ext/ARM/CMSIS/Core/Include/cmsis_gcc.h" 1
 297 0006 83F31188 		MSR basepri, r3
 298              	@ 0 "" 2
 299              	.LVL23:
 300              		.thumb
 301              		.syntax unified
 302              	.LBE137:
 303              	.LBE136:
 304              	.LBE135:
 305              		.loc 1 356 0
 306 000a FFF7FEFF 		bl	_stats_start_measure_crit_thd
 307              	.LVL24:
 308              	.LBE134:
 309              	.LBE133:
 310              	.LBE132:
 311              		.loc 3 339 0
 312 000e 2046     		mov	r0, r4
 313 0010 FFF7FEFF 		bl	usb_lld_stop
 314              	.LVL25:
 315              		.loc 3 340 0
 316 0014 0025     		movs	r5, #0
 317              		.loc 3 341 0
 318 0016 0123     		movs	r3, #1
 319              		.loc 3 340 0
 320 0018 6560     		str	r5, [r4, #4]
 321              		.loc 3 341 0
 322 001a 2370     		strb	r3, [r4]
 323              	.LVL26:
 324              		.loc 3 355 0
 325 001c E560     		str	r5, [r4, #12]
 326              	.LVL27:
 327 001e 2561     		str	r5, [r4, #16]
 328              	.LVL28:
 329 0020 6561     		str	r5, [r4, #20]
 330              	.LVL29:
 331 0022 A561     		str	r5, [r4, #24]
 332              	.LVL30:
 333 0024 E561     		str	r5, [r4, #28]
 334              	.LVL31:
 335 0026 2562     		str	r5, [r4, #32]
 336              	.LVL32:
 337              	.LBB138:
 338              	.LBB139:
 339              		.file 4 "../../modules/ChibiOS/os/hal/osal/rt/osal.h"
 340              		.loc 4 618 0
 341 0028 FFF7FEFF 		bl	chSchRescheduleS
 342              	.LVL33:
ARM GAS  /tmp/ccYm74WD.s 			page 7


 343              	.LBE139:
 344              	.LBE138:
 345              	.LBB140:
 346              	.LBB141:
 347              	.LBB142:
 348              		.loc 1 368 0
 349 002c FFF7FEFF 		bl	_stats_stop_measure_crit_thd
 350              	.LVL34:
 351              	.LBB143:
 352              	.LBB144:
 353              	.LBB145:
 354              		.loc 2 493 0
 355              		.syntax unified
 356              	@ 493 "../../modules/ChibiOS/os/common/ext/ARM/CMSIS/Core/Include/cmsis_gcc.h" 1
 357 0030 85F31188 		MSR basepri, r5
 358              	@ 0 "" 2
 359              	.LVL35:
 360              		.thumb
 361              		.syntax unified
 362 0034 38BD     		pop	{r3, r4, r5, pc}
 363              	.LBE145:
 364              	.LBE144:
 365              	.LBE143:
 366              	.LBE142:
 367              	.LBE141:
 368              	.LBE140:
 369              		.cfi_endproc
 370              	.LFE340:
 371              		.size	usbStop, .-usbStop
 372              		.section	.text.usbInitEndpointI,"ax",%progbits
 373              		.align	1
 374              		.global	usbInitEndpointI
 375              		.syntax unified
 376              		.thumb
 377              		.thumb_func
 378              		.fpu fpv4-sp-d16
 379              		.type	usbInitEndpointI, %function
 380              	usbInitEndpointI:
 381              	.LFB341:
 382              		.loc 3 376 0
 383              		.cfi_startproc
 384              		@ args = 0, pretend = 0, frame = 0
 385              		@ frame_needed = 0, uses_anonymous_args = 0
 386              	.LVL36:
 387 0000 70B5     		push	{r4, r5, r6, lr}
 388              		.cfi_def_cfa_offset 16
 389              		.cfi_offset 4, -16
 390              		.cfi_offset 5, -12
 391              		.cfi_offset 6, -8
 392              		.cfi_offset 14, -4
 393              		.loc 3 385 0
 394 0002 00EB8103 		add	r3, r0, r1, lsl #2
 395              		.loc 3 376 0
 396 0006 0546     		mov	r5, r0
 397              		.loc 3 388 0
 398 0008 5069     		ldr	r0, [r2, #20]
 399              	.LVL37:
ARM GAS  /tmp/ccYm74WD.s 			page 8


 400              		.loc 3 376 0
 401 000a 0E46     		mov	r6, r1
 402 000c 1446     		mov	r4, r2
 403              		.loc 3 385 0
 404 000e DA60     		str	r2, [r3, #12]
 405              		.loc 3 388 0
 406 0010 18B1     		cbz	r0, .L10
 407              		.loc 3 389 0
 408 0012 1022     		movs	r2, #16
 409              	.LVL38:
 410 0014 0021     		movs	r1, #0
 411              	.LVL39:
 412 0016 FFF7FEFF 		bl	memset
 413              	.LVL40:
 414              	.L10:
 415              		.loc 3 391 0
 416 001a A069     		ldr	r0, [r4, #24]
 417 001c 18B1     		cbz	r0, .L11
 418              		.loc 3 392 0
 419 001e 1022     		movs	r2, #16
 420 0020 0021     		movs	r1, #0
 421 0022 FFF7FEFF 		bl	memset
 422              	.LVL41:
 423              	.L11:
 424              		.loc 3 396 0
 425 0026 3146     		mov	r1, r6
 426 0028 2846     		mov	r0, r5
 427              		.loc 3 397 0
 428 002a BDE87040 		pop	{r4, r5, r6, lr}
 429              		.cfi_restore 14
 430              		.cfi_restore 6
 431              		.cfi_restore 5
 432              		.cfi_restore 4
 433              		.cfi_def_cfa_offset 0
 434              	.LVL42:
 435              		.loc 3 396 0
 436 002e FFF7FEBF 		b	usb_lld_init_endpoint
 437              	.LVL43:
 438              		.cfi_endproc
 439              	.LFE341:
 440              		.size	usbInitEndpointI, .-usbInitEndpointI
 441              		.section	.text.usbDisableEndpointsI,"ax",%progbits
 442              		.align	1
 443              		.global	usbDisableEndpointsI
 444              		.syntax unified
 445              		.thumb
 446              		.thumb_func
 447              		.fpu fpv4-sp-d16
 448              		.type	usbDisableEndpointsI, %function
 449              	usbDisableEndpointsI:
 450              	.LFB342:
 451              		.loc 3 410 0
 452              		.cfi_startproc
 453              		@ args = 0, pretend = 0, frame = 0
 454              		@ frame_needed = 0, uses_anonymous_args = 0
 455              		@ link register save eliminated.
 456              	.LVL44:
ARM GAS  /tmp/ccYm74WD.s 			page 9


 457              		.loc 3 417 0
 458 0000 0289     		ldrh	r2, [r0, #8]
 459 0002 02F00102 		and	r2, r2, #1
 460 0006 0281     		strh	r2, [r0, #8]	@ movhi
 461              		.loc 3 418 0
 462 0008 4289     		ldrh	r2, [r0, #10]
 463 000a 02F00102 		and	r2, r2, #1
 464 000e 4281     		strh	r2, [r0, #10]	@ movhi
 465              	.LVL45:
 466              		.loc 3 432 0
 467 0010 0022     		movs	r2, #0
 468 0012 0261     		str	r2, [r0, #16]
 469              	.LVL46:
 470 0014 4261     		str	r2, [r0, #20]
 471              	.LVL47:
 472 0016 8261     		str	r2, [r0, #24]
 473              	.LVL48:
 474 0018 C261     		str	r2, [r0, #28]
 475              	.LVL49:
 476 001a 0262     		str	r2, [r0, #32]
 477              	.LVL50:
 478              		.loc 3 436 0
 479 001c FFF7FEBF 		b	usb_lld_disable_endpoints
 480              	.LVL51:
 481              		.cfi_endproc
 482              	.LFE342:
 483              		.size	usbDisableEndpointsI, .-usbDisableEndpointsI
 484              		.section	.text.usbStartReceiveI,"ax",%progbits
 485              		.align	1
 486              		.global	usbStartReceiveI
 487              		.syntax unified
 488              		.thumb
 489              		.thumb_func
 490              		.fpu fpv4-sp-d16
 491              		.type	usbStartReceiveI, %function
 492              	usbStartReceiveI:
 493              	.LFB343:
 494              		.loc 3 454 0
 495              		.cfi_startproc
 496              		@ args = 0, pretend = 0, frame = 0
 497              		@ frame_needed = 0, uses_anonymous_args = 0
 498              		@ link register save eliminated.
 499              	.LVL52:
 500 0000 F0B4     		push	{r4, r5, r6, r7}
 501              		.cfi_def_cfa_offset 16
 502              		.cfi_offset 4, -16
 503              		.cfi_offset 5, -12
 504              		.cfi_offset 6, -8
 505              		.cfi_offset 7, -4
 506              		.loc 3 462 0
 507 0002 0125     		movs	r5, #1
 508              		.loc 3 466 0
 509 0004 00EB8104 		add	r4, r0, r1, lsl #2
 510              		.loc 3 462 0
 511 0008 4789     		ldrh	r7, [r0, #10]
 512 000a 8D40     		lsls	r5, r5, r1
 513              		.loc 3 466 0
ARM GAS  /tmp/ccYm74WD.s 			page 10


 514 000c E468     		ldr	r4, [r4, #12]
 515              		.loc 3 462 0
 516 000e 3D43     		orrs	r5, r5, r7
 517              		.loc 3 466 0
 518 0010 A469     		ldr	r4, [r4, #24]
 519              	.LVL53:
 520              		.loc 3 462 0
 521 0012 4581     		strh	r5, [r0, #10]	@ movhi
 522              		.loc 3 469 0
 523 0014 2360     		str	r3, [r4]
 524              		.loc 3 470 0
 525 0016 0023     		movs	r3, #0
 526              	.LVL54:
 527              		.loc 3 468 0
 528 0018 A260     		str	r2, [r4, #8]
 529              		.loc 3 470 0
 530 001a 6360     		str	r3, [r4, #4]
 531              		.loc 3 477 0
 532 001c F0BC     		pop	{r4, r5, r6, r7}
 533              		.cfi_restore 7
 534              		.cfi_restore 6
 535              		.cfi_restore 5
 536              		.cfi_restore 4
 537              		.cfi_def_cfa_offset 0
 538              	.LVL55:
 539              		.loc 3 476 0
 540 001e FFF7FEBF 		b	usb_lld_start_out
 541              	.LVL56:
 542              		.cfi_endproc
 543              	.LFE343:
 544              		.size	usbStartReceiveI, .-usbStartReceiveI
 545              		.section	.text.usbStartTransmitI,"ax",%progbits
 546              		.align	1
 547              		.global	usbStartTransmitI
 548              		.syntax unified
 549              		.thumb
 550              		.thumb_func
 551              		.fpu fpv4-sp-d16
 552              		.type	usbStartTransmitI, %function
 553              	usbStartTransmitI:
 554              	.LFB344:
 555              		.loc 3 493 0
 556              		.cfi_startproc
 557              		@ args = 0, pretend = 0, frame = 0
 558              		@ frame_needed = 0, uses_anonymous_args = 0
 559              		@ link register save eliminated.
 560              	.LVL57:
 561 0000 F0B4     		push	{r4, r5, r6, r7}
 562              		.cfi_def_cfa_offset 16
 563              		.cfi_offset 4, -16
 564              		.cfi_offset 5, -12
 565              		.cfi_offset 6, -8
 566              		.cfi_offset 7, -4
 567              		.loc 3 501 0
 568 0002 0125     		movs	r5, #1
 569              		.loc 3 505 0
 570 0004 00EB8104 		add	r4, r0, r1, lsl #2
ARM GAS  /tmp/ccYm74WD.s 			page 11


 571              		.loc 3 501 0
 572 0008 0789     		ldrh	r7, [r0, #8]
 573 000a 8D40     		lsls	r5, r5, r1
 574              		.loc 3 505 0
 575 000c E468     		ldr	r4, [r4, #12]
 576              		.loc 3 501 0
 577 000e 3D43     		orrs	r5, r5, r7
 578              		.loc 3 505 0
 579 0010 6469     		ldr	r4, [r4, #20]
 580              	.LVL58:
 581              		.loc 3 501 0
 582 0012 0581     		strh	r5, [r0, #8]	@ movhi
 583              		.loc 3 508 0
 584 0014 2360     		str	r3, [r4]
 585              		.loc 3 509 0
 586 0016 0023     		movs	r3, #0
 587              	.LVL59:
 588              		.loc 3 507 0
 589 0018 A260     		str	r2, [r4, #8]
 590              		.loc 3 509 0
 591 001a 6360     		str	r3, [r4, #4]
 592              		.loc 3 516 0
 593 001c F0BC     		pop	{r4, r5, r6, r7}
 594              		.cfi_restore 7
 595              		.cfi_restore 6
 596              		.cfi_restore 5
 597              		.cfi_restore 4
 598              		.cfi_def_cfa_offset 0
 599              	.LVL60:
 600              		.loc 3 515 0
 601 001e FFF7FEBF 		b	usb_lld_start_in
 602              	.LVL61:
 603              		.cfi_endproc
 604              	.LFE344:
 605              		.size	usbStartTransmitI, .-usbStartTransmitI
 606              		.section	.text.usbStallReceiveI,"ax",%progbits
 607              		.align	1
 608              		.global	usbStallReceiveI
 609              		.syntax unified
 610              		.thumb
 611              		.thumb_func
 612              		.fpu fpv4-sp-d16
 613              		.type	usbStallReceiveI, %function
 614              	usbStallReceiveI:
 615              	.LFB345:
 616              		.loc 3 599 0
 617              		.cfi_startproc
 618              		@ args = 0, pretend = 0, frame = 0
 619              		@ frame_needed = 0, uses_anonymous_args = 0
 620              	.LVL62:
 621              		.loc 3 604 0
 622 0000 0123     		movs	r3, #1
 623              		.loc 3 599 0
 624 0002 10B5     		push	{r4, lr}
 625              		.cfi_def_cfa_offset 8
 626              		.cfi_offset 4, -8
 627              		.cfi_offset 14, -4
ARM GAS  /tmp/ccYm74WD.s 			page 12


 628              		.loc 3 604 0
 629 0004 03FA01F2 		lsl	r2, r3, r1
 630 0008 4489     		ldrh	r4, [r0, #10]
 631 000a 1440     		ands	r4, r2, r4
 632 000c 03D1     		bne	.L23
 633              		.loc 3 608 0
 634 000e FFF7FEFF 		bl	usb_lld_stall_out
 635              	.LVL63:
 636              		.loc 3 609 0
 637 0012 2046     		mov	r0, r4
 638 0014 10BD     		pop	{r4, pc}
 639              	.LVL64:
 640              	.L23:
 641              		.loc 3 605 0
 642 0016 1846     		mov	r0, r3
 643              	.LVL65:
 644              		.loc 3 610 0
 645 0018 10BD     		pop	{r4, pc}
 646              		.cfi_endproc
 647              	.LFE345:
 648              		.size	usbStallReceiveI, .-usbStallReceiveI
 649              		.section	.text.usbStallTransmitI,"ax",%progbits
 650              		.align	1
 651              		.global	usbStallTransmitI
 652              		.syntax unified
 653              		.thumb
 654              		.thumb_func
 655              		.fpu fpv4-sp-d16
 656              		.type	usbStallTransmitI, %function
 657              	usbStallTransmitI:
 658              	.LFB346:
 659              		.loc 3 624 0
 660              		.cfi_startproc
 661              		@ args = 0, pretend = 0, frame = 0
 662              		@ frame_needed = 0, uses_anonymous_args = 0
 663              	.LVL66:
 664              		.loc 3 629 0
 665 0000 0123     		movs	r3, #1
 666              		.loc 3 624 0
 667 0002 10B5     		push	{r4, lr}
 668              		.cfi_def_cfa_offset 8
 669              		.cfi_offset 4, -8
 670              		.cfi_offset 14, -4
 671              		.loc 3 629 0
 672 0004 03FA01F2 		lsl	r2, r3, r1
 673 0008 0489     		ldrh	r4, [r0, #8]
 674 000a 1440     		ands	r4, r2, r4
 675 000c 03D1     		bne	.L26
 676              		.loc 3 633 0
 677 000e FFF7FEFF 		bl	usb_lld_stall_in
 678              	.LVL67:
 679              		.loc 3 634 0
 680 0012 2046     		mov	r0, r4
 681 0014 10BD     		pop	{r4, pc}
 682              	.LVL68:
 683              	.L26:
 684              		.loc 3 630 0
ARM GAS  /tmp/ccYm74WD.s 			page 13


 685 0016 1846     		mov	r0, r3
 686              	.LVL69:
 687              		.loc 3 635 0
 688 0018 10BD     		pop	{r4, pc}
 689              		.cfi_endproc
 690              	.LFE346:
 691              		.size	usbStallTransmitI, .-usbStallTransmitI
 692              		.section	.text.usbWakeupHost,"ax",%progbits
 693              		.align	1
 694              		.global	usbWakeupHost
 695              		.syntax unified
 696              		.thumb
 697              		.thumb_func
 698              		.fpu fpv4-sp-d16
 699              		.type	usbWakeupHost, %function
 700              	usbWakeupHost:
 701              	.LFB347:
 702              		.loc 3 646 0
 703              		.cfi_startproc
 704              		@ args = 0, pretend = 0, frame = 0
 705              		@ frame_needed = 0, uses_anonymous_args = 0
 706              	.LVL70:
 707              		.loc 3 648 0
 708 0000 0378     		ldrb	r3, [r0]	@ zero_extendqisi2
 709 0002 052B     		cmp	r3, #5
 710              		.loc 3 646 0
 711 0004 10B5     		push	{r4, lr}
 712              		.cfi_def_cfa_offset 8
 713              		.cfi_offset 4, -8
 714              		.cfi_offset 14, -4
 715              		.loc 3 646 0
 716 0006 0446     		mov	r4, r0
 717              		.loc 3 648 0
 718 0008 11D1     		bne	.L27
 719              		.loc 3 650 0
 720 000a C26E     		ldr	r2, [r0, #108]
 721              	.LBB146:
 722              	.LBB147:
 723              		.loc 4 720 0
 724 000c 4FF4FA60 		mov	r0, #2000
 725              	.LVL71:
 726              	.LBE147:
 727              	.LBE146:
 728              		.loc 3 650 0
 729 0010 D2F80438 		ldr	r3, [r2, #2052]
 730 0014 43F00103 		orr	r3, r3, #1
 731 0018 C2F80438 		str	r3, [r2, #2052]
 732              	.LVL72:
 733              	.LBB149:
 734              	.LBB148:
 735              		.loc 4 720 0
 736 001c FFF7FEFF 		bl	chThdSleep
 737              	.LVL73:
 738              	.LBE148:
 739              	.LBE149:
 740              		.loc 3 650 0
 741 0020 E26E     		ldr	r2, [r4, #108]
ARM GAS  /tmp/ccYm74WD.s 			page 14


 742 0022 D2F80438 		ldr	r3, [r2, #2052]
 743 0026 23F00103 		bic	r3, r3, #1
 744 002a C2F80438 		str	r3, [r2, #2052]
 745              	.L27:
 746 002e 10BD     		pop	{r4, pc}
 747              		.cfi_endproc
 748              	.LFE347:
 749              		.size	usbWakeupHost, .-usbWakeupHost
 750              		.section	.text._usb_reset,"ax",%progbits
 751              		.align	1
 752              		.global	_usb_reset
 753              		.syntax unified
 754              		.thumb
 755              		.thumb_func
 756              		.fpu fpv4-sp-d16
 757              		.type	_usb_reset, %function
 758              	_usb_reset:
 759              	.LFB348:
 760              		.loc 3 663 0
 761              		.cfi_startproc
 762              		@ args = 0, pretend = 0, frame = 0
 763              		@ frame_needed = 0, uses_anonymous_args = 0
 764              	.LVL74:
 765 0000 70B5     		push	{r4, r5, r6, lr}
 766              		.cfi_def_cfa_offset 16
 767              		.cfi_offset 4, -16
 768              		.cfi_offset 5, -12
 769              		.cfi_offset 6, -8
 770              		.cfi_offset 14, -4
 771              		.loc 3 667 0
 772 0002 0223     		movs	r3, #2
 773              		.loc 3 670 0
 774 0004 0025     		movs	r5, #0
 775              		.loc 3 663 0
 776 0006 0446     		mov	r4, r0
 777              		.loc 3 667 0
 778 0008 0370     		strb	r3, [r0]
 779              		.loc 3 670 0
 780 000a A0F86450 		strh	r5, [r0, #100]	@ movhi
 781              		.loc 3 671 0
 782 000e 80F86650 		strb	r5, [r0, #102]
 783              		.loc 3 672 0
 784 0012 80F86750 		strb	r5, [r0, #103]
 785              		.loc 3 673 0
 786 0016 0581     		strh	r5, [r0, #8]	@ movhi
 787              		.loc 3 674 0
 788 0018 4581     		strh	r5, [r0, #10]	@ movhi
 789              	.LVL75:
 790              		.loc 3 691 0
 791 001a C560     		str	r5, [r0, #12]
 792              	.LVL76:
 793 001c 0561     		str	r5, [r0, #16]
 794              	.LVL77:
 795 001e 4561     		str	r5, [r0, #20]
 796              	.LVL78:
 797 0020 8561     		str	r5, [r0, #24]
 798              	.LVL79:
ARM GAS  /tmp/ccYm74WD.s 			page 15


 799 0022 C561     		str	r5, [r0, #28]
 800              	.LVL80:
 801 0024 0562     		str	r5, [r0, #32]
 802              	.LVL81:
 803              		.loc 3 695 0
 804 0026 80F84C50 		strb	r5, [r0, #76]
 805              		.loc 3 698 0
 806 002a FFF7FEFF 		bl	usb_lld_reset
 807              	.LVL82:
 808              		.loc 3 701 0
 809 002e 6368     		ldr	r3, [r4, #4]
 810 0030 1B68     		ldr	r3, [r3]
 811 0032 23B1     		cbz	r3, .L29
 812              		.loc 3 701 0 is_stmt 0 discriminator 1
 813 0034 2946     		mov	r1, r5
 814 0036 2046     		mov	r0, r4
 815              		.loc 3 702 0 is_stmt 1 discriminator 1
 816 0038 BDE87040 		pop	{r4, r5, r6, lr}
 817              		.cfi_remember_state
 818              		.cfi_restore 14
 819              		.cfi_restore 6
 820              		.cfi_restore 5
 821              		.cfi_restore 4
 822              		.cfi_def_cfa_offset 0
 823              	.LVL83:
 824              		.loc 3 701 0 discriminator 1
 825 003c 1847     		bx	r3	@ indirect register sibling call
 826              	.LVL84:
 827              	.L29:
 828              		.cfi_restore_state
 829 003e 70BD     		pop	{r4, r5, r6, pc}
 830              		.cfi_endproc
 831              	.LFE348:
 832              		.size	_usb_reset, .-_usb_reset
 833              		.section	.text._usb_suspend,"ax",%progbits
 834              		.align	1
 835              		.global	_usb_suspend
 836              		.syntax unified
 837              		.thumb
 838              		.thumb_func
 839              		.fpu fpv4-sp-d16
 840              		.type	_usb_suspend, %function
 841              	_usb_suspend:
 842              	.LFB349:
 843              		.loc 3 713 0
 844              		.cfi_startproc
 845              		@ args = 0, pretend = 0, frame = 0
 846              		@ frame_needed = 0, uses_anonymous_args = 0
 847              		@ link register save eliminated.
 848              	.LVL85:
 849              		.loc 3 717 0
 850 0000 0278     		ldrb	r2, [r0]	@ zero_extendqisi2
 851              		.loc 3 721 0
 852 0002 4368     		ldr	r3, [r0, #4]
 853              		.loc 3 717 0
 854 0004 80F86820 		strb	r2, [r0, #104]
 855              		.loc 3 718 0
ARM GAS  /tmp/ccYm74WD.s 			page 16


 856 0008 0522     		movs	r2, #5
 857              		.loc 3 721 0
 858 000a 1B68     		ldr	r3, [r3]
 859              		.loc 3 718 0
 860 000c 0270     		strb	r2, [r0]
 861              		.loc 3 721 0
 862 000e 0BB1     		cbz	r3, .L31
 863              		.loc 3 721 0 is_stmt 0 discriminator 1
 864 0010 0421     		movs	r1, #4
 865 0012 1847     		bx	r3	@ indirect register sibling call
 866              	.LVL86:
 867              	.L31:
 868 0014 7047     		bx	lr
 869              		.cfi_endproc
 870              	.LFE349:
 871              		.size	_usb_suspend, .-_usb_suspend
 872              		.section	.text._usb_wakeup,"ax",%progbits
 873              		.align	1
 874              		.global	_usb_wakeup
 875              		.syntax unified
 876              		.thumb
 877              		.thumb_func
 878              		.fpu fpv4-sp-d16
 879              		.type	_usb_wakeup, %function
 880              	_usb_wakeup:
 881              	.LFB350:
 882              		.loc 3 753 0 is_stmt 1
 883              		.cfi_startproc
 884              		@ args = 0, pretend = 0, frame = 0
 885              		@ frame_needed = 0, uses_anonymous_args = 0
 886              		@ link register save eliminated.
 887              	.LVL87:
 888              		.loc 3 759 0
 889 0000 4368     		ldr	r3, [r0, #4]
 890              		.loc 3 756 0
 891 0002 90F86820 		ldrb	r2, [r0, #104]	@ zero_extendqisi2
 892              		.loc 3 759 0
 893 0006 1B68     		ldr	r3, [r3]
 894              		.loc 3 756 0
 895 0008 0270     		strb	r2, [r0]
 896              		.loc 3 759 0
 897 000a 0BB1     		cbz	r3, .L33
 898              		.loc 3 759 0 is_stmt 0 discriminator 1
 899 000c 0521     		movs	r1, #5
 900 000e 1847     		bx	r3	@ indirect register sibling call
 901              	.LVL88:
 902              	.L33:
 903 0010 7047     		bx	lr
 904              		.cfi_endproc
 905              	.LFE350:
 906              		.size	_usb_wakeup, .-_usb_wakeup
 907              		.section	.text._usb_ep0setup,"ax",%progbits
 908              		.align	1
 909              		.global	_usb_ep0setup
 910              		.syntax unified
 911              		.thumb
 912              		.thumb_func
ARM GAS  /tmp/ccYm74WD.s 			page 17


 913              		.fpu fpv4-sp-d16
 914              		.type	_usb_ep0setup, %function
 915              	_usb_ep0setup:
 916              	.LFB351:
 917              		.loc 3 772 0 is_stmt 1
 918              		.cfi_startproc
 919              		@ args = 0, pretend = 0, frame = 0
 920              		@ frame_needed = 0, uses_anonymous_args = 0
 921              	.LVL89:
 922              		.loc 3 777 0
 923 0000 90F84C30 		ldrb	r3, [r0, #76]	@ zero_extendqisi2
 924              		.loc 3 772 0
 925 0004 70B5     		push	{r4, r5, r6, lr}
 926              		.cfi_def_cfa_offset 16
 927              		.cfi_offset 4, -16
 928              		.cfi_offset 5, -12
 929              		.cfi_offset 6, -8
 930              		.cfi_offset 14, -4
 931              		.loc 3 772 0
 932 0006 0446     		mov	r4, r0
 933              		.loc 3 777 0
 934 0008 13B1     		cbz	r3, .L36
 935              		.loc 3 782 0
 936 000a 0023     		movs	r3, #0
 937 000c 80F84C30 		strb	r3, [r0, #76]
 938              	.L36:
 939              		.loc 3 786 0
 940 0010 04F15C02 		add	r2, r4, #92
 941 0014 2046     		mov	r0, r4
 942              	.LVL90:
 943 0016 FFF7FEFF 		bl	usb_lld_read_setup
 944              	.LVL91:
 945              		.loc 3 791 0
 946 001a 6368     		ldr	r3, [r4, #4]
 947 001c 9B68     		ldr	r3, [r3, #8]
 948 001e 63BB     		cbnz	r3, .L37
 949              	.L41:
 950              		.loc 3 797 0
 951 0020 94F85C50 		ldrb	r5, [r4, #92]	@ zero_extendqisi2
 952 0024 15F06006 		ands	r6, r5, #96
 953 0028 15D1     		bne	.L42
 954              	.LVL92:
 955              	.LBB178:
 956              	.LBB179:
 957              		.loc 3 90 0
 958 002a 94F85D30 		ldrb	r3, [r4, #93]	@ zero_extendqisi2
 959              		.loc 3 88 0
 960 002e 05F07F05 		and	r5, r5, #127
 961              		.loc 3 89 0
 962 0032 45EA0325 		orr	r5, r5, r3, lsl #8
 963              		.loc 3 88 0
 964 0036 40F20233 		movw	r3, #770
 965 003a 9D42     		cmp	r5, r3
 966 003c 00F00B81 		beq	.L43
 967 0040 59D8     		bhi	.L44
 968 0042 022D     		cmp	r5, #2
 969 0044 00F0D980 		beq	.L45
ARM GAS  /tmp/ccYm74WD.s 			page 18


 970 0048 3DD8     		bhi	.L46
 971 004a 002D     		cmp	r5, #0
 972 004c 00F08580 		beq	.L47
 973 0050 012D     		cmp	r5, #1
 974 0052 00F0CC80 		beq	.L48
 975              	.LVL93:
 976              	.L42:
 977              	.LBE179:
 978              	.LBE178:
 979              		.loc 3 803 0
 980 0056 0021     		movs	r1, #0
 981 0058 2046     		mov	r0, r4
 982 005a FFF7FEFF 		bl	usb_lld_stall_in
 983              	.LVL94:
 984              		.loc 3 804 0
 985 005e 0021     		movs	r1, #0
 986 0060 2046     		mov	r0, r4
 987 0062 FFF7FEFF 		bl	usb_lld_stall_out
 988              	.LVL95:
 989              		.loc 3 805 0
 990 0066 6368     		ldr	r3, [r4, #4]
 991 0068 1B68     		ldr	r3, [r3]
 992 006a 13B1     		cbz	r3, .L71
 993              		.loc 3 805 0 is_stmt 0 discriminator 1
 994 006c 0621     		movs	r1, #6
 995 006e 2046     		mov	r0, r4
 996 0070 9847     		blx	r3
 997              	.LVL96:
 998              	.L71:
 999              		.loc 3 806 0 is_stmt 1
 1000 0072 0623     		movs	r3, #6
 1001 0074 84F84C30 		strb	r3, [r4, #76]
 1002              		.loc 3 807 0
 1003 0078 70BD     		pop	{r4, r5, r6, pc}
 1004              	.LVL97:
 1005              	.L37:
 1006              		.loc 3 792 0 discriminator 1
 1007 007a 2046     		mov	r0, r4
 1008 007c 9847     		blx	r3
 1009              	.LVL98:
 1010              		.loc 3 791 0 discriminator 1
 1011 007e 0028     		cmp	r0, #0
 1012 0080 CED0     		beq	.L41
 1013              	.L40:
 1014              	.LBB191:
 1015              	.LBB192:
 1016              		.loc 3 55 0
 1017 0082 94F86320 		ldrb	r2, [r4, #99]	@ zero_extendqisi2
 1018 0086 94F86230 		ldrb	r3, [r4, #98]	@ zero_extendqisi2
 1019              	.LBE192:
 1020              	.LBE191:
 1021              		.loc 3 819 0
 1022 008a 43EA0223 		orr	r3, r3, r2, lsl #8
 1023              	.LVL99:
 1024              		.loc 3 821 0
 1025 008e 626D     		ldr	r2, [r4, #84]
 1026 0090 9342     		cmp	r3, r2
ARM GAS  /tmp/ccYm74WD.s 			page 19


 1027              		.loc 3 822 0
 1028 0092 38BF     		it	cc
 1029 0094 6365     		strcc	r3, [r4, #84]
 1030              		.loc 3 824 0
 1031 0096 94F95C30 		ldrsb	r3, [r4, #92]
 1032              	.LVL100:
 1033 009a 656D     		ldr	r5, [r4, #84]
 1034 009c 002B     		cmp	r3, #0
 1035 009e 80F2FA80 		bge	.L74
 1036              		.loc 3 826 0
 1037 00a2 002D     		cmp	r5, #0
 1038 00a4 00F0EB80 		beq	.L75
 1039              		.loc 3 828 0
 1040 00a8 0923     		movs	r3, #9
 1041 00aa 84F84C30 		strb	r3, [r4, #76]
 1042              	.LBB193:
 1043              	.LBB194:
 1044              		.loc 4 533 0
 1045 00ae FFF7FEFF 		bl	chSysLockFromISR
 1046              	.LVL101:
 1047              	.LBE194:
 1048              	.LBE193:
 1049              		.loc 3 830 0
 1050 00b2 636D     		ldr	r3, [r4, #84]
 1051 00b4 226D     		ldr	r2, [r4, #80]
 1052              	.L112:
 1053 00b6 0021     		movs	r1, #0
 1054 00b8 2046     		mov	r0, r4
 1055 00ba FFF7FEFF 		bl	usbStartTransmitI
 1056              	.LVL102:
 1057              	.L113:
 1058              		.loc 3 868 0
 1059 00be BDE87040 		pop	{r4, r5, r6, lr}
 1060              		.cfi_remember_state
 1061              		.cfi_restore 14
 1062              		.cfi_restore 6
 1063              		.cfi_restore 5
 1064              		.cfi_restore 4
 1065              		.cfi_def_cfa_offset 0
 1066              	.LVL103:
 1067              	.LBB195:
 1068              	.LBB196:
 1069              		.loc 4 544 0
 1070 00c2 FFF7FEBF 		b	chSysUnlockFromISR
 1071              	.LVL104:
 1072              	.L46:
 1073              		.cfi_restore_state
 1074              	.LBE196:
 1075              	.LBE195:
 1076              	.LBB197:
 1077              	.LBB190:
 1078              		.loc 3 88 0
 1079 00c6 B5F5817F 		cmp	r5, #258
 1080 00ca 00F0B080 		beq	.L49
 1081 00ce B5F5407F 		cmp	r5, #768
 1082 00d2 49D0     		beq	.L50
 1083 00d4 B5F5807F 		cmp	r5, #256
ARM GAS  /tmp/ccYm74WD.s 			page 20


 1084 00d8 BDD1     		bne	.L42
 1085              		.loc 3 98 0
 1086 00da 94F85E30 		ldrb	r3, [r4, #94]	@ zero_extendqisi2
 1087 00de 012B     		cmp	r3, #1
 1088 00e0 B9D1     		bne	.L42
 1089              		.loc 3 99 0
 1090 00e2 B4F86430 		ldrh	r3, [r4, #100]
 1091 00e6 23F00203 		bic	r3, r3, #2
 1092              	.L115:
 1093              		.loc 3 108 0
 1094 00ea A4F86430 		strh	r3, [r4, #100]	@ movhi
 1095              		.loc 3 109 0
 1096 00ee 2665     		str	r6, [r4, #80]
 1097 00f0 6665     		str	r6, [r4, #84]
 1098              	.L110:
 1099              		.loc 3 185 0
 1100 00f2 A665     		str	r6, [r4, #88]
 1101 00f4 C5E7     		b	.L40
 1102              	.L44:
 1103              		.loc 3 88 0
 1104 00f6 40F20163 		movw	r3, #1537
 1105 00fa 9D42     		cmp	r5, r3
 1106 00fc 1ED8     		bhi	.L52
 1107 00fe B5F5C06F 		cmp	r5, #1536
 1108 0102 3BD2     		bcs	.L53
 1109 0104 B5F5A06F 		cmp	r5, #1280
 1110 0108 A5D1     		bne	.L42
 1111              		.loc 3 118 0
 1112 010a B4F85C30 		ldrh	r3, [r4, #92]
 1113 010e B3F5A06F 		cmp	r3, #1280
 1114 0112 0ED1     		bne	.L58
 1115              	.LVL105:
 1116              	.LBB180:
 1117              	.LBB181:
 1118              		.loc 3 66 0
 1119 0114 94F85E30 		ldrb	r3, [r4, #94]	@ zero_extendqisi2
 1120              		.loc 3 67 0
 1121 0118 2046     		mov	r0, r4
 1122              		.loc 3 66 0
 1123 011a 84F86630 		strb	r3, [r4, #102]
 1124              		.loc 3 67 0
 1125 011e FFF7FEFF 		bl	usb_lld_set_address
 1126              	.LVL106:
 1127              		.loc 3 68 0
 1128 0122 6368     		ldr	r3, [r4, #4]
 1129 0124 1B68     		ldr	r3, [r3]
 1130 0126 13B1     		cbz	r3, .L59
 1131 0128 0121     		movs	r1, #1
 1132 012a 2046     		mov	r0, r4
 1133 012c 9847     		blx	r3
 1134              	.LVL107:
 1135              	.L59:
 1136              		.loc 3 69 0
 1137 012e 0323     		movs	r3, #3
 1138 0130 2370     		strb	r3, [r4]
 1139              	.LVL108:
 1140              	.L58:
ARM GAS  /tmp/ccYm74WD.s 			page 21


 1141              	.LBE181:
 1142              	.LBE180:
 1143              		.loc 3 122 0
 1144 0132 0023     		movs	r3, #0
 1145 0134 2365     		str	r3, [r4, #80]
 1146 0136 6365     		str	r3, [r4, #84]
 1147              	.L111:
 1148              		.loc 3 176 0
 1149 0138 A365     		str	r3, [r4, #88]
 1150 013a A2E7     		b	.L40
 1151              	.L52:
 1152              		.loc 3 88 0
 1153 013c B5F5106F 		cmp	r5, #2304
 1154 0140 32D0     		beq	.L55
 1155 0142 40F60243 		movw	r3, #3074
 1156 0146 9D42     		cmp	r5, r3
 1157 0148 51D0     		beq	.L48
 1158 014a B5F5006F 		cmp	r5, #2048
 1159 014e 82D1     		bne	.L42
 1160              		.loc 3 142 0
 1161 0150 04F16703 		add	r3, r4, #103
 1162 0154 2365     		str	r3, [r4, #80]
 1163 0156 0123     		movs	r3, #1
 1164 0158 24E0     		b	.L114
 1165              	.L47:
 1166              		.loc 3 93 0
 1167 015a 04F16403 		add	r3, r4, #100
 1168 015e A565     		str	r5, [r4, #88]
 1169 0160 2365     		str	r3, [r4, #80]
 1170 0162 0223     		movs	r3, #2
 1171 0164 6365     		str	r3, [r4, #84]
 1172 0166 8CE7     		b	.L40
 1173              	.L50:
 1174              		.loc 3 107 0
 1175 0168 94F85E30 		ldrb	r3, [r4, #94]	@ zero_extendqisi2
 1176 016c 012B     		cmp	r3, #1
 1177 016e 7FF472AF 		bne	.L42
 1178              		.loc 3 108 0
 1179 0172 B4F86430 		ldrh	r3, [r4, #100]
 1180 0176 43F00203 		orr	r3, r3, #2
 1181 017a B6E7     		b	.L115
 1182              	.L53:
 1183              	.LBB182:
 1184              	.LBB183:
 1185              		.loc 3 55 0
 1186 017c 94F86120 		ldrb	r2, [r4, #97]	@ zero_extendqisi2
 1187              	.LBE183:
 1188              	.LBE182:
 1189              		.loc 3 130 0
 1190 0180 2046     		mov	r0, r4
 1191 0182 6168     		ldr	r1, [r4, #4]
 1192              	.LBB185:
 1193              	.LBB184:
 1194              		.loc 3 55 0
 1195 0184 94F86030 		ldrb	r3, [r4, #96]	@ zero_extendqisi2
 1196              	.LBE184:
 1197              	.LBE185:
ARM GAS  /tmp/ccYm74WD.s 			page 22


 1198              		.loc 3 130 0
 1199 0188 4D68     		ldr	r5, [r1, #4]
 1200 018a 43EA0223 		orr	r3, r3, r2, lsl #8
 1201 018e 94F85F10 		ldrb	r1, [r4, #95]	@ zero_extendqisi2
 1202 0192 94F85E20 		ldrb	r2, [r4, #94]	@ zero_extendqisi2
 1203 0196 A847     		blx	r5
 1204              	.LVL109:
 1205              		.loc 3 133 0
 1206 0198 0028     		cmp	r0, #0
 1207 019a 3FF45CAF 		beq	.L42
 1208              		.loc 3 137 0
 1209 019e 4368     		ldr	r3, [r0, #4]
 1210 01a0 2365     		str	r3, [r4, #80]
 1211 01a2 0368     		ldr	r3, [r0]
 1212              	.LVL110:
 1213              	.L114:
 1214              		.loc 3 142 0
 1215 01a4 6365     		str	r3, [r4, #84]
 1216 01a6 A4E7     		b	.L110
 1217              	.L55:
 1218              		.loc 3 153 0
 1219 01a8 2378     		ldrb	r3, [r4]	@ zero_extendqisi2
 1220 01aa 042B     		cmp	r3, #4
 1221 01ac 0FD1     		bne	.L61
 1222              	.LBB186:
 1223              	.LBB187:
 1224              		.loc 4 533 0
 1225 01ae FFF7FEFF 		bl	chSysLockFromISR
 1226              	.LVL111:
 1227              	.LBE187:
 1228              	.LBE186:
 1229              		.loc 3 156 0
 1230 01b2 2046     		mov	r0, r4
 1231 01b4 FFF7FEFF 		bl	usbDisableEndpointsI
 1232              	.LVL112:
 1233              	.LBB188:
 1234              	.LBB189:
 1235              		.loc 4 544 0
 1236 01b8 FFF7FEFF 		bl	chSysUnlockFromISR
 1237              	.LVL113:
 1238              	.LBE189:
 1239              	.LBE188:
 1240              		.loc 3 160 0
 1241 01bc 6368     		ldr	r3, [r4, #4]
 1242              		.loc 3 158 0
 1243 01be 84F86760 		strb	r6, [r4, #103]
 1244              		.loc 3 159 0
 1245 01c2 0321     		movs	r1, #3
 1246              		.loc 3 160 0
 1247 01c4 1B68     		ldr	r3, [r3]
 1248              		.loc 3 159 0
 1249 01c6 2170     		strb	r1, [r4]
 1250              		.loc 3 160 0
 1251 01c8 0BB1     		cbz	r3, .L61
 1252 01ca 2046     		mov	r0, r4
 1253 01cc 9847     		blx	r3
 1254              	.LVL114:
ARM GAS  /tmp/ccYm74WD.s 			page 23


 1255              	.L61:
 1256              		.loc 3 162 0
 1257 01ce 94F85E30 		ldrb	r3, [r4, #94]	@ zero_extendqisi2
 1258 01d2 002B     		cmp	r3, #0
 1259 01d4 ADD0     		beq	.L58
 1260              		.loc 3 164 0
 1261 01d6 84F86730 		strb	r3, [r4, #103]
 1262              		.loc 3 165 0
 1263 01da 0423     		movs	r3, #4
 1264 01dc 2370     		strb	r3, [r4]
 1265              		.loc 3 166 0
 1266 01de 6368     		ldr	r3, [r4, #4]
 1267 01e0 1B68     		ldr	r3, [r3]
 1268 01e2 002B     		cmp	r3, #0
 1269 01e4 A5D0     		beq	.L58
 1270 01e6 0221     		movs	r1, #2
 1271 01e8 2046     		mov	r0, r4
 1272 01ea 9847     		blx	r3
 1273              	.LVL115:
 1274 01ec A1E7     		b	.L58
 1275              	.L48:
 1276              		.loc 3 176 0
 1277 01ee 324B     		ldr	r3, .L119
 1278 01f0 2365     		str	r3, [r4, #80]
 1279 01f2 0223     		movs	r3, #2
 1280 01f4 6365     		str	r3, [r4, #84]
 1281 01f6 0023     		movs	r3, #0
 1282 01f8 9EE7     		b	.L111
 1283              	.L45:
 1284              		.loc 3 181 0
 1285 01fa 94F86010 		ldrb	r1, [r4, #96]	@ zero_extendqisi2
 1286              		.loc 3 182 0
 1287 01fe 2046     		mov	r0, r4
 1288              		.loc 3 181 0
 1289 0200 11F0800F 		tst	r1, #128
 1290 0204 01F00F01 		and	r1, r1, #15
 1291 0208 0ED0     		beq	.L64
 1292              	.LVL116:
 1293              		.loc 3 182 0
 1294 020a FFF7FEFF 		bl	usb_lld_get_status_in
 1295              	.LVL117:
 1296              	.L118:
 1297              		.loc 3 199 0
 1298 020e 0128     		cmp	r0, #1
 1299 0210 06D0     		beq	.L65
 1300 0212 0228     		cmp	r0, #2
 1301 0214 7FF41FAF 		bne	.L42
 1302              		.loc 3 207 0
 1303 0218 284B     		ldr	r3, .L119+4
 1304 021a 6065     		str	r0, [r4, #84]
 1305 021c 2365     		str	r3, [r4, #80]
 1306 021e 68E7     		b	.L110
 1307              	.L65:
 1308              		.loc 3 185 0
 1309 0220 274B     		ldr	r3, .L119+8
 1310 0222 6565     		str	r5, [r4, #84]
 1311 0224 2365     		str	r3, [r4, #80]
ARM GAS  /tmp/ccYm74WD.s 			page 24


 1312 0226 64E7     		b	.L110
 1313              	.LVL118:
 1314              	.L64:
 1315              		.loc 3 199 0
 1316 0228 FFF7FEFF 		bl	usb_lld_get_status_out
 1317              	.LVL119:
 1318 022c EFE7     		b	.L118
 1319              	.L49:
 1320              		.loc 3 217 0
 1321 022e 94F85E30 		ldrb	r3, [r4, #94]	@ zero_extendqisi2
 1322 0232 002B     		cmp	r3, #0
 1323 0234 7FF40FAF 		bne	.L42
 1324              		.loc 3 221 0
 1325 0238 94F86030 		ldrb	r3, [r4, #96]	@ zero_extendqisi2
 1326 023c 13F00F01 		ands	r1, r3, #15
 1327 0240 3FF477AF 		beq	.L58
 1328              		.loc 3 222 0
 1329 0244 1A06     		lsls	r2, r3, #24
 1330              		.loc 3 223 0
 1331 0246 2046     		mov	r0, r4
 1332              		.loc 3 222 0
 1333 0248 02D5     		bpl	.L69
 1334              	.LVL120:
 1335              		.loc 3 223 0
 1336 024a FFF7FEFF 		bl	usb_lld_clear_in
 1337              	.LVL121:
 1338 024e 70E7     		b	.L58
 1339              	.LVL122:
 1340              	.L69:
 1341              		.loc 3 226 0
 1342 0250 FFF7FEFF 		bl	usb_lld_clear_out
 1343              	.LVL123:
 1344 0254 6DE7     		b	.L58
 1345              	.L43:
 1346              		.loc 3 233 0
 1347 0256 94F85E30 		ldrb	r3, [r4, #94]	@ zero_extendqisi2
 1348 025a 002B     		cmp	r3, #0
 1349 025c 7FF4FBAE 		bne	.L42
 1350              		.loc 3 237 0
 1351 0260 94F86030 		ldrb	r3, [r4, #96]	@ zero_extendqisi2
 1352 0264 13F00F01 		ands	r1, r3, #15
 1353 0268 3FF463AF 		beq	.L58
 1354              		.loc 3 238 0
 1355 026c 1B06     		lsls	r3, r3, #24
 1356              		.loc 3 239 0
 1357 026e 2046     		mov	r0, r4
 1358              		.loc 3 238 0
 1359 0270 02D5     		bpl	.L70
 1360              	.LVL124:
 1361              		.loc 3 239 0
 1362 0272 FFF7FEFF 		bl	usb_lld_stall_in
 1363              	.LVL125:
 1364 0276 5CE7     		b	.L58
 1365              	.LVL126:
 1366              	.L70:
 1367              		.loc 3 242 0
 1368 0278 FFF7FEFF 		bl	usb_lld_stall_out
ARM GAS  /tmp/ccYm74WD.s 			page 25


 1369              	.LVL127:
 1370 027c 59E7     		b	.L58
 1371              	.LVL128:
 1372              	.L75:
 1373              	.LBE190:
 1374              	.LBE197:
 1375              		.loc 3 836 0
 1376 027e 1423     		movs	r3, #20
 1377 0280 84F84C30 		strb	r3, [r4, #76]
 1378              	.LBB198:
 1379              	.LBB199:
 1380              		.loc 4 533 0
 1381 0284 FFF7FEFF 		bl	chSysLockFromISR
 1382              	.LVL129:
 1383              	.LBE199:
 1384              	.LBE198:
 1385              		.loc 3 839 0
 1386 0288 2B46     		mov	r3, r5
 1387 028a 2A46     		mov	r2, r5
 1388              	.L116:
 1389              		.loc 3 852 0
 1390 028c 0021     		movs	r1, #0
 1391 028e 2046     		mov	r0, r4
 1392 0290 FFF7FEFF 		bl	usbStartReceiveI
 1393              	.LVL130:
 1394 0294 13E7     		b	.L113
 1395              	.LVL131:
 1396              	.L74:
 1397              		.loc 3 848 0
 1398 0296 3DB1     		cbz	r5, .L76
 1399              		.loc 3 850 0
 1400 0298 1523     		movs	r3, #21
 1401 029a 84F84C30 		strb	r3, [r4, #76]
 1402              	.LBB200:
 1403              	.LBB201:
 1404              		.loc 4 533 0
 1405 029e FFF7FEFF 		bl	chSysLockFromISR
 1406              	.LVL132:
 1407              	.LBE201:
 1408              	.LBE200:
 1409              		.loc 3 852 0
 1410 02a2 636D     		ldr	r3, [r4, #84]
 1411 02a4 226D     		ldr	r2, [r4, #80]
 1412 02a6 F1E7     		b	.L116
 1413              	.LVL133:
 1414              	.L76:
 1415              		.loc 3 858 0
 1416 02a8 0B23     		movs	r3, #11
 1417 02aa 84F84C30 		strb	r3, [r4, #76]
 1418              	.LBB202:
 1419              	.LBB203:
 1420              		.loc 4 533 0
 1421 02ae FFF7FEFF 		bl	chSysLockFromISR
 1422              	.LVL134:
 1423              	.LBE203:
 1424              	.LBE202:
 1425              		.loc 3 861 0
ARM GAS  /tmp/ccYm74WD.s 			page 26


 1426 02b2 2B46     		mov	r3, r5
 1427 02b4 2A46     		mov	r2, r5
 1428 02b6 FEE6     		b	.L112
 1429              	.L120:
 1430              		.align	2
 1431              	.L119:
 1432 02b8 00000000 		.word	.LANCHOR0
 1433 02bc 00000000 		.word	.LANCHOR2
 1434 02c0 00000000 		.word	.LANCHOR1
 1435              		.cfi_endproc
 1436              	.LFE351:
 1437              		.size	_usb_ep0setup, .-_usb_ep0setup
 1438              		.section	.text._usb_ep0in,"ax",%progbits
 1439              		.align	1
 1440              		.global	_usb_ep0in
 1441              		.syntax unified
 1442              		.thumb
 1443              		.thumb_func
 1444              		.fpu fpv4-sp-d16
 1445              		.type	_usb_ep0in, %function
 1446              	_usb_ep0in:
 1447              	.LFB352:
 1448              		.loc 3 880 0
 1449              		.cfi_startproc
 1450              		@ args = 0, pretend = 0, frame = 0
 1451              		@ frame_needed = 0, uses_anonymous_args = 0
 1452              	.LVL135:
 1453 0000 38B5     		push	{r3, r4, r5, lr}
 1454              		.cfi_def_cfa_offset 16
 1455              		.cfi_offset 3, -16
 1456              		.cfi_offset 4, -12
 1457              		.cfi_offset 5, -8
 1458              		.cfi_offset 14, -4
 1459              		.loc 3 884 0
 1460 0002 90F84C30 		ldrb	r3, [r0, #76]	@ zero_extendqisi2
 1461              		.loc 3 880 0
 1462 0006 0446     		mov	r4, r0
 1463              		.loc 3 884 0
 1464 0008 152B     		cmp	r3, #21
 1465 000a 29D8     		bhi	.L121
 1466 000c DFE803F0 		tbb	[pc, r3]
 1467              	.L124:
 1468 0010 3D       		.byte	(.L123-.L124)/2
 1469 0011 28       		.byte	(.L121-.L124)/2
 1470 0012 28       		.byte	(.L121-.L124)/2
 1471 0013 28       		.byte	(.L121-.L124)/2
 1472 0014 28       		.byte	(.L121-.L124)/2
 1473 0015 28       		.byte	(.L121-.L124)/2
 1474 0016 3D       		.byte	(.L123-.L124)/2
 1475 0017 28       		.byte	(.L121-.L124)/2
 1476 0018 28       		.byte	(.L121-.L124)/2
 1477 0019 0B       		.byte	(.L125-.L124)/2
 1478 001a 29       		.byte	(.L126-.L124)/2
 1479 001b 38       		.byte	(.L127-.L124)/2
 1480 001c 28       		.byte	(.L121-.L124)/2
 1481 001d 28       		.byte	(.L121-.L124)/2
 1482 001e 28       		.byte	(.L121-.L124)/2
ARM GAS  /tmp/ccYm74WD.s 			page 27


 1483 001f 28       		.byte	(.L121-.L124)/2
 1484 0020 28       		.byte	(.L121-.L124)/2
 1485 0021 28       		.byte	(.L121-.L124)/2
 1486 0022 28       		.byte	(.L121-.L124)/2
 1487 0023 28       		.byte	(.L121-.L124)/2
 1488 0024 3D       		.byte	(.L123-.L124)/2
 1489 0025 3D       		.byte	(.L123-.L124)/2
 1490              		.p2align 1
 1491              	.L125:
 1492              	.LVL136:
 1493              	.LBB204:
 1494              	.LBB205:
 1495              		.loc 3 55 0
 1496 0026 90F86310 		ldrb	r1, [r0, #99]	@ zero_extendqisi2
 1497              	.LVL137:
 1498 002a 90F86220 		ldrb	r2, [r0, #98]	@ zero_extendqisi2
 1499              	.LBE205:
 1500              	.LBE204:
 1501              		.loc 3 890 0
 1502 002e 436D     		ldr	r3, [r0, #84]
 1503              		.loc 3 886 0
 1504 0030 42EA0122 		orr	r2, r2, r1, lsl #8
 1505              		.loc 3 890 0
 1506 0034 9A42     		cmp	r2, r3
 1507 0036 14D9     		bls	.L126
 1508              		.loc 3 891 0 discriminator 1
 1509 0038 C268     		ldr	r2, [r0, #12]
 1510 003a 128A     		ldrh	r2, [r2, #16]
 1511 003c B3FBF2F5 		udiv	r5, r3, r2
 1512 0040 02FB1535 		mls	r5, r2, r5, r3
 1513              		.loc 3 890 0 discriminator 1
 1514 0044 6DB9     		cbnz	r5, .L126
 1515              	.LBB206:
 1516              	.LBB207:
 1517              		.loc 4 533 0
 1518 0046 FFF7FEFF 		bl	chSysLockFromISR
 1519              	.LVL138:
 1520              	.LBE207:
 1521              	.LBE206:
 1522              		.loc 3 893 0
 1523 004a 2B46     		mov	r3, r5
 1524 004c 2A46     		mov	r2, r5
 1525 004e 2946     		mov	r1, r5
 1526 0050 2046     		mov	r0, r4
 1527 0052 FFF7FEFF 		bl	usbStartTransmitI
 1528              	.LVL139:
 1529              	.LBB208:
 1530              	.LBB209:
 1531              		.loc 4 544 0
 1532 0056 FFF7FEFF 		bl	chSysUnlockFromISR
 1533              	.LVL140:
 1534              	.LBE209:
 1535              	.LBE208:
 1536              		.loc 3 895 0
 1537 005a 0A23     		movs	r3, #10
 1538              	.L136:
 1539              		.loc 3 930 0
ARM GAS  /tmp/ccYm74WD.s 			page 28


 1540 005c 84F84C30 		strb	r3, [r4, #76]
 1541              	.L121:
 1542 0060 38BD     		pop	{r3, r4, r5, pc}
 1543              	.LVL141:
 1544              	.L126:
 1545              		.loc 3 901 0
 1546 0062 1423     		movs	r3, #20
 1547 0064 84F84C30 		strb	r3, [r4, #76]
 1548              	.LBB210:
 1549              	.LBB211:
 1550              		.loc 4 533 0
 1551 0068 FFF7FEFF 		bl	chSysLockFromISR
 1552              	.LVL142:
 1553              	.LBE211:
 1554              	.LBE210:
 1555              		.loc 3 904 0
 1556 006c 0023     		movs	r3, #0
 1557 006e 2046     		mov	r0, r4
 1558 0070 1A46     		mov	r2, r3
 1559 0072 1946     		mov	r1, r3
 1560 0074 FFF7FEFF 		bl	usbStartReceiveI
 1561              	.LVL143:
 1562              		.loc 3 935 0
 1563 0078 BDE83840 		pop	{r3, r4, r5, lr}
 1564              		.cfi_remember_state
 1565              		.cfi_restore 14
 1566              		.cfi_restore 5
 1567              		.cfi_restore 4
 1568              		.cfi_restore 3
 1569              		.cfi_def_cfa_offset 0
 1570              	.LVL144:
 1571              	.LBB212:
 1572              	.LBB213:
 1573              		.loc 4 544 0
 1574 007c FFF7FEBF 		b	chSysUnlockFromISR
 1575              	.LVL145:
 1576              	.L127:
 1577              		.cfi_restore_state
 1578              	.LBE213:
 1579              	.LBE212:
 1580              		.loc 3 912 0
 1581 0080 836D     		ldr	r3, [r0, #88]
 1582 0082 03B1     		cbz	r3, .L128
 1583              		.loc 3 913 0
 1584 0084 9847     		blx	r3
 1585              	.LVL146:
 1586              	.L128:
 1587              		.loc 3 915 0
 1588 0086 0023     		movs	r3, #0
 1589 0088 E8E7     		b	.L136
 1590              	.LVL147:
 1591              	.L123:
 1592              		.loc 3 927 0
 1593 008a 0021     		movs	r1, #0
 1594              	.LVL148:
 1595 008c FFF7FEFF 		bl	usb_lld_stall_in
 1596              	.LVL149:
ARM GAS  /tmp/ccYm74WD.s 			page 29


 1597              		.loc 3 928 0
 1598 0090 0021     		movs	r1, #0
 1599 0092 2046     		mov	r0, r4
 1600 0094 FFF7FEFF 		bl	usb_lld_stall_out
 1601              	.LVL150:
 1602              		.loc 3 929 0
 1603 0098 6368     		ldr	r3, [r4, #4]
 1604 009a 1B68     		ldr	r3, [r3]
 1605 009c 13B1     		cbz	r3, .L129
 1606              		.loc 3 929 0 is_stmt 0 discriminator 1
 1607 009e 0621     		movs	r1, #6
 1608 00a0 2046     		mov	r0, r4
 1609 00a2 9847     		blx	r3
 1610              	.LVL151:
 1611              	.L129:
 1612              		.loc 3 930 0 is_stmt 1
 1613 00a4 0623     		movs	r3, #6
 1614 00a6 D9E7     		b	.L136
 1615              		.cfi_endproc
 1616              	.LFE352:
 1617              		.size	_usb_ep0in, .-_usb_ep0in
 1618              		.section	.text._usb_ep0out,"ax",%progbits
 1619              		.align	1
 1620              		.global	_usb_ep0out
 1621              		.syntax unified
 1622              		.thumb
 1623              		.thumb_func
 1624              		.fpu fpv4-sp-d16
 1625              		.type	_usb_ep0out, %function
 1626              	_usb_ep0out:
 1627              	.LFB353:
 1628              		.loc 3 947 0
 1629              		.cfi_startproc
 1630              		@ args = 0, pretend = 0, frame = 0
 1631              		@ frame_needed = 0, uses_anonymous_args = 0
 1632              	.LVL152:
 1633 0000 38B5     		push	{r3, r4, r5, lr}
 1634              		.cfi_def_cfa_offset 16
 1635              		.cfi_offset 3, -16
 1636              		.cfi_offset 4, -12
 1637              		.cfi_offset 5, -8
 1638              		.cfi_offset 14, -4
 1639              		.loc 3 950 0
 1640 0002 90F84C30 		ldrb	r3, [r0, #76]	@ zero_extendqisi2
 1641              		.loc 3 947 0
 1642 0006 0446     		mov	r4, r0
 1643 0008 152B     		cmp	r3, #21
 1644 000a 23D8     		bhi	.L137
 1645 000c 0122     		movs	r2, #1
 1646 000e 9A40     		lsls	r2, r2, r3
 1647 0010 40F64163 		movw	r3, #3649
 1648 0014 1A42     		tst	r2, r3
 1649 0016 1ED1     		bne	.L139
 1650 0018 12F48015 		ands	r5, r2, #1048576
 1651 001c 10D1     		bne	.L140
 1652 001e 9302     		lsls	r3, r2, #10
 1653 0020 18D5     		bpl	.L137
ARM GAS  /tmp/ccYm74WD.s 			page 30


 1654              		.loc 3 953 0
 1655 0022 0B23     		movs	r3, #11
 1656 0024 80F84C30 		strb	r3, [r0, #76]
 1657              	.LBB214:
 1658              	.LBB215:
 1659              		.loc 4 533 0
 1660 0028 FFF7FEFF 		bl	chSysLockFromISR
 1661              	.LVL153:
 1662              	.LBE215:
 1663              	.LBE214:
 1664              		.loc 3 956 0
 1665 002c 2B46     		mov	r3, r5
 1666 002e 2A46     		mov	r2, r5
 1667 0030 2946     		mov	r1, r5
 1668 0032 2046     		mov	r0, r4
 1669 0034 FFF7FEFF 		bl	usbStartTransmitI
 1670              	.LVL154:
 1671              		.loc 3 994 0
 1672 0038 BDE83840 		pop	{r3, r4, r5, lr}
 1673              		.cfi_remember_state
 1674              		.cfi_restore 14
 1675              		.cfi_restore 5
 1676              		.cfi_restore 4
 1677              		.cfi_restore 3
 1678              		.cfi_def_cfa_offset 0
 1679              	.LVL155:
 1680              	.LBB216:
 1681              	.LBB217:
 1682              		.loc 4 544 0
 1683 003c FFF7FEBF 		b	chSysUnlockFromISR
 1684              	.LVL156:
 1685              	.L140:
 1686              		.cfi_restore_state
 1687              	.LBE217:
 1688              	.LBE216:
 1689              		.loc 3 966 0
 1690 0040 C368     		ldr	r3, [r0, #12]
 1691 0042 9B69     		ldr	r3, [r3, #24]
 1692 0044 5B68     		ldr	r3, [r3, #4]
 1693 0046 2BB9     		cbnz	r3, .L137
 1694              		.loc 3 970 0
 1695 0048 836D     		ldr	r3, [r0, #88]
 1696 004a 03B1     		cbz	r3, .L141
 1697              		.loc 3 971 0
 1698 004c 9847     		blx	r3
 1699              	.LVL157:
 1700              	.L141:
 1701              		.loc 3 973 0
 1702 004e 0023     		movs	r3, #0
 1703              	.L152:
 1704              		.loc 3 989 0
 1705 0050 84F84C30 		strb	r3, [r4, #76]
 1706              	.L137:
 1707 0054 38BD     		pop	{r3, r4, r5, pc}
 1708              	.LVL158:
 1709              	.L139:
 1710              		.loc 3 986 0
ARM GAS  /tmp/ccYm74WD.s 			page 31


 1711 0056 0021     		movs	r1, #0
 1712              	.LVL159:
 1713 0058 FFF7FEFF 		bl	usb_lld_stall_in
 1714              	.LVL160:
 1715              		.loc 3 987 0
 1716 005c 0021     		movs	r1, #0
 1717 005e 2046     		mov	r0, r4
 1718 0060 FFF7FEFF 		bl	usb_lld_stall_out
 1719              	.LVL161:
 1720              		.loc 3 988 0
 1721 0064 6368     		ldr	r3, [r4, #4]
 1722 0066 1B68     		ldr	r3, [r3]
 1723 0068 13B1     		cbz	r3, .L142
 1724              		.loc 3 988 0 is_stmt 0 discriminator 1
 1725 006a 0621     		movs	r1, #6
 1726 006c 2046     		mov	r0, r4
 1727 006e 9847     		blx	r3
 1728              	.LVL162:
 1729              	.L142:
 1730              		.loc 3 989 0 is_stmt 1
 1731 0070 0623     		movs	r3, #6
 1732 0072 EDE7     		b	.L152
 1733              		.cfi_endproc
 1734              	.LFE353:
 1735              		.size	_usb_ep0out, .-_usb_ep0out
 1736              		.section	.rodata.active_status,"a",%progbits
 1737              		.set	.LANCHOR2,. + 0
 1738              		.type	active_status, %object
 1739              		.size	active_status, 2
 1740              	active_status:
 1741 0000 0000     		.space	2
 1742              		.section	.rodata.halted_status,"a",%progbits
 1743              		.set	.LANCHOR1,. + 0
 1744              		.type	halted_status, %object
 1745              		.size	halted_status, 2
 1746              	halted_status:
 1747 0000 01       		.byte	1
 1748 0001 00       		.byte	0
 1749              		.section	.rodata.zero_status,"a",%progbits
 1750              		.set	.LANCHOR0,. + 0
 1751              		.type	zero_status, %object
 1752              		.size	zero_status, 2
 1753              	zero_status:
 1754 0000 0000     		.space	2
 1755              		.text
 1756              	.Letext0:
 1757              		.file 5 "/opt/gcc-arm-none-eabi-6-2017-q2-update/lib/gcc/arm-none-eabi/6.3.1/include/stddef.h"
 1758              		.file 6 "/opt/gcc-arm-none-eabi-6-2017-q2-update/arm-none-eabi/include/machine/_default_types.h"
 1759              		.file 7 "/opt/gcc-arm-none-eabi-6-2017-q2-update/arm-none-eabi/include/sys/lock.h"
 1760              		.file 8 "/opt/gcc-arm-none-eabi-6-2017-q2-update/arm-none-eabi/include/sys/_types.h"
 1761              		.file 9 "/opt/gcc-arm-none-eabi-6-2017-q2-update/arm-none-eabi/include/sys/reent.h"
 1762              		.file 10 "/opt/gcc-arm-none-eabi-6-2017-q2-update/arm-none-eabi/include/sys/_stdint.h"
 1763              		.file 11 "/opt/gcc-arm-none-eabi-6-2017-q2-update/arm-none-eabi/include/stdint.h"
 1764              		.file 12 "../../modules/ChibiOS/os/common/ports/ARMCMx/compilers/GCC/chtypes.h"
 1765              		.file 13 "../../modules/ChibiOS/os/rt/include/chsystypes.h"
 1766              		.file 14 "../../modules/ChibiOS/os/rt/include/chschd.h"
 1767              		.file 15 "../../modules/ChibiOS/os/rt/include/chtime.h"
ARM GAS  /tmp/ccYm74WD.s 			page 32


 1768              		.file 16 "../../modules/ChibiOS/os/common/ext/ARM/CMSIS/Core/Include/core_cm7.h"
 1769              		.file 17 "../../modules/ChibiOS/os/common/ext/ST/STM32F7xx/system_stm32f7xx.h"
 1770              		.file 18 "../../modules/ChibiOS/os/common/ext/ST/STM32F7xx/stm32f767xx.h"
 1771              		.file 19 "../../modules/ChibiOS/os/common/ports/ARMCMx/chcore.h"
 1772              		.file 20 "../../modules/ChibiOS/os/common/ports/ARMCMx/chcore_v7m.h"
 1773              		.file 21 "../../modules/ChibiOS/os/hal/ports/STM32/LLD/TIMv1/stm32_tim.h"
 1774              		.file 22 "../../modules/ChibiOS/os/rt/include/chtm.h"
 1775              		.file 23 "../../modules/ChibiOS/os/rt/include/chstats.h"
 1776              		.file 24 "../../modules/ChibiOS/os/rt/include/chsem.h"
 1777              		.file 25 "../../modules/ChibiOS/os/rt/include/chmtx.h"
 1778              		.file 26 "../../modules/ChibiOS/os/rt/include/chregistry.h"
 1779              		.file 27 "../../modules/ChibiOS/os/rt/include/chevents.h"
 1780              		.file 28 "../../modules/ChibiOS/os/oslib/include/chmemcore.h"
 1781              		.file 29 "../../modules/ChibiOS/os/oslib/include/chmempools.h"
 1782              		.file 30 "../../modules/ChibiOS/os/oslib/include/chfactory.h"
 1783              		.file 31 "../../modules/ChibiOS/os/hal/ports/STM32/LLD/DMAv2/stm32_dma.h"
 1784              		.file 32 "../../modules/ChibiOS/os/hal/include/hal_ioblock.h"
 1785              		.file 33 "../../modules/ChibiOS/os/hal/include/hal_queues.h"
 1786              		.file 34 "../../modules/ChibiOS/os/hal/include/hal_pal.h"
 1787              		.file 35 "../../modules/ChibiOS/os/hal/ports/STM32/LLD/GPIOv2/stm32_gpio.h"
 1788              		.file 36 "../../modules/ChibiOS/os/hal/ports/STM32/LLD/GPIOv2/hal_pal_lld.h"
 1789              		.file 37 "../../modules/ChibiOS/os/hal/include/hal_adc.h"
 1790              		.file 38 "../../modules/ChibiOS/os/hal/ports/STM32/LLD/ADCv2/hal_adc_lld.h"
 1791              		.file 39 "../../modules/ChibiOS/os/hal/include/hal_i2c.h"
 1792              		.file 40 "../../modules/ChibiOS/os/hal/ports/STM32/LLD/I2Cv2/hal_i2c_lld.h"
 1793              		.file 41 "../../modules/ChibiOS/os/hal/include/hal_pwm.h"
 1794              		.file 42 "../../modules/ChibiOS/os/hal/ports/STM32/LLD/TIMv1/hal_pwm_lld.h"
 1795              		.file 43 "../../modules/ChibiOS/os/hal/include/hal_serial.h"
 1796              		.file 44 "../../modules/ChibiOS/os/hal/ports/STM32/LLD/USARTv2/hal_serial_lld.h"
 1797              		.file 45 "../../modules/ChibiOS/os/hal/include/hal_sdc.h"
 1798              		.file 46 "../../modules/ChibiOS/os/hal/ports/STM32/LLD/SDMMCv1/hal_sdc_lld.h"
 1799              		.file 47 "../../modules/ChibiOS/os/hal/include/hal_spi.h"
 1800              		.file 48 "../../modules/ChibiOS/os/hal/ports/STM32/LLD/SPIv2/hal_spi_lld.h"
 1801              		.file 49 "../../modules/ChibiOS/os/hal/include/hal_usb.h"
 1802              		.file 50 "../../modules/ChibiOS/os/hal/ports/STM32/LLD/OTGv1/hal_usb_lld.h"
 1803              		.file 51 "../../modules/ChibiOS/os/hal/ports/STM32/LLD/OTGv1/stm32_otg.h"
 1804              		.file 52 "../../modules/ChibiOS/os/rt/include/chthreads.h"