ARM GAS  /tmp/ccblJY4d.s 			page 1


   1              		.cpu cortex-m7
   2              		.eabi_attribute 27, 1
   3              		.eabi_attribute 28, 1
   4              		.eabi_attribute 20, 1
   5              		.eabi_attribute 21, 1
   6              		.eabi_attribute 23, 3
   7              		.eabi_attribute 24, 1
   8              		.eabi_attribute 25, 1
   9              		.eabi_attribute 26, 1
  10              		.eabi_attribute 30, 4
  11              		.eabi_attribute 34, 1
  12              		.eabi_attribute 18, 4
  13              		.file	"hal_sdc_lld.c"
  14              		.text
  15              	.Ltext0:
  16              		.cfi_sections	.debug_frame
  17              		.section	.text.sdc_lld_collect_errors.isra.0,"ax",%progbits
  18              		.align	1
  19              		.syntax unified
  20              		.thumb
  21              		.thumb_func
  22              		.fpu fpv4-sp-d16
  23              		.type	sdc_lld_collect_errors.isra.0, %function
  24              	sdc_lld_collect_errors.isra.0:
  25              	.LFB358:
  26              		.file 1 "../../modules/ChibiOS/os/hal/ports/STM32/LLD/SDMMCv1/hal_sdc_lld.c"
  27              		.loc 1 286 0
  28              		.cfi_startproc
  29              		@ args = 0, pretend = 0, frame = 0
  30              		@ frame_needed = 0, uses_anonymous_args = 0
  31              		@ link register save eliminated.
  32              	.LVL0:
  33              		.loc 1 289 0
  34 0000 01F00103 		and	r3, r1, #1
  35              	.LVL1:
  36              		.loc 1 291 0
  37 0004 8A07     		lsls	r2, r1, #30
  38              		.loc 1 292 0
  39 0006 48BF     		it	mi
  40 0008 43F00203 		orrmi	r3, r3, #2
  41              	.LVL2:
  42              		.loc 1 293 0
  43 000c 4A07     		lsls	r2, r1, #29
  44              		.loc 1 294 0
  45 000e 48BF     		it	mi
  46 0010 43F00803 		orrmi	r3, r3, #8
  47              	.LVL3:
  48              		.loc 1 295 0
  49 0014 0A07     		lsls	r2, r1, #28
  50              		.loc 1 296 0
  51 0016 48BF     		it	mi
  52 0018 43F00403 		orrmi	r3, r3, #4
  53              	.LVL4:
  54              		.loc 1 297 0
  55 001c CA06     		lsls	r2, r1, #27
  56              		.loc 1 298 0
  57 001e 48BF     		it	mi
ARM GAS  /tmp/ccblJY4d.s 			page 2


  58 0020 43F01003 		orrmi	r3, r3, #16
  59              	.LVL5:
  60              		.loc 1 299 0
  61 0024 8A06     		lsls	r2, r1, #26
  62              		.loc 1 304 0
  63 0026 0268     		ldr	r2, [r0]
  64              		.loc 1 300 0
  65 0028 48BF     		it	mi
  66 002a 43F02003 		orrmi	r3, r3, #32
  67              	.LVL6:
  68              		.loc 1 304 0
  69 002e 1343     		orrs	r3, r3, r2
  70              	.LVL7:
  71 0030 0360     		str	r3, [r0]
  72 0032 7047     		bx	lr
  73              		.cfi_endproc
  74              	.LFE358:
  75              		.size	sdc_lld_collect_errors.isra.0, .-sdc_lld_collect_errors.isra.0
  76              		.section	.text.Vector104,"ax",%progbits
  77              		.align	1
  78              		.global	Vector104
  79              		.syntax unified
  80              		.thumb
  81              		.thumb_func
  82              		.fpu fpv4-sp-d16
  83              		.type	Vector104, %function
  84              	Vector104:
  85              	.LFB340:
  86              		.loc 1 343 0
  87              		.cfi_startproc
  88              		@ args = 0, pretend = 0, frame = 0
  89              		@ frame_needed = 0, uses_anonymous_args = 0
  90 0000 10B5     		push	{r4, lr}
  91              		.cfi_def_cfa_offset 8
  92              		.cfi_offset 4, -8
  93              		.cfi_offset 14, -4
  94              		.loc 1 345 0
  95 0002 FFF7FEFF 		bl	_stats_increase_irq
  96              	.LVL8:
  97              	.LBB70:
  98              	.LBB71:
  99              	.LBB72:
 100              	.LBB73:
 101              	.LBB74:
 102              	.LBB75:
 103              	.LBB76:
 104              		.file 2 "../../modules/ChibiOS/os/common/ext/ARM/CMSIS/Core/Include/cmsis_gcc.h"
 105              		.loc 2 493 0
 106 0006 2023     		movs	r3, #32
 107              		.syntax unified
 108              	@ 493 "../../modules/ChibiOS/os/common/ext/ARM/CMSIS/Core/Include/cmsis_gcc.h" 1
 109 0008 83F31188 		MSR basepri, r3
 110              	@ 0 "" 2
 111              	.LVL9:
 112              		.thumb
 113              		.syntax unified
 114              	.LBE76:
ARM GAS  /tmp/ccblJY4d.s 			page 3


 115              	.LBE75:
 116              	.LBE74:
 117              	.LBE73:
 118              		.file 3 "../../modules/ChibiOS/os/rt/include/chsys.h"
 119              		.loc 3 396 0
 120 000c FFF7FEFF 		bl	_stats_start_measure_crit_isr
 121              	.LVL10:
 122              	.LBE72:
 123              	.LBE71:
 124              	.LBE70:
 125              		.loc 1 351 0
 126 0010 0024     		movs	r4, #0
 127 0012 074B     		ldr	r3, .L23
 128              	.LBB77:
 129              	.LBB78:
 130              		.file 4 "../../modules/ChibiOS/os/hal/osal/rt/osal.h"
 131              		.loc 4 775 0
 132 0014 2146     		mov	r1, r4
 133 0016 0748     		ldr	r0, .L23+4
 134              	.LBE78:
 135              	.LBE77:
 136              		.loc 1 351 0
 137 0018 DC63     		str	r4, [r3, #60]
 138              	.LVL11:
 139              	.LBB80:
 140              	.LBB79:
 141              		.loc 4 775 0
 142 001a FFF7FEFF 		bl	chThdResumeI
 143              	.LVL12:
 144              	.LBE79:
 145              	.LBE80:
 146              	.LBB81:
 147              	.LBB82:
 148              	.LBB83:
 149              		.loc 3 416 0
 150 001e FFF7FEFF 		bl	_stats_stop_measure_crit_isr
 151              	.LVL13:
 152              	.LBB84:
 153              	.LBB85:
 154              	.LBB86:
 155              	.LBB87:
 156              		.loc 2 493 0
 157              		.syntax unified
 158              	@ 493 "../../modules/ChibiOS/os/common/ext/ARM/CMSIS/Core/Include/cmsis_gcc.h" 1
 159 0022 84F31188 		MSR basepri, r4
 160              	@ 0 "" 2
 161              	.LVL14:
 162              		.thumb
 163              		.syntax unified
 164              	.LBE87:
 165              	.LBE86:
 166              	.LBE85:
 167              	.LBE84:
 168              	.LBE83:
 169              	.LBE82:
 170              	.LBE81:
 171              		.loc 1 358 0
ARM GAS  /tmp/ccblJY4d.s 			page 4


 172 0026 BDE81040 		pop	{r4, lr}
 173              		.cfi_restore 14
 174              		.cfi_restore 4
 175              		.cfi_def_cfa_offset 0
 176              		.loc 1 357 0
 177 002a FFF7FEBF 		b	_port_irq_epilogue
 178              	.LVL15:
 179              	.L24:
 180 002e 00BF     		.align	2
 181              	.L23:
 182 0030 002C0140 		.word	1073818624
 183 0034 3C000000 		.word	.LANCHOR0+60
 184              		.cfi_endproc
 185              	.LFE340:
 186              		.size	Vector104, .-Vector104
 187              		.section	.text.sdc_lld_init,"ax",%progbits
 188              		.align	1
 189              		.global	sdc_lld_init
 190              		.syntax unified
 191              		.thumb
 192              		.thumb_func
 193              		.fpu fpv4-sp-d16
 194              		.type	sdc_lld_init, %function
 195              	sdc_lld_init:
 196              	.LFB341:
 197              		.loc 1 396 0
 198              		.cfi_startproc
 199              		@ args = 0, pretend = 0, frame = 0
 200              		@ frame_needed = 0, uses_anonymous_args = 0
 201 0000 10B5     		push	{r4, lr}
 202              		.cfi_def_cfa_offset 8
 203              		.cfi_offset 4, -8
 204              		.cfi_offset 14, -4
 205              		.loc 1 399 0
 206 0002 094C     		ldr	r4, .L26
 207 0004 2046     		mov	r0, r4
 208 0006 FFF7FEFF 		bl	sdcObjectInit
 209              	.LVL16:
 210              		.loc 1 400 0
 211 000a 0023     		movs	r3, #0
 212              		.loc 1 401 0
 213 000c 074A     		ldr	r2, .L26+4
 214              		.loc 1 405 0
 215 000e 0921     		movs	r1, #9
 216              		.loc 1 400 0
 217 0010 E363     		str	r3, [r4, #60]
 218              		.loc 1 405 0
 219 0012 3120     		movs	r0, #49
 220              		.loc 1 403 0
 221 0014 E364     		str	r3, [r4, #76]
 222              		.loc 1 404 0
 223 0016 064B     		ldr	r3, .L26+8
 224              		.loc 1 401 0
 225 0018 2264     		str	r2, [r4, #64]
 226              		.loc 1 402 0
 227 001a 6264     		str	r2, [r4, #68]
 228              		.loc 1 404 0
ARM GAS  /tmp/ccblJY4d.s 			page 5


 229 001c 2365     		str	r3, [r4, #80]
 230              		.loc 1 417 0
 231 001e BDE81040 		pop	{r4, lr}
 232              		.cfi_restore 14
 233              		.cfi_restore 4
 234              		.cfi_def_cfa_offset 0
 235              		.loc 1 405 0
 236 0022 FFF7FEBF 		b	nvicEnableVector
 237              	.LVL17:
 238              	.L27:
 239 0026 00BF     		.align	2
 240              	.L26:
 241 0028 00000000 		.word	.LANCHOR0
 242 002c 00366E01 		.word	24000000
 243 0030 002C0140 		.word	1073818624
 244              		.cfi_endproc
 245              	.LFE341:
 246              		.size	sdc_lld_init, .-sdc_lld_init
 247              		.section	.text.sdc_lld_start,"ax",%progbits
 248              		.align	1
 249              		.global	sdc_lld_start
 250              		.syntax unified
 251              		.thumb
 252              		.thumb_func
 253              		.fpu fpv4-sp-d16
 254              		.type	sdc_lld_start, %function
 255              	sdc_lld_start:
 256              	.LFB342:
 257              		.loc 1 426 0
 258              		.cfi_startproc
 259              		@ args = 0, pretend = 0, frame = 0
 260              		@ frame_needed = 0, uses_anonymous_args = 0
 261              	.LVL18:
 262              		.loc 1 429 0
 263 0000 C36A     		ldr	r3, [r0, #44]
 264              		.loc 1 426 0
 265 0002 10B5     		push	{r4, lr}
 266              		.cfi_def_cfa_offset 8
 267              		.cfi_offset 4, -8
 268              		.cfi_offset 14, -4
 269              		.loc 1 426 0
 270 0004 0446     		mov	r4, r0
 271              		.loc 1 429 0
 272 0006 0BB9     		cbnz	r3, .L29
 273              		.loc 1 430 0
 274 0008 164B     		ldr	r3, .L31
 275 000a C362     		str	r3, [r0, #44]
 276              	.L29:
 277              		.loc 1 438 0
 278 000c 164B     		ldr	r3, .L31+4
 279 000e A364     		str	r3, [r4, #72]
 280              		.loc 1 444 0
 281 0010 2379     		ldrb	r3, [r4, #4]	@ zero_extendqisi2
 282 0012 012B     		cmp	r3, #1
 283 0014 1FD1     		bne	.L30
 284              		.loc 1 446 0
 285 0016 154B     		ldr	r3, .L31+8
ARM GAS  /tmp/ccblJY4d.s 			page 6


 286 0018 9C42     		cmp	r4, r3
 287 001a 1CD1     		bne	.L30
 288              		.loc 1 447 0
 289 001c 0023     		movs	r3, #0
 290 001e 0921     		movs	r1, #9
 291 0020 0E20     		movs	r0, #14
 292              	.LVL19:
 293 0022 1A46     		mov	r2, r3
 294 0024 FFF7FEFF 		bl	dmaStreamAllocI
 295              	.LVL20:
 296              		.loc 1 453 0
 297 0028 A36C     		ldr	r3, [r4, #72]
 298              		.loc 1 455 0
 299 002a 0268     		ldr	r2, [r0]
 300              		.loc 1 453 0
 301 002c 43F00063 		orr	r3, r3, #134217728
 302              		.loc 1 447 0
 303 0030 E064     		str	r0, [r4, #76]
 304              		.loc 1 453 0
 305 0032 43F44033 		orr	r3, r3, #196608
 306 0036 A364     		str	r3, [r4, #72]
 307              		.loc 1 455 0
 308 0038 236D     		ldr	r3, [r4, #80]
 309 003a 8033     		adds	r3, r3, #128
 310 003c 9360     		str	r3, [r2, #8]
 311              		.loc 1 457 0
 312 003e 0723     		movs	r3, #7
 313 0040 5361     		str	r3, [r2, #20]
 314              		.loc 1 460 0
 315 0042 0B4B     		ldr	r3, .L31+12
 316 0044 5A6C     		ldr	r2, [r3, #68]
 317 0046 42F40062 		orr	r2, r2, #2048
 318 004a 5A64     		str	r2, [r3, #68]
 319 004c 5A6E     		ldr	r2, [r3, #100]
 320 004e 42F40062 		orr	r2, r2, #2048
 321 0052 5A66     		str	r2, [r3, #100]
 322 0054 5B6E     		ldr	r3, [r3, #100]
 323              	.L30:
 324              		.loc 1 485 0
 325 0056 236D     		ldr	r3, [r4, #80]
 326 0058 0022     		movs	r2, #0
 327 005a 1A60     		str	r2, [r3]
 328              		.loc 1 486 0
 329 005c 5A60     		str	r2, [r3, #4]
 330              		.loc 1 487 0
 331 005e DA62     		str	r2, [r3, #44]
 332              		.loc 1 488 0
 333 0060 5A62     		str	r2, [r3, #36]
 334 0062 10BD     		pop	{r4, pc}
 335              	.LVL21:
 336              	.L32:
 337              		.align	2
 338              	.L31:
 339 0064 00000000 		.word	.LANCHOR1
 340 0068 2054A000 		.word	10507296
 341 006c 00000000 		.word	.LANCHOR0
 342 0070 00380240 		.word	1073887232
ARM GAS  /tmp/ccblJY4d.s 			page 7


 343              		.cfi_endproc
 344              	.LFE342:
 345              		.size	sdc_lld_start, .-sdc_lld_start
 346              		.section	.text.sdc_lld_stop,"ax",%progbits
 347              		.align	1
 348              		.global	sdc_lld_stop
 349              		.syntax unified
 350              		.thumb
 351              		.thumb_func
 352              		.fpu fpv4-sp-d16
 353              		.type	sdc_lld_stop, %function
 354              	sdc_lld_stop:
 355              	.LFB343:
 356              		.loc 1 498 0
 357              		.cfi_startproc
 358              		@ args = 0, pretend = 0, frame = 0
 359              		@ frame_needed = 0, uses_anonymous_args = 0
 360              	.LVL22:
 361 0000 38B5     		push	{r3, r4, r5, lr}
 362              		.cfi_def_cfa_offset 16
 363              		.cfi_offset 3, -16
 364              		.cfi_offset 4, -12
 365              		.cfi_offset 5, -8
 366              		.cfi_offset 14, -4
 367              		.loc 1 500 0
 368 0002 0379     		ldrb	r3, [r0, #4]	@ zero_extendqisi2
 369              		.loc 1 498 0
 370 0004 0446     		mov	r4, r0
 371              		.loc 1 500 0
 372 0006 012B     		cmp	r3, #1
 373 0008 16D0     		beq	.L33
 374              		.loc 1 503 0
 375 000a 036D     		ldr	r3, [r0, #80]
 376 000c 0025     		movs	r5, #0
 377              		.loc 1 509 0
 378 000e C06C     		ldr	r0, [r0, #76]
 379              	.LVL23:
 380              		.loc 1 503 0
 381 0010 1D60     		str	r5, [r3]
 382              		.loc 1 504 0
 383 0012 5D60     		str	r5, [r3, #4]
 384              		.loc 1 505 0
 385 0014 DD62     		str	r5, [r3, #44]
 386              		.loc 1 506 0
 387 0016 5D62     		str	r5, [r3, #36]
 388              		.loc 1 509 0
 389 0018 FFF7FEFF 		bl	dmaStreamFreeI
 390              	.LVL24:
 391              		.loc 1 514 0
 392 001c 074B     		ldr	r3, .L37
 393              		.loc 1 510 0
 394 001e E564     		str	r5, [r4, #76]
 395              		.loc 1 514 0
 396 0020 9C42     		cmp	r4, r3
 397 0022 09D1     		bne	.L33
 398              		.loc 1 515 0
 399 0024 064B     		ldr	r3, .L37+4
ARM GAS  /tmp/ccblJY4d.s 			page 8


 400 0026 5A6C     		ldr	r2, [r3, #68]
 401 0028 22F40062 		bic	r2, r2, #2048
 402 002c 5A64     		str	r2, [r3, #68]
 403 002e 5A6E     		ldr	r2, [r3, #100]
 404 0030 22F40062 		bic	r2, r2, #2048
 405 0034 5A66     		str	r2, [r3, #100]
 406 0036 5B6E     		ldr	r3, [r3, #100]
 407              	.L33:
 408 0038 38BD     		pop	{r3, r4, r5, pc}
 409              	.LVL25:
 410              	.L38:
 411 003a 00BF     		.align	2
 412              	.L37:
 413 003c 00000000 		.word	.LANCHOR0
 414 0040 00380240 		.word	1073887232
 415              		.cfi_endproc
 416              	.LFE343:
 417              		.size	sdc_lld_stop, .-sdc_lld_stop
 418              		.section	.text.sdc_lld_start_clk,"ax",%progbits
 419              		.align	1
 420              		.global	sdc_lld_start_clk
 421              		.syntax unified
 422              		.thumb
 423              		.thumb_func
 424              		.fpu fpv4-sp-d16
 425              		.type	sdc_lld_start_clk, %function
 426              	sdc_lld_start_clk:
 427              	.LFB344:
 428              		.loc 1 534 0
 429              		.cfi_startproc
 430              		@ args = 0, pretend = 0, frame = 0
 431              		@ frame_needed = 0, uses_anonymous_args = 0
 432              		@ link register save eliminated.
 433              	.LVL26:
 434              		.loc 1 537 0
 435 0000 036D     		ldr	r3, [r0, #80]
 436 0002 7622     		movs	r2, #118
 437              	.LBB88:
 438              	.LBB89:
 439              		.loc 4 720 0
 440 0004 42F21070 		movw	r0, #10000
 441              	.LVL27:
 442              	.LBE89:
 443              	.LBE88:
 444              		.loc 1 537 0
 445 0008 5A60     		str	r2, [r3, #4]
 446              		.loc 1 538 0
 447 000a 1A68     		ldr	r2, [r3]
 448 000c 42F00302 		orr	r2, r2, #3
 449 0010 1A60     		str	r2, [r3]
 450              		.loc 1 539 0
 451 0012 5A68     		ldr	r2, [r3, #4]
 452 0014 42F48072 		orr	r2, r2, #256
 453 0018 5A60     		str	r2, [r3, #4]
 454              	.LVL28:
 455              	.LBB91:
 456              	.LBB90:
ARM GAS  /tmp/ccblJY4d.s 			page 9


 457              		.loc 4 720 0
 458 001a FFF7FEBF 		b	chThdSleep
 459              	.LVL29:
 460              	.LBE90:
 461              	.LBE91:
 462              		.cfi_endproc
 463              	.LFE344:
 464              		.size	sdc_lld_start_clk, .-sdc_lld_start_clk
 465              		.section	.text.sdc_lld_set_data_clk,"ax",%progbits
 466              		.align	1
 467              		.global	sdc_lld_set_data_clk
 468              		.syntax unified
 469              		.thumb
 470              		.thumb_func
 471              		.fpu fpv4-sp-d16
 472              		.type	sdc_lld_set_data_clk, %function
 473              	sdc_lld_set_data_clk:
 474              	.LFB345:
 475              		.loc 1 553 0
 476              		.cfi_startproc
 477              		@ args = 0, pretend = 0, frame = 0
 478              		@ frame_needed = 0, uses_anonymous_args = 0
 479              		@ link register save eliminated.
 480              	.LVL30:
 481              		.loc 1 577 0
 482 0000 016D     		ldr	r1, [r0, #80]
 483              	.LVL31:
 484              		.loc 1 554 0
 485 0002 C36A     		ldr	r3, [r0, #44]
 486              		.loc 1 577 0
 487 0004 4A68     		ldr	r2, [r1, #4]
 488 0006 5B79     		ldrb	r3, [r3, #5]	@ zero_extendqisi2
 489 0008 22F0FF02 		bic	r2, r2, #255
 490 000c 1343     		orrs	r3, r3, r2
 491 000e 43F40073 		orr	r3, r3, #512
 492 0012 4B60     		str	r3, [r1, #4]
 493              	.LVL32:
 494 0014 7047     		bx	lr
 495              		.cfi_endproc
 496              	.LFE345:
 497              		.size	sdc_lld_set_data_clk, .-sdc_lld_set_data_clk
 498              		.section	.text.sdc_lld_stop_clk,"ax",%progbits
 499              		.align	1
 500              		.global	sdc_lld_stop_clk
 501              		.syntax unified
 502              		.thumb
 503              		.thumb_func
 504              		.fpu fpv4-sp-d16
 505              		.type	sdc_lld_stop_clk, %function
 506              	sdc_lld_stop_clk:
 507              	.LFB346:
 508              		.loc 1 592 0
 509              		.cfi_startproc
 510              		@ args = 0, pretend = 0, frame = 0
 511              		@ frame_needed = 0, uses_anonymous_args = 0
 512              		@ link register save eliminated.
 513              	.LVL33:
ARM GAS  /tmp/ccblJY4d.s 			page 10


 514              		.loc 1 594 0
 515 0000 036D     		ldr	r3, [r0, #80]
 516 0002 0022     		movs	r2, #0
 517 0004 5A60     		str	r2, [r3, #4]
 518              		.loc 1 595 0
 519 0006 1A60     		str	r2, [r3]
 520 0008 7047     		bx	lr
 521              		.cfi_endproc
 522              	.LFE346:
 523              		.size	sdc_lld_stop_clk, .-sdc_lld_stop_clk
 524              		.section	.text.sdc_lld_set_bus_mode,"ax",%progbits
 525              		.align	1
 526              		.global	sdc_lld_set_bus_mode
 527              		.syntax unified
 528              		.thumb
 529              		.thumb_func
 530              		.fpu fpv4-sp-d16
 531              		.type	sdc_lld_set_bus_mode, %function
 532              	sdc_lld_set_bus_mode:
 533              	.LFB347:
 534              		.loc 1 606 0
 535              		.cfi_startproc
 536              		@ args = 0, pretend = 0, frame = 0
 537              		@ frame_needed = 0, uses_anonymous_args = 0
 538              		@ link register save eliminated.
 539              	.LVL34:
 540              		.loc 1 607 0
 541 0000 026D     		ldr	r2, [r0, #80]
 542              		.loc 1 609 0
 543 0002 0129     		cmp	r1, #1
 544              		.loc 1 607 0
 545 0004 5368     		ldr	r3, [r2, #4]
 546 0006 23F4C053 		bic	r3, r3, #6144
 547              	.LVL35:
 548              		.loc 1 609 0
 549 000a 03D0     		beq	.L44
 550 000c 04D3     		bcc	.L47
 551 000e 0229     		cmp	r1, #2
 552 0010 04D0     		beq	.L46
 553 0012 7047     		bx	lr
 554              	.L44:
 555              		.loc 1 614 0
 556 0014 43F40063 		orr	r3, r3, #2048
 557              	.LVL36:
 558              	.L47:
 559              		.loc 1 617 0
 560 0018 5360     		str	r3, [r2, #4]
 561 001a 7047     		bx	lr
 562              	.LVL37:
 563              	.L46:
 564 001c 43F48053 		orr	r3, r3, #4096
 565              	.LVL38:
 566 0020 FAE7     		b	.L47
 567              		.cfi_endproc
 568              	.LFE347:
 569              		.size	sdc_lld_set_bus_mode, .-sdc_lld_set_bus_mode
 570              		.section	.text.sdc_lld_send_cmd_none,"ax",%progbits
ARM GAS  /tmp/ccblJY4d.s 			page 11


 571              		.align	1
 572              		.global	sdc_lld_send_cmd_none
 573              		.syntax unified
 574              		.thumb
 575              		.thumb_func
 576              		.fpu fpv4-sp-d16
 577              		.type	sdc_lld_send_cmd_none, %function
 578              	sdc_lld_send_cmd_none:
 579              	.LFB348:
 580              		.loc 1 631 0
 581              		.cfi_startproc
 582              		@ args = 0, pretend = 0, frame = 0
 583              		@ frame_needed = 0, uses_anonymous_args = 0
 584              		@ link register save eliminated.
 585              	.LVL39:
 586              		.loc 1 633 0
 587 0000 036D     		ldr	r3, [r0, #80]
 588              		.loc 1 634 0
 589 0002 41F48061 		orr	r1, r1, #1024
 590              	.LVL40:
 591              		.loc 1 633 0
 592 0006 9A60     		str	r2, [r3, #8]
 593              		.loc 1 634 0
 594 0008 D960     		str	r1, [r3, #12]
 595              	.LVL41:
 596              	.L49:
 597              		.loc 1 635 0 discriminator 1
 598 000a 5A6B     		ldr	r2, [r3, #52]
 599 000c 1206     		lsls	r2, r2, #24
 600 000e FCD5     		bpl	.L49
 601              		.loc 1 637 0
 602 0010 8022     		movs	r2, #128
 603 0012 9A63     		str	r2, [r3, #56]
 604 0014 7047     		bx	lr
 605              		.cfi_endproc
 606              	.LFE348:
 607              		.size	sdc_lld_send_cmd_none, .-sdc_lld_send_cmd_none
 608              		.section	.text.sdc_lld_send_cmd_short,"ax",%progbits
 609              		.align	1
 610              		.global	sdc_lld_send_cmd_short
 611              		.syntax unified
 612              		.thumb
 613              		.thumb_func
 614              		.fpu fpv4-sp-d16
 615              		.type	sdc_lld_send_cmd_short, %function
 616              	sdc_lld_send_cmd_short:
 617              	.LFB349:
 618              		.loc 1 656 0
 619              		.cfi_startproc
 620              		@ args = 0, pretend = 0, frame = 0
 621              		@ frame_needed = 0, uses_anonymous_args = 0
 622              	.LVL42:
 623 0000 10B5     		push	{r4, lr}
 624              		.cfi_def_cfa_offset 8
 625              		.cfi_offset 4, -8
 626              		.cfi_offset 14, -4
 627              		.loc 1 660 0
ARM GAS  /tmp/ccblJY4d.s 			page 12


 628 0002 41F48861 		orr	r1, r1, #1088
 629              	.LVL43:
 630              		.loc 1 659 0
 631 0006 046D     		ldr	r4, [r0, #80]
 632 0008 A260     		str	r2, [r4, #8]
 633              		.loc 1 660 0
 634 000a E160     		str	r1, [r4, #12]
 635              	.LVL44:
 636              	.L53:
 637              		.loc 1 661 0 discriminator 1
 638 000c 616B     		ldr	r1, [r4, #52]
 639              	.LVL45:
 640 000e 11F04502 		ands	r2, r1, #69
 641 0012 FBD0     		beq	.L53
 642              		.loc 1 664 0
 643 0014 A263     		str	r2, [r4, #56]
 644              		.loc 1 666 0
 645 0016 11F00402 		ands	r2, r1, #4
 646 001a 04D0     		beq	.L54
 647              		.loc 1 667 0
 648 001c 3430     		adds	r0, r0, #52
 649              	.LVL46:
 650 001e FFF7FEFF 		bl	sdc_lld_collect_errors.isra.0
 651              	.LVL47:
 652              		.loc 1 668 0
 653 0022 0120     		movs	r0, #1
 654              	.LVL48:
 655 0024 10BD     		pop	{r4, pc}
 656              	.LVL49:
 657              	.L54:
 658              		.loc 1 670 0
 659 0026 6169     		ldr	r1, [r4, #20]
 660              	.LVL50:
 661              		.loc 1 671 0
 662 0028 1046     		mov	r0, r2
 663              	.LVL51:
 664              		.loc 1 670 0
 665 002a 1960     		str	r1, [r3]
 666              		.loc 1 672 0
 667 002c 10BD     		pop	{r4, pc}
 668              		.cfi_endproc
 669              	.LFE349:
 670              		.size	sdc_lld_send_cmd_short, .-sdc_lld_send_cmd_short
 671              		.section	.text.sdc_lld_send_cmd_short_crc,"ax",%progbits
 672              		.align	1
 673              		.global	sdc_lld_send_cmd_short_crc
 674              		.syntax unified
 675              		.thumb
 676              		.thumb_func
 677              		.fpu fpv4-sp-d16
 678              		.type	sdc_lld_send_cmd_short_crc, %function
 679              	sdc_lld_send_cmd_short_crc:
 680              	.LFB350:
 681              		.loc 1 689 0
 682              		.cfi_startproc
 683              		@ args = 0, pretend = 0, frame = 0
 684              		@ frame_needed = 0, uses_anonymous_args = 0
ARM GAS  /tmp/ccblJY4d.s 			page 13


 685              	.LVL52:
 686 0000 10B5     		push	{r4, lr}
 687              		.cfi_def_cfa_offset 8
 688              		.cfi_offset 4, -8
 689              		.cfi_offset 14, -4
 690              		.loc 1 693 0
 691 0002 41F48861 		orr	r1, r1, #1088
 692              	.LVL53:
 693              		.loc 1 692 0
 694 0006 046D     		ldr	r4, [r0, #80]
 695 0008 A260     		str	r2, [r4, #8]
 696              		.loc 1 693 0
 697 000a E160     		str	r1, [r4, #12]
 698              	.LVL54:
 699              	.L59:
 700              		.loc 1 694 0 discriminator 1
 701 000c 616B     		ldr	r1, [r4, #52]
 702              	.LVL55:
 703 000e 11F04502 		ands	r2, r1, #69
 704 0012 FBD0     		beq	.L59
 705              		.loc 1 697 0
 706 0014 A263     		str	r2, [r4, #56]
 707              		.loc 1 698 0
 708 0016 11F00502 		ands	r2, r1, #5
 709 001a 04D0     		beq	.L60
 710              		.loc 1 699 0
 711 001c 3430     		adds	r0, r0, #52
 712              	.LVL56:
 713 001e FFF7FEFF 		bl	sdc_lld_collect_errors.isra.0
 714              	.LVL57:
 715              		.loc 1 700 0
 716 0022 0120     		movs	r0, #1
 717              	.LVL58:
 718 0024 10BD     		pop	{r4, pc}
 719              	.LVL59:
 720              	.L60:
 721              		.loc 1 702 0
 722 0026 6169     		ldr	r1, [r4, #20]
 723              	.LVL60:
 724              		.loc 1 703 0
 725 0028 1046     		mov	r0, r2
 726              	.LVL61:
 727              		.loc 1 702 0
 728 002a 1960     		str	r1, [r3]
 729              		.loc 1 704 0
 730 002c 10BD     		pop	{r4, pc}
 731              		.cfi_endproc
 732              	.LFE350:
 733              		.size	sdc_lld_send_cmd_short_crc, .-sdc_lld_send_cmd_short_crc
 734              		.section	.text.sdc_lld_wait_transaction_end,"ax",%progbits
 735              		.align	1
 736              		.syntax unified
 737              		.thumb
 738              		.thumb_func
 739              		.fpu fpv4-sp-d16
 740              		.type	sdc_lld_wait_transaction_end, %function
 741              	sdc_lld_wait_transaction_end:
ARM GAS  /tmp/ccblJY4d.s 			page 14


 742              	.LFB337:
 743              		.loc 1 251 0
 744              		.cfi_startproc
 745              		@ args = 0, pretend = 0, frame = 0
 746              		@ frame_needed = 0, uses_anonymous_args = 0
 747              	.LVL62:
 748 0000 2DE9F041 		push	{r4, r5, r6, r7, r8, lr}
 749              		.cfi_def_cfa_offset 24
 750              		.cfi_offset 4, -24
 751              		.cfi_offset 5, -20
 752              		.cfi_offset 6, -16
 753              		.cfi_offset 7, -12
 754              		.cfi_offset 8, -8
 755              		.cfi_offset 14, -4
 756              	.LBB123:
 757              	.LBB124:
 758              	.LBB125:
 759              	.LBB126:
 760              	.LBB127:
 761              	.LBB128:
 762              		.loc 2 493 0
 763 0004 2023     		movs	r3, #32
 764              	.LBE128:
 765              	.LBE127:
 766              	.LBE126:
 767              	.LBE125:
 768              	.LBE124:
 769              	.LBE123:
 770              		.loc 1 251 0
 771 0006 0546     		mov	r5, r0
 772              	.LVL63:
 773 0008 0F46     		mov	r7, r1
 774 000a 1646     		mov	r6, r2
 775              	.LBB134:
 776              	.LBB133:
 777              	.LBB132:
 778              	.LBB131:
 779              	.LBB130:
 780              	.LBB129:
 781              		.loc 2 493 0
 782              		.syntax unified
 783              	@ 493 "../../modules/ChibiOS/os/common/ext/ARM/CMSIS/Core/Include/cmsis_gcc.h" 1
 784 000c 83F31188 		MSR basepri, r3
 785              	@ 0 "" 2
 786              	.LVL64:
 787              		.thumb
 788              		.syntax unified
 789              	.LBE129:
 790              	.LBE130:
 791              	.LBE131:
 792              		.loc 3 356 0
 793 0010 FFF7FEFF 		bl	_stats_start_measure_crit_thd
 794              	.LVL65:
 795              	.LBE132:
 796              	.LBE133:
 797              	.LBE134:
 798              		.loc 1 256 0
ARM GAS  /tmp/ccblJY4d.s 			page 15


 799 0014 2B6D     		ldr	r3, [r5, #80]
 800 0016 DB6B     		ldr	r3, [r3, #60]
 801 0018 2BB1     		cbz	r3, .L65
 802              	.LVL66:
 803              	.LBB135:
 804              	.LBB136:
 805              		.loc 4 735 0
 806 001a 4FF0FF31 		mov	r1, #-1
 807 001e 05F13C00 		add	r0, r5, #60
 808              	.LVL67:
 809 0022 FFF7FEFF 		bl	chThdSuspendTimeoutS
 810              	.LVL68:
 811              	.L65:
 812              	.LBE136:
 813              	.LBE135:
 814              		.loc 1 258 0
 815 0026 286D     		ldr	r0, [r5, #80]
 816 0028 446B     		ldr	r4, [r0, #52]
 817 002a 14F48074 		ands	r4, r4, #256
 818 002e 06D1     		bne	.L66
 819              	.LBB137:
 820              	.LBB138:
 821              	.LBB139:
 822              		.loc 3 368 0
 823 0030 FFF7FEFF 		bl	_stats_stop_measure_crit_thd
 824              	.LVL69:
 825              	.LBB140:
 826              	.LBB141:
 827              	.LBB142:
 828              		.loc 2 493 0
 829              		.syntax unified
 830              	@ 493 "../../modules/ChibiOS/os/common/ext/ARM/CMSIS/Core/Include/cmsis_gcc.h" 1
 831 0034 84F31188 		MSR basepri, r4
 832              	@ 0 "" 2
 833              	.LVL70:
 834              		.thumb
 835              		.syntax unified
 836              	.LBE142:
 837              	.LBE141:
 838              	.LBE140:
 839              	.LBE139:
 840              	.LBE138:
 841              	.LBE137:
 842              		.loc 1 260 0
 843 0038 0120     		movs	r0, #1
 844 003a BDE8F081 		pop	{r4, r5, r6, r7, r8, pc}
 845              	.LVL71:
 846              	.L66:
 847              		.loc 1 265 0
 848 003e EB6C     		ldr	r3, [r5, #76]
 849 0040 1968     		ldr	r1, [r3]
 850 0042 0A68     		ldr	r2, [r1]
 851 0044 22F01E02 		bic	r2, r2, #30
 852 0048 0A60     		str	r2, [r1]
 853              	.L68:
 854              		.loc 1 265 0 is_stmt 0 discriminator 2
 855 004a 0C68     		ldr	r4, [r1]
ARM GAS  /tmp/ccblJY4d.s 			page 16


 856 004c 14F00104 		ands	r4, r4, #1
 857 0050 FBD1     		bne	.L68
 858              		.loc 1 265 0 discriminator 3
 859 0052 597A     		ldrb	r1, [r3, #9]	@ zero_extendqisi2
 860 0054 5A68     		ldr	r2, [r3, #4]
 861 0056 3D23     		movs	r3, #61
 862 0058 8B40     		lsls	r3, r3, r1
 863 005a 1360     		str	r3, [r2]
 864              		.loc 1 267 0 is_stmt 1 discriminator 3
 865 005c 094B     		ldr	r3, .L74
 866 005e 8363     		str	r3, [r0, #56]
 867              		.loc 1 268 0 discriminator 3
 868 0060 C462     		str	r4, [r0, #44]
 869              	.LBB143:
 870              	.LBB144:
 871              	.LBB145:
 872              		.loc 3 368 0 discriminator 3
 873 0062 FFF7FEFF 		bl	_stats_stop_measure_crit_thd
 874              	.LVL72:
 875              	.LBB146:
 876              	.LBB147:
 877              	.LBB148:
 878              		.loc 2 493 0 discriminator 3
 879              		.syntax unified
 880              	@ 493 "../../modules/ChibiOS/os/common/ext/ARM/CMSIS/Core/Include/cmsis_gcc.h" 1
 881 0066 84F31188 		MSR basepri, r4
 882              	@ 0 "" 2
 883              	.LVL73:
 884              		.thumb
 885              		.syntax unified
 886              	.LBE148:
 887              	.LBE147:
 888              	.LBE146:
 889              	.LBE145:
 890              	.LBE144:
 891              	.LBE143:
 892              		.loc 1 272 0 discriminator 3
 893 006a 012F     		cmp	r7, #1
 894 006c 07D9     		bls	.L69
 895              	.LVL74:
 896              	.LBB149:
 897              	.LBB150:
 898              		.loc 1 273 0
 899 006e 3346     		mov	r3, r6
 900 0070 2246     		mov	r2, r4
 901 0072 2846     		mov	r0, r5
 902 0074 0C21     		movs	r1, #12
 903              	.LBE150:
 904              	.LBE149:
 905              		.loc 1 276 0
 906 0076 BDE8F041 		pop	{r4, r5, r6, r7, r8, lr}
 907              		.cfi_remember_state
 908              		.cfi_restore 14
 909              		.cfi_restore 8
 910              		.cfi_restore 7
 911              		.cfi_restore 6
 912              		.cfi_restore 5
ARM GAS  /tmp/ccblJY4d.s 			page 17


 913              		.cfi_restore 4
 914              		.cfi_def_cfa_offset 0
 915              	.LVL75:
 916              	.LBB152:
 917              	.LBB151:
 918              		.loc 1 273 0
 919 007a FFF7FEBF 		b	sdc_lld_send_cmd_short_crc
 920              	.LVL76:
 921              	.L69:
 922              		.cfi_restore_state
 923              	.LBE151:
 924              	.LBE152:
 925              		.loc 1 275 0
 926 007e 2046     		mov	r0, r4
 927              		.loc 1 276 0
 928 0080 BDE8F081 		pop	{r4, r5, r6, r7, r8, pc}
 929              	.LVL77:
 930              	.L75:
 931              		.align	2
 932              	.L74:
 933 0084 FF054000 		.word	4195839
 934              		.cfi_endproc
 935              	.LFE337:
 936              		.size	sdc_lld_wait_transaction_end, .-sdc_lld_wait_transaction_end
 937              		.section	.text.sdc_lld_error_cleanup,"ax",%progbits
 938              		.align	1
 939              		.syntax unified
 940              		.thumb
 941              		.thumb_func
 942              		.fpu fpv4-sp-d16
 943              		.type	sdc_lld_error_cleanup, %function
 944              	sdc_lld_error_cleanup:
 945              	.LFB339:
 946              		.loc 1 318 0
 947              		.cfi_startproc
 948              		@ args = 0, pretend = 0, frame = 0
 949              		@ frame_needed = 0, uses_anonymous_args = 0
 950              	.LVL78:
 951 0000 2DE9F047 		push	{r4, r5, r6, r7, r8, r9, r10, lr}
 952              		.cfi_def_cfa_offset 32
 953              		.cfi_offset 4, -32
 954              		.cfi_offset 5, -28
 955              		.cfi_offset 6, -24
 956              		.cfi_offset 7, -20
 957              		.cfi_offset 8, -16
 958              		.cfi_offset 9, -12
 959              		.cfi_offset 10, -8
 960              		.cfi_offset 14, -4
 961              		.loc 1 318 0
 962 0004 0546     		mov	r5, r0
 963              		.loc 1 319 0
 964 0006 006D     		ldr	r0, [r0, #80]
 965              	.LVL79:
 966              		.loc 1 318 0
 967 0008 8846     		mov	r8, r1
 968 000a 9146     		mov	r9, r2
 969              		.loc 1 321 0
ARM GAS  /tmp/ccblJY4d.s 			page 18


 970 000c EE6C     		ldr	r6, [r5, #76]
 971              		.loc 1 319 0
 972 000e 416B     		ldr	r1, [r0, #52]
 973              	.LVL80:
 974              		.loc 1 321 0
 975 0010 3768     		ldr	r7, [r6]
 976 0012 3C68     		ldr	r4, [r7]
 977 0014 24F01F04 		bic	r4, r4, #31
 978 0018 3C60     		str	r4, [r7]
 979              	.L77:
 980              		.loc 1 321 0 is_stmt 0 discriminator 2
 981 001a 3C68     		ldr	r4, [r7]
 982 001c 14F00104 		ands	r4, r4, #1
 983 0020 FBD1     		bne	.L77
 984              		.loc 1 321 0 discriminator 3
 985 0022 7368     		ldr	r3, [r6, #4]
 986 0024 727A     		ldrb	r2, [r6, #9]	@ zero_extendqisi2
 987              	.LVL81:
 988 0026 3D26     		movs	r6, #61
 989 0028 9640     		lsls	r6, r6, r2
 990 002a 1E60     		str	r6, [r3]
 991              		.loc 1 322 0 is_stmt 1 discriminator 3
 992 002c 0A4B     		ldr	r3, .L80
 993 002e 8363     		str	r3, [r0, #56]
 994              		.loc 1 323 0 discriminator 3
 995 0030 C463     		str	r4, [r0, #60]
 996              		.loc 1 324 0 discriminator 3
 997 0032 C462     		str	r4, [r0, #44]
 998              		.loc 1 325 0 discriminator 3
 999 0034 05F13400 		add	r0, r5, #52
 1000 0038 FFF7FEFF 		bl	sdc_lld_collect_errors.isra.0
 1001              	.LVL82:
 1002              		.loc 1 327 0 discriminator 3
 1003 003c B8F1010F 		cmp	r8, #1
 1004 0040 07D9     		bls	.L76
 1005              	.LVL83:
 1006              	.LBB155:
 1007              	.LBB156:
 1008              		.loc 1 328 0
 1009 0042 4B46     		mov	r3, r9
 1010 0044 2246     		mov	r2, r4
 1011 0046 2846     		mov	r0, r5
 1012 0048 0C21     		movs	r1, #12
 1013              	.LVL84:
 1014              	.LBE156:
 1015              	.LBE155:
 1016              		.loc 1 329 0
 1017 004a BDE8F047 		pop	{r4, r5, r6, r7, r8, r9, r10, lr}
 1018              		.cfi_remember_state
 1019              		.cfi_restore 14
 1020              		.cfi_restore 10
 1021              		.cfi_restore 9
 1022              		.cfi_restore 8
 1023              		.cfi_restore 7
 1024              		.cfi_restore 6
 1025              		.cfi_restore 5
 1026              		.cfi_restore 4
ARM GAS  /tmp/ccblJY4d.s 			page 19


 1027              		.cfi_def_cfa_offset 0
 1028              	.LVL85:
 1029              	.LBB158:
 1030              	.LBB157:
 1031              		.loc 1 328 0
 1032 004e FFF7FEBF 		b	sdc_lld_send_cmd_short_crc
 1033              	.LVL86:
 1034              	.L76:
 1035              		.cfi_restore_state
 1036 0052 BDE8F087 		pop	{r4, r5, r6, r7, r8, r9, r10, pc}
 1037              	.LVL87:
 1038              	.L81:
 1039 0056 00BF     		.align	2
 1040              	.L80:
 1041 0058 FF054000 		.word	4195839
 1042              	.LBE157:
 1043              	.LBE158:
 1044              		.cfi_endproc
 1045              	.LFE339:
 1046              		.size	sdc_lld_error_cleanup, .-sdc_lld_error_cleanup
 1047              		.section	.text.sdc_lld_send_cmd_long_crc,"ax",%progbits
 1048              		.align	1
 1049              		.global	sdc_lld_send_cmd_long_crc
 1050              		.syntax unified
 1051              		.thumb
 1052              		.thumb_func
 1053              		.fpu fpv4-sp-d16
 1054              		.type	sdc_lld_send_cmd_long_crc, %function
 1055              	sdc_lld_send_cmd_long_crc:
 1056              	.LFB351:
 1057              		.loc 1 721 0
 1058              		.cfi_startproc
 1059              		@ args = 0, pretend = 0, frame = 0
 1060              		@ frame_needed = 0, uses_anonymous_args = 0
 1061              	.LVL88:
 1062 0000 10B5     		push	{r4, lr}
 1063              		.cfi_def_cfa_offset 8
 1064              		.cfi_offset 4, -8
 1065              		.cfi_offset 14, -4
 1066              		.loc 1 727 0
 1067 0002 41F49861 		orr	r1, r1, #1216
 1068              	.LVL89:
 1069              		.loc 1 726 0
 1070 0006 046D     		ldr	r4, [r0, #80]
 1071 0008 A260     		str	r2, [r4, #8]
 1072              		.loc 1 727 0
 1073 000a E160     		str	r1, [r4, #12]
 1074              	.LVL90:
 1075              	.L83:
 1076              		.loc 1 729 0 discriminator 1
 1077 000c 616B     		ldr	r1, [r4, #52]
 1078              	.LVL91:
 1079 000e 11F04502 		ands	r2, r1, #69
 1080 0012 FBD0     		beq	.L83
 1081              		.loc 1 732 0
 1082 0014 A263     		str	r2, [r4, #56]
 1083              		.loc 1 734 0
ARM GAS  /tmp/ccblJY4d.s 			page 20


 1084 0016 11F03F02 		ands	r2, r1, #63
 1085 001a 04D0     		beq	.L84
 1086              		.loc 1 735 0
 1087 001c 3430     		adds	r0, r0, #52
 1088              	.LVL92:
 1089 001e FFF7FEFF 		bl	sdc_lld_collect_errors.isra.0
 1090              	.LVL93:
 1091              		.loc 1 736 0
 1092 0022 0120     		movs	r0, #1
 1093              	.LVL94:
 1094 0024 10BD     		pop	{r4, pc}
 1095              	.LVL95:
 1096              	.L84:
 1097              		.loc 1 739 0
 1098 0026 216A     		ldr	r1, [r4, #32]
 1099              	.LVL96:
 1100              		.loc 1 743 0
 1101 0028 1046     		mov	r0, r2
 1102              	.LVL97:
 1103              		.loc 1 739 0
 1104 002a 1960     		str	r1, [r3]
 1105              	.LVL98:
 1106              		.loc 1 740 0
 1107 002c E169     		ldr	r1, [r4, #28]
 1108 002e 5960     		str	r1, [r3, #4]
 1109              	.LVL99:
 1110              		.loc 1 741 0
 1111 0030 A169     		ldr	r1, [r4, #24]
 1112 0032 9960     		str	r1, [r3, #8]
 1113              		.loc 1 742 0
 1114 0034 6169     		ldr	r1, [r4, #20]
 1115 0036 D960     		str	r1, [r3, #12]
 1116              		.loc 1 744 0
 1117 0038 10BD     		pop	{r4, pc}
 1118              		.cfi_endproc
 1119              	.LFE351:
 1120              		.size	sdc_lld_send_cmd_long_crc, .-sdc_lld_send_cmd_long_crc
 1121              		.section	.text.sdc_lld_read_special,"ax",%progbits
 1122              		.align	1
 1123              		.global	sdc_lld_read_special
 1124              		.syntax unified
 1125              		.thumb
 1126              		.thumb_func
 1127              		.fpu fpv4-sp-d16
 1128              		.type	sdc_lld_read_special, %function
 1129              	sdc_lld_read_special:
 1130              	.LFB352:
 1131              		.loc 1 763 0
 1132              		.cfi_startproc
 1133              		@ args = 4, pretend = 0, frame = 16
 1134              		@ frame_needed = 0, uses_anonymous_args = 0
 1135              	.LVL100:
 1136 0000 2DE9FF41 		push	{r0, r1, r2, r3, r4, r5, r6, r7, r8, lr}
 1137              		.cfi_def_cfa_offset 40
 1138              		.cfi_offset 4, -24
 1139              		.cfi_offset 5, -20
 1140              		.cfi_offset 6, -16
ARM GAS  /tmp/ccblJY4d.s 			page 21


 1141              		.cfi_offset 7, -12
 1142              		.cfi_offset 8, -8
 1143              		.cfi_offset 14, -4
 1144              		.loc 1 763 0
 1145 0004 0446     		mov	r4, r0
 1146 0006 04A8     		add	r0, sp, #16
 1147              	.LVL101:
 1148 0008 1646     		mov	r6, r2
 1149 000a 1D46     		mov	r5, r3
 1150 000c 40F80C1D 		str	r1, [r0, #-12]!
 1151              		.loc 1 766 0
 1152 0010 0146     		mov	r1, r0
 1153              	.LVL102:
 1154 0012 606D     		ldr	r0, [r4, #84]
 1155              	.LVL103:
 1156 0014 FFF7FEFF 		bl	bouncebuffer_setup_read
 1157              	.LVL104:
 1158 0018 0746     		mov	r7, r0
 1159 001a 0028     		cmp	r0, #0
 1160 001c 45D0     		beq	.L91
 1161              	.LBB161:
 1162              	.LBB162:
 1163              		.loc 1 134 0
 1164 001e 236D     		ldr	r3, [r4, #80]
 1165              		.loc 1 137 0
 1166 0020 2046     		mov	r0, r4
 1167              		.loc 1 134 0
 1168 0022 226C     		ldr	r2, [r4, #64]
 1169              	.LBE162:
 1170              	.LBE161:
 1171              		.loc 1 770 0
 1172 0024 DDF80480 		ldr	r8, [sp, #4]
 1173              	.LVL105:
 1174              	.LBB165:
 1175              	.LBB163:
 1176              		.loc 1 134 0
 1177 0028 5A62     		str	r2, [r3, #36]
 1178              		.loc 1 137 0
 1179 002a FFF7FEFF 		bl	_sdc_wait_for_transfer_state
 1180              	.LVL106:
 1181 002e 0028     		cmp	r0, #0
 1182 0030 2FD1     		bne	.L90
 1183              		.loc 1 141 0
 1184 0032 E36C     		ldr	r3, [r4, #76]
 1185              		.loc 1 142 0
 1186 0034 B208     		lsrs	r2, r6, #2
 1187              	.LBE163:
 1188              	.LBE165:
 1189              		.loc 1 773 0
 1190 0036 2946     		mov	r1, r5
 1191 0038 2046     		mov	r0, r4
 1192              	.LBB166:
 1193              	.LBB164:
 1194              		.loc 1 141 0
 1195 003a 1B68     		ldr	r3, [r3]
 1196 003c C3F80C80 		str	r8, [r3, #12]
 1197              		.loc 1 142 0
ARM GAS  /tmp/ccblJY4d.s 			page 22


 1198 0040 5A60     		str	r2, [r3, #4]
 1199              		.loc 1 143 0
 1200 0042 A26C     		ldr	r2, [r4, #72]
 1201 0044 1A60     		str	r2, [r3]
 1202              		.loc 1 144 0
 1203 0046 1A68     		ldr	r2, [r3]
 1204 0048 42F00102 		orr	r2, r2, #1
 1205 004c 1A60     		str	r2, [r3]
 1206              		.loc 1 147 0
 1207 004e 236D     		ldr	r3, [r4, #80]
 1208 0050 174A     		ldr	r2, .L92
 1209 0052 9A63     		str	r2, [r3, #56]
 1210              		.loc 1 148 0
 1211 0054 4FF49572 		mov	r2, #298
 1212 0058 DA63     		str	r2, [r3, #60]
 1213              		.loc 1 155 0
 1214 005a 0F22     		movs	r2, #15
 1215              		.loc 1 152 0
 1216 005c 9E62     		str	r6, [r3, #40]
 1217              		.loc 1 155 0
 1218 005e DA62     		str	r2, [r3, #44]
 1219              	.LVL107:
 1220              	.LBE164:
 1221              	.LBE166:
 1222              		.loc 1 773 0
 1223 0060 03AB     		add	r3, sp, #12
 1224 0062 0A9A     		ldr	r2, [sp, #40]
 1225 0064 FFF7FEFF 		bl	sdc_lld_send_cmd_short_crc
 1226              	.LVL108:
 1227 0068 98B9     		cbnz	r0, .L90
 1228              		.loc 1 774 0
 1229 006a 124B     		ldr	r3, .L92+4
 1230 006c 039A     		ldr	r2, [sp, #12]
 1231 006e 1340     		ands	r3, r3, r2
 1232 0070 7BB9     		cbnz	r3, .L90
 1233              		.loc 1 777 0
 1234 0072 03AA     		add	r2, sp, #12
 1235 0074 0121     		movs	r1, #1
 1236 0076 2046     		mov	r0, r4
 1237 0078 FFF7FEFF 		bl	sdc_lld_wait_transaction_end
 1238              	.LVL109:
 1239 007c 0546     		mov	r5, r0
 1240 007e 40B9     		cbnz	r0, .L90
 1241              		.loc 1 780 0
 1242 0080 3246     		mov	r2, r6
 1243 0082 0199     		ldr	r1, [sp, #4]
 1244 0084 606D     		ldr	r0, [r4, #84]
 1245 0086 FFF7FEFF 		bl	bouncebuffer_finish_read
 1246              	.LVL110:
 1247              	.L89:
 1248              		.loc 1 788 0
 1249 008a 2846     		mov	r0, r5
 1250 008c 04B0     		add	sp, sp, #16
 1251              		.cfi_remember_state
 1252              		.cfi_def_cfa_offset 24
 1253              		@ sp needed
 1254 008e BDE8F081 		pop	{r4, r5, r6, r7, r8, pc}
ARM GAS  /tmp/ccblJY4d.s 			page 23


 1255              	.LVL111:
 1256              	.L90:
 1257              		.cfi_restore_state
 1258              	.LDL1:
 1259              		.loc 1 785 0
 1260 0092 0022     		movs	r2, #0
 1261 0094 0199     		ldr	r1, [sp, #4]
 1262 0096 606D     		ldr	r0, [r4, #84]
 1263              		.loc 1 787 0
 1264 0098 3D46     		mov	r5, r7
 1265              		.loc 1 785 0
 1266 009a FFF7FEFF 		bl	bouncebuffer_finish_read
 1267              	.LVL112:
 1268              		.loc 1 786 0
 1269 009e 03AA     		add	r2, sp, #12
 1270 00a0 0121     		movs	r1, #1
 1271 00a2 2046     		mov	r0, r4
 1272 00a4 FFF7FEFF 		bl	sdc_lld_error_cleanup
 1273              	.LVL113:
 1274              		.loc 1 787 0
 1275 00a8 EFE7     		b	.L89
 1276              	.L91:
 1277              		.loc 1 767 0
 1278 00aa 0125     		movs	r5, #1
 1279 00ac EDE7     		b	.L89
 1280              	.L93:
 1281 00ae 00BF     		.align	2
 1282              	.L92:
 1283 00b0 FF054000 		.word	4195839
 1284 00b4 08E0FFFD 		.word	-33562616
 1285              		.cfi_endproc
 1286              	.LFE352:
 1287              		.size	sdc_lld_read_special, .-sdc_lld_read_special
 1288              		.section	.text.sdc_lld_read_aligned,"ax",%progbits
 1289              		.align	1
 1290              		.global	sdc_lld_read_aligned
 1291              		.syntax unified
 1292              		.thumb
 1293              		.thumb_func
 1294              		.fpu fpv4-sp-d16
 1295              		.type	sdc_lld_read_aligned, %function
 1296              	sdc_lld_read_aligned:
 1297              	.LFB353:
 1298              		.loc 1 805 0
 1299              		.cfi_startproc
 1300              		@ args = 0, pretend = 0, frame = 16
 1301              		@ frame_needed = 0, uses_anonymous_args = 0
 1302              	.LVL114:
 1303 0000 2DE9FF41 		push	{r0, r1, r2, r3, r4, r5, r6, r7, r8, lr}
 1304              		.cfi_def_cfa_offset 40
 1305              		.cfi_offset 4, -24
 1306              		.cfi_offset 5, -20
 1307              		.cfi_offset 6, -16
 1308              		.cfi_offset 7, -12
 1309              		.cfi_offset 8, -8
 1310              		.cfi_offset 14, -4
 1311              		.loc 1 805 0
ARM GAS  /tmp/ccblJY4d.s 			page 24


 1312 0004 1F46     		mov	r7, r3
 1313 0006 0192     		str	r2, [sp, #4]
 1314              		.loc 1 810 0
 1315 0008 036D     		ldr	r3, [r0, #80]
 1316              	.LVL115:
 1317              		.loc 1 805 0
 1318 000a 0446     		mov	r4, r0
 1319              		.loc 1 810 0
 1320 000c 026C     		ldr	r2, [r0, #64]
 1321              	.LVL116:
 1322              		.loc 1 805 0
 1323 000e 8846     		mov	r8, r1
 1324              		.loc 1 810 0
 1325 0010 5A62     		str	r2, [r3, #36]
 1326              		.loc 1 813 0
 1327 0012 FFF7FEFF 		bl	_sdc_wait_for_transfer_state
 1328              	.LVL117:
 1329 0016 20B1     		cbz	r0, .L95
 1330              	.L97:
 1331              		.loc 1 814 0
 1332 0018 0125     		movs	r5, #1
 1333              	.LVL118:
 1334              	.L106:
 1335              		.loc 1 856 0
 1336 001a 2846     		mov	r0, r5
 1337 001c 04B0     		add	sp, sp, #16
 1338              		.cfi_remember_state
 1339              		.cfi_def_cfa_offset 24
 1340              		@ sp needed
 1341 001e BDE8F081 		pop	{r4, r5, r6, r7, r8, pc}
 1342              	.LVL119:
 1343              	.L95:
 1344              		.cfi_restore_state
 1345              		.loc 1 816 0
 1346 0022 7E02     		lsls	r6, r7, #9
 1347 0024 01A9     		add	r1, sp, #4
 1348 0026 606D     		ldr	r0, [r4, #84]
 1349 0028 3246     		mov	r2, r6
 1350 002a FFF7FEFF 		bl	bouncebuffer_setup_read
 1351              	.LVL120:
 1352 002e 0546     		mov	r5, r0
 1353 0030 0028     		cmp	r0, #0
 1354 0032 F1D0     		beq	.L97
 1355              		.loc 1 821 0
 1356 0034 E36C     		ldr	r3, [r4, #76]
 1357              	.LBB169:
 1358              	.LBB170:
 1359              		.loc 1 193 0
 1360 0036 2046     		mov	r0, r4
 1361              	.LBE170:
 1362              	.LBE169:
 1363              		.loc 1 821 0
 1364 0038 019A     		ldr	r2, [sp, #4]
 1365 003a 1B68     		ldr	r3, [r3]
 1366 003c DA60     		str	r2, [r3, #12]
 1367              		.loc 1 822 0
 1368 003e B208     		lsrs	r2, r6, #2
ARM GAS  /tmp/ccblJY4d.s 			page 25


 1369 0040 5A60     		str	r2, [r3, #4]
 1370              		.loc 1 824 0
 1371 0042 A26C     		ldr	r2, [r4, #72]
 1372 0044 1A60     		str	r2, [r3]
 1373              		.loc 1 825 0
 1374 0046 1A68     		ldr	r2, [r3]
 1375 0048 42F00102 		orr	r2, r2, #1
 1376 004c 1A60     		str	r2, [r3]
 1377              		.loc 1 828 0
 1378 004e 236D     		ldr	r3, [r4, #80]
 1379 0050 194A     		ldr	r2, .L110
 1380 0052 9A63     		str	r2, [r3, #56]
 1381              		.loc 1 829 0
 1382 0054 4FF49572 		mov	r2, #298
 1383 0058 DA63     		str	r2, [r3, #60]
 1384              		.loc 1 836 0
 1385 005a 9B22     		movs	r2, #155
 1386              		.loc 1 833 0
 1387 005c 9E62     		str	r6, [r3, #40]
 1388              		.loc 1 836 0
 1389 005e DA62     		str	r2, [r3, #44]
 1390              	.LVL121:
 1391              	.LBB172:
 1392              	.LBB171:
 1393              		.loc 1 182 0
 1394 0060 236B     		ldr	r3, [r4, #48]
 1395 0062 DB06     		lsls	r3, r3, #27
 1396              		.loc 1 187 0
 1397 0064 03AB     		add	r3, sp, #12
 1398              	.LVL122:
 1399              		.loc 1 183 0
 1400 0066 58BF     		it	pl
 1401 0068 4FEA4828 		lslpl	r8, r8, #9
 1402              	.LVL123:
 1403              		.loc 1 185 0
 1404 006c 012F     		cmp	r7, #1
 1405              		.loc 1 187 0
 1406 006e 4246     		mov	r2, r8
 1407 0070 8CBF     		ite	hi
 1408 0072 1221     		movhi	r1, #18
 1409              		.loc 1 193 0
 1410 0074 1121     		movls	r1, #17
 1411 0076 FFF7FEFF 		bl	sdc_lld_send_cmd_short_crc
 1412              	.LVL124:
 1413 007a 18B9     		cbnz	r0, .L100
 1414              		.loc 1 194 0
 1415 007c 0F4B     		ldr	r3, .L110+4
 1416 007e 039A     		ldr	r2, [sp, #12]
 1417 0080 1340     		ands	r3, r3, r2
 1418 0082 53B1     		cbz	r3, .L101
 1419              	.LVL125:
 1420              	.L100:
 1421              	.LDL2:
 1422              	.LBE171:
 1423              	.LBE172:
 1424              		.loc 1 853 0
 1425 0084 0199     		ldr	r1, [sp, #4]
ARM GAS  /tmp/ccblJY4d.s 			page 26


 1426 0086 0022     		movs	r2, #0
 1427 0088 606D     		ldr	r0, [r4, #84]
 1428 008a FFF7FEFF 		bl	bouncebuffer_finish_read
 1429              	.LVL126:
 1430              		.loc 1 854 0
 1431 008e 03AA     		add	r2, sp, #12
 1432 0090 3946     		mov	r1, r7
 1433 0092 2046     		mov	r0, r4
 1434 0094 FFF7FEFF 		bl	sdc_lld_error_cleanup
 1435              	.LVL127:
 1436              		.loc 1 855 0
 1437 0098 BFE7     		b	.L106
 1438              	.LVL128:
 1439              	.L101:
 1440              		.loc 1 845 0
 1441 009a 03AA     		add	r2, sp, #12
 1442 009c 3946     		mov	r1, r7
 1443 009e 2046     		mov	r0, r4
 1444 00a0 FFF7FEFF 		bl	sdc_lld_wait_transaction_end
 1445              	.LVL129:
 1446 00a4 8046     		mov	r8, r0
 1447 00a6 0028     		cmp	r0, #0
 1448 00a8 ECD1     		bne	.L100
 1449              		.loc 1 848 0
 1450 00aa 3246     		mov	r2, r6
 1451 00ac 0199     		ldr	r1, [sp, #4]
 1452 00ae 606D     		ldr	r0, [r4, #84]
 1453              		.loc 1 850 0
 1454 00b0 4546     		mov	r5, r8
 1455              		.loc 1 848 0
 1456 00b2 FFF7FEFF 		bl	bouncebuffer_finish_read
 1457              	.LVL130:
 1458              		.loc 1 850 0
 1459 00b6 B0E7     		b	.L106
 1460              	.L111:
 1461              		.align	2
 1462              	.L110:
 1463 00b8 FF054000 		.word	4195839
 1464 00bc 08E0FFFD 		.word	-33562616
 1465              		.cfi_endproc
 1466              	.LFE353:
 1467              		.size	sdc_lld_read_aligned, .-sdc_lld_read_aligned
 1468              		.section	.text.sdc_lld_write_aligned,"ax",%progbits
 1469              		.align	1
 1470              		.global	sdc_lld_write_aligned
 1471              		.syntax unified
 1472              		.thumb
 1473              		.thumb_func
 1474              		.fpu fpv4-sp-d16
 1475              		.type	sdc_lld_write_aligned, %function
 1476              	sdc_lld_write_aligned:
 1477              	.LFB354:
 1478              		.loc 1 873 0
 1479              		.cfi_startproc
 1480              		@ args = 0, pretend = 0, frame = 16
 1481              		@ frame_needed = 0, uses_anonymous_args = 0
 1482              	.LVL131:
ARM GAS  /tmp/ccblJY4d.s 			page 27


 1483 0000 2DE9FF41 		push	{r0, r1, r2, r3, r4, r5, r6, r7, r8, lr}
 1484              		.cfi_def_cfa_offset 40
 1485              		.cfi_offset 4, -24
 1486              		.cfi_offset 5, -20
 1487              		.cfi_offset 6, -16
 1488              		.cfi_offset 7, -12
 1489              		.cfi_offset 8, -8
 1490              		.cfi_offset 14, -4
 1491              		.loc 1 873 0
 1492 0004 1E46     		mov	r6, r3
 1493 0006 0192     		str	r2, [sp, #4]
 1494              		.loc 1 878 0
 1495 0008 036D     		ldr	r3, [r0, #80]
 1496              	.LVL132:
 1497              		.loc 1 873 0
 1498 000a 0446     		mov	r4, r0
 1499              		.loc 1 878 0
 1500 000c 426C     		ldr	r2, [r0, #68]
 1501              	.LVL133:
 1502              		.loc 1 873 0
 1503 000e 0F46     		mov	r7, r1
 1504              		.loc 1 878 0
 1505 0010 5A62     		str	r2, [r3, #36]
 1506              		.loc 1 881 0
 1507 0012 FFF7FEFF 		bl	_sdc_wait_for_transfer_state
 1508              	.LVL134:
 1509 0016 20B1     		cbz	r0, .L113
 1510              	.L115:
 1511              		.loc 1 882 0
 1512 0018 0125     		movs	r5, #1
 1513              	.LVL135:
 1514              	.L124:
 1515              		.loc 1 924 0
 1516 001a 2846     		mov	r0, r5
 1517 001c 04B0     		add	sp, sp, #16
 1518              		.cfi_remember_state
 1519              		.cfi_def_cfa_offset 24
 1520              		@ sp needed
 1521 001e BDE8F081 		pop	{r4, r5, r6, r7, r8, pc}
 1522              	.LVL136:
 1523              	.L113:
 1524              		.cfi_restore_state
 1525              		.loc 1 884 0
 1526 0022 4FEA4628 		lsl	r8, r6, #9
 1527 0026 01A9     		add	r1, sp, #4
 1528 0028 606D     		ldr	r0, [r4, #84]
 1529 002a 4246     		mov	r2, r8
 1530 002c FFF7FEFF 		bl	bouncebuffer_setup_write
 1531              	.LVL137:
 1532 0030 0546     		mov	r5, r0
 1533 0032 0028     		cmp	r0, #0
 1534 0034 F0D0     		beq	.L115
 1535              		.loc 1 889 0
 1536 0036 E36C     		ldr	r3, [r4, #76]
 1537              	.LBB175:
 1538              	.LBB176:
 1539              		.loc 1 231 0
ARM GAS  /tmp/ccblJY4d.s 			page 28


 1540 0038 2046     		mov	r0, r4
 1541              	.LBE176:
 1542              	.LBE175:
 1543              		.loc 1 889 0
 1544 003a 019A     		ldr	r2, [sp, #4]
 1545 003c 1B68     		ldr	r3, [r3]
 1546 003e DA60     		str	r2, [r3, #12]
 1547              		.loc 1 890 0
 1548 0040 4FEA9802 		lsr	r2, r8, #2
 1549 0044 5A60     		str	r2, [r3, #4]
 1550              		.loc 1 892 0
 1551 0046 A26C     		ldr	r2, [r4, #72]
 1552 0048 42F04002 		orr	r2, r2, #64
 1553 004c 1A60     		str	r2, [r3]
 1554              		.loc 1 893 0
 1555 004e 1A68     		ldr	r2, [r3]
 1556 0050 42F00102 		orr	r2, r2, #1
 1557 0054 1A60     		str	r2, [r3]
 1558              		.loc 1 896 0
 1559 0056 236D     		ldr	r3, [r4, #80]
 1560 0058 194A     		ldr	r2, .L128
 1561 005a 9A63     		str	r2, [r3, #56]
 1562              		.loc 1 897 0
 1563 005c 4FF48D72 		mov	r2, #282
 1564 0060 DA63     		str	r2, [r3, #60]
 1565              		.loc 1 901 0
 1566 0062 C3F82880 		str	r8, [r3, #40]
 1567              	.LVL138:
 1568              	.LBB178:
 1569              	.LBB177:
 1570              		.loc 1 220 0
 1571 0066 236B     		ldr	r3, [r4, #48]
 1572 0068 DB06     		lsls	r3, r3, #27
 1573              		.loc 1 225 0
 1574 006a 03AB     		add	r3, sp, #12
 1575              	.LVL139:
 1576              		.loc 1 221 0
 1577 006c 58BF     		it	pl
 1578 006e 7F02     		lslpl	r7, r7, #9
 1579              	.LVL140:
 1580              		.loc 1 223 0
 1581 0070 012E     		cmp	r6, #1
 1582              		.loc 1 225 0
 1583 0072 3A46     		mov	r2, r7
 1584 0074 8CBF     		ite	hi
 1585 0076 1921     		movhi	r1, #25
 1586              		.loc 1 231 0
 1587 0078 1821     		movls	r1, #24
 1588 007a FFF7FEFF 		bl	sdc_lld_send_cmd_short_crc
 1589              	.LVL141:
 1590 007e 18B9     		cbnz	r0, .L118
 1591              		.loc 1 232 0
 1592 0080 104B     		ldr	r3, .L128+4
 1593 0082 039A     		ldr	r2, [sp, #12]
 1594 0084 1340     		ands	r3, r3, r2
 1595 0086 4BB1     		cbz	r3, .L119
 1596              	.LVL142:
ARM GAS  /tmp/ccblJY4d.s 			page 29


 1597              	.L118:
 1598              	.LDL3:
 1599              	.LBE177:
 1600              	.LBE178:
 1601              		.loc 1 921 0
 1602 0088 0199     		ldr	r1, [sp, #4]
 1603 008a 606D     		ldr	r0, [r4, #84]
 1604 008c FFF7FEFF 		bl	bouncebuffer_finish_write
 1605              	.LVL143:
 1606              		.loc 1 922 0
 1607 0090 03AA     		add	r2, sp, #12
 1608 0092 3146     		mov	r1, r6
 1609 0094 2046     		mov	r0, r4
 1610 0096 FFF7FEFF 		bl	sdc_lld_error_cleanup
 1611              	.LVL144:
 1612              		.loc 1 923 0
 1613 009a BEE7     		b	.L124
 1614              	.LVL145:
 1615              	.L119:
 1616              		.loc 1 908 0
 1617 009c 236D     		ldr	r3, [r4, #80]
 1618 009e 9922     		movs	r2, #153
 1619              		.loc 1 913 0
 1620 00a0 3146     		mov	r1, r6
 1621 00a2 2046     		mov	r0, r4
 1622              		.loc 1 908 0
 1623 00a4 DA62     		str	r2, [r3, #44]
 1624              		.loc 1 913 0
 1625 00a6 03AA     		add	r2, sp, #12
 1626 00a8 FFF7FEFF 		bl	sdc_lld_wait_transaction_end
 1627              	.LVL146:
 1628 00ac 0746     		mov	r7, r0
 1629 00ae 0028     		cmp	r0, #0
 1630 00b0 EAD1     		bne	.L118
 1631              		.loc 1 916 0
 1632 00b2 0199     		ldr	r1, [sp, #4]
 1633              		.loc 1 918 0
 1634 00b4 3D46     		mov	r5, r7
 1635              		.loc 1 916 0
 1636 00b6 606D     		ldr	r0, [r4, #84]
 1637 00b8 FFF7FEFF 		bl	bouncebuffer_finish_write
 1638              	.LVL147:
 1639              		.loc 1 918 0
 1640 00bc ADE7     		b	.L124
 1641              	.L129:
 1642 00be 00BF     		.align	2
 1643              	.L128:
 1644 00c0 FF054000 		.word	4195839
 1645 00c4 08E0FFFD 		.word	-33562616
 1646              		.cfi_endproc
 1647              	.LFE354:
 1648              		.size	sdc_lld_write_aligned, .-sdc_lld_write_aligned
 1649              		.section	.text.sdc_lld_read,"ax",%progbits
 1650              		.align	1
 1651              		.global	sdc_lld_read
 1652              		.syntax unified
 1653              		.thumb
ARM GAS  /tmp/ccblJY4d.s 			page 30


 1654              		.thumb_func
 1655              		.fpu fpv4-sp-d16
 1656              		.type	sdc_lld_read, %function
 1657              	sdc_lld_read:
 1658              	.LFB355:
 1659              		.loc 1 941 0
 1660              		.cfi_startproc
 1661              		@ args = 0, pretend = 0, frame = 0
 1662              		@ frame_needed = 0, uses_anonymous_args = 0
 1663              	.LVL148:
 1664              		.loc 1 944 0
 1665 0000 12F0030F 		tst	r2, #3
 1666              		.loc 1 941 0
 1667 0004 2DE9F041 		push	{r4, r5, r6, r7, r8, lr}
 1668              		.cfi_def_cfa_offset 24
 1669              		.cfi_offset 4, -24
 1670              		.cfi_offset 5, -20
 1671              		.cfi_offset 6, -16
 1672              		.cfi_offset 7, -12
 1673              		.cfi_offset 8, -8
 1674              		.cfi_offset 14, -4
 1675              		.loc 1 941 0
 1676 0008 0746     		mov	r7, r0
 1677 000a 0C46     		mov	r4, r1
 1678 000c 1E46     		mov	r6, r3
 1679              		.loc 1 944 0
 1680 000e 1BD0     		beq	.L131
 1681 0010 C1EBC153 		rsb	r3, r1, r1, lsl #23
 1682              	.LVL149:
 1683 0014 0E44     		add	r6, r6, r1
 1684              	.LVL150:
 1685              	.LBB179:
 1686              		.loc 1 947 0
 1687 0016 DFF83C80 		ldr	r8, .L135
 1688 001a 02EB4325 		add	r5, r2, r3, lsl #9
 1689              	.LVL151:
 1690              	.L132:
 1691              		.loc 1 946 0 discriminator 1
 1692 001e B442     		cmp	r4, r6
 1693 0020 02D1     		bne	.L134
 1694              		.loc 1 953 0
 1695 0022 0020     		movs	r0, #0
 1696 0024 BDE8F081 		pop	{r4, r5, r6, r7, r8, pc}
 1697              	.LVL152:
 1698              	.L134:
 1699              		.loc 1 947 0
 1700 0028 0123     		movs	r3, #1
 1701 002a 0A4A     		ldr	r2, .L135
 1702 002c 2146     		mov	r1, r4
 1703 002e 3846     		mov	r0, r7
 1704 0030 FFF7FEFF 		bl	sdc_lld_read_aligned
 1705              	.LVL153:
 1706 0034 60B9     		cbnz	r0, .L133
 1707              		.loc 1 949 0 discriminator 2
 1708 0036 05EB4420 		add	r0, r5, r4, lsl #9
 1709 003a 4FF40072 		mov	r2, #512
 1710 003e 4146     		mov	r1, r8
ARM GAS  /tmp/ccblJY4d.s 			page 31


 1711              		.loc 1 951 0 discriminator 2
 1712 0040 0134     		adds	r4, r4, #1
 1713              	.LVL154:
 1714              		.loc 1 949 0 discriminator 2
 1715 0042 FFF7FEFF 		bl	memcpy
 1716              	.LVL155:
 1717 0046 EAE7     		b	.L132
 1718              	.LVL156:
 1719              	.L131:
 1720              	.LBE179:
 1721              		.loc 1 959 0
 1722 0048 BDE8F041 		pop	{r4, r5, r6, r7, r8, lr}
 1723              		.cfi_remember_state
 1724              		.cfi_restore 14
 1725              		.cfi_restore 8
 1726              		.cfi_restore 7
 1727              		.cfi_restore 6
 1728              		.cfi_restore 5
 1729              		.cfi_restore 4
 1730              		.cfi_def_cfa_offset 0
 1731              		.loc 1 958 0
 1732 004c FFF7FEBF 		b	sdc_lld_read_aligned
 1733              	.LVL157:
 1734              	.L133:
 1735              		.cfi_restore_state
 1736              		.loc 1 959 0
 1737 0050 BDE8F081 		pop	{r4, r5, r6, r7, r8, pc}
 1738              	.LVL158:
 1739              	.L136:
 1740              		.align	2
 1741              	.L135:
 1742 0054 00000000 		.word	.LANCHOR2
 1743              		.cfi_endproc
 1744              	.LFE355:
 1745              		.size	sdc_lld_read, .-sdc_lld_read
 1746              		.section	.text.sdc_lld_write,"ax",%progbits
 1747              		.align	1
 1748              		.global	sdc_lld_write
 1749              		.syntax unified
 1750              		.thumb
 1751              		.thumb_func
 1752              		.fpu fpv4-sp-d16
 1753              		.type	sdc_lld_write, %function
 1754              	sdc_lld_write:
 1755              	.LFB356:
 1756              		.loc 1 976 0
 1757              		.cfi_startproc
 1758              		@ args = 0, pretend = 0, frame = 0
 1759              		@ frame_needed = 0, uses_anonymous_args = 0
 1760              	.LVL159:
 1761 0000 2DE9F041 		push	{r4, r5, r6, r7, r8, lr}
 1762              		.cfi_def_cfa_offset 24
 1763              		.cfi_offset 4, -24
 1764              		.cfi_offset 5, -20
 1765              		.cfi_offset 6, -16
 1766              		.cfi_offset 7, -12
 1767              		.cfi_offset 8, -8
ARM GAS  /tmp/ccblJY4d.s 			page 32


 1768              		.cfi_offset 14, -4
 1769              		.loc 1 979 0
 1770 0004 9707     		lsls	r7, r2, #30
 1771              		.loc 1 976 0
 1772 0006 8046     		mov	r8, r0
 1773 0008 0C46     		mov	r4, r1
 1774 000a 1E46     		mov	r6, r3
 1775              		.loc 1 979 0
 1776 000c 1AD0     		beq	.L138
 1777 000e C1EBC153 		rsb	r3, r1, r1, lsl #23
 1778              	.LVL160:
 1779 0012 0E44     		add	r6, r6, r1
 1780              	.LVL161:
 1781              	.LBB180:
 1782              		.loc 1 982 0
 1783 0014 0E4F     		ldr	r7, .L142
 1784 0016 02EB4325 		add	r5, r2, r3, lsl #9
 1785              	.LVL162:
 1786              	.L139:
 1787              		.loc 1 981 0 discriminator 1
 1788 001a B442     		cmp	r4, r6
 1789 001c 02D1     		bne	.L141
 1790              		.loc 1 988 0
 1791 001e 0020     		movs	r0, #0
 1792 0020 BDE8F081 		pop	{r4, r5, r6, r7, r8, pc}
 1793              	.LVL163:
 1794              	.L141:
 1795              		.loc 1 982 0
 1796 0024 4FF40072 		mov	r2, #512
 1797 0028 05EB4421 		add	r1, r5, r4, lsl #9
 1798 002c 3846     		mov	r0, r7
 1799 002e FFF7FEFF 		bl	memcpy
 1800              	.LVL164:
 1801              		.loc 1 984 0
 1802 0032 0123     		movs	r3, #1
 1803 0034 3A46     		mov	r2, r7
 1804 0036 2146     		mov	r1, r4
 1805 0038 4046     		mov	r0, r8
 1806 003a FFF7FEFF 		bl	sdc_lld_write_aligned
 1807              	.LVL165:
 1808 003e 28B9     		cbnz	r0, .L140
 1809              		.loc 1 986 0 discriminator 2
 1810 0040 0134     		adds	r4, r4, #1
 1811              	.LVL166:
 1812 0042 EAE7     		b	.L139
 1813              	.LVL167:
 1814              	.L138:
 1815              	.LBE180:
 1816              		.loc 1 994 0
 1817 0044 BDE8F041 		pop	{r4, r5, r6, r7, r8, lr}
 1818              		.cfi_remember_state
 1819              		.cfi_restore 14
 1820              		.cfi_restore 8
 1821              		.cfi_restore 7
 1822              		.cfi_restore 6
 1823              		.cfi_restore 5
 1824              		.cfi_restore 4
ARM GAS  /tmp/ccblJY4d.s 			page 33


 1825              		.cfi_def_cfa_offset 0
 1826              		.loc 1 993 0
 1827 0048 FFF7FEBF 		b	sdc_lld_write_aligned
 1828              	.LVL168:
 1829              	.L140:
 1830              		.cfi_restore_state
 1831              		.loc 1 994 0
 1832 004c BDE8F081 		pop	{r4, r5, r6, r7, r8, pc}
 1833              	.LVL169:
 1834              	.L143:
 1835              		.align	2
 1836              	.L142:
 1837 0050 00000000 		.word	.LANCHOR2
 1838              		.cfi_endproc
 1839              	.LFE356:
 1840              		.size	sdc_lld_write, .-sdc_lld_write
 1841              		.section	.text.sdc_lld_sync,"ax",%progbits
 1842              		.align	1
 1843              		.global	sdc_lld_sync
 1844              		.syntax unified
 1845              		.thumb
 1846              		.thumb_func
 1847              		.fpu fpv4-sp-d16
 1848              		.type	sdc_lld_sync, %function
 1849              	sdc_lld_sync:
 1850              	.LFB357:
 1851              		.loc 1 1007 0
 1852              		.cfi_startproc
 1853              		@ args = 0, pretend = 0, frame = 0
 1854              		@ frame_needed = 0, uses_anonymous_args = 0
 1855              		@ link register save eliminated.
 1856              	.LVL170:
 1857              		.loc 1 1012 0
 1858 0000 0020     		movs	r0, #0
 1859              	.LVL171:
 1860 0002 7047     		bx	lr
 1861              		.cfi_endproc
 1862              	.LFE357:
 1863              		.size	sdc_lld_sync, .-sdc_lld_sync
 1864              		.global	SDCD1
 1865              		.section	.bss.SDCD1,"aw",%nobits
 1866              		.align	2
 1867              		.set	.LANCHOR0,. + 0
 1868              		.type	SDCD1, %object
 1869              		.size	SDCD1, 88
 1870              	SDCD1:
 1871 0000 00000000 		.space	88
 1871      00000000 
 1871      00000000 
 1871      00000000 
 1871      00000000 
 1872              		.section	.bss.u,"aw",%nobits
 1873              		.align	2
 1874              		.set	.LANCHOR2,. + 0
 1875              		.type	u, %object
 1876              		.size	u, 512
 1877              	u:
ARM GAS  /tmp/ccblJY4d.s 			page 34


 1878 0000 00000000 		.space	512
 1878      00000000 
 1878      00000000 
 1878      00000000 
 1878      00000000 
 1879              		.section	.rodata.sdc_default_cfg,"a",%progbits
 1880              		.align	2
 1881              		.set	.LANCHOR1,. + 0
 1882              		.type	sdc_default_cfg, %object
 1883              		.size	sdc_default_cfg, 8
 1884              	sdc_default_cfg:
 1885 0000 00000000 		.word	0
 1886 0004 01       		.byte	1
 1887 0005 00       		.byte	0
 1888 0006 0000     		.space	2
 1889              		.text
 1890              	.Letext0:
 1891              		.file 5 "/opt/gcc-arm-none-eabi-6-2017-q2-update/lib/gcc/arm-none-eabi/6.3.1/include/stddef.h"
 1892              		.file 6 "/opt/gcc-arm-none-eabi-6-2017-q2-update/arm-none-eabi/include/machine/_default_types.h"
 1893              		.file 7 "/opt/gcc-arm-none-eabi-6-2017-q2-update/arm-none-eabi/include/sys/lock.h"
 1894              		.file 8 "/opt/gcc-arm-none-eabi-6-2017-q2-update/arm-none-eabi/include/sys/_types.h"
 1895              		.file 9 "/opt/gcc-arm-none-eabi-6-2017-q2-update/arm-none-eabi/include/sys/reent.h"
 1896              		.file 10 "/opt/gcc-arm-none-eabi-6-2017-q2-update/arm-none-eabi/include/sys/_stdint.h"
 1897              		.file 11 "/opt/gcc-arm-none-eabi-6-2017-q2-update/arm-none-eabi/include/stdint.h"
 1898              		.file 12 "../../modules/ChibiOS/os/common/ports/ARMCMx/compilers/GCC/chtypes.h"
 1899              		.file 13 "../../modules/ChibiOS/os/rt/include/chsystypes.h"
 1900              		.file 14 "../../modules/ChibiOS/os/rt/include/chschd.h"
 1901              		.file 15 "../../modules/ChibiOS/os/rt/include/chtime.h"
 1902              		.file 16 "../../modules/ChibiOS/os/common/ext/ARM/CMSIS/Core/Include/core_cm7.h"
 1903              		.file 17 "../../modules/ChibiOS/os/common/ext/ST/STM32F7xx/system_stm32f7xx.h"
 1904              		.file 18 "../../modules/ChibiOS/os/common/ext/ST/STM32F7xx/stm32f767xx.h"
 1905              		.file 19 "../../modules/ChibiOS/os/common/ports/ARMCMx/chcore.h"
 1906              		.file 20 "../../modules/ChibiOS/os/common/ports/ARMCMx/chcore_v7m.h"
 1907              		.file 21 "../../modules/ChibiOS/os/hal/ports/STM32/LLD/TIMv1/stm32_tim.h"
 1908              		.file 22 "../../modules/ChibiOS/os/rt/include/chtm.h"
 1909              		.file 23 "../../modules/ChibiOS/os/rt/include/chstats.h"
 1910              		.file 24 "../../modules/ChibiOS/os/rt/include/chsem.h"
 1911              		.file 25 "../../modules/ChibiOS/os/rt/include/chmtx.h"
 1912              		.file 26 "../../modules/ChibiOS/os/rt/include/chregistry.h"
 1913              		.file 27 "../../modules/ChibiOS/os/rt/include/chevents.h"
 1914              		.file 28 "../../modules/ChibiOS/os/oslib/include/chmemcore.h"
 1915              		.file 29 "../../modules/ChibiOS/os/oslib/include/chmempools.h"
 1916              		.file 30 "../../modules/ChibiOS/os/oslib/include/chfactory.h"
 1917              		.file 31 "../../modules/ChibiOS/os/hal/ports/STM32/LLD/DMAv2/stm32_dma.h"
 1918              		.file 32 "../../modules/ChibiOS/os/hal/include/hal_ioblock.h"
 1919              		.file 33 "../../modules/ChibiOS/os/hal/include/hal_queues.h"
 1920              		.file 34 "../../modules/ChibiOS/os/hal/include/hal_pal.h"
 1921              		.file 35 "../../modules/ChibiOS/os/hal/ports/STM32/LLD/GPIOv2/stm32_gpio.h"
 1922              		.file 36 "../../modules/ChibiOS/os/hal/ports/STM32/LLD/GPIOv2/hal_pal_lld.h"
 1923              		.file 37 "../../modules/ChibiOS/os/hal/include/hal_adc.h"
 1924              		.file 38 "../../modules/ChibiOS/os/hal/ports/STM32/LLD/ADCv2/hal_adc_lld.h"
 1925              		.file 39 "../../modules/ChibiOS/os/hal/include/hal_i2c.h"
 1926              		.file 40 "../../modules/ChibiOS/os/hal/ports/STM32/LLD/I2Cv2/hal_i2c_lld.h"
 1927              		.file 41 "../../modules/ChibiOS/os/hal/include/hal_pwm.h"
 1928              		.file 42 "../../modules/ChibiOS/os/hal/ports/STM32/LLD/TIMv1/hal_pwm_lld.h"
 1929              		.file 43 "../../modules/ChibiOS/os/hal/include/hal_serial.h"
 1930              		.file 44 "../../modules/ChibiOS/os/hal/ports/STM32/LLD/USARTv2/hal_serial_lld.h"
ARM GAS  /tmp/ccblJY4d.s 			page 35


 1931              		.file 45 "../../modules/ChibiOS/os/hal/include/hal_sdc.h"
 1932              		.file 46 "../../modules/ChibiOS/os/hal/ports/STM32/LLD/SDMMCv1/hal_sdc_lld.h"
 1933              		.file 47 "../../libraries/AP_HAL_ChibiOS/hwdef/common/bouncebuffer.h"
 1934              		.file 48 "../../modules/ChibiOS/os/hal/include/hal_spi.h"
 1935              		.file 49 "../../modules/ChibiOS/os/hal/ports/STM32/LLD/SPIv2/hal_spi_lld.h"
 1936              		.file 50 "../../modules/ChibiOS/os/hal/include/hal_usb.h"
 1937              		.file 51 "../../modules/ChibiOS/os/hal/ports/STM32/LLD/OTGv1/hal_usb_lld.h"
 1938              		.file 52 "../../modules/ChibiOS/os/hal/ports/STM32/LLD/OTGv1/stm32_otg.h"
 1939              		.file 53 "../../modules/ChibiOS/os/rt/include/chthreads.h"
 1940              		.file 54 "../../modules/ChibiOS/os/hal/ports/common/ARMCMx/nvic.h"