ARM GAS  /tmp/ccKHxc3N.s 			page 1


   1              		.cpu cortex-m7
   2              		.eabi_attribute 27, 1
   3              		.eabi_attribute 28, 1
   4              		.eabi_attribute 20, 1
   5              		.eabi_attribute 21, 1
   6              		.eabi_attribute 23, 3
   7              		.eabi_attribute 24, 1
   8              		.eabi_attribute 25, 1
   9              		.eabi_attribute 26, 1
  10              		.eabi_attribute 30, 4
  11              		.eabi_attribute 34, 1
  12              		.eabi_attribute 18, 4
  13              		.file	"hal_serial.c"
  14              		.text
  15              	.Ltext0:
  16              		.cfi_sections	.debug_frame
  17              		.section	.text._readt,"ax",%progbits
  18              		.align	1
  19              		.syntax unified
  20              		.thumb
  21              		.thumb_func
  22              		.fpu fpv4-sp-d16
  23              		.type	_readt, %function
  24              	_readt:
  25              	.LFB341:
  26              		.file 1 "../../modules/ChibiOS/os/hal/src/hal_serial.c"
  27              		.loc 1 89 0
  28              		.cfi_startproc
  29              		@ args = 0, pretend = 0, frame = 0
  30              		@ frame_needed = 0, uses_anonymous_args = 0
  31              		@ link register save eliminated.
  32              	.LVL0:
  33              		.loc 1 91 0
  34 0000 0C30     		adds	r0, r0, #12
  35              	.LVL1:
  36 0002 FFF7FEBF 		b	iqReadTimeout
  37              	.LVL2:
  38              		.cfi_endproc
  39              	.LFE341:
  40              		.size	_readt, .-_readt
  41              		.section	.text._read,"ax",%progbits
  42              		.align	1
  43              		.syntax unified
  44              		.thumb
  45              		.thumb_func
  46              		.fpu fpv4-sp-d16
  47              		.type	_read, %function
  48              	_read:
  49              	.LFB335:
  50              		.loc 1 56 0
  51              		.cfi_startproc
  52              		@ args = 0, pretend = 0, frame = 0
  53              		@ frame_needed = 0, uses_anonymous_args = 0
  54              		@ link register save eliminated.
  55              	.LVL3:
  56              		.loc 1 58 0
  57 0000 4FF0FF33 		mov	r3, #-1
ARM GAS  /tmp/ccKHxc3N.s 			page 2


  58 0004 0C30     		adds	r0, r0, #12
  59              	.LVL4:
  60 0006 FFF7FEBF 		b	iqReadTimeout
  61              	.LVL5:
  62              		.cfi_endproc
  63              	.LFE335:
  64              		.size	_read, .-_read
  65              		.section	.text._writet,"ax",%progbits
  66              		.align	1
  67              		.syntax unified
  68              		.thumb
  69              		.thumb_func
  70              		.fpu fpv4-sp-d16
  71              		.type	_writet, %function
  72              	_writet:
  73              	.LFB340:
  74              		.loc 1 83 0
  75              		.cfi_startproc
  76              		@ args = 0, pretend = 0, frame = 0
  77              		@ frame_needed = 0, uses_anonymous_args = 0
  78              		@ link register save eliminated.
  79              	.LVL6:
  80              		.loc 1 85 0
  81 0000 3030     		adds	r0, r0, #48
  82              	.LVL7:
  83 0002 FFF7FEBF 		b	oqWriteTimeout
  84              	.LVL8:
  85              		.cfi_endproc
  86              	.LFE340:
  87              		.size	_writet, .-_writet
  88              		.section	.text._write,"ax",%progbits
  89              		.align	1
  90              		.syntax unified
  91              		.thumb
  92              		.thumb_func
  93              		.fpu fpv4-sp-d16
  94              		.type	_write, %function
  95              	_write:
  96              	.LFB334:
  97              		.loc 1 50 0
  98              		.cfi_startproc
  99              		@ args = 0, pretend = 0, frame = 0
 100              		@ frame_needed = 0, uses_anonymous_args = 0
 101              		@ link register save eliminated.
 102              	.LVL9:
 103              		.loc 1 52 0
 104 0000 4FF0FF33 		mov	r3, #-1
 105 0004 3030     		adds	r0, r0, #48
 106              	.LVL10:
 107 0006 FFF7FEBF 		b	oqWriteTimeout
 108              	.LVL11:
 109              		.cfi_endproc
 110              	.LFE334:
 111              		.size	_write, .-_write
 112              		.section	.text._gett,"ax",%progbits
 113              		.align	1
 114              		.syntax unified
ARM GAS  /tmp/ccKHxc3N.s 			page 3


 115              		.thumb
 116              		.thumb_func
 117              		.fpu fpv4-sp-d16
 118              		.type	_gett, %function
 119              	_gett:
 120              	.LFB339:
 121              		.loc 1 77 0
 122              		.cfi_startproc
 123              		@ args = 0, pretend = 0, frame = 0
 124              		@ frame_needed = 0, uses_anonymous_args = 0
 125              		@ link register save eliminated.
 126              	.LVL12:
 127              		.loc 1 79 0
 128 0000 0C30     		adds	r0, r0, #12
 129              	.LVL13:
 130 0002 FFF7FEBF 		b	iqGetTimeout
 131              	.LVL14:
 132              		.cfi_endproc
 133              	.LFE339:
 134              		.size	_gett, .-_gett
 135              		.section	.text._get,"ax",%progbits
 136              		.align	1
 137              		.syntax unified
 138              		.thumb
 139              		.thumb_func
 140              		.fpu fpv4-sp-d16
 141              		.type	_get, %function
 142              	_get:
 143              	.LFB337:
 144              		.loc 1 67 0
 145              		.cfi_startproc
 146              		@ args = 0, pretend = 0, frame = 0
 147              		@ frame_needed = 0, uses_anonymous_args = 0
 148              		@ link register save eliminated.
 149              	.LVL15:
 150              		.loc 1 69 0
 151 0000 4FF0FF31 		mov	r1, #-1
 152 0004 0C30     		adds	r0, r0, #12
 153              	.LVL16:
 154 0006 FFF7FEBF 		b	iqGetTimeout
 155              	.LVL17:
 156              		.cfi_endproc
 157              	.LFE337:
 158              		.size	_get, .-_get
 159              		.section	.text._putt,"ax",%progbits
 160              		.align	1
 161              		.syntax unified
 162              		.thumb
 163              		.thumb_func
 164              		.fpu fpv4-sp-d16
 165              		.type	_putt, %function
 166              	_putt:
 167              	.LFB338:
 168              		.loc 1 72 0
 169              		.cfi_startproc
 170              		@ args = 0, pretend = 0, frame = 0
 171              		@ frame_needed = 0, uses_anonymous_args = 0
ARM GAS  /tmp/ccKHxc3N.s 			page 4


 172              		@ link register save eliminated.
 173              	.LVL18:
 174              		.loc 1 74 0
 175 0000 3030     		adds	r0, r0, #48
 176              	.LVL19:
 177 0002 FFF7FEBF 		b	oqPutTimeout
 178              	.LVL20:
 179              		.cfi_endproc
 180              	.LFE338:
 181              		.size	_putt, .-_putt
 182              		.section	.text._put,"ax",%progbits
 183              		.align	1
 184              		.syntax unified
 185              		.thumb
 186              		.thumb_func
 187              		.fpu fpv4-sp-d16
 188              		.type	_put, %function
 189              	_put:
 190              	.LFB336:
 191              		.loc 1 62 0
 192              		.cfi_startproc
 193              		@ args = 0, pretend = 0, frame = 0
 194              		@ frame_needed = 0, uses_anonymous_args = 0
 195              		@ link register save eliminated.
 196              	.LVL21:
 197              		.loc 1 64 0
 198 0000 4FF0FF32 		mov	r2, #-1
 199 0004 3030     		adds	r0, r0, #48
 200              	.LVL22:
 201 0006 FFF7FEBF 		b	oqPutTimeout
 202              	.LVL23:
 203              		.cfi_endproc
 204              	.LFE336:
 205              		.size	_put, .-_put
 206              		.section	.text._ctl,"ax",%progbits
 207              		.align	1
 208              		.syntax unified
 209              		.thumb
 210              		.thumb_func
 211              		.fpu fpv4-sp-d16
 212              		.type	_ctl, %function
 213              	_ctl:
 214              	.LFB353:
 215              		.cfi_startproc
 216              		@ args = 0, pretend = 0, frame = 0
 217              		@ frame_needed = 0, uses_anonymous_args = 0
 218              		@ link register save eliminated.
 219 0000 0020     		movs	r0, #0
 220 0002 7047     		bx	lr
 221              		.cfi_endproc
 222              	.LFE353:
 223              		.size	_ctl, .-_ctl
 224              		.section	.text.sdInit,"ax",%progbits
 225              		.align	1
 226              		.global	sdInit
 227              		.syntax unified
 228              		.thumb
ARM GAS  /tmp/ccKHxc3N.s 			page 5


 229              		.thumb_func
 230              		.fpu fpv4-sp-d16
 231              		.type	sdInit, %function
 232              	sdInit:
 233              	.LFB343:
 234              		.loc 1 135 0
 235              		.cfi_startproc
 236              		@ args = 0, pretend = 0, frame = 0
 237              		@ frame_needed = 0, uses_anonymous_args = 0
 238              		@ link register save eliminated.
 239              		.loc 1 137 0
 240 0000 FFF7FEBF 		b	sd_lld_init
 241              	.LVL24:
 242              		.cfi_endproc
 243              	.LFE343:
 244              		.size	sdInit, .-sdInit
 245              		.section	.text.sdObjectInit,"ax",%progbits
 246              		.align	1
 247              		.global	sdObjectInit
 248              		.syntax unified
 249              		.thumb
 250              		.thumb_func
 251              		.fpu fpv4-sp-d16
 252              		.type	sdObjectInit, %function
 253              	sdObjectInit:
 254              	.LFB344:
 255              		.loc 1 167 0
 256              		.cfi_startproc
 257              		@ args = 0, pretend = 0, frame = 0
 258              		@ frame_needed = 0, uses_anonymous_args = 0
 259              		@ link register save eliminated.
 260              	.LVL25:
 261              		.loc 1 169 0
 262 0000 0346     		mov	r3, r0
 263 0002 034A     		ldr	r2, .L12
 264 0004 43F8042B 		str	r2, [r3], #4
 265              	.LVL26:
 266              	.LBB46:
 267              	.LBB47:
 268              	.LBB48:
 269              		.file 2 "../../modules/ChibiOS/os/rt/include/chevents.h"
 270              		.loc 2 173 0
 271 0008 4360     		str	r3, [r0, #4]
 272              	.LVL27:
 273              	.LBE48:
 274              	.LBE47:
 275              	.LBE46:
 276              		.loc 1 171 0
 277 000a 0123     		movs	r3, #1
 278 000c 0372     		strb	r3, [r0, #8]
 279 000e 7047     		bx	lr
 280              	.L13:
 281              		.align	2
 282              	.L12:
 283 0010 00000000 		.word	.LANCHOR0
 284              		.cfi_endproc
 285              	.LFE344:
ARM GAS  /tmp/ccKHxc3N.s 			page 6


 286              		.size	sdObjectInit, .-sdObjectInit
 287              		.section	.text.sdStart,"ax",%progbits
 288              		.align	1
 289              		.global	sdStart
 290              		.syntax unified
 291              		.thumb
 292              		.thumb_func
 293              		.fpu fpv4-sp-d16
 294              		.type	sdStart, %function
 295              	sdStart:
 296              	.LFB345:
 297              		.loc 1 185 0
 298              		.cfi_startproc
 299              		@ args = 0, pretend = 0, frame = 0
 300              		@ frame_needed = 0, uses_anonymous_args = 0
 301              	.LVL28:
 302 0000 38B5     		push	{r3, r4, r5, lr}
 303              		.cfi_def_cfa_offset 16
 304              		.cfi_offset 3, -16
 305              		.cfi_offset 4, -12
 306              		.cfi_offset 5, -8
 307              		.cfi_offset 14, -4
 308              		.loc 1 185 0
 309 0002 0446     		mov	r4, r0
 310 0004 0D46     		mov	r5, r1
 311              	.LBB63:
 312              	.LBB64:
 313              	.LBB65:
 314              	.LBB66:
 315              	.LBB67:
 316              	.LBB68:
 317              		.file 3 "../../modules/ChibiOS/os/common/ext/ARM/CMSIS/Core/Include/cmsis_gcc.h"
 318              		.loc 3 493 0
 319 0006 2023     		movs	r3, #32
 320              		.syntax unified
 321              	@ 493 "../../modules/ChibiOS/os/common/ext/ARM/CMSIS/Core/Include/cmsis_gcc.h" 1
 322 0008 83F31188 		MSR basepri, r3
 323              	@ 0 "" 2
 324              	.LVL29:
 325              		.thumb
 326              		.syntax unified
 327              	.LBE68:
 328              	.LBE67:
 329              	.LBE66:
 330              		.file 4 "../../modules/ChibiOS/os/rt/include/chsys.h"
 331              		.loc 4 356 0
 332 000c FFF7FEFF 		bl	_stats_start_measure_crit_thd
 333              	.LVL30:
 334              	.LBE65:
 335              	.LBE64:
 336              	.LBE63:
 337              		.loc 1 192 0
 338 0010 2946     		mov	r1, r5
 339 0012 2046     		mov	r0, r4
 340 0014 FFF7FEFF 		bl	sd_lld_start
 341              	.LVL31:
 342              		.loc 1 193 0
ARM GAS  /tmp/ccKHxc3N.s 			page 7


 343 0018 0223     		movs	r3, #2
 344 001a 2372     		strb	r3, [r4, #8]
 345              	.LBB69:
 346              	.LBB70:
 347              	.LBB71:
 348              		.loc 4 368 0
 349 001c FFF7FEFF 		bl	_stats_stop_measure_crit_thd
 350              	.LVL32:
 351              	.LBB72:
 352              	.LBB73:
 353              	.LBB74:
 354              		.loc 3 493 0
 355 0020 0023     		movs	r3, #0
 356              		.syntax unified
 357              	@ 493 "../../modules/ChibiOS/os/common/ext/ARM/CMSIS/Core/Include/cmsis_gcc.h" 1
 358 0022 83F31188 		MSR basepri, r3
 359              	@ 0 "" 2
 360              	.LVL33:
 361              		.thumb
 362              		.syntax unified
 363 0026 38BD     		pop	{r3, r4, r5, pc}
 364              	.LBE74:
 365              	.LBE73:
 366              	.LBE72:
 367              	.LBE71:
 368              	.LBE70:
 369              	.LBE69:
 370              		.cfi_endproc
 371              	.LFE345:
 372              		.size	sdStart, .-sdStart
 373              		.section	.text.sdStop,"ax",%progbits
 374              		.align	1
 375              		.global	sdStop
 376              		.syntax unified
 377              		.thumb
 378              		.thumb_func
 379              		.fpu fpv4-sp-d16
 380              		.type	sdStop, %function
 381              	sdStop:
 382              	.LFB346:
 383              		.loc 1 206 0
 384              		.cfi_startproc
 385              		@ args = 0, pretend = 0, frame = 0
 386              		@ frame_needed = 0, uses_anonymous_args = 0
 387              	.LVL34:
 388 0000 10B5     		push	{r4, lr}
 389              		.cfi_def_cfa_offset 8
 390              		.cfi_offset 4, -8
 391              		.cfi_offset 14, -4
 392              	.LBB91:
 393              	.LBB92:
 394              	.LBB93:
 395              	.LBB94:
 396              	.LBB95:
 397              	.LBB96:
 398              		.loc 3 493 0
 399 0002 2023     		movs	r3, #32
ARM GAS  /tmp/ccKHxc3N.s 			page 8


 400              	.LBE96:
 401              	.LBE95:
 402              	.LBE94:
 403              	.LBE93:
 404              	.LBE92:
 405              	.LBE91:
 406              		.loc 1 206 0
 407 0004 0446     		mov	r4, r0
 408              	.LBB102:
 409              	.LBB101:
 410              	.LBB100:
 411              	.LBB99:
 412              	.LBB98:
 413              	.LBB97:
 414              		.loc 3 493 0
 415              		.syntax unified
 416              	@ 493 "../../modules/ChibiOS/os/common/ext/ARM/CMSIS/Core/Include/cmsis_gcc.h" 1
 417 0006 83F31188 		MSR basepri, r3
 418              	@ 0 "" 2
 419              	.LVL35:
 420              		.thumb
 421              		.syntax unified
 422              	.LBE97:
 423              	.LBE98:
 424              	.LBE99:
 425              		.loc 4 356 0
 426 000a FFF7FEFF 		bl	_stats_start_measure_crit_thd
 427              	.LVL36:
 428              	.LBE100:
 429              	.LBE101:
 430              	.LBE102:
 431              		.loc 1 215 0
 432 000e 2046     		mov	r0, r4
 433 0010 FFF7FEFF 		bl	sd_lld_stop
 434              	.LVL37:
 435              		.loc 1 216 0
 436 0014 0123     		movs	r3, #1
 437              		.loc 1 217 0
 438 0016 04F13000 		add	r0, r4, #48
 439              		.loc 1 216 0
 440 001a 2372     		strb	r3, [r4, #8]
 441              		.loc 1 217 0
 442 001c FFF7FEFF 		bl	oqResetI
 443              	.LVL38:
 444              		.loc 1 218 0
 445 0020 04F10C00 		add	r0, r4, #12
 446 0024 FFF7FEFF 		bl	iqResetI
 447              	.LVL39:
 448              	.LBB103:
 449              	.LBB104:
 450              		.file 5 "../../modules/ChibiOS/os/hal/osal/rt/osal.h"
 451              		.loc 5 618 0
 452 0028 FFF7FEFF 		bl	chSchRescheduleS
 453              	.LVL40:
 454              	.LBE104:
 455              	.LBE103:
 456              	.LBB105:
ARM GAS  /tmp/ccKHxc3N.s 			page 9


 457              	.LBB106:
 458              	.LBB107:
 459              		.loc 4 368 0
 460 002c FFF7FEFF 		bl	_stats_stop_measure_crit_thd
 461              	.LVL41:
 462              	.LBB108:
 463              	.LBB109:
 464              	.LBB110:
 465              		.loc 3 493 0
 466 0030 0023     		movs	r3, #0
 467              		.syntax unified
 468              	@ 493 "../../modules/ChibiOS/os/common/ext/ARM/CMSIS/Core/Include/cmsis_gcc.h" 1
 469 0032 83F31188 		MSR basepri, r3
 470              	@ 0 "" 2
 471              	.LVL42:
 472              		.thumb
 473              		.syntax unified
 474 0036 10BD     		pop	{r4, pc}
 475              	.LBE110:
 476              	.LBE109:
 477              	.LBE108:
 478              	.LBE107:
 479              	.LBE106:
 480              	.LBE105:
 481              		.cfi_endproc
 482              	.LFE346:
 483              		.size	sdStop, .-sdStop
 484              		.section	.text.sdIncomingDataI,"ax",%progbits
 485              		.align	1
 486              		.global	sdIncomingDataI
 487              		.syntax unified
 488              		.thumb
 489              		.thumb_func
 490              		.fpu fpv4-sp-d16
 491              		.type	sdIncomingDataI, %function
 492              	sdIncomingDataI:
 493              	.LFB347:
 494              		.loc 1 240 0
 495              		.cfi_startproc
 496              		@ args = 0, pretend = 0, frame = 0
 497              		@ frame_needed = 0, uses_anonymous_args = 0
 498              	.LVL43:
 499 0000 38B5     		push	{r3, r4, r5, lr}
 500              		.cfi_def_cfa_offset 16
 501              		.cfi_offset 3, -16
 502              		.cfi_offset 4, -12
 503              		.cfi_offset 5, -8
 504              		.cfi_offset 14, -4
 505              		.loc 1 245 0
 506 0002 4369     		ldr	r3, [r0, #20]
 507              		.loc 1 240 0
 508 0004 0446     		mov	r4, r0
 509 0006 0D46     		mov	r5, r1
 510              		.loc 1 245 0
 511 0008 1BB9     		cbnz	r3, .L17
 512              	.LVL44:
 513              	.LBB111:
ARM GAS  /tmp/ccKHxc3N.s 			page 10


 514              	.LBB112:
 515              		.loc 5 895 0
 516 000a 0421     		movs	r1, #4
 517              	.LVL45:
 518 000c 0844     		add	r0, r0, r1
 519              	.LVL46:
 520 000e FFF7FEFF 		bl	chEvtBroadcastFlagsI
 521              	.LVL47:
 522              	.L17:
 523              	.LBE112:
 524              	.LBE111:
 525              		.loc 1 247 0
 526 0012 2946     		mov	r1, r5
 527 0014 04F10C00 		add	r0, r4, #12
 528 0018 FFF7FEFF 		bl	iqPutI
 529              	.LVL48:
 530 001c 0028     		cmp	r0, #0
 531 001e 06DA     		bge	.L16
 532              	.LVL49:
 533              	.LBB113:
 534              	.LBB114:
 535              		.loc 5 895 0
 536 0020 201D     		adds	r0, r4, #4
 537              	.LVL50:
 538 0022 4FF48061 		mov	r1, #1024
 539              	.LBE114:
 540              	.LBE113:
 541              		.loc 1 249 0
 542 0026 BDE83840 		pop	{r3, r4, r5, lr}
 543              		.cfi_remember_state
 544              		.cfi_restore 14
 545              		.cfi_restore 5
 546              		.cfi_restore 4
 547              		.cfi_restore 3
 548              		.cfi_def_cfa_offset 0
 549              	.LVL51:
 550              	.LBB116:
 551              	.LBB115:
 552              		.loc 5 895 0
 553 002a FFF7FEBF 		b	chEvtBroadcastFlagsI
 554              	.LVL52:
 555              	.L16:
 556              		.cfi_restore_state
 557 002e 38BD     		pop	{r3, r4, r5, pc}
 558              	.LBE115:
 559              	.LBE116:
 560              		.cfi_endproc
 561              	.LFE347:
 562              		.size	sdIncomingDataI, .-sdIncomingDataI
 563              		.section	.text.sdRequestDataI,"ax",%progbits
 564              		.align	1
 565              		.global	sdRequestDataI
 566              		.syntax unified
 567              		.thumb
 568              		.thumb_func
 569              		.fpu fpv4-sp-d16
 570              		.type	sdRequestDataI, %function
ARM GAS  /tmp/ccKHxc3N.s 			page 11


 571              	sdRequestDataI:
 572              	.LFB348:
 573              		.loc 1 266 0
 574              		.cfi_startproc
 575              		@ args = 0, pretend = 0, frame = 0
 576              		@ frame_needed = 0, uses_anonymous_args = 0
 577              	.LVL53:
 578 0000 38B5     		push	{r3, r4, r5, lr}
 579              		.cfi_def_cfa_offset 16
 580              		.cfi_offset 3, -16
 581              		.cfi_offset 4, -12
 582              		.cfi_offset 5, -8
 583              		.cfi_offset 14, -4
 584              		.loc 1 266 0
 585 0002 0446     		mov	r4, r0
 586              		.loc 1 272 0
 587 0004 3030     		adds	r0, r0, #48
 588              	.LVL54:
 589 0006 FFF7FEFF 		bl	oqGetI
 590              	.LVL55:
 591              		.loc 1 273 0
 592 000a 051E     		subs	r5, r0, #0
 593 000c 03DA     		bge	.L19
 594              	.LVL56:
 595              	.LBB117:
 596              	.LBB118:
 597              		.loc 5 895 0
 598 000e 0821     		movs	r1, #8
 599 0010 201D     		adds	r0, r4, #4
 600              	.LVL57:
 601 0012 FFF7FEFF 		bl	chEvtBroadcastFlagsI
 602              	.LVL58:
 603              	.L19:
 604              	.LBE118:
 605              	.LBE117:
 606              		.loc 1 276 0
 607 0016 2846     		mov	r0, r5
 608 0018 38BD     		pop	{r3, r4, r5, pc}
 609              		.cfi_endproc
 610              	.LFE348:
 611              		.size	sdRequestDataI, .-sdRequestDataI
 612              		.section	.text.sdPutWouldBlock,"ax",%progbits
 613              		.align	1
 614              		.global	sdPutWouldBlock
 615              		.syntax unified
 616              		.thumb
 617              		.thumb_func
 618              		.fpu fpv4-sp-d16
 619              		.type	sdPutWouldBlock, %function
 620              	sdPutWouldBlock:
 621              	.LFB349:
 622              		.loc 1 293 0
 623              		.cfi_startproc
 624              		@ args = 0, pretend = 0, frame = 0
 625              		@ frame_needed = 0, uses_anonymous_args = 0
 626              	.LVL59:
 627 0000 10B5     		push	{r4, lr}
ARM GAS  /tmp/ccKHxc3N.s 			page 12


 628              		.cfi_def_cfa_offset 8
 629              		.cfi_offset 4, -8
 630              		.cfi_offset 14, -4
 631              	.LBB133:
 632              	.LBB134:
 633              	.LBB135:
 634              	.LBB136:
 635              	.LBB137:
 636              	.LBB138:
 637              		.loc 3 493 0
 638 0002 2023     		movs	r3, #32
 639              	.LBE138:
 640              	.LBE137:
 641              	.LBE136:
 642              	.LBE135:
 643              	.LBE134:
 644              	.LBE133:
 645              		.loc 1 293 0
 646 0004 0446     		mov	r4, r0
 647              	.LBB144:
 648              	.LBB143:
 649              	.LBB142:
 650              	.LBB141:
 651              	.LBB140:
 652              	.LBB139:
 653              		.loc 3 493 0
 654              		.syntax unified
 655              	@ 493 "../../modules/ChibiOS/os/common/ext/ARM/CMSIS/Core/Include/cmsis_gcc.h" 1
 656 0006 83F31188 		MSR basepri, r3
 657              	@ 0 "" 2
 658              	.LVL60:
 659              		.thumb
 660              		.syntax unified
 661              	.LBE139:
 662              	.LBE140:
 663              	.LBE141:
 664              		.loc 4 356 0
 665 000a FFF7FEFF 		bl	_stats_start_measure_crit_thd
 666              	.LVL61:
 667              	.LBE142:
 668              	.LBE143:
 669              	.LBE144:
 670              		.loc 1 297 0
 671 000e A46B     		ldr	r4, [r4, #56]
 672              	.LVL62:
 673              	.LBB145:
 674              	.LBB146:
 675              	.LBB147:
 676              		.loc 4 368 0
 677 0010 FFF7FEFF 		bl	_stats_stop_measure_crit_thd
 678              	.LVL63:
 679              	.LBB148:
 680              	.LBB149:
 681              	.LBB150:
 682              		.loc 3 493 0
 683 0014 0023     		movs	r3, #0
 684              		.syntax unified
ARM GAS  /tmp/ccKHxc3N.s 			page 13


 685              	@ 493 "../../modules/ChibiOS/os/common/ext/ARM/CMSIS/Core/Include/cmsis_gcc.h" 1
 686 0016 83F31188 		MSR basepri, r3
 687              	@ 0 "" 2
 688              	.LVL64:
 689              		.thumb
 690              		.syntax unified
 691              	.LBE150:
 692              	.LBE149:
 693              	.LBE148:
 694              	.LBE147:
 695              	.LBE146:
 696              	.LBE145:
 697              		.loc 1 301 0
 698 001a B4FA84F0 		clz	r0, r4
 699 001e 4009     		lsrs	r0, r0, #5
 700 0020 10BD     		pop	{r4, pc}
 701              		.cfi_endproc
 702              	.LFE349:
 703              		.size	sdPutWouldBlock, .-sdPutWouldBlock
 704              		.section	.text.sdGetWouldBlock,"ax",%progbits
 705              		.align	1
 706              		.global	sdGetWouldBlock
 707              		.syntax unified
 708              		.thumb
 709              		.thumb_func
 710              		.fpu fpv4-sp-d16
 711              		.type	sdGetWouldBlock, %function
 712              	sdGetWouldBlock:
 713              	.LFB350:
 714              		.loc 1 318 0
 715              		.cfi_startproc
 716              		@ args = 0, pretend = 0, frame = 0
 717              		@ frame_needed = 0, uses_anonymous_args = 0
 718              	.LVL65:
 719 0000 10B5     		push	{r4, lr}
 720              		.cfi_def_cfa_offset 8
 721              		.cfi_offset 4, -8
 722              		.cfi_offset 14, -4
 723              	.LBB165:
 724              	.LBB166:
 725              	.LBB167:
 726              	.LBB168:
 727              	.LBB169:
 728              	.LBB170:
 729              		.loc 3 493 0
 730 0002 2023     		movs	r3, #32
 731              	.LBE170:
 732              	.LBE169:
 733              	.LBE168:
 734              	.LBE167:
 735              	.LBE166:
 736              	.LBE165:
 737              		.loc 1 318 0
 738 0004 0446     		mov	r4, r0
 739              	.LBB176:
 740              	.LBB175:
 741              	.LBB174:
ARM GAS  /tmp/ccKHxc3N.s 			page 14


 742              	.LBB173:
 743              	.LBB172:
 744              	.LBB171:
 745              		.loc 3 493 0
 746              		.syntax unified
 747              	@ 493 "../../modules/ChibiOS/os/common/ext/ARM/CMSIS/Core/Include/cmsis_gcc.h" 1
 748 0006 83F31188 		MSR basepri, r3
 749              	@ 0 "" 2
 750              	.LVL66:
 751              		.thumb
 752              		.syntax unified
 753              	.LBE171:
 754              	.LBE172:
 755              	.LBE173:
 756              		.loc 4 356 0
 757 000a FFF7FEFF 		bl	_stats_start_measure_crit_thd
 758              	.LVL67:
 759              	.LBE174:
 760              	.LBE175:
 761              	.LBE176:
 762              		.loc 1 322 0
 763 000e 6469     		ldr	r4, [r4, #20]
 764              	.LVL68:
 765              	.LBB177:
 766              	.LBB178:
 767              	.LBB179:
 768              		.loc 4 368 0
 769 0010 FFF7FEFF 		bl	_stats_stop_measure_crit_thd
 770              	.LVL69:
 771              	.LBB180:
 772              	.LBB181:
 773              	.LBB182:
 774              		.loc 3 493 0
 775 0014 0023     		movs	r3, #0
 776              		.syntax unified
 777              	@ 493 "../../modules/ChibiOS/os/common/ext/ARM/CMSIS/Core/Include/cmsis_gcc.h" 1
 778 0016 83F31188 		MSR basepri, r3
 779              	@ 0 "" 2
 780              	.LVL70:
 781              		.thumb
 782              		.syntax unified
 783              	.LBE182:
 784              	.LBE181:
 785              	.LBE180:
 786              	.LBE179:
 787              	.LBE178:
 788              	.LBE177:
 789              		.loc 1 326 0
 790 001a B4FA84F0 		clz	r0, r4
 791 001e 4009     		lsrs	r0, r0, #5
 792 0020 10BD     		pop	{r4, pc}
 793              		.cfi_endproc
 794              	.LFE350:
 795              		.size	sdGetWouldBlock, .-sdGetWouldBlock
 796              		.section	.text.sdControl,"ax",%progbits
 797              		.align	1
 798              		.global	sdControl
ARM GAS  /tmp/ccKHxc3N.s 			page 15


 799              		.syntax unified
 800              		.thumb
 801              		.thumb_func
 802              		.fpu fpv4-sp-d16
 803              		.type	sdControl, %function
 804              	sdControl:
 805              	.LFB351:
 806              		.loc 1 342 0
 807              		.cfi_startproc
 808              		@ args = 0, pretend = 0, frame = 0
 809              		@ frame_needed = 0, uses_anonymous_args = 0
 810              		@ link register save eliminated.
 811              	.LVL71:
 812              		.loc 1 345 0
 813 0000 0020     		movs	r0, #0
 814              	.LVL72:
 815 0002 7047     		bx	lr
 816              		.cfi_endproc
 817              	.LFE351:
 818              		.size	sdControl, .-sdControl
 819              		.section	.rodata.vmt,"a",%progbits
 820              		.align	2
 821              		.set	.LANCHOR0,. + 0
 822              		.type	vmt, %object
 823              		.size	vmt, 40
 824              	vmt:
 825 0000 00000000 		.word	0
 826 0004 00000000 		.word	_write
 827 0008 00000000 		.word	_read
 828 000c 00000000 		.word	_put
 829 0010 00000000 		.word	_get
 830 0014 00000000 		.word	_putt
 831 0018 00000000 		.word	_gett
 832 001c 00000000 		.word	_writet
 833 0020 00000000 		.word	_readt
 834 0024 00000000 		.word	_ctl
 835              		.text
 836              	.Letext0:
 837              		.file 6 "/opt/gcc-arm-none-eabi-6-2017-q2-update/lib/gcc/arm-none-eabi/6.3.1/include/stddef.h"
 838              		.file 7 "/opt/gcc-arm-none-eabi-6-2017-q2-update/arm-none-eabi/include/machine/_default_types.h"
 839              		.file 8 "/opt/gcc-arm-none-eabi-6-2017-q2-update/arm-none-eabi/include/sys/_stdint.h"
 840              		.file 9 "/opt/gcc-arm-none-eabi-6-2017-q2-update/arm-none-eabi/include/stdint.h"
 841              		.file 10 "../../modules/ChibiOS/os/common/ports/ARMCMx/compilers/GCC/chtypes.h"
 842              		.file 11 "../../modules/ChibiOS/os/rt/include/chsystypes.h"
 843              		.file 12 "../../modules/ChibiOS/os/rt/include/chschd.h"
 844              		.file 13 "../../modules/ChibiOS/os/rt/include/chtime.h"
 845              		.file 14 "../../modules/ChibiOS/os/common/ext/ARM/CMSIS/Core/Include/core_cm7.h"
 846              		.file 15 "../../modules/ChibiOS/os/common/ext/ST/STM32F7xx/system_stm32f7xx.h"
 847              		.file 16 "../../modules/ChibiOS/os/common/ext/ST/STM32F7xx/stm32f767xx.h"
 848              		.file 17 "../../modules/ChibiOS/os/common/ports/ARMCMx/chcore.h"
 849              		.file 18 "../../modules/ChibiOS/os/common/ports/ARMCMx/chcore_v7m.h"
 850              		.file 19 "../../modules/ChibiOS/os/hal/ports/STM32/LLD/TIMv1/stm32_tim.h"
 851              		.file 20 "../../modules/ChibiOS/os/rt/include/chtm.h"
 852              		.file 21 "../../modules/ChibiOS/os/rt/include/chstats.h"
 853              		.file 22 "../../modules/ChibiOS/os/rt/include/chsem.h"
 854              		.file 23 "../../modules/ChibiOS/os/rt/include/chmtx.h"
 855              		.file 24 "../../modules/ChibiOS/os/rt/include/chregistry.h"
ARM GAS  /tmp/ccKHxc3N.s 			page 16


 856              		.file 25 "../../modules/ChibiOS/os/oslib/include/chmemcore.h"
 857              		.file 26 "../../modules/ChibiOS/os/oslib/include/chmempools.h"
 858              		.file 27 "../../modules/ChibiOS/os/oslib/include/chfactory.h"
 859              		.file 28 "../../modules/ChibiOS/os/hal/ports/STM32/LLD/DMAv2/stm32_dma.h"
 860              		.file 29 "../../modules/ChibiOS/os/hal/include/hal_ioblock.h"
 861              		.file 30 "../../modules/ChibiOS/os/hal/include/hal_queues.h"
 862              		.file 31 "../../modules/ChibiOS/os/hal/include/hal_pal.h"
 863              		.file 32 "../../modules/ChibiOS/os/hal/ports/STM32/LLD/GPIOv2/stm32_gpio.h"
 864              		.file 33 "../../modules/ChibiOS/os/hal/ports/STM32/LLD/GPIOv2/hal_pal_lld.h"
 865              		.file 34 "../../modules/ChibiOS/os/hal/include/hal_adc.h"
 866              		.file 35 "../../modules/ChibiOS/os/hal/ports/STM32/LLD/ADCv2/hal_adc_lld.h"
 867              		.file 36 "../../modules/ChibiOS/os/hal/include/hal_i2c.h"
 868              		.file 37 "../../modules/ChibiOS/os/hal/ports/STM32/LLD/I2Cv2/hal_i2c_lld.h"
 869              		.file 38 "../../modules/ChibiOS/os/hal/include/hal_pwm.h"
 870              		.file 39 "../../modules/ChibiOS/os/hal/ports/STM32/LLD/TIMv1/hal_pwm_lld.h"
 871              		.file 40 "../../modules/ChibiOS/os/hal/include/hal_serial.h"
 872              		.file 41 "../../modules/ChibiOS/os/hal/ports/STM32/LLD/USARTv2/hal_serial_lld.h"
 873              		.file 42 "../../modules/ChibiOS/os/hal/include/hal_sdc.h"
 874              		.file 43 "../../modules/ChibiOS/os/hal/ports/STM32/LLD/SDMMCv1/hal_sdc_lld.h"
 875              		.file 44 "../../modules/ChibiOS/os/hal/include/hal_spi.h"
 876              		.file 45 "../../modules/ChibiOS/os/hal/ports/STM32/LLD/SPIv2/hal_spi_lld.h"
 877              		.file 46 "../../modules/ChibiOS/os/hal/include/hal_usb.h"
 878              		.file 47 "../../modules/ChibiOS/os/hal/ports/STM32/LLD/OTGv1/hal_usb_lld.h"
 879              		.file 48 "../../modules/ChibiOS/os/hal/ports/STM32/LLD/OTGv1/stm32_otg.h"