ARM GAS  /tmp/ccVpx4YU.s 			page 1


   1              		.cpu cortex-m7
   2              		.eabi_attribute 27, 1
   3              		.eabi_attribute 28, 1
   4              		.eabi_attribute 20, 1
   5              		.eabi_attribute 21, 1
   6              		.eabi_attribute 23, 3
   7              		.eabi_attribute 24, 1
   8              		.eabi_attribute 25, 1
   9              		.eabi_attribute 26, 1
  10              		.eabi_attribute 30, 4
  11              		.eabi_attribute 34, 1
  12              		.eabi_attribute 18, 4
  13              		.file	"hal_adc_lld.c"
  14              		.text
  15              	.Ltext0:
  16              		.cfi_sections	.debug_frame
  17              		.section	.text.adc_lld_init,"ax",%progbits
  18              		.align	1
  19              		.global	adc_lld_init
  20              		.syntax unified
  21              		.thumb
  22              		.thumb_func
  23              		.fpu fpv4-sp-d16
  24              		.type	adc_lld_init, %function
  25              	adc_lld_init:
  26              	.LFB336:
  27              		.file 1 "../../modules/ChibiOS/os/hal/ports/STM32/LLD/ADCv2/hal_adc_lld.c"
  28              		.loc 1 192 0
  29              		.cfi_startproc
  30              		@ args = 0, pretend = 0, frame = 0
  31              		@ frame_needed = 0, uses_anonymous_args = 0
  32 0000 10B5     		push	{r4, lr}
  33              		.cfi_def_cfa_offset 8
  34              		.cfi_offset 4, -8
  35              		.cfi_offset 14, -4
  36              		.loc 1 196 0
  37 0002 084C     		ldr	r4, .L2
  38 0004 2046     		mov	r0, r4
  39 0006 FFF7FEFF 		bl	adcObjectInit
  40              	.LVL0:
  41              		.loc 1 197 0
  42 000a 074B     		ldr	r3, .L2+4
  43              		.loc 1 235 0
  44 000c 0621     		movs	r1, #6
  45 000e 1220     		movs	r0, #18
  46              		.loc 1 197 0
  47 0010 A361     		str	r3, [r4, #24]
  48              		.loc 1 198 0
  49 0012 0023     		movs	r3, #0
  50 0014 E361     		str	r3, [r4, #28]
  51              		.loc 1 199 0
  52 0016 054B     		ldr	r3, .L2+8
  53 0018 2362     		str	r3, [r4, #32]
  54              		.loc 1 236 0
  55 001a BDE81040 		pop	{r4, lr}
  56              		.cfi_restore 14
  57              		.cfi_restore 4
ARM GAS  /tmp/ccVpx4YU.s 			page 2


  58              		.cfi_def_cfa_offset 0
  59              		.loc 1 235 0
  60 001e FFF7FEBF 		b	nvicEnableVector
  61              	.LVL1:
  62              	.L3:
  63 0022 00BF     		.align	2
  64              	.L2:
  65 0024 00000000 		.word	.LANCHOR0
  66 0028 00200140 		.word	1073815552
  67 002c 162C0200 		.word	142358
  68              		.cfi_endproc
  69              	.LFE336:
  70              		.size	adc_lld_init, .-adc_lld_init
  71              		.section	.text.adc_lld_start,"ax",%progbits
  72              		.align	1
  73              		.global	adc_lld_start
  74              		.syntax unified
  75              		.thumb
  76              		.thumb_func
  77              		.fpu fpv4-sp-d16
  78              		.type	adc_lld_start, %function
  79              	adc_lld_start:
  80              	.LFB337:
  81              		.loc 1 245 0
  82              		.cfi_startproc
  83              		@ args = 0, pretend = 0, frame = 0
  84              		@ frame_needed = 0, uses_anonymous_args = 0
  85              	.LVL2:
  86              		.loc 1 248 0
  87 0000 0378     		ldrb	r3, [r0]	@ zero_extendqisi2
  88 0002 012B     		cmp	r3, #1
  89              		.loc 1 245 0
  90 0004 10B5     		push	{r4, lr}
  91              		.cfi_def_cfa_offset 8
  92              		.cfi_offset 4, -8
  93              		.cfi_offset 14, -4
  94              		.loc 1 245 0
  95 0006 0446     		mov	r4, r0
  96              		.loc 1 248 0
  97 0008 23D1     		bne	.L4
  98              		.loc 1 250 0
  99 000a 124B     		ldr	r3, .L7
 100 000c 9842     		cmp	r0, r3
 101 000e 13D1     		bne	.L6
 102              		.loc 1 251 0
 103 0010 0346     		mov	r3, r0
 104 0012 114A     		ldr	r2, .L7+4
 105 0014 0621     		movs	r1, #6
 106 0016 0C20     		movs	r0, #12
 107              	.LVL3:
 108 0018 FFF7FEFF 		bl	dmaStreamAllocI
 109              	.LVL4:
 110              		.loc 1 256 0
 111 001c 0F4A     		ldr	r2, .L7+8
 112 001e 0368     		ldr	r3, [r0]
 113              		.loc 1 251 0
 114 0020 E061     		str	r0, [r4, #28]
ARM GAS  /tmp/ccVpx4YU.s 			page 3


 115              		.loc 1 256 0
 116 0022 9A60     		str	r2, [r3, #8]
 117              		.loc 1 257 0
 118 0024 0E4B     		ldr	r3, .L7+12
 119 0026 5A6C     		ldr	r2, [r3, #68]
 120 0028 42F48072 		orr	r2, r2, #256
 121 002c 5A64     		str	r2, [r3, #68]
 122 002e 5A6E     		ldr	r2, [r3, #100]
 123 0030 42F48072 		orr	r2, r2, #256
 124 0034 5A66     		str	r2, [r3, #100]
 125 0036 5B6E     		ldr	r3, [r3, #100]
 126              	.L6:
 127              		.loc 1 287 0
 128 0038 0A4A     		ldr	r2, .L7+16
 129 003a 5368     		ldr	r3, [r2, #4]
 130 003c 03F44003 		and	r3, r3, #12582912
 131 0040 43F48033 		orr	r3, r3, #65536
 132 0044 5360     		str	r3, [r2, #4]
 133              		.loc 1 292 0
 134 0046 0022     		movs	r2, #0
 135 0048 A369     		ldr	r3, [r4, #24]
 136 004a 5A60     		str	r2, [r3, #4]
 137              		.loc 1 293 0
 138 004c 9A60     		str	r2, [r3, #8]
 139              		.loc 1 294 0
 140 004e 0122     		movs	r2, #1
 141 0050 9A60     		str	r2, [r3, #8]
 142              	.L4:
 143 0052 10BD     		pop	{r4, pc}
 144              	.LVL5:
 145              	.L8:
 146              		.align	2
 147              	.L7:
 148 0054 00000000 		.word	.LANCHOR0
 149 0058 00000000 		.word	adc_lld_serve_rx_interrupt
 150 005c 4C200140 		.word	1073815628
 151 0060 00380240 		.word	1073887232
 152 0064 00230140 		.word	1073816320
 153              		.cfi_endproc
 154              	.LFE337:
 155              		.size	adc_lld_start, .-adc_lld_start
 156              		.section	.text.adc_lld_stop,"ax",%progbits
 157              		.align	1
 158              		.global	adc_lld_stop
 159              		.syntax unified
 160              		.thumb
 161              		.thumb_func
 162              		.fpu fpv4-sp-d16
 163              		.type	adc_lld_stop, %function
 164              	adc_lld_stop:
 165              	.LFB338:
 166              		.loc 1 305 0
 167              		.cfi_startproc
 168              		@ args = 0, pretend = 0, frame = 0
 169              		@ frame_needed = 0, uses_anonymous_args = 0
 170              	.LVL6:
 171              		.loc 1 308 0
ARM GAS  /tmp/ccVpx4YU.s 			page 4


 172 0000 0378     		ldrb	r3, [r0]	@ zero_extendqisi2
 173 0002 022B     		cmp	r3, #2
 174              		.loc 1 305 0
 175 0004 10B5     		push	{r4, lr}
 176              		.cfi_def_cfa_offset 8
 177              		.cfi_offset 4, -8
 178              		.cfi_offset 14, -4
 179              		.loc 1 305 0
 180 0006 0446     		mov	r4, r0
 181              		.loc 1 308 0
 182 0008 14D1     		bne	.L9
 183              		.loc 1 310 0
 184 000a C069     		ldr	r0, [r0, #28]
 185              	.LVL7:
 186 000c FFF7FEFF 		bl	dmaStreamFreeI
 187              	.LVL8:
 188              		.loc 1 311 0
 189 0010 0023     		movs	r3, #0
 190              		.loc 1 313 0
 191 0012 A269     		ldr	r2, [r4, #24]
 192              		.loc 1 311 0
 193 0014 E361     		str	r3, [r4, #28]
 194              		.loc 1 313 0
 195 0016 5360     		str	r3, [r2, #4]
 196              		.loc 1 314 0
 197 0018 9360     		str	r3, [r2, #8]
 198              		.loc 1 317 0
 199 001a 074B     		ldr	r3, .L13
 200 001c 9C42     		cmp	r4, r3
 201 001e 09D1     		bne	.L9
 202              		.loc 1 318 0
 203 0020 064B     		ldr	r3, .L13+4
 204 0022 5A6C     		ldr	r2, [r3, #68]
 205 0024 22F48072 		bic	r2, r2, #256
 206 0028 5A64     		str	r2, [r3, #68]
 207 002a 5A6E     		ldr	r2, [r3, #100]
 208 002c 22F48072 		bic	r2, r2, #256
 209 0030 5A66     		str	r2, [r3, #100]
 210 0032 5B6E     		ldr	r3, [r3, #100]
 211              	.L9:
 212 0034 10BD     		pop	{r4, pc}
 213              	.LVL9:
 214              	.L14:
 215 0036 00BF     		.align	2
 216              	.L13:
 217 0038 00000000 		.word	.LANCHOR0
 218 003c 00380240 		.word	1073887232
 219              		.cfi_endproc
 220              	.LFE338:
 221              		.size	adc_lld_stop, .-adc_lld_stop
 222              		.section	.text.adc_lld_start_conversion,"ax",%progbits
 223              		.align	1
 224              		.global	adc_lld_start_conversion
 225              		.syntax unified
 226              		.thumb
 227              		.thumb_func
 228              		.fpu fpv4-sp-d16
ARM GAS  /tmp/ccVpx4YU.s 			page 5


 229              		.type	adc_lld_start_conversion, %function
 230              	adc_lld_start_conversion:
 231              	.LFB339:
 232              		.loc 1 340 0
 233              		.cfi_startproc
 234              		@ args = 0, pretend = 0, frame = 0
 235              		@ frame_needed = 0, uses_anonymous_args = 0
 236              	.LVL10:
 237              		.loc 1 343 0
 238 0000 0269     		ldr	r2, [r0, #16]
 239              	.LVL11:
 240              		.loc 1 346 0
 241 0002 016A     		ldr	r1, [r0, #32]
 242              	.LVL12:
 243              		.loc 1 347 0
 244 0004 1378     		ldrb	r3, [r2]	@ zero_extendqisi2
 245              		.loc 1 340 0
 246 0006 30B5     		push	{r4, r5, lr}
 247              		.cfi_def_cfa_offset 12
 248              		.cfi_offset 4, -12
 249              		.cfi_offset 5, -8
 250              		.cfi_offset 14, -4
 251 0008 C568     		ldr	r5, [r0, #12]
 252              		.loc 1 347 0
 253 000a 2BB1     		cbz	r3, .L16
 254              	.LVL13:
 255              		.loc 1 349 0
 256 000c 012D     		cmp	r5, #1
 257              		.loc 1 348 0
 258 000e 94BF     		ite	ls
 259 0010 41F48071 		orrls	r1, r1, #256
 260              	.LVL14:
 261              		.loc 1 352 0
 262 0014 41F48471 		orrhi	r1, r1, #264
 263              	.LVL15:
 264              	.L16:
 265              		.loc 1 355 0
 266 0018 C369     		ldr	r3, [r0, #28]
 267 001a 8468     		ldr	r4, [r0, #8]
 268 001c 1B68     		ldr	r3, [r3]
 269 001e DC60     		str	r4, [r3, #12]
 270              		.loc 1 356 0
 271 0020 5488     		ldrh	r4, [r2, #2]
 272 0022 6543     		muls	r5, r4, r5
 273              		.loc 1 367 0
 274 0024 013C     		subs	r4, r4, #1
 275              		.loc 1 356 0
 276 0026 5D60     		str	r5, [r3, #4]
 277              		.loc 1 358 0
 278 0028 1960     		str	r1, [r3]
 279              		.loc 1 359 0
 280 002a 1968     		ldr	r1, [r3]
 281              	.LVL16:
 282 002c 41F00101 		orr	r1, r1, #1
 283 0030 1960     		str	r1, [r3]
 284              	.LVL17:
 285              		.loc 1 362 0
ARM GAS  /tmp/ccVpx4YU.s 			page 6


 286 0032 0021     		movs	r1, #0
 287 0034 8369     		ldr	r3, [r0, #24]
 288 0036 1960     		str	r1, [r3]
 289              		.loc 1 363 0
 290 0038 5169     		ldr	r1, [r2, #20]
 291 003a D960     		str	r1, [r3, #12]
 292              		.loc 1 364 0
 293 003c 9169     		ldr	r1, [r2, #24]
 294 003e 1961     		str	r1, [r3, #16]
 295              		.loc 1 365 0
 296 0040 918B     		ldrh	r1, [r2, #28]
 297 0042 5962     		str	r1, [r3, #36]
 298              		.loc 1 366 0
 299 0044 D18B     		ldrh	r1, [r2, #30]
 300 0046 9962     		str	r1, [r3, #40]
 301              		.loc 1 367 0
 302 0048 116A     		ldr	r1, [r2, #32]
 303 004a 41EA0454 		orr	r4, r1, r4, lsl #20
 304              		.loc 1 368 0
 305 004e 516A     		ldr	r1, [r2, #36]
 306              		.loc 1 367 0
 307 0050 DC62     		str	r4, [r3, #44]
 308              		.loc 1 368 0
 309 0052 1963     		str	r1, [r3, #48]
 310              		.loc 1 369 0
 311 0054 916A     		ldr	r1, [r2, #40]
 312 0056 5963     		str	r1, [r3, #52]
 313              		.loc 1 372 0
 314 0058 D168     		ldr	r1, [r2, #12]
 315              		.loc 1 375 0
 316 005a 1269     		ldr	r2, [r2, #16]
 317              	.LVL18:
 318              		.loc 1 372 0
 319 005c 41F08061 		orr	r1, r1, #67108864
 320 0060 41F48071 		orr	r1, r1, #256
 321 0064 5960     		str	r1, [r3, #4]
 322              		.loc 1 379 0
 323 0066 5100     		lsls	r1, r2, #1
 324 0068 0AD5     		bpl	.L18
 325              		.loc 1 381 0
 326 006a 22F08041 		bic	r1, r2, #1073741824
 327 006e 40F20330 		movw	r0, #771
 328              	.LVL19:
 329 0072 21F00201 		bic	r1, r1, #2
 330              		.loc 1 384 0
 331 0076 0243     		orrs	r2, r2, r0
 332              	.LVL20:
 333              		.loc 1 381 0
 334 0078 0143     		orrs	r1, r1, r0
 335 007a 9960     		str	r1, [r3, #8]
 336              	.L23:
 337              		.loc 1 387 0
 338 007c 9A60     		str	r2, [r3, #8]
 339              	.LVL21:
 340 007e 30BD     		pop	{r4, r5, pc}
 341              	.LVL22:
 342              	.L18:
ARM GAS  /tmp/ccVpx4YU.s 			page 7


 343              		.loc 1 375 0
 344 0080 42F44072 		orr	r2, r2, #768
 345              	.LVL23:
 346 0084 42F00102 		orr	r2, r2, #1
 347 0088 F8E7     		b	.L23
 348              		.cfi_endproc
 349              	.LFE339:
 350              		.size	adc_lld_start_conversion, .-adc_lld_start_conversion
 351              		.section	.text.adc_lld_stop_conversion,"ax",%progbits
 352              		.align	1
 353              		.global	adc_lld_stop_conversion
 354              		.syntax unified
 355              		.thumb
 356              		.thumb_func
 357              		.fpu fpv4-sp-d16
 358              		.type	adc_lld_stop_conversion, %function
 359              	adc_lld_stop_conversion:
 360              	.LFB340:
 361              		.loc 1 397 0
 362              		.cfi_startproc
 363              		@ args = 0, pretend = 0, frame = 0
 364              		@ frame_needed = 0, uses_anonymous_args = 0
 365              	.LVL24:
 366              		.loc 1 399 0
 367 0000 C169     		ldr	r1, [r0, #28]
 368              		.loc 1 397 0
 369 0002 10B5     		push	{r4, lr}
 370              		.cfi_def_cfa_offset 8
 371              		.cfi_offset 4, -8
 372              		.cfi_offset 14, -4
 373              		.loc 1 399 0
 374 0004 0C68     		ldr	r4, [r1]
 375 0006 2368     		ldr	r3, [r4]
 376 0008 23F01F03 		bic	r3, r3, #31
 377 000c 2360     		str	r3, [r4]
 378              	.L25:
 379              		.loc 1 399 0 is_stmt 0 discriminator 2
 380 000e 2268     		ldr	r2, [r4]
 381 0010 12F00102 		ands	r2, r2, #1
 382 0014 FBD1     		bne	.L25
 383              		.loc 1 399 0 discriminator 3
 384 0016 4C68     		ldr	r4, [r1, #4]
 385 0018 3D23     		movs	r3, #61
 386 001a 497A     		ldrb	r1, [r1, #9]	@ zero_extendqisi2
 387 001c 8B40     		lsls	r3, r3, r1
 388 001e 2360     		str	r3, [r4]
 389              		.loc 1 400 0 is_stmt 1 discriminator 3
 390 0020 8369     		ldr	r3, [r0, #24]
 391 0022 5A60     		str	r2, [r3, #4]
 392              		.loc 1 402 0 discriminator 3
 393 0024 9A68     		ldr	r2, [r3, #8]
 394 0026 22F08042 		bic	r2, r2, #1073741824
 395 002a 9A60     		str	r2, [r3, #8]
 396              		.loc 1 403 0 discriminator 3
 397 002c 0122     		movs	r2, #1
 398 002e 9A60     		str	r2, [r3, #8]
 399 0030 10BD     		pop	{r4, pc}
ARM GAS  /tmp/ccVpx4YU.s 			page 8


 400              		.cfi_endproc
 401              	.LFE340:
 402              		.size	adc_lld_stop_conversion, .-adc_lld_stop_conversion
 403              		.section	.text.Vector88,"ax",%progbits
 404              		.align	1
 405              		.global	Vector88
 406              		.syntax unified
 407              		.thumb
 408              		.thumb_func
 409              		.fpu fpv4-sp-d16
 410              		.type	Vector88, %function
 411              	Vector88:
 412              	.LFB335:
 413              		.loc 1 111 0
 414              		.cfi_startproc
 415              		@ args = 0, pretend = 0, frame = 0
 416              		@ frame_needed = 0, uses_anonymous_args = 0
 417 0000 70B5     		push	{r4, r5, r6, lr}
 418              		.cfi_def_cfa_offset 16
 419              		.cfi_offset 4, -16
 420              		.cfi_offset 5, -12
 421              		.cfi_offset 6, -8
 422              		.cfi_offset 14, -4
 423              		.loc 1 114 0
 424 0002 FFF7FEFF 		bl	_stats_increase_irq
 425              	.LVL25:
 426              		.loc 1 117 0
 427 0006 304B     		ldr	r3, .L51
 428              		.loc 1 118 0
 429 0008 0022     		movs	r2, #0
 430              		.loc 1 117 0
 431 000a 1E68     		ldr	r6, [r3]
 432              	.LVL26:
 433              		.loc 1 118 0
 434 000c 1A60     		str	r2, [r3]
 435              		.loc 1 121 0
 436 000e B206     		lsls	r2, r6, #26
 437 0010 28D5     		bpl	.L28
 438              		.loc 1 121 0 is_stmt 0 discriminator 1
 439 0012 2E4D     		ldr	r5, .L51+4
 440 0014 EB69     		ldr	r3, [r5, #28]
 441 0016 1B68     		ldr	r3, [r3]
 442 0018 5B68     		ldr	r3, [r3, #4]
 443 001a 1BB3     		cbz	r3, .L28
 444              		.loc 1 124 0 is_stmt 1
 445 001c 2B69     		ldr	r3, [r5, #16]
 446 001e 0BB3     		cbz	r3, .L28
 447              		.loc 1 125 0
 448 0020 2846     		mov	r0, r5
 449 0022 FFF7FEFF 		bl	adc_lld_stop_conversion
 450              	.LVL27:
 451 0026 2B69     		ldr	r3, [r5, #16]
 452 0028 9B68     		ldr	r3, [r3, #8]
 453 002a 002B     		cmp	r3, #0
 454 002c 44D0     		beq	.L29
 455              		.loc 1 125 0 is_stmt 0 discriminator 1
 456 002e 0522     		movs	r2, #5
ARM GAS  /tmp/ccVpx4YU.s 			page 9


 457 0030 0121     		movs	r1, #1
 458 0032 2846     		mov	r0, r5
 459 0034 2A70     		strb	r2, [r5]
 460 0036 9847     		blx	r3
 461              	.LVL28:
 462 0038 2B78     		ldrb	r3, [r5]	@ zero_extendqisi2
 463 003a 052B     		cmp	r3, #5
 464 003c 04BF     		itt	eq
 465 003e 0223     		moveq	r3, #2
 466 0040 2B70     		strbeq	r3, [r5]
 467 0042 0023     		movs	r3, #0
 468 0044 2B61     		str	r3, [r5, #16]
 469              	.L31:
 470              	.LVL29:
 471              	.LBB84:
 472              	.LBB85:
 473              	.LBB86:
 474              	.LBB87:
 475              	.LBB88:
 476              	.LBB89:
 477              	.LBB90:
 478              		.file 2 "../../modules/ChibiOS/os/common/ext/ARM/CMSIS/Core/Include/cmsis_gcc.h"
 479              		.loc 2 493 0 is_stmt 1 discriminator 7
 480 0046 2023     		movs	r3, #32
 481              		.syntax unified
 482              	@ 493 "../../modules/ChibiOS/os/common/ext/ARM/CMSIS/Core/Include/cmsis_gcc.h" 1
 483 0048 83F31188 		MSR basepri, r3
 484              	@ 0 "" 2
 485              	.LVL30:
 486              		.thumb
 487              		.syntax unified
 488              	.LBE90:
 489              	.LBE89:
 490              	.LBE88:
 491              	.LBE87:
 492              		.file 3 "../../modules/ChibiOS/os/rt/include/chsys.h"
 493              		.loc 3 396 0 discriminator 7
 494 004c FFF7FEFF 		bl	_stats_start_measure_crit_isr
 495              	.LVL31:
 496              	.LBE86:
 497              	.LBE85:
 498              	.LBE84:
 499              	.LBB91:
 500              	.LBB92:
 501              		.file 4 "../../modules/ChibiOS/os/hal/osal/rt/osal.h"
 502              		.loc 4 775 0 discriminator 7
 503 0050 4FF0FF31 		mov	r1, #-1
 504 0054 1E48     		ldr	r0, .L51+8
 505 0056 FFF7FEFF 		bl	chThdResumeI
 506              	.LVL32:
 507              	.LBE92:
 508              	.LBE91:
 509              	.LBB93:
 510              	.LBB94:
 511              	.LBB95:
 512              		.loc 3 416 0 discriminator 7
 513 005a FFF7FEFF 		bl	_stats_stop_measure_crit_isr
ARM GAS  /tmp/ccVpx4YU.s 			page 10


 514              	.LVL33:
 515              	.LBB96:
 516              	.LBB97:
 517              	.LBB98:
 518              	.LBB99:
 519              		.loc 2 493 0 discriminator 7
 520 005e 0023     		movs	r3, #0
 521              		.syntax unified
 522              	@ 493 "../../modules/ChibiOS/os/common/ext/ARM/CMSIS/Core/Include/cmsis_gcc.h" 1
 523 0060 83F31188 		MSR basepri, r3
 524              	@ 0 "" 2
 525              	.LVL34:
 526              		.thumb
 527              		.syntax unified
 528              	.L28:
 529              	.LBE99:
 530              	.LBE98:
 531              	.LBE97:
 532              	.LBE96:
 533              	.LBE95:
 534              	.LBE94:
 535              	.LBE93:
 536              		.loc 1 127 0
 537 0064 F307     		lsls	r3, r6, #31
 538 0066 23D5     		bpl	.L32
 539              		.loc 1 128 0
 540 0068 184D     		ldr	r5, .L51+4
 541 006a 2B69     		ldr	r3, [r5, #16]
 542 006c 03B3     		cbz	r3, .L32
 543              		.loc 1 129 0
 544 006e 2846     		mov	r0, r5
 545 0070 FFF7FEFF 		bl	adc_lld_stop_conversion
 546              	.LVL35:
 547 0074 2B69     		ldr	r3, [r5, #16]
 548 0076 9B68     		ldr	r3, [r3, #8]
 549 0078 13B3     		cbz	r3, .L33
 550              		.loc 1 129 0 is_stmt 0 discriminator 1
 551 007a 0522     		movs	r2, #5
 552 007c 0221     		movs	r1, #2
 553 007e 2846     		mov	r0, r5
 554 0080 2A70     		strb	r2, [r5]
 555 0082 9847     		blx	r3
 556              	.LVL36:
 557 0084 2B78     		ldrb	r3, [r5]	@ zero_extendqisi2
 558 0086 052B     		cmp	r3, #5
 559 0088 04BF     		itt	eq
 560 008a 0223     		moveq	r3, #2
 561 008c 2B70     		strbeq	r3, [r5]
 562 008e 0023     		movs	r3, #0
 563 0090 2B61     		str	r3, [r5, #16]
 564              	.L35:
 565              	.LVL37:
 566              	.LBB100:
 567              	.LBB101:
 568              	.LBB102:
 569              	.LBB103:
 570              	.LBB104:
ARM GAS  /tmp/ccVpx4YU.s 			page 11


 571              	.LBB105:
 572              	.LBB106:
 573              		.loc 2 493 0 is_stmt 1 discriminator 7
 574 0092 2023     		movs	r3, #32
 575              		.syntax unified
 576              	@ 493 "../../modules/ChibiOS/os/common/ext/ARM/CMSIS/Core/Include/cmsis_gcc.h" 1
 577 0094 83F31188 		MSR basepri, r3
 578              	@ 0 "" 2
 579              	.LVL38:
 580              		.thumb
 581              		.syntax unified
 582              	.LBE106:
 583              	.LBE105:
 584              	.LBE104:
 585              	.LBE103:
 586              		.loc 3 396 0 discriminator 7
 587 0098 FFF7FEFF 		bl	_stats_start_measure_crit_isr
 588              	.LVL39:
 589              	.LBE102:
 590              	.LBE101:
 591              	.LBE100:
 592              	.LBB107:
 593              	.LBB108:
 594              		.loc 4 775 0 discriminator 7
 595 009c 4FF0FF31 		mov	r1, #-1
 596 00a0 0B48     		ldr	r0, .L51+8
 597 00a2 FFF7FEFF 		bl	chThdResumeI
 598              	.LVL40:
 599              	.LBE108:
 600              	.LBE107:
 601              	.LBB109:
 602              	.LBB110:
 603              	.LBB111:
 604              		.loc 3 416 0 discriminator 7
 605 00a6 FFF7FEFF 		bl	_stats_stop_measure_crit_isr
 606              	.LVL41:
 607              	.LBB112:
 608              	.LBB113:
 609              	.LBB114:
 610              	.LBB115:
 611              		.loc 2 493 0 discriminator 7
 612 00aa 0023     		movs	r3, #0
 613              		.syntax unified
 614              	@ 493 "../../modules/ChibiOS/os/common/ext/ARM/CMSIS/Core/Include/cmsis_gcc.h" 1
 615 00ac 83F31188 		MSR basepri, r3
 616              	@ 0 "" 2
 617              	.LVL42:
 618              		.thumb
 619              		.syntax unified
 620              	.L32:
 621              	.LBE115:
 622              	.LBE114:
 623              	.LBE113:
 624              	.LBE112:
 625              	.LBE111:
 626              	.LBE110:
 627              	.LBE109:
ARM GAS  /tmp/ccVpx4YU.s 			page 12


 628              		.loc 1 180 0
 629 00b0 BDE87040 		pop	{r4, r5, r6, lr}
 630              		.cfi_remember_state
 631              		.cfi_restore 14
 632              		.cfi_restore 6
 633              		.cfi_restore 5
 634              		.cfi_restore 4
 635              		.cfi_def_cfa_offset 0
 636              	.LVL43:
 637              		.loc 1 179 0
 638 00b4 FFF7FEBF 		b	_port_irq_epilogue
 639              	.LVL44:
 640              	.L29:
 641              		.cfi_restore_state
 642              		.loc 1 125 0 discriminator 2
 643 00b8 0222     		movs	r2, #2
 644 00ba 2B61     		str	r3, [r5, #16]
 645 00bc 2A70     		strb	r2, [r5]
 646 00be C2E7     		b	.L31
 647              	.L33:
 648              		.loc 1 129 0 discriminator 2
 649 00c0 0222     		movs	r2, #2
 650 00c2 2B61     		str	r3, [r5, #16]
 651 00c4 2A70     		strb	r2, [r5]
 652 00c6 E4E7     		b	.L35
 653              	.L52:
 654              		.align	2
 655              	.L51:
 656 00c8 00200140 		.word	1073815552
 657 00cc 00000000 		.word	.LANCHOR0
 658 00d0 14000000 		.word	.LANCHOR0+20
 659              		.cfi_endproc
 660              	.LFE335:
 661              		.size	Vector88, .-Vector88
 662              		.section	.text.adc_lld_serve_rx_interrupt,"ax",%progbits
 663              		.align	1
 664              		.syntax unified
 665              		.thumb
 666              		.thumb_func
 667              		.fpu fpv4-sp-d16
 668              		.type	adc_lld_serve_rx_interrupt, %function
 669              	adc_lld_serve_rx_interrupt:
 670              	.LFB334:
 671              		.loc 1 75 0
 672              		.cfi_startproc
 673              		@ args = 0, pretend = 0, frame = 0
 674              		@ frame_needed = 0, uses_anonymous_args = 0
 675              	.LVL45:
 676              		.loc 1 78 0
 677 0000 11F00C0F 		tst	r1, #12
 678              		.loc 1 75 0
 679 0004 10B5     		push	{r4, lr}
 680              		.cfi_def_cfa_offset 8
 681              		.cfi_offset 4, -8
 682              		.cfi_offset 14, -4
 683              		.loc 1 75 0
 684 0006 0446     		mov	r4, r0
ARM GAS  /tmp/ccVpx4YU.s 			page 13


 685              		.loc 1 78 0
 686 0008 23D0     		beq	.L54
 687              		.loc 1 81 0
 688 000a FFF7FEFF 		bl	adc_lld_stop_conversion
 689              	.LVL46:
 690 000e 0369     		ldr	r3, [r0, #16]
 691 0010 9B68     		ldr	r3, [r3, #8]
 692 0012 DBB1     		cbz	r3, .L55
 693              		.loc 1 81 0 is_stmt 0 discriminator 1
 694 0014 0522     		movs	r2, #5
 695 0016 0021     		movs	r1, #0
 696 0018 0270     		strb	r2, [r0]
 697 001a 9847     		blx	r3
 698              	.LVL47:
 699 001c 2378     		ldrb	r3, [r4]	@ zero_extendqisi2
 700 001e 052B     		cmp	r3, #5
 701 0020 04BF     		itt	eq
 702 0022 0223     		moveq	r3, #2
 703 0024 2370     		strbeq	r3, [r4]
 704 0026 0023     		movs	r3, #0
 705              	.L77:
 706              		.loc 1 81 0 discriminator 2
 707 0028 2361     		str	r3, [r4, #16]
 708              	.LVL48:
 709              	.LBB152:
 710              	.LBB153:
 711              	.LBB154:
 712              	.LBB155:
 713              	.LBB156:
 714              	.LBB157:
 715              	.LBB158:
 716              		.loc 2 493 0 is_stmt 1 discriminator 2
 717 002a 2023     		movs	r3, #32
 718              		.syntax unified
 719              	@ 493 "../../modules/ChibiOS/os/common/ext/ARM/CMSIS/Core/Include/cmsis_gcc.h" 1
 720 002c 83F31188 		MSR basepri, r3
 721              	@ 0 "" 2
 722              	.LVL49:
 723              		.thumb
 724              		.syntax unified
 725              	.LBE158:
 726              	.LBE157:
 727              	.LBE156:
 728              	.LBE155:
 729              		.loc 3 396 0 discriminator 2
 730 0030 FFF7FEFF 		bl	_stats_start_measure_crit_isr
 731              	.LVL50:
 732              	.LBE154:
 733              	.LBE153:
 734              	.LBE152:
 735              	.LBB159:
 736              	.LBB160:
 737              		.loc 4 775 0 discriminator 2
 738 0034 4FF0FF31 		mov	r1, #-1
 739              	.LVL51:
 740              	.L78:
 741              	.LBE160:
ARM GAS  /tmp/ccVpx4YU.s 			page 14


 742              	.LBE159:
 743              	.LBB161:
 744              	.LBB162:
 745              		.loc 4 775 0 is_stmt 0 discriminator 8
 746 0038 04F11400 		add	r0, r4, #20
 747 003c FFF7FEFF 		bl	chThdResumeI
 748              	.LVL52:
 749              	.LBE162:
 750              	.LBE161:
 751              	.LBB164:
 752              	.LBB165:
 753              	.LBB166:
 754              		.loc 3 416 0 is_stmt 1 discriminator 8
 755 0040 FFF7FEFF 		bl	_stats_stop_measure_crit_isr
 756              	.LVL53:
 757              	.LBB167:
 758              	.LBB168:
 759              	.LBB169:
 760              	.LBB170:
 761              		.loc 2 493 0 discriminator 8
 762 0044 0023     		movs	r3, #0
 763              		.syntax unified
 764              	@ 493 "../../modules/ChibiOS/os/common/ext/ARM/CMSIS/Core/Include/cmsis_gcc.h" 1
 765 0046 83F31188 		MSR basepri, r3
 766              	@ 0 "" 2
 767              	.LVL54:
 768              		.thumb
 769              		.syntax unified
 770 004a 10BD     		pop	{r4, pc}
 771              	.LVL55:
 772              	.L55:
 773              	.LBE170:
 774              	.LBE169:
 775              	.LBE168:
 776              	.LBE167:
 777              	.LBE166:
 778              	.LBE165:
 779              	.LBE164:
 780              		.loc 1 81 0 discriminator 2
 781 004c 0222     		movs	r2, #2
 782 004e 0270     		strb	r2, [r0]
 783 0050 EAE7     		b	.L77
 784              	.LVL56:
 785              	.L54:
 786              		.loc 1 86 0
 787 0052 0369     		ldr	r3, [r0, #16]
 788 0054 5BB3     		cbz	r3, .L53
 789              		.loc 1 88 0
 790 0056 8A06     		lsls	r2, r1, #26
 791 0058 22D5     		bpl	.L60
 792              		.loc 1 90 0
 793 005a 1A78     		ldrb	r2, [r3]	@ zero_extendqisi2
 794 005c 52B1     		cbz	r2, .L61
 795              		.loc 1 90 0 is_stmt 0 discriminator 1
 796 005e 5B68     		ldr	r3, [r3, #4]
 797 0060 2BB3     		cbz	r3, .L53
 798              		.loc 1 90 0 discriminator 3
ARM GAS  /tmp/ccVpx4YU.s 			page 15


 799 0062 0422     		movs	r2, #4
 800 0064 0270     		strb	r2, [r0]
 801 0066 9847     		blx	r3
 802              	.LVL57:
 803 0068 2378     		ldrb	r3, [r4]	@ zero_extendqisi2
 804 006a 042B     		cmp	r3, #4
 805 006c 1FD1     		bne	.L53
 806              		.loc 1 90 0 discriminator 4
 807 006e 0323     		movs	r3, #3
 808 0070 2370     		strb	r3, [r4]
 809 0072 10BD     		pop	{r4, pc}
 810              	.LVL58:
 811              	.L61:
 812              		.loc 1 90 0 discriminator 2
 813 0074 FFF7FEFF 		bl	adc_lld_stop_conversion
 814              	.LVL59:
 815 0078 0369     		ldr	r3, [r0, #16]
 816 007a 5B68     		ldr	r3, [r3, #4]
 817 007c 2BB1     		cbz	r3, .L63
 818              		.loc 1 90 0 discriminator 5
 819 007e 0422     		movs	r2, #4
 820 0080 0270     		strb	r2, [r0]
 821 0082 9847     		blx	r3
 822              	.LVL60:
 823 0084 2378     		ldrb	r3, [r4]	@ zero_extendqisi2
 824 0086 042B     		cmp	r3, #4
 825 0088 03D1     		bne	.L64
 826              	.L63:
 827              		.loc 1 90 0 discriminator 7
 828 008a 0223     		movs	r3, #2
 829 008c 2370     		strb	r3, [r4]
 830 008e 0023     		movs	r3, #0
 831 0090 2361     		str	r3, [r4, #16]
 832              	.L64:
 833              	.LVL61:
 834              	.LBB171:
 835              	.LBB172:
 836              	.LBB173:
 837              	.LBB174:
 838              	.LBB175:
 839              	.LBB176:
 840              	.LBB177:
 841              		.loc 2 493 0 is_stmt 1 discriminator 8
 842 0092 2023     		movs	r3, #32
 843              		.syntax unified
 844              	@ 493 "../../modules/ChibiOS/os/common/ext/ARM/CMSIS/Core/Include/cmsis_gcc.h" 1
 845 0094 83F31188 		MSR basepri, r3
 846              	@ 0 "" 2
 847              	.LVL62:
 848              		.thumb
 849              		.syntax unified
 850              	.LBE177:
 851              	.LBE176:
 852              	.LBE175:
 853              	.LBE174:
 854              		.loc 3 396 0 discriminator 8
 855 0098 FFF7FEFF 		bl	_stats_start_measure_crit_isr
ARM GAS  /tmp/ccVpx4YU.s 			page 16


 856              	.LVL63:
 857              	.LBE173:
 858              	.LBE172:
 859              	.LBE171:
 860              	.LBB178:
 861              	.LBB163:
 862              		.loc 4 775 0 discriminator 8
 863 009c 0021     		movs	r1, #0
 864 009e CBE7     		b	.L78
 865              	.LVL64:
 866              	.L60:
 867              	.LBE163:
 868              	.LBE178:
 869              		.loc 1 92 0
 870 00a0 CA06     		lsls	r2, r1, #27
 871 00a2 04D5     		bpl	.L53
 872              		.loc 1 94 0
 873 00a4 5B68     		ldr	r3, [r3, #4]
 874 00a6 13B1     		cbz	r3, .L53
 875              		.loc 1 98 0 discriminator 1
 876 00a8 BDE81040 		pop	{r4, lr}
 877              		.cfi_remember_state
 878              		.cfi_restore 14
 879              		.cfi_restore 4
 880              		.cfi_def_cfa_offset 0
 881              		.loc 1 94 0 discriminator 1
 882 00ac 1847     		bx	r3	@ indirect register sibling call
 883              	.LVL65:
 884              	.L53:
 885              		.cfi_restore_state
 886 00ae 10BD     		pop	{r4, pc}
 887              		.cfi_endproc
 888              	.LFE334:
 889              		.size	adc_lld_serve_rx_interrupt, .-adc_lld_serve_rx_interrupt
 890              		.section	.text.adcSTM32EnableTSVREFE,"ax",%progbits
 891              		.align	1
 892              		.global	adcSTM32EnableTSVREFE
 893              		.syntax unified
 894              		.thumb
 895              		.thumb_func
 896              		.fpu fpv4-sp-d16
 897              		.type	adcSTM32EnableTSVREFE, %function
 898              	adcSTM32EnableTSVREFE:
 899              	.LFB341:
 900              		.loc 1 412 0
 901              		.cfi_startproc
 902              		@ args = 0, pretend = 0, frame = 0
 903              		@ frame_needed = 0, uses_anonymous_args = 0
 904              		@ link register save eliminated.
 905              		.loc 1 414 0
 906 0000 024A     		ldr	r2, .L80
 907 0002 5368     		ldr	r3, [r2, #4]
 908 0004 43F40003 		orr	r3, r3, #8388608
 909 0008 5360     		str	r3, [r2, #4]
 910 000a 7047     		bx	lr
 911              	.L81:
 912              		.align	2
ARM GAS  /tmp/ccVpx4YU.s 			page 17


 913              	.L80:
 914 000c 00230140 		.word	1073816320
 915              		.cfi_endproc
 916              	.LFE341:
 917              		.size	adcSTM32EnableTSVREFE, .-adcSTM32EnableTSVREFE
 918              		.section	.text.adcSTM32DisableTSVREFE,"ax",%progbits
 919              		.align	1
 920              		.global	adcSTM32DisableTSVREFE
 921              		.syntax unified
 922              		.thumb
 923              		.thumb_func
 924              		.fpu fpv4-sp-d16
 925              		.type	adcSTM32DisableTSVREFE, %function
 926              	adcSTM32DisableTSVREFE:
 927              	.LFB342:
 928              		.loc 1 423 0
 929              		.cfi_startproc
 930              		@ args = 0, pretend = 0, frame = 0
 931              		@ frame_needed = 0, uses_anonymous_args = 0
 932              		@ link register save eliminated.
 933              		.loc 1 425 0
 934 0000 024A     		ldr	r2, .L83
 935 0002 5368     		ldr	r3, [r2, #4]
 936 0004 23F40003 		bic	r3, r3, #8388608
 937 0008 5360     		str	r3, [r2, #4]
 938 000a 7047     		bx	lr
 939              	.L84:
 940              		.align	2
 941              	.L83:
 942 000c 00230140 		.word	1073816320
 943              		.cfi_endproc
 944              	.LFE342:
 945              		.size	adcSTM32DisableTSVREFE, .-adcSTM32DisableTSVREFE
 946              		.section	.text.adcSTM32EnableVBATE,"ax",%progbits
 947              		.align	1
 948              		.global	adcSTM32EnableVBATE
 949              		.syntax unified
 950              		.thumb
 951              		.thumb_func
 952              		.fpu fpv4-sp-d16
 953              		.type	adcSTM32EnableVBATE, %function
 954              	adcSTM32EnableVBATE:
 955              	.LFB343:
 956              		.loc 1 434 0
 957              		.cfi_startproc
 958              		@ args = 0, pretend = 0, frame = 0
 959              		@ frame_needed = 0, uses_anonymous_args = 0
 960              		@ link register save eliminated.
 961              		.loc 1 436 0
 962 0000 024A     		ldr	r2, .L86
 963 0002 5368     		ldr	r3, [r2, #4]
 964 0004 43F48003 		orr	r3, r3, #4194304
 965 0008 5360     		str	r3, [r2, #4]
 966 000a 7047     		bx	lr
 967              	.L87:
 968              		.align	2
 969              	.L86:
ARM GAS  /tmp/ccVpx4YU.s 			page 18


 970 000c 00230140 		.word	1073816320
 971              		.cfi_endproc
 972              	.LFE343:
 973              		.size	adcSTM32EnableVBATE, .-adcSTM32EnableVBATE
 974              		.section	.text.adcSTM32DisableVBATE,"ax",%progbits
 975              		.align	1
 976              		.global	adcSTM32DisableVBATE
 977              		.syntax unified
 978              		.thumb
 979              		.thumb_func
 980              		.fpu fpv4-sp-d16
 981              		.type	adcSTM32DisableVBATE, %function
 982              	adcSTM32DisableVBATE:
 983              	.LFB344:
 984              		.loc 1 445 0
 985              		.cfi_startproc
 986              		@ args = 0, pretend = 0, frame = 0
 987              		@ frame_needed = 0, uses_anonymous_args = 0
 988              		@ link register save eliminated.
 989              		.loc 1 447 0
 990 0000 024A     		ldr	r2, .L89
 991 0002 5368     		ldr	r3, [r2, #4]
 992 0004 23F48003 		bic	r3, r3, #4194304
 993 0008 5360     		str	r3, [r2, #4]
 994 000a 7047     		bx	lr
 995              	.L90:
 996              		.align	2
 997              	.L89:
 998 000c 00230140 		.word	1073816320
 999              		.cfi_endproc
 1000              	.LFE344:
 1001              		.size	adcSTM32DisableVBATE, .-adcSTM32DisableVBATE
 1002              		.global	ADCD1
 1003              		.section	.bss.ADCD1,"aw",%nobits
 1004              		.align	2
 1005              		.set	.LANCHOR0,. + 0
 1006              		.type	ADCD1, %object
 1007              		.size	ADCD1, 36
 1008              	ADCD1:
 1009 0000 00000000 		.space	36
 1009      00000000 
 1009      00000000 
 1009      00000000 
 1009      00000000 
 1010              		.text
 1011              	.Letext0:
 1012              		.file 5 "/opt/gcc-arm-none-eabi-6-2017-q2-update/lib/gcc/arm-none-eabi/6.3.1/include/stddef.h"
 1013              		.file 6 "/opt/gcc-arm-none-eabi-6-2017-q2-update/arm-none-eabi/include/machine/_default_types.h"
 1014              		.file 7 "/opt/gcc-arm-none-eabi-6-2017-q2-update/arm-none-eabi/include/sys/_stdint.h"
 1015              		.file 8 "/opt/gcc-arm-none-eabi-6-2017-q2-update/arm-none-eabi/include/stdint.h"
 1016              		.file 9 "../../modules/ChibiOS/os/common/ports/ARMCMx/compilers/GCC/chtypes.h"
 1017              		.file 10 "../../modules/ChibiOS/os/rt/include/chsystypes.h"
 1018              		.file 11 "../../modules/ChibiOS/os/rt/include/chschd.h"
 1019              		.file 12 "../../modules/ChibiOS/os/rt/include/chtime.h"
 1020              		.file 13 "../../modules/ChibiOS/os/common/ext/ARM/CMSIS/Core/Include/core_cm7.h"
 1021              		.file 14 "../../modules/ChibiOS/os/common/ext/ST/STM32F7xx/system_stm32f7xx.h"
 1022              		.file 15 "../../modules/ChibiOS/os/common/ext/ST/STM32F7xx/stm32f767xx.h"
ARM GAS  /tmp/ccVpx4YU.s 			page 19


 1023              		.file 16 "../../modules/ChibiOS/os/common/ports/ARMCMx/chcore.h"
 1024              		.file 17 "../../modules/ChibiOS/os/common/ports/ARMCMx/chcore_v7m.h"
 1025              		.file 18 "../../modules/ChibiOS/os/hal/ports/STM32/LLD/TIMv1/stm32_tim.h"
 1026              		.file 19 "../../modules/ChibiOS/os/rt/include/chtm.h"
 1027              		.file 20 "../../modules/ChibiOS/os/rt/include/chstats.h"
 1028              		.file 21 "../../modules/ChibiOS/os/rt/include/chsem.h"
 1029              		.file 22 "../../modules/ChibiOS/os/rt/include/chmtx.h"
 1030              		.file 23 "../../modules/ChibiOS/os/rt/include/chregistry.h"
 1031              		.file 24 "../../modules/ChibiOS/os/rt/include/chevents.h"
 1032              		.file 25 "../../modules/ChibiOS/os/oslib/include/chmemcore.h"
 1033              		.file 26 "../../modules/ChibiOS/os/oslib/include/chmempools.h"
 1034              		.file 27 "../../modules/ChibiOS/os/oslib/include/chfactory.h"
 1035              		.file 28 "../../modules/ChibiOS/os/hal/ports/STM32/LLD/DMAv2/stm32_dma.h"
 1036              		.file 29 "../../modules/ChibiOS/os/hal/include/hal_ioblock.h"
 1037              		.file 30 "../../modules/ChibiOS/os/hal/include/hal_queues.h"
 1038              		.file 31 "../../modules/ChibiOS/os/hal/include/hal_pal.h"
 1039              		.file 32 "../../modules/ChibiOS/os/hal/ports/STM32/LLD/GPIOv2/stm32_gpio.h"
 1040              		.file 33 "../../modules/ChibiOS/os/hal/ports/STM32/LLD/GPIOv2/hal_pal_lld.h"
 1041              		.file 34 "../../modules/ChibiOS/os/hal/include/hal_adc.h"
 1042              		.file 35 "../../modules/ChibiOS/os/hal/ports/STM32/LLD/ADCv2/hal_adc_lld.h"
 1043              		.file 36 "../../modules/ChibiOS/os/hal/include/hal_i2c.h"
 1044              		.file 37 "../../modules/ChibiOS/os/hal/ports/STM32/LLD/I2Cv2/hal_i2c_lld.h"
 1045              		.file 38 "../../modules/ChibiOS/os/hal/include/hal_pwm.h"
 1046              		.file 39 "../../modules/ChibiOS/os/hal/ports/STM32/LLD/TIMv1/hal_pwm_lld.h"
 1047              		.file 40 "../../modules/ChibiOS/os/hal/include/hal_serial.h"
 1048              		.file 41 "../../modules/ChibiOS/os/hal/ports/STM32/LLD/USARTv2/hal_serial_lld.h"
 1049              		.file 42 "../../modules/ChibiOS/os/hal/include/hal_sdc.h"
 1050              		.file 43 "../../modules/ChibiOS/os/hal/ports/STM32/LLD/SDMMCv1/hal_sdc_lld.h"
 1051              		.file 44 "../../modules/ChibiOS/os/hal/include/hal_spi.h"
 1052              		.file 45 "../../modules/ChibiOS/os/hal/ports/STM32/LLD/SPIv2/hal_spi_lld.h"
 1053              		.file 46 "../../modules/ChibiOS/os/hal/include/hal_usb.h"
 1054              		.file 47 "../../modules/ChibiOS/os/hal/ports/STM32/LLD/OTGv1/hal_usb_lld.h"
 1055              		.file 48 "../../modules/ChibiOS/os/hal/ports/STM32/LLD/OTGv1/stm32_otg.h"
 1056              		.file 49 "../../modules/ChibiOS/os/hal/ports/common/ARMCMx/nvic.h"
 1057              		.file 50 "../../modules/ChibiOS/os/rt/include/chthreads.h"