ARM GAS  /tmp/ccfezZFU.s 			page 1


   1              		.cpu cortex-m7
   2              		.eabi_attribute 27, 1
   3              		.eabi_attribute 28, 1
   4              		.eabi_attribute 20, 1
   5              		.eabi_attribute 21, 1
   6              		.eabi_attribute 23, 3
   7              		.eabi_attribute 24, 1
   8              		.eabi_attribute 25, 1
   9              		.eabi_attribute 26, 1
  10              		.eabi_attribute 30, 4
  11              		.eabi_attribute 34, 1
  12              		.eabi_attribute 18, 4
  13              		.file	"hal_serial_usb.c"
  14              		.text
  15              	.Ltext0:
  16              		.cfi_sections	.debug_frame
  17              		.section	.text.obnotify,"ax",%progbits
  18              		.align	1
  19              		.syntax unified
  20              		.thumb
  21              		.thumb_func
  22              		.fpu fpv4-sp-d16
  23              		.type	obnotify, %function
  24              	obnotify:
  25              	.LFB345:
  26              		.file 1 "../../modules/ChibiOS/os/hal/src/hal_serial_usb.c"
  27              		.loc 1 178 0
  28              		.cfi_startproc
  29              		@ args = 0, pretend = 0, frame = 8
  30              		@ frame_needed = 0, uses_anonymous_args = 0
  31              	.LVL0:
  32 0000 13B5     		push	{r0, r1, r4, lr}
  33              		.cfi_def_cfa_offset 16
  34              		.cfi_offset 4, -8
  35              		.cfi_offset 14, -4
  36              		.loc 1 180 0
  37 0002 446B     		ldr	r4, [r0, #52]
  38              	.LVL1:
  39              		.loc 1 184 0
  40 0004 D4F88C34 		ldr	r3, [r4, #1164]
  41 0008 1A68     		ldr	r2, [r3]
  42 000a 1178     		ldrb	r1, [r2]	@ zero_extendqisi2
  43 000c 0429     		cmp	r1, #4
  44 000e 15D1     		bne	.L1
  45              		.loc 1 184 0 is_stmt 0 discriminator 1
  46 0010 217A     		ldrb	r1, [r4, #8]	@ zero_extendqisi2
  47 0012 0229     		cmp	r1, #2
  48 0014 12D1     		bne	.L1
  49              		.loc 1 190 0 is_stmt 1
  50 0016 1979     		ldrb	r1, [r3, #4]	@ zero_extendqisi2
  51 0018 0123     		movs	r3, #1
  52 001a 1289     		ldrh	r2, [r2, #8]
  53 001c 8B40     		lsls	r3, r3, r1
  54 001e 1342     		tst	r3, r2
  55 0020 0CD1     		bne	.L1
  56              	.LBB74:
  57              		.loc 1 193 0
ARM GAS  /tmp/ccfezZFU.s 			page 2


  58 0022 01A9     		add	r1, sp, #4
  59 0024 04F14400 		add	r0, r4, #68
  60              	.LVL2:
  61 0028 FFF7FEFF 		bl	obqGetFullBufferI
  62              	.LVL3:
  63              		.loc 1 195 0
  64 002c D4F88C44 		ldr	r4, [r4, #1164]
  65              	.LVL4:
  66 0030 0246     		mov	r2, r0
  67 0032 019B     		ldr	r3, [sp, #4]
  68 0034 2179     		ldrb	r1, [r4, #4]	@ zero_extendqisi2
  69 0036 2068     		ldr	r0, [r4]
  70              	.LVL5:
  71 0038 FFF7FEFF 		bl	usbStartTransmitI
  72              	.LVL6:
  73              	.L1:
  74              	.LBE74:
  75              		.loc 1 197 0
  76 003c 02B0     		add	sp, sp, #8
  77              		.cfi_def_cfa_offset 8
  78              		@ sp needed
  79 003e 10BD     		pop	{r4, pc}
  80              		.cfi_endproc
  81              	.LFE345:
  82              		.size	obnotify, .-obnotify
  83              		.section	.text._readt,"ax",%progbits
  84              		.align	1
  85              		.syntax unified
  86              		.thumb
  87              		.thumb_func
  88              		.fpu fpv4-sp-d16
  89              		.type	_readt, %function
  90              	_readt:
  91              	.LFB342:
  92              		.loc 1 124 0
  93              		.cfi_startproc
  94              		@ args = 0, pretend = 0, frame = 0
  95              		@ frame_needed = 0, uses_anonymous_args = 0
  96              		@ link register save eliminated.
  97              	.LVL7:
  98              		.loc 1 126 0
  99 0000 0C30     		adds	r0, r0, #12
 100              	.LVL8:
 101 0002 FFF7FEBF 		b	ibqReadTimeout
 102              	.LVL9:
 103              		.cfi_endproc
 104              	.LFE342:
 105              		.size	_readt, .-_readt
 106              		.section	.text._read,"ax",%progbits
 107              		.align	1
 108              		.syntax unified
 109              		.thumb
 110              		.thumb_func
 111              		.fpu fpv4-sp-d16
 112              		.type	_read, %function
 113              	_read:
 114              	.LFB336:
ARM GAS  /tmp/ccfezZFU.s 			page 3


 115              		.loc 1 91 0
 116              		.cfi_startproc
 117              		@ args = 0, pretend = 0, frame = 0
 118              		@ frame_needed = 0, uses_anonymous_args = 0
 119              		@ link register save eliminated.
 120              	.LVL10:
 121              		.loc 1 93 0
 122 0000 4FF0FF33 		mov	r3, #-1
 123 0004 0C30     		adds	r0, r0, #12
 124              	.LVL11:
 125 0006 FFF7FEBF 		b	ibqReadTimeout
 126              	.LVL12:
 127              		.cfi_endproc
 128              	.LFE336:
 129              		.size	_read, .-_read
 130              		.section	.text._writet,"ax",%progbits
 131              		.align	1
 132              		.syntax unified
 133              		.thumb
 134              		.thumb_func
 135              		.fpu fpv4-sp-d16
 136              		.type	_writet, %function
 137              	_writet:
 138              	.LFB341:
 139              		.loc 1 118 0
 140              		.cfi_startproc
 141              		@ args = 0, pretend = 0, frame = 0
 142              		@ frame_needed = 0, uses_anonymous_args = 0
 143              		@ link register save eliminated.
 144              	.LVL13:
 145              		.loc 1 120 0
 146 0000 4430     		adds	r0, r0, #68
 147              	.LVL14:
 148 0002 FFF7FEBF 		b	obqWriteTimeout
 149              	.LVL15:
 150              		.cfi_endproc
 151              	.LFE341:
 152              		.size	_writet, .-_writet
 153              		.section	.text._write,"ax",%progbits
 154              		.align	1
 155              		.syntax unified
 156              		.thumb
 157              		.thumb_func
 158              		.fpu fpv4-sp-d16
 159              		.type	_write, %function
 160              	_write:
 161              	.LFB335:
 162              		.loc 1 85 0
 163              		.cfi_startproc
 164              		@ args = 0, pretend = 0, frame = 0
 165              		@ frame_needed = 0, uses_anonymous_args = 0
 166              		@ link register save eliminated.
 167              	.LVL16:
 168              		.loc 1 87 0
 169 0000 4FF0FF33 		mov	r3, #-1
 170 0004 4430     		adds	r0, r0, #68
 171              	.LVL17:
ARM GAS  /tmp/ccfezZFU.s 			page 4


 172 0006 FFF7FEBF 		b	obqWriteTimeout
 173              	.LVL18:
 174              		.cfi_endproc
 175              	.LFE335:
 176              		.size	_write, .-_write
 177              		.section	.text._gett,"ax",%progbits
 178              		.align	1
 179              		.syntax unified
 180              		.thumb
 181              		.thumb_func
 182              		.fpu fpv4-sp-d16
 183              		.type	_gett, %function
 184              	_gett:
 185              	.LFB340:
 186              		.loc 1 112 0
 187              		.cfi_startproc
 188              		@ args = 0, pretend = 0, frame = 0
 189              		@ frame_needed = 0, uses_anonymous_args = 0
 190              		@ link register save eliminated.
 191              	.LVL19:
 192              		.loc 1 114 0
 193 0000 0C30     		adds	r0, r0, #12
 194              	.LVL20:
 195 0002 FFF7FEBF 		b	ibqGetTimeout
 196              	.LVL21:
 197              		.cfi_endproc
 198              	.LFE340:
 199              		.size	_gett, .-_gett
 200              		.section	.text._get,"ax",%progbits
 201              		.align	1
 202              		.syntax unified
 203              		.thumb
 204              		.thumb_func
 205              		.fpu fpv4-sp-d16
 206              		.type	_get, %function
 207              	_get:
 208              	.LFB338:
 209              		.loc 1 102 0
 210              		.cfi_startproc
 211              		@ args = 0, pretend = 0, frame = 0
 212              		@ frame_needed = 0, uses_anonymous_args = 0
 213              		@ link register save eliminated.
 214              	.LVL22:
 215              		.loc 1 104 0
 216 0000 4FF0FF31 		mov	r1, #-1
 217 0004 0C30     		adds	r0, r0, #12
 218              	.LVL23:
 219 0006 FFF7FEBF 		b	ibqGetTimeout
 220              	.LVL24:
 221              		.cfi_endproc
 222              	.LFE338:
 223              		.size	_get, .-_get
 224              		.section	.text._putt,"ax",%progbits
 225              		.align	1
 226              		.syntax unified
 227              		.thumb
 228              		.thumb_func
ARM GAS  /tmp/ccfezZFU.s 			page 5


 229              		.fpu fpv4-sp-d16
 230              		.type	_putt, %function
 231              	_putt:
 232              	.LFB339:
 233              		.loc 1 107 0
 234              		.cfi_startproc
 235              		@ args = 0, pretend = 0, frame = 0
 236              		@ frame_needed = 0, uses_anonymous_args = 0
 237              		@ link register save eliminated.
 238              	.LVL25:
 239              		.loc 1 109 0
 240 0000 4430     		adds	r0, r0, #68
 241              	.LVL26:
 242 0002 FFF7FEBF 		b	obqPutTimeout
 243              	.LVL27:
 244              		.cfi_endproc
 245              	.LFE339:
 246              		.size	_putt, .-_putt
 247              		.section	.text._put,"ax",%progbits
 248              		.align	1
 249              		.syntax unified
 250              		.thumb
 251              		.thumb_func
 252              		.fpu fpv4-sp-d16
 253              		.type	_put, %function
 254              	_put:
 255              	.LFB337:
 256              		.loc 1 97 0
 257              		.cfi_startproc
 258              		@ args = 0, pretend = 0, frame = 0
 259              		@ frame_needed = 0, uses_anonymous_args = 0
 260              		@ link register save eliminated.
 261              	.LVL28:
 262              		.loc 1 99 0
 263 0000 4FF0FF32 		mov	r2, #-1
 264 0004 4430     		adds	r0, r0, #68
 265              	.LVL29:
 266 0006 FFF7FEBF 		b	obqPutTimeout
 267              	.LVL30:
 268              		.cfi_endproc
 269              	.LFE337:
 270              		.size	_put, .-_put
 271              		.section	.text.sdu_start_receive,"ax",%progbits
 272              		.align	1
 273              		.syntax unified
 274              		.thumb
 275              		.thumb_func
 276              		.fpu fpv4-sp-d16
 277              		.type	sdu_start_receive, %function
 278              	sdu_start_receive:
 279              	.LFB334:
 280              		.loc 1 53 0
 281              		.cfi_startproc
 282              		@ args = 0, pretend = 0, frame = 0
 283              		@ frame_needed = 0, uses_anonymous_args = 0
 284              	.LVL31:
 285              		.loc 1 58 0
ARM GAS  /tmp/ccfezZFU.s 			page 6


 286 0000 D0F88C24 		ldr	r2, [r0, #1164]
 287              		.loc 1 53 0
 288 0004 38B5     		push	{r3, r4, r5, lr}
 289              		.cfi_def_cfa_offset 16
 290              		.cfi_offset 3, -16
 291              		.cfi_offset 4, -12
 292              		.cfi_offset 5, -8
 293              		.cfi_offset 14, -4
 294              		.loc 1 58 0
 295 0006 1368     		ldr	r3, [r2]
 296              		.loc 1 53 0
 297 0008 0546     		mov	r5, r0
 298              		.loc 1 58 0
 299 000a 1978     		ldrb	r1, [r3]	@ zero_extendqisi2
 300 000c 0429     		cmp	r1, #4
 301 000e 01D0     		beq	.L12
 302              	.LVL32:
 303              	.L14:
 304              		.loc 1 60 0
 305 0010 0120     		movs	r0, #1
 306 0012 38BD     		pop	{r3, r4, r5, pc}
 307              	.LVL33:
 308              	.L12:
 309              		.loc 1 58 0 discriminator 1
 310 0014 017A     		ldrb	r1, [r0, #8]	@ zero_extendqisi2
 311 0016 0229     		cmp	r1, #2
 312 0018 FAD1     		bne	.L14
 313              		.loc 1 64 0
 314 001a 1279     		ldrb	r2, [r2, #4]	@ zero_extendqisi2
 315 001c 0120     		movs	r0, #1
 316              	.LVL34:
 317 001e 5C89     		ldrh	r4, [r3, #10]
 318 0020 9040     		lsls	r0, r0, r2
 319 0022 0440     		ands	r4, r0, r4
 320 0024 F4D1     		bne	.L14
 321              	.LVL35:
 322              	.LBB77:
 323              	.LBB78:
 324              		.loc 1 69 0
 325 0026 05F10C00 		add	r0, r5, #12
 326 002a FFF7FEFF 		bl	ibqGetEmptyBufferI
 327              	.LVL36:
 328              		.loc 1 70 0
 329 002e 0246     		mov	r2, r0
 330 0030 0028     		cmp	r0, #0
 331 0032 EDD0     		beq	.L14
 332              		.loc 1 75 0
 333 0034 D5F88C54 		ldr	r5, [r5, #1164]
 334              	.LVL37:
 335 0038 4FF48073 		mov	r3, #256
 336 003c 2868     		ldr	r0, [r5]
 337              	.LVL38:
 338 003e 6979     		ldrb	r1, [r5, #5]	@ zero_extendqisi2
 339 0040 FFF7FEFF 		bl	usbStartReceiveI
 340              	.LVL39:
 341              		.loc 1 78 0
 342 0044 2046     		mov	r0, r4
ARM GAS  /tmp/ccfezZFU.s 			page 7


 343              	.LBE78:
 344              	.LBE77:
 345              		.loc 1 79 0
 346 0046 38BD     		pop	{r3, r4, r5, pc}
 347              		.cfi_endproc
 348              	.LFE334:
 349              		.size	sdu_start_receive, .-sdu_start_receive
 350              		.section	.text.ibnotify,"ax",%progbits
 351              		.align	1
 352              		.syntax unified
 353              		.thumb
 354              		.thumb_func
 355              		.fpu fpv4-sp-d16
 356              		.type	ibnotify, %function
 357              	ibnotify:
 358              	.LFB344:
 359              		.loc 1 168 0
 360              		.cfi_startproc
 361              		@ args = 0, pretend = 0, frame = 0
 362              		@ frame_needed = 0, uses_anonymous_args = 0
 363              		@ link register save eliminated.
 364              	.LVL40:
 365              		.loc 1 170 0
 366 0000 406B     		ldr	r0, [r0, #52]
 367              	.LVL41:
 368 0002 FFF7FEBF 		b	sdu_start_receive
 369              	.LVL42:
 370              		.cfi_endproc
 371              	.LFE344:
 372              		.size	ibnotify, .-ibnotify
 373              		.section	.text._ctl,"ax",%progbits
 374              		.align	1
 375              		.syntax unified
 376              		.thumb
 377              		.thumb_func
 378              		.fpu fpv4-sp-d16
 379              		.type	_ctl, %function
 380              	_ctl:
 381              	.LFB361:
 382              		.cfi_startproc
 383              		@ args = 0, pretend = 0, frame = 0
 384              		@ frame_needed = 0, uses_anonymous_args = 0
 385              		@ link register save eliminated.
 386 0000 0020     		movs	r0, #0
 387 0002 7047     		bx	lr
 388              		.cfi_endproc
 389              	.LFE361:
 390              		.size	_ctl, .-_ctl
 391              		.section	.text.sduInit,"ax",%progbits
 392              		.align	1
 393              		.global	sduInit
 394              		.syntax unified
 395              		.thumb
 396              		.thumb_func
 397              		.fpu fpv4-sp-d16
 398              		.type	sduInit, %function
 399              	sduInit:
ARM GAS  /tmp/ccfezZFU.s 			page 8


 400              	.LFB346:
 401              		.loc 1 210 0
 402              		.cfi_startproc
 403              		@ args = 0, pretend = 0, frame = 0
 404              		@ frame_needed = 0, uses_anonymous_args = 0
 405              		@ link register save eliminated.
 406 0000 7047     		bx	lr
 407              		.cfi_endproc
 408              	.LFE346:
 409              		.size	sduInit, .-sduInit
 410              		.section	.text.sduObjectInit,"ax",%progbits
 411              		.align	1
 412              		.global	sduObjectInit
 413              		.syntax unified
 414              		.thumb
 415              		.thumb_func
 416              		.fpu fpv4-sp-d16
 417              		.type	sduObjectInit, %function
 418              	sduObjectInit:
 419              	.LFB347:
 420              		.loc 1 222 0
 421              		.cfi_startproc
 422              		@ args = 0, pretend = 0, frame = 0
 423              		@ frame_needed = 0, uses_anonymous_args = 0
 424              	.LVL43:
 425              		.loc 1 222 0
 426 0000 7FB5     		push	{r0, r1, r2, r3, r4, r5, r6, lr}
 427              		.cfi_def_cfa_offset 32
 428              		.cfi_offset 4, -16
 429              		.cfi_offset 5, -12
 430              		.cfi_offset 6, -8
 431              		.cfi_offset 14, -4
 432              		.loc 1 224 0
 433 0002 0346     		mov	r3, r0
 434 0004 114A     		ldr	r2, .L22
 435              		.loc 1 226 0
 436 0006 0125     		movs	r5, #1
 437              		.loc 1 227 0
 438 0008 0226     		movs	r6, #2
 439              		.loc 1 224 0
 440 000a 43F8042B 		str	r2, [r3], #4
 441              	.LVL44:
 442              		.loc 1 222 0
 443 000e 0446     		mov	r4, r0
 444              	.LBB79:
 445              	.LBB80:
 446              	.LBB81:
 447              		.file 2 "../../modules/ChibiOS/os/rt/include/chevents.h"
 448              		.loc 2 173 0
 449 0010 4360     		str	r3, [r0, #4]
 450              	.LVL45:
 451              	.LBE81:
 452              	.LBE80:
 453              	.LBE79:
 454              		.loc 1 227 0
 455 0012 00F17C02 		add	r2, r0, #124
 456 0016 0E4B     		ldr	r3, .L22+4
ARM GAS  /tmp/ccfezZFU.s 			page 9


 457 0018 2946     		mov	r1, r5
 458              		.loc 1 226 0
 459 001a 0572     		strb	r5, [r0, #8]
 460              		.loc 1 227 0
 461 001c 0290     		str	r0, [sp, #8]
 462 001e 0C30     		adds	r0, r0, #12
 463              	.LVL46:
 464 0020 0193     		str	r3, [sp, #4]
 465 0022 4FF48073 		mov	r3, #256
 466 0026 0096     		str	r6, [sp]
 467 0028 FFF7FEFF 		bl	ibqObjectInit
 468              	.LVL47:
 469              		.loc 1 230 0
 470 002c 094B     		ldr	r3, .L22+8
 471 002e 04F52172 		add	r2, r4, #644
 472 0032 2946     		mov	r1, r5
 473 0034 0193     		str	r3, [sp, #4]
 474 0036 04F14400 		add	r0, r4, #68
 475 003a 4FF48073 		mov	r3, #256
 476 003e 0294     		str	r4, [sp, #8]
 477 0040 0096     		str	r6, [sp]
 478 0042 FFF7FEFF 		bl	obqObjectInit
 479              	.LVL48:
 480              		.loc 1 233 0
 481 0046 04B0     		add	sp, sp, #16
 482              		.cfi_def_cfa_offset 16
 483              		@ sp needed
 484 0048 70BD     		pop	{r4, r5, r6, pc}
 485              	.LVL49:
 486              	.L23:
 487 004a 00BF     		.align	2
 488              	.L22:
 489 004c 00000000 		.word	.LANCHOR0
 490 0050 00000000 		.word	ibnotify
 491 0054 00000000 		.word	obnotify
 492              		.cfi_endproc
 493              	.LFE347:
 494              		.size	sduObjectInit, .-sduObjectInit
 495              		.section	.text.sduStart,"ax",%progbits
 496              		.align	1
 497              		.global	sduStart
 498              		.syntax unified
 499              		.thumb
 500              		.thumb_func
 501              		.fpu fpv4-sp-d16
 502              		.type	sduStart, %function
 503              	sduStart:
 504              	.LFB348:
 505              		.loc 1 243 0
 506              		.cfi_startproc
 507              		@ args = 0, pretend = 0, frame = 0
 508              		@ frame_needed = 0, uses_anonymous_args = 0
 509              	.LVL50:
 510 0000 70B5     		push	{r4, r5, r6, lr}
 511              		.cfi_def_cfa_offset 16
 512              		.cfi_offset 4, -16
 513              		.cfi_offset 5, -12
ARM GAS  /tmp/ccfezZFU.s 			page 10


 514              		.cfi_offset 6, -8
 515              		.cfi_offset 14, -4
 516              	.LBB96:
 517              	.LBB97:
 518              	.LBB98:
 519              	.LBB99:
 520              	.LBB100:
 521              	.LBB101:
 522              		.file 3 "../../modules/ChibiOS/os/common/ext/ARM/CMSIS/Core/Include/cmsis_gcc.h"
 523              		.loc 3 493 0
 524 0002 2023     		movs	r3, #32
 525              	.LBE101:
 526              	.LBE100:
 527              	.LBE99:
 528              	.LBE98:
 529              	.LBE97:
 530              	.LBE96:
 531              		.loc 1 243 0
 532 0004 0446     		mov	r4, r0
 533 0006 0D46     		mov	r5, r1
 534              		.loc 1 244 0
 535 0008 0E68     		ldr	r6, [r1]
 536              	.LVL51:
 537              	.LBB107:
 538              	.LBB106:
 539              	.LBB105:
 540              	.LBB104:
 541              	.LBB103:
 542              	.LBB102:
 543              		.loc 3 493 0
 544              		.syntax unified
 545              	@ 493 "../../modules/ChibiOS/os/common/ext/ARM/CMSIS/Core/Include/cmsis_gcc.h" 1
 546 000a 83F31188 		MSR basepri, r3
 547              	@ 0 "" 2
 548              	.LVL52:
 549              		.thumb
 550              		.syntax unified
 551              	.LBE102:
 552              	.LBE103:
 553              	.LBE104:
 554              		.file 4 "../../modules/ChibiOS/os/rt/include/chsys.h"
 555              		.loc 4 356 0
 556 000e FFF7FEFF 		bl	_stats_start_measure_crit_thd
 557              	.LVL53:
 558              	.LBE105:
 559              	.LBE106:
 560              	.LBE107:
 561              		.loc 1 251 0
 562 0012 2B79     		ldrb	r3, [r5, #4]	@ zero_extendqisi2
 563 0014 06EB8303 		add	r3, r6, r3, lsl #2
 564 0018 1C62     		str	r4, [r3, #32]
 565              		.loc 1 252 0
 566 001a 6B79     		ldrb	r3, [r5, #5]	@ zero_extendqisi2
 567 001c 0D33     		adds	r3, r3, #13
 568 001e 46F82340 		str	r4, [r6, r3, lsl #2]
 569              		.loc 1 253 0
 570 0022 AB79     		ldrb	r3, [r5, #6]	@ zero_extendqisi2
ARM GAS  /tmp/ccfezZFU.s 			page 11


 571 0024 13B1     		cbz	r3, .L25
 572              		.loc 1 254 0
 573 0026 06EB8306 		add	r6, r6, r3, lsl #2
 574              	.LVL54:
 575 002a 3462     		str	r4, [r6, #32]
 576              	.L25:
 577              		.loc 1 257 0
 578 002c 0223     		movs	r3, #2
 579              		.loc 1 256 0
 580 002e C4F88C54 		str	r5, [r4, #1164]
 581              		.loc 1 257 0
 582 0032 2372     		strb	r3, [r4, #8]
 583              	.LBB108:
 584              	.LBB109:
 585              	.LBB110:
 586              		.loc 4 368 0
 587 0034 FFF7FEFF 		bl	_stats_stop_measure_crit_thd
 588              	.LVL55:
 589              	.LBB111:
 590              	.LBB112:
 591              	.LBB113:
 592              		.loc 3 493 0
 593 0038 0023     		movs	r3, #0
 594              		.syntax unified
 595              	@ 493 "../../modules/ChibiOS/os/common/ext/ARM/CMSIS/Core/Include/cmsis_gcc.h" 1
 596 003a 83F31188 		MSR basepri, r3
 597              	@ 0 "" 2
 598              	.LVL56:
 599              		.thumb
 600              		.syntax unified
 601 003e 70BD     		pop	{r4, r5, r6, pc}
 602              	.LBE113:
 603              	.LBE112:
 604              	.LBE111:
 605              	.LBE110:
 606              	.LBE109:
 607              	.LBE108:
 608              		.cfi_endproc
 609              	.LFE348:
 610              		.size	sduStart, .-sduStart
 611              		.section	.text.sduStop,"ax",%progbits
 612              		.align	1
 613              		.global	sduStop
 614              		.syntax unified
 615              		.thumb
 616              		.thumb_func
 617              		.fpu fpv4-sp-d16
 618              		.type	sduStop, %function
 619              	sduStop:
 620              	.LFB349:
 621              		.loc 1 270 0
 622              		.cfi_startproc
 623              		@ args = 0, pretend = 0, frame = 0
 624              		@ frame_needed = 0, uses_anonymous_args = 0
 625              	.LVL57:
 626 0000 38B5     		push	{r3, r4, r5, lr}
 627              		.cfi_def_cfa_offset 16
ARM GAS  /tmp/ccfezZFU.s 			page 12


 628              		.cfi_offset 3, -16
 629              		.cfi_offset 4, -12
 630              		.cfi_offset 5, -8
 631              		.cfi_offset 14, -4
 632              		.loc 1 271 0
 633 0002 D0F88C34 		ldr	r3, [r0, #1164]
 634              		.loc 1 270 0
 635 0006 0446     		mov	r4, r0
 636              		.loc 1 271 0
 637 0008 1D68     		ldr	r5, [r3]
 638              	.LVL58:
 639              	.LBB132:
 640              	.LBB133:
 641              	.LBB134:
 642              	.LBB135:
 643              	.LBB136:
 644              	.LBB137:
 645              		.loc 3 493 0
 646 000a 2023     		movs	r3, #32
 647              		.syntax unified
 648              	@ 493 "../../modules/ChibiOS/os/common/ext/ARM/CMSIS/Core/Include/cmsis_gcc.h" 1
 649 000c 83F31188 		MSR basepri, r3
 650              	@ 0 "" 2
 651              	.LVL59:
 652              		.thumb
 653              		.syntax unified
 654              	.LBE137:
 655              	.LBE136:
 656              	.LBE135:
 657              		.loc 4 356 0
 658 0010 FFF7FEFF 		bl	_stats_start_measure_crit_thd
 659              	.LVL60:
 660              	.LBE134:
 661              	.LBE133:
 662              	.LBE132:
 663              		.loc 1 281 0
 664 0014 D4F88C14 		ldr	r1, [r4, #1164]
 665 0018 0022     		movs	r2, #0
 666 001a 0B79     		ldrb	r3, [r1, #4]	@ zero_extendqisi2
 667 001c 0733     		adds	r3, r3, #7
 668 001e 05EB8303 		add	r3, r5, r3, lsl #2
 669 0022 5A60     		str	r2, [r3, #4]
 670              		.loc 1 282 0
 671 0024 4B79     		ldrb	r3, [r1, #5]	@ zero_extendqisi2
 672 0026 0D33     		adds	r3, r3, #13
 673 0028 45F82320 		str	r2, [r5, r3, lsl #2]
 674              		.loc 1 283 0
 675 002c 8B79     		ldrb	r3, [r1, #6]	@ zero_extendqisi2
 676 002e 1BB1     		cbz	r3, .L30
 677              		.loc 1 284 0
 678 0030 0733     		adds	r3, r3, #7
 679 0032 05EB8305 		add	r5, r5, r3, lsl #2
 680              	.LVL61:
 681 0036 6A60     		str	r2, [r5, #4]
 682              	.L30:
 683              		.loc 1 287 0
 684 0038 0123     		movs	r3, #1
ARM GAS  /tmp/ccfezZFU.s 			page 13


 685              		.loc 1 286 0
 686 003a 0025     		movs	r5, #0
 687              	.LBB138:
 688              	.LBB139:
 689              		.file 5 "../../modules/ChibiOS/os/hal/osal/rt/osal.h"
 690              		.loc 5 895 0
 691 003c 0221     		movs	r1, #2
 692 003e 201D     		adds	r0, r4, #4
 693              	.LBE139:
 694              	.LBE138:
 695              		.loc 1 287 0
 696 0040 2372     		strb	r3, [r4, #8]
 697              	.LVL62:
 698              		.loc 1 286 0
 699 0042 C4F88C54 		str	r5, [r4, #1164]
 700              	.LBB141:
 701              	.LBB140:
 702              		.loc 5 895 0
 703 0046 FFF7FEFF 		bl	chEvtBroadcastFlagsI
 704              	.LVL63:
 705              	.LBE140:
 706              	.LBE141:
 707              		.loc 1 291 0
 708 004a 04F10C00 		add	r0, r4, #12
 709 004e FFF7FEFF 		bl	ibqResetI
 710              	.LVL64:
 711              		.loc 1 292 0
 712 0052 04F14400 		add	r0, r4, #68
 713 0056 FFF7FEFF 		bl	obqResetI
 714              	.LVL65:
 715              	.LBB142:
 716              	.LBB143:
 717              		.loc 5 618 0
 718 005a FFF7FEFF 		bl	chSchRescheduleS
 719              	.LVL66:
 720              	.LBE143:
 721              	.LBE142:
 722              	.LBB144:
 723              	.LBB145:
 724              	.LBB146:
 725              		.loc 4 368 0
 726 005e FFF7FEFF 		bl	_stats_stop_measure_crit_thd
 727              	.LVL67:
 728              	.LBB147:
 729              	.LBB148:
 730              	.LBB149:
 731              		.loc 3 493 0
 732              		.syntax unified
 733              	@ 493 "../../modules/ChibiOS/os/common/ext/ARM/CMSIS/Core/Include/cmsis_gcc.h" 1
 734 0062 85F31188 		MSR basepri, r5
 735              	@ 0 "" 2
 736              	.LVL68:
 737              		.thumb
 738              		.syntax unified
 739 0066 38BD     		pop	{r3, r4, r5, pc}
 740              	.LBE149:
 741              	.LBE148:
ARM GAS  /tmp/ccfezZFU.s 			page 14


 742              	.LBE147:
 743              	.LBE146:
 744              	.LBE145:
 745              	.LBE144:
 746              		.cfi_endproc
 747              	.LFE349:
 748              		.size	sduStop, .-sduStop
 749              		.section	.text.sduSuspendHookI,"ax",%progbits
 750              		.align	1
 751              		.global	sduSuspendHookI
 752              		.syntax unified
 753              		.thumb
 754              		.thumb_func
 755              		.fpu fpv4-sp-d16
 756              		.type	sduSuspendHookI, %function
 757              	sduSuspendHookI:
 758              	.LFB350:
 759              		.loc 1 310 0
 760              		.cfi_startproc
 761              		@ args = 0, pretend = 0, frame = 0
 762              		@ frame_needed = 0, uses_anonymous_args = 0
 763              	.LVL69:
 764 0000 38B5     		push	{r3, r4, r5, lr}
 765              		.cfi_def_cfa_offset 16
 766              		.cfi_offset 3, -16
 767              		.cfi_offset 4, -12
 768              		.cfi_offset 5, -8
 769              		.cfi_offset 14, -4
 770              		.loc 1 313 0
 771 0002 037D     		ldrb	r3, [r0, #20]	@ zero_extendqisi2
 772              		.loc 1 310 0
 773 0004 0446     		mov	r4, r0
 774              		.loc 1 313 0
 775 0006 13B1     		cbz	r3, .L35
 776              		.loc 1 313 0 is_stmt 0 discriminator 1
 777 0008 90F84C30 		ldrb	r3, [r0, #76]	@ zero_extendqisi2
 778 000c ABB9     		cbnz	r3, .L34
 779              	.L35:
 780              	.LVL70:
 781              		.loc 1 317 0 is_stmt 1
 782 000e 0125     		movs	r5, #1
 783              	.LBB150:
 784              	.LBB151:
 785              		.loc 5 895 0
 786 0010 201D     		adds	r0, r4, #4
 787              	.LVL71:
 788 0012 0221     		movs	r1, #2
 789 0014 FFF7FEFF 		bl	chEvtBroadcastFlagsI
 790              	.LVL72:
 791              	.LBE151:
 792              	.LBE150:
 793              	.LBB152:
 794              	.LBB153:
 795              		.loc 5 857 0
 796 0018 04F10C00 		add	r0, r4, #12
 797              	.LBE153:
 798              	.LBE152:
ARM GAS  /tmp/ccfezZFU.s 			page 15


 799              		.loc 1 317 0
 800 001c 2575     		strb	r5, [r4, #20]
 801              	.LVL73:
 802              	.LBB155:
 803              	.LBB154:
 804              		.loc 5 857 0
 805 001e 6FF00101 		mvn	r1, #1
 806 0022 FFF7FEFF 		bl	chThdDequeueAllI
 807              	.LVL74:
 808              	.LBE154:
 809              	.LBE155:
 810              		.loc 1 318 0
 811 0026 84F84C50 		strb	r5, [r4, #76]
 812              	.LVL75:
 813              	.LBB156:
 814              	.LBB157:
 815              		.loc 5 857 0
 816 002a 04F14400 		add	r0, r4, #68
 817              	.LVL76:
 818 002e 6FF00101 		mvn	r1, #1
 819              	.LBE157:
 820              	.LBE156:
 821              		.loc 1 319 0
 822 0032 BDE83840 		pop	{r3, r4, r5, lr}
 823              		.cfi_remember_state
 824              		.cfi_restore 14
 825              		.cfi_restore 5
 826              		.cfi_restore 4
 827              		.cfi_restore 3
 828              		.cfi_def_cfa_offset 0
 829              	.LVL77:
 830              	.LBB159:
 831              	.LBB158:
 832              		.loc 5 857 0
 833 0036 FFF7FEBF 		b	chThdDequeueAllI
 834              	.LVL78:
 835              	.L34:
 836              		.cfi_restore_state
 837 003a 38BD     		pop	{r3, r4, r5, pc}
 838              	.LBE158:
 839              	.LBE159:
 840              		.cfi_endproc
 841              	.LFE350:
 842              		.size	sduSuspendHookI, .-sduSuspendHookI
 843              		.section	.text.sduWakeupHookI,"ax",%progbits
 844              		.align	1
 845              		.global	sduWakeupHookI
 846              		.syntax unified
 847              		.thumb
 848              		.thumb_func
 849              		.fpu fpv4-sp-d16
 850              		.type	sduWakeupHookI, %function
 851              	sduWakeupHookI:
 852              	.LFB351:
 853              		.loc 1 333 0
 854              		.cfi_startproc
 855              		@ args = 0, pretend = 0, frame = 0
ARM GAS  /tmp/ccfezZFU.s 			page 16


 856              		@ frame_needed = 0, uses_anonymous_args = 0
 857              	.LVL79:
 858 0000 10B5     		push	{r4, lr}
 859              		.cfi_def_cfa_offset 8
 860              		.cfi_offset 4, -8
 861              		.cfi_offset 14, -4
 862              	.LBB160:
 863              	.LBB161:
 864              		.loc 5 895 0
 865 0002 0121     		movs	r1, #1
 866              	.LBE161:
 867              	.LBE160:
 868              		.loc 1 333 0
 869 0004 0446     		mov	r4, r0
 870              	.LBB163:
 871              	.LBB162:
 872              		.loc 5 895 0
 873 0006 0430     		adds	r0, r0, #4
 874              	.LVL80:
 875 0008 FFF7FEFF 		bl	chEvtBroadcastFlagsI
 876              	.LVL81:
 877              	.LBE162:
 878              	.LBE163:
 879              		.loc 1 336 0
 880 000c 0023     		movs	r3, #0
 881 000e 2375     		strb	r3, [r4, #20]
 882              		.loc 1 337 0
 883 0010 84F84C30 		strb	r3, [r4, #76]
 884 0014 10BD     		pop	{r4, pc}
 885              		.cfi_endproc
 886              	.LFE351:
 887              		.size	sduWakeupHookI, .-sduWakeupHookI
 888              		.section	.text.sduConfigureHookI,"ax",%progbits
 889              		.align	1
 890              		.global	sduConfigureHookI
 891              		.syntax unified
 892              		.thumb
 893              		.thumb_func
 894              		.fpu fpv4-sp-d16
 895              		.type	sduConfigureHookI, %function
 896              	sduConfigureHookI:
 897              	.LFB352:
 898              		.loc 1 347 0
 899              		.cfi_startproc
 900              		@ args = 0, pretend = 0, frame = 0
 901              		@ frame_needed = 0, uses_anonymous_args = 0
 902              	.LVL82:
 903 0000 38B5     		push	{r3, r4, r5, lr}
 904              		.cfi_def_cfa_offset 16
 905              		.cfi_offset 3, -16
 906              		.cfi_offset 4, -12
 907              		.cfi_offset 5, -8
 908              		.cfi_offset 14, -4
 909              		.loc 1 347 0
 910 0002 0446     		mov	r4, r0
 911              		.loc 1 350 0
 912 0004 0025     		movs	r5, #0
ARM GAS  /tmp/ccfezZFU.s 			page 17


 913              		.loc 1 349 0
 914 0006 0C30     		adds	r0, r0, #12
 915              	.LVL83:
 916 0008 FFF7FEFF 		bl	ibqResetI
 917              	.LVL84:
 918              		.loc 1 351 0
 919 000c 04F14400 		add	r0, r4, #68
 920              		.loc 1 350 0
 921 0010 2575     		strb	r5, [r4, #20]
 922              		.loc 1 351 0
 923 0012 FFF7FEFF 		bl	obqResetI
 924              	.LVL85:
 925              	.LBB164:
 926              	.LBB165:
 927              		.loc 5 895 0
 928 0016 201D     		adds	r0, r4, #4
 929              	.LBE165:
 930              	.LBE164:
 931              		.loc 1 352 0
 932 0018 84F84C50 		strb	r5, [r4, #76]
 933              	.LVL86:
 934              	.LBB167:
 935              	.LBB166:
 936              		.loc 5 895 0
 937 001c 0121     		movs	r1, #1
 938 001e FFF7FEFF 		bl	chEvtBroadcastFlagsI
 939              	.LVL87:
 940              	.LBE166:
 941              	.LBE167:
 942              		.loc 1 354 0
 943 0022 2046     		mov	r0, r4
 944              		.loc 1 355 0
 945 0024 BDE83840 		pop	{r3, r4, r5, lr}
 946              		.cfi_restore 14
 947              		.cfi_restore 5
 948              		.cfi_restore 4
 949              		.cfi_restore 3
 950              		.cfi_def_cfa_offset 0
 951              	.LVL88:
 952              		.loc 1 354 0
 953 0028 FFF7FEBF 		b	sdu_start_receive
 954              	.LVL89:
 955              		.cfi_endproc
 956              	.LFE352:
 957              		.size	sduConfigureHookI, .-sduConfigureHookI
 958              		.section	.text.sduRequestsHook,"ax",%progbits
 959              		.align	1
 960              		.global	sduRequestsHook
 961              		.syntax unified
 962              		.thumb
 963              		.thumb_func
 964              		.fpu fpv4-sp-d16
 965              		.type	sduRequestsHook, %function
 966              	sduRequestsHook:
 967              	.LFB353:
 968              		.loc 1 372 0
 969              		.cfi_startproc
ARM GAS  /tmp/ccfezZFU.s 			page 18


 970              		@ args = 0, pretend = 0, frame = 0
 971              		@ frame_needed = 0, uses_anonymous_args = 0
 972              		@ link register save eliminated.
 973              	.LVL90:
 974              		.loc 1 374 0
 975 0000 90F85C30 		ldrb	r3, [r0, #92]	@ zero_extendqisi2
 976 0004 03F06003 		and	r3, r3, #96
 977 0008 202B     		cmp	r3, #32
 978 000a 19D1     		bne	.L47
 979              		.loc 1 375 0
 980 000c 90F85D20 		ldrb	r2, [r0, #93]	@ zero_extendqisi2
 981 0010 212A     		cmp	r2, #33
 982 0012 0AD0     		beq	.L44
 983 0014 222A     		cmp	r2, #34
 984 0016 4FF00003 		mov	r3, #0
 985 001a 0ED0     		beq	.L45
 986 001c 202A     		cmp	r2, #32
 987 001e 0FD1     		bne	.L47
 988              		.loc 1 380 0
 989 0020 084A     		ldr	r2, .L51
 990 0022 0265     		str	r2, [r0, #80]
 991 0024 0722     		movs	r2, #7
 992 0026 4265     		str	r2, [r0, #84]
 993 0028 04E0     		b	.L50
 994              	.L44:
 995              		.loc 1 377 0
 996 002a 064B     		ldr	r3, .L51
 997 002c 0365     		str	r3, [r0, #80]
 998 002e 0723     		movs	r3, #7
 999 0030 4365     		str	r3, [r0, #84]
 1000 0032 0023     		movs	r3, #0
 1001              	.L50:
 1002              		.loc 1 384 0
 1003 0034 8365     		str	r3, [r0, #88]
 1004              		.loc 1 385 0
 1005 0036 0120     		movs	r0, #1
 1006              	.LVL91:
 1007 0038 7047     		bx	lr
 1008              	.LVL92:
 1009              	.L45:
 1010              		.loc 1 384 0
 1011 003a 0365     		str	r3, [r0, #80]
 1012 003c 4365     		str	r3, [r0, #84]
 1013 003e F9E7     		b	.L50
 1014              	.L47:
 1015              		.loc 1 390 0
 1016 0040 0020     		movs	r0, #0
 1017              	.LVL93:
 1018 0042 7047     		bx	lr
 1019              	.L52:
 1020              		.align	2
 1021              	.L51:
 1022 0044 00000000 		.word	.LANCHOR1
 1023              		.cfi_endproc
 1024              	.LFE353:
 1025              		.size	sduRequestsHook, .-sduRequestsHook
 1026              		.section	.text.sduSOFHookI,"ax",%progbits
ARM GAS  /tmp/ccfezZFU.s 			page 19


 1027              		.align	1
 1028              		.global	sduSOFHookI
 1029              		.syntax unified
 1030              		.thumb
 1031              		.thumb_func
 1032              		.fpu fpv4-sp-d16
 1033              		.type	sduSOFHookI, %function
 1034              	sduSOFHookI:
 1035              	.LFB354:
 1036              		.loc 1 402 0
 1037              		.cfi_startproc
 1038              		@ args = 0, pretend = 0, frame = 8
 1039              		@ frame_needed = 0, uses_anonymous_args = 0
 1040              	.LVL94:
 1041              		.loc 1 406 0
 1042 0000 D0F88C34 		ldr	r3, [r0, #1164]
 1043              		.loc 1 402 0
 1044 0004 37B5     		push	{r0, r1, r2, r4, r5, lr}
 1045              		.cfi_def_cfa_offset 24
 1046              		.cfi_offset 4, -12
 1047              		.cfi_offset 5, -8
 1048              		.cfi_offset 14, -4
 1049              		.loc 1 406 0
 1050 0006 1A68     		ldr	r2, [r3]
 1051              		.loc 1 402 0
 1052 0008 0446     		mov	r4, r0
 1053              		.loc 1 406 0
 1054 000a 1178     		ldrb	r1, [r2]	@ zero_extendqisi2
 1055 000c 0429     		cmp	r1, #4
 1056 000e 1AD1     		bne	.L53
 1057              		.loc 1 406 0 is_stmt 0 discriminator 1
 1058 0010 017A     		ldrb	r1, [r0, #8]	@ zero_extendqisi2
 1059 0012 0229     		cmp	r1, #2
 1060 0014 17D1     		bne	.L53
 1061              		.loc 1 413 0 is_stmt 1
 1062 0016 1979     		ldrb	r1, [r3, #4]	@ zero_extendqisi2
 1063 0018 0123     		movs	r3, #1
 1064 001a 1289     		ldrh	r2, [r2, #8]
 1065 001c 8B40     		lsls	r3, r3, r1
 1066 001e 1342     		tst	r3, r2
 1067 0020 11D1     		bne	.L53
 1068              		.loc 1 419 0
 1069 0022 00F14405 		add	r5, r0, #68
 1070 0026 2846     		mov	r0, r5
 1071              	.LVL95:
 1072 0028 FFF7FEFF 		bl	obqTryFlushI
 1073              	.LVL96:
 1074 002c 58B1     		cbz	r0, .L53
 1075              	.LBB168:
 1076              		.loc 1 421 0
 1077 002e 01A9     		add	r1, sp, #4
 1078 0030 2846     		mov	r0, r5
 1079 0032 FFF7FEFF 		bl	obqGetFullBufferI
 1080              	.LVL97:
 1081              		.loc 1 425 0
 1082 0036 D4F88C44 		ldr	r4, [r4, #1164]
 1083              	.LVL98:
ARM GAS  /tmp/ccfezZFU.s 			page 20


 1084 003a 0246     		mov	r2, r0
 1085 003c 019B     		ldr	r3, [sp, #4]
 1086 003e 2179     		ldrb	r1, [r4, #4]	@ zero_extendqisi2
 1087 0040 2068     		ldr	r0, [r4]
 1088              	.LVL99:
 1089 0042 FFF7FEFF 		bl	usbStartTransmitI
 1090              	.LVL100:
 1091              	.L53:
 1092              	.LBE168:
 1093              		.loc 1 427 0
 1094 0046 03B0     		add	sp, sp, #12
 1095              		.cfi_def_cfa_offset 12
 1096              		@ sp needed
 1097 0048 30BD     		pop	{r4, r5, pc}
 1098              		.cfi_endproc
 1099              	.LFE354:
 1100              		.size	sduSOFHookI, .-sduSOFHookI
 1101              		.section	.text.sduDataTransmitted,"ax",%progbits
 1102              		.align	1
 1103              		.global	sduDataTransmitted
 1104              		.syntax unified
 1105              		.thumb
 1106              		.thumb_func
 1107              		.fpu fpv4-sp-d16
 1108              		.type	sduDataTransmitted, %function
 1109              	sduDataTransmitted:
 1110              	.LFB355:
 1111              		.loc 1 437 0
 1112              		.cfi_startproc
 1113              		@ args = 0, pretend = 0, frame = 8
 1114              		@ frame_needed = 0, uses_anonymous_args = 0
 1115              	.LVL101:
 1116              		.loc 1 440 0
 1117 0000 00EB8103 		add	r3, r0, r1, lsl #2
 1118              		.loc 1 437 0
 1119 0004 F7B5     		push	{r0, r1, r2, r4, r5, r6, r7, lr}
 1120              		.cfi_def_cfa_offset 32
 1121              		.cfi_offset 4, -20
 1122              		.cfi_offset 5, -16
 1123              		.cfi_offset 6, -12
 1124              		.cfi_offset 7, -8
 1125              		.cfi_offset 14, -4
 1126              		.loc 1 440 0
 1127 0006 1C6A     		ldr	r4, [r3, #32]
 1128              	.LVL102:
 1129              		.loc 1 437 0
 1130 0008 0546     		mov	r5, r0
 1131 000a 0E46     		mov	r6, r1
 1132              		.loc 1 442 0
 1133 000c 14B3     		cbz	r4, .L60
 1134              	.LVL103:
 1135              	.LBB187:
 1136              	.LBB188:
 1137              	.LBB189:
 1138              	.LBB190:
 1139              	.LBB191:
 1140              	.LBB192:
ARM GAS  /tmp/ccfezZFU.s 			page 21


 1141              	.LBB193:
 1142              		.loc 3 493 0
 1143 000e 2023     		movs	r3, #32
 1144              		.syntax unified
 1145              	@ 493 "../../modules/ChibiOS/os/common/ext/ARM/CMSIS/Core/Include/cmsis_gcc.h" 1
 1146 0010 83F31188 		MSR basepri, r3
 1147              	@ 0 "" 2
 1148              	.LVL104:
 1149              		.thumb
 1150              		.syntax unified
 1151 0014 05EB8607 		add	r7, r5, r6, lsl #2
 1152              	.LBE193:
 1153              	.LBE192:
 1154              	.LBE191:
 1155              	.LBE190:
 1156              		.loc 4 396 0
 1157 0018 FFF7FEFF 		bl	_stats_start_measure_crit_isr
 1158              	.LVL105:
 1159              	.LBE189:
 1160              	.LBE188:
 1161              	.LBE187:
 1162              	.LBB194:
 1163              	.LBB195:
 1164              		.loc 5 895 0
 1165 001c 201D     		adds	r0, r4, #4
 1166              	.LVL106:
 1167 001e 0821     		movs	r1, #8
 1168 0020 4434     		adds	r4, r4, #68
 1169              	.LVL107:
 1170 0022 FFF7FEFF 		bl	chEvtBroadcastFlagsI
 1171              	.LVL108:
 1172              	.LBE195:
 1173              	.LBE194:
 1174              		.loc 1 452 0
 1175 0026 FB68     		ldr	r3, [r7, #12]
 1176 0028 5B69     		ldr	r3, [r3, #20]
 1177 002a 1B68     		ldr	r3, [r3]
 1178 002c 13B1     		cbz	r3, .L62
 1179              		.loc 1 453 0
 1180 002e 2046     		mov	r0, r4
 1181 0030 FFF7FEFF 		bl	obqReleaseEmptyBufferI
 1182              	.LVL109:
 1183              	.L62:
 1184              		.loc 1 457 0
 1185 0034 01A9     		add	r1, sp, #4
 1186 0036 2046     		mov	r0, r4
 1187 0038 FFF7FEFF 		bl	obqGetFullBufferI
 1188              	.LVL110:
 1189              		.loc 1 459 0
 1190 003c 0246     		mov	r2, r0
 1191 003e 58B1     		cbz	r0, .L63
 1192              		.loc 1 462 0
 1193 0040 019B     		ldr	r3, [sp, #4]
 1194              	.L75:
 1195              		.loc 1 471 0
 1196 0042 3146     		mov	r1, r6
 1197 0044 2846     		mov	r0, r5
ARM GAS  /tmp/ccfezZFU.s 			page 22


 1198              	.LVL111:
 1199 0046 FFF7FEFF 		bl	usbStartTransmitI
 1200              	.LVL112:
 1201              	.L64:
 1202              	.LBB196:
 1203              	.LBB197:
 1204              	.LBB198:
 1205              		.loc 4 416 0
 1206 004a FFF7FEFF 		bl	_stats_stop_measure_crit_isr
 1207              	.LVL113:
 1208              	.LBB199:
 1209              	.LBB200:
 1210              	.LBB201:
 1211              	.LBB202:
 1212              		.loc 3 493 0
 1213 004e 0023     		movs	r3, #0
 1214              		.syntax unified
 1215              	@ 493 "../../modules/ChibiOS/os/common/ext/ARM/CMSIS/Core/Include/cmsis_gcc.h" 1
 1216 0050 83F31188 		MSR basepri, r3
 1217              	@ 0 "" 2
 1218              	.LVL114:
 1219              		.thumb
 1220              		.syntax unified
 1221              	.L60:
 1222              	.LBE202:
 1223              	.LBE201:
 1224              	.LBE200:
 1225              	.LBE199:
 1226              	.LBE198:
 1227              	.LBE197:
 1228              	.LBE196:
 1229              		.loc 1 479 0
 1230 0054 03B0     		add	sp, sp, #12
 1231              		.cfi_remember_state
 1232              		.cfi_def_cfa_offset 20
 1233              		@ sp needed
 1234 0056 F0BD     		pop	{r4, r5, r6, r7, pc}
 1235              	.LVL115:
 1236              	.L63:
 1237              		.cfi_restore_state
 1238              		.loc 1 464 0
 1239 0058 FB68     		ldr	r3, [r7, #12]
 1240 005a 5A69     		ldr	r2, [r3, #20]
 1241 005c 1268     		ldr	r2, [r2]
 1242 005e 002A     		cmp	r2, #0
 1243 0060 F3D0     		beq	.L64
 1244              		.loc 1 466 0 discriminator 1
 1245 0062 1B8A     		ldrh	r3, [r3, #16]
 1246 0064 013B     		subs	r3, r3, #1
 1247              		.loc 1 464 0 discriminator 1
 1248 0066 1340     		ands	r3, r3, r2
 1249 0068 EFD1     		bne	.L64
 1250              		.loc 1 471 0
 1251 006a 05F15C02 		add	r2, r5, #92
 1252 006e E8E7     		b	.L75
 1253              		.cfi_endproc
 1254              	.LFE355:
ARM GAS  /tmp/ccfezZFU.s 			page 23


 1255              		.size	sduDataTransmitted, .-sduDataTransmitted
 1256              		.section	.text.sduDataReceived,"ax",%progbits
 1257              		.align	1
 1258              		.global	sduDataReceived
 1259              		.syntax unified
 1260              		.thumb
 1261              		.thumb_func
 1262              		.fpu fpv4-sp-d16
 1263              		.type	sduDataReceived, %function
 1264              	sduDataReceived:
 1265              	.LFB356:
 1266              		.loc 1 489 0
 1267              		.cfi_startproc
 1268              		@ args = 0, pretend = 0, frame = 0
 1269              		@ frame_needed = 0, uses_anonymous_args = 0
 1270              	.LVL116:
 1271              		.loc 1 491 0
 1272 0000 0D31     		adds	r1, r1, #13
 1273              	.LVL117:
 1274              		.loc 1 489 0
 1275 0002 38B5     		push	{r3, r4, r5, lr}
 1276              		.cfi_def_cfa_offset 16
 1277              		.cfi_offset 3, -16
 1278              		.cfi_offset 4, -12
 1279              		.cfi_offset 5, -8
 1280              		.cfi_offset 14, -4
 1281              		.loc 1 491 0
 1282 0004 50F82140 		ldr	r4, [r0, r1, lsl #2]
 1283              	.LVL118:
 1284              		.loc 1 493 0
 1285 0008 FCB1     		cbz	r4, .L76
 1286              	.LVL119:
 1287              	.LBB221:
 1288              	.LBB222:
 1289              	.LBB223:
 1290              	.LBB224:
 1291              	.LBB225:
 1292              	.LBB226:
 1293              	.LBB227:
 1294              		.loc 3 493 0
 1295 000a 2023     		movs	r3, #32
 1296              		.syntax unified
 1297              	@ 493 "../../modules/ChibiOS/os/common/ext/ARM/CMSIS/Core/Include/cmsis_gcc.h" 1
 1298 000c 83F31188 		MSR basepri, r3
 1299              	@ 0 "" 2
 1300              	.LVL120:
 1301              		.thumb
 1302              		.syntax unified
 1303              	.LBE227:
 1304              	.LBE226:
 1305              	.LBE225:
 1306              	.LBE224:
 1307              		.loc 4 396 0
 1308 0010 FFF7FEFF 		bl	_stats_start_measure_crit_isr
 1309              	.LVL121:
 1310              	.LBE223:
 1311              	.LBE222:
ARM GAS  /tmp/ccfezZFU.s 			page 24


 1312              	.LBE221:
 1313              		.loc 1 500 0
 1314 0014 D4F88C24 		ldr	r2, [r4, #1164]
 1315 0018 1368     		ldr	r3, [r2]
 1316 001a 5279     		ldrb	r2, [r2, #5]	@ zero_extendqisi2
 1317 001c 03EB8203 		add	r3, r3, r2, lsl #2
 1318 0020 DB68     		ldr	r3, [r3, #12]
 1319 0022 9B69     		ldr	r3, [r3, #24]
 1320 0024 5D68     		ldr	r5, [r3, #4]
 1321              	.LVL122:
 1322              		.loc 1 502 0
 1323 0026 45B1     		cbz	r5, .L78
 1324              	.LVL123:
 1325              	.LBB228:
 1326              	.LBB229:
 1327              		.loc 5 895 0
 1328 0028 0421     		movs	r1, #4
 1329 002a 6018     		adds	r0, r4, r1
 1330              	.LVL124:
 1331 002c FFF7FEFF 		bl	chEvtBroadcastFlagsI
 1332              	.LVL125:
 1333              	.LBE229:
 1334              	.LBE228:
 1335              		.loc 1 507 0
 1336 0030 2946     		mov	r1, r5
 1337 0032 04F10C00 		add	r0, r4, #12
 1338 0036 FFF7FEFF 		bl	ibqPostFullBufferI
 1339              	.LVL126:
 1340              	.L78:
 1341              		.loc 1 513 0
 1342 003a 2046     		mov	r0, r4
 1343 003c FFF7FEFF 		bl	sdu_start_receive
 1344              	.LVL127:
 1345              	.LBB230:
 1346              	.LBB231:
 1347              	.LBB232:
 1348              		.loc 4 416 0
 1349 0040 FFF7FEFF 		bl	_stats_stop_measure_crit_isr
 1350              	.LVL128:
 1351              	.LBB233:
 1352              	.LBB234:
 1353              	.LBB235:
 1354              	.LBB236:
 1355              		.loc 3 493 0
 1356 0044 0023     		movs	r3, #0
 1357              		.syntax unified
 1358              	@ 493 "../../modules/ChibiOS/os/common/ext/ARM/CMSIS/Core/Include/cmsis_gcc.h" 1
 1359 0046 83F31188 		MSR basepri, r3
 1360              	@ 0 "" 2
 1361              	.LVL129:
 1362              		.thumb
 1363              		.syntax unified
 1364              	.L76:
 1365 004a 38BD     		pop	{r3, r4, r5, pc}
 1366              	.LBE236:
 1367              	.LBE235:
 1368              	.LBE234:
ARM GAS  /tmp/ccfezZFU.s 			page 25


 1369              	.LBE233:
 1370              	.LBE232:
 1371              	.LBE231:
 1372              	.LBE230:
 1373              		.cfi_endproc
 1374              	.LFE356:
 1375              		.size	sduDataReceived, .-sduDataReceived
 1376              		.section	.text.sduInterruptTransmitted,"ax",%progbits
 1377              		.align	1
 1378              		.global	sduInterruptTransmitted
 1379              		.syntax unified
 1380              		.thumb
 1381              		.thumb_func
 1382              		.fpu fpv4-sp-d16
 1383              		.type	sduInterruptTransmitted, %function
 1384              	sduInterruptTransmitted:
 1385              	.LFB357:
 1386              		.loc 1 526 0
 1387              		.cfi_startproc
 1388              		@ args = 0, pretend = 0, frame = 0
 1389              		@ frame_needed = 0, uses_anonymous_args = 0
 1390              		@ link register save eliminated.
 1391              	.LVL130:
 1392 0000 7047     		bx	lr
 1393              		.cfi_endproc
 1394              	.LFE357:
 1395              		.size	sduInterruptTransmitted, .-sduInterruptTransmitted
 1396              		.section	.text.sduControl,"ax",%progbits
 1397              		.align	1
 1398              		.global	sduControl
 1399              		.syntax unified
 1400              		.thumb
 1401              		.thumb_func
 1402              		.fpu fpv4-sp-d16
 1403              		.type	sduControl, %function
 1404              	sduControl:
 1405              	.LFB358:
 1406              		.loc 1 546 0
 1407              		.cfi_startproc
 1408              		@ args = 0, pretend = 0, frame = 0
 1409              		@ frame_needed = 0, uses_anonymous_args = 0
 1410              		@ link register save eliminated.
 1411              	.LVL131:
 1412              		.loc 1 549 0
 1413 0000 0020     		movs	r0, #0
 1414              	.LVL132:
 1415 0002 7047     		bx	lr
 1416              		.cfi_endproc
 1417              	.LFE358:
 1418              		.size	sduControl, .-sduControl
 1419              		.section	.data.linecoding,"aw",%progbits
 1420              		.set	.LANCHOR1,. + 0
 1421              		.type	linecoding, %object
 1422              		.size	linecoding, 7
 1423              	linecoding:
 1424 0000 00       		.byte	0
 1425 0001 96       		.byte	-106
ARM GAS  /tmp/ccfezZFU.s 			page 26


 1426 0002 00       		.byte	0
 1427 0003 00       		.byte	0
 1428 0004 00       		.byte	0
 1429 0005 00       		.byte	0
 1430 0006 08       		.byte	8
 1431              		.section	.rodata.vmt,"a",%progbits
 1432              		.align	2
 1433              		.set	.LANCHOR0,. + 0
 1434              		.type	vmt, %object
 1435              		.size	vmt, 40
 1436              	vmt:
 1437 0000 00000000 		.word	0
 1438 0004 00000000 		.word	_write
 1439 0008 00000000 		.word	_read
 1440 000c 00000000 		.word	_put
 1441 0010 00000000 		.word	_get
 1442 0014 00000000 		.word	_putt
 1443 0018 00000000 		.word	_gett
 1444 001c 00000000 		.word	_writet
 1445 0020 00000000 		.word	_readt
 1446 0024 00000000 		.word	_ctl
 1447              		.text
 1448              	.Letext0:
 1449              		.file 6 "/opt/gcc-arm-none-eabi-6-2017-q2-update/lib/gcc/arm-none-eabi/6.3.1/include/stddef.h"
 1450              		.file 7 "/opt/gcc-arm-none-eabi-6-2017-q2-update/arm-none-eabi/include/machine/_default_types.h"
 1451              		.file 8 "/opt/gcc-arm-none-eabi-6-2017-q2-update/arm-none-eabi/include/sys/_stdint.h"
 1452              		.file 9 "/opt/gcc-arm-none-eabi-6-2017-q2-update/arm-none-eabi/include/stdint.h"
 1453              		.file 10 "../../modules/ChibiOS/os/common/ports/ARMCMx/compilers/GCC/chtypes.h"
 1454              		.file 11 "../../modules/ChibiOS/os/rt/include/chsystypes.h"
 1455              		.file 12 "../../modules/ChibiOS/os/rt/include/chschd.h"
 1456              		.file 13 "../../modules/ChibiOS/os/rt/include/chtime.h"
 1457              		.file 14 "../../modules/ChibiOS/os/common/ext/ARM/CMSIS/Core/Include/core_cm7.h"
 1458              		.file 15 "../../modules/ChibiOS/os/common/ext/ST/STM32F7xx/system_stm32f7xx.h"
 1459              		.file 16 "../../modules/ChibiOS/os/common/ext/ST/STM32F7xx/stm32f767xx.h"
 1460              		.file 17 "../../modules/ChibiOS/os/common/ports/ARMCMx/chcore.h"
 1461              		.file 18 "../../modules/ChibiOS/os/common/ports/ARMCMx/chcore_v7m.h"
 1462              		.file 19 "../../modules/ChibiOS/os/hal/ports/STM32/LLD/TIMv1/stm32_tim.h"
 1463              		.file 20 "../../modules/ChibiOS/os/rt/include/chtm.h"
 1464              		.file 21 "../../modules/ChibiOS/os/rt/include/chstats.h"
 1465              		.file 22 "../../modules/ChibiOS/os/rt/include/chsem.h"
 1466              		.file 23 "../../modules/ChibiOS/os/rt/include/chmtx.h"
 1467              		.file 24 "../../modules/ChibiOS/os/rt/include/chregistry.h"
 1468              		.file 25 "../../modules/ChibiOS/os/oslib/include/chmemcore.h"
 1469              		.file 26 "../../modules/ChibiOS/os/oslib/include/chmempools.h"
 1470              		.file 27 "../../modules/ChibiOS/os/oslib/include/chfactory.h"
 1471              		.file 28 "../../modules/ChibiOS/os/hal/ports/STM32/LLD/DMAv2/stm32_dma.h"
 1472              		.file 29 "../../modules/ChibiOS/os/hal/include/hal_ioblock.h"
 1473              		.file 30 "../../modules/ChibiOS/os/hal/include/hal_buffers.h"
 1474              		.file 31 "../../modules/ChibiOS/os/hal/include/hal_queues.h"
 1475              		.file 32 "../../modules/ChibiOS/os/hal/include/hal_pal.h"
 1476              		.file 33 "../../modules/ChibiOS/os/hal/ports/STM32/LLD/GPIOv2/stm32_gpio.h"
 1477              		.file 34 "../../modules/ChibiOS/os/hal/ports/STM32/LLD/GPIOv2/hal_pal_lld.h"
 1478              		.file 35 "../../modules/ChibiOS/os/hal/include/hal_adc.h"
 1479              		.file 36 "../../modules/ChibiOS/os/hal/ports/STM32/LLD/ADCv2/hal_adc_lld.h"
 1480              		.file 37 "../../modules/ChibiOS/os/hal/include/hal_i2c.h"
 1481              		.file 38 "../../modules/ChibiOS/os/hal/ports/STM32/LLD/I2Cv2/hal_i2c_lld.h"
 1482              		.file 39 "../../modules/ChibiOS/os/hal/include/hal_pwm.h"
ARM GAS  /tmp/ccfezZFU.s 			page 27


 1483              		.file 40 "../../modules/ChibiOS/os/hal/ports/STM32/LLD/TIMv1/hal_pwm_lld.h"
 1484              		.file 41 "../../modules/ChibiOS/os/hal/include/hal_serial.h"
 1485              		.file 42 "../../modules/ChibiOS/os/hal/ports/STM32/LLD/USARTv2/hal_serial_lld.h"
 1486              		.file 43 "../../modules/ChibiOS/os/hal/include/hal_sdc.h"
 1487              		.file 44 "../../modules/ChibiOS/os/hal/ports/STM32/LLD/SDMMCv1/hal_sdc_lld.h"
 1488              		.file 45 "../../modules/ChibiOS/os/hal/include/hal_spi.h"
 1489              		.file 46 "../../modules/ChibiOS/os/hal/ports/STM32/LLD/SPIv2/hal_spi_lld.h"
 1490              		.file 47 "../../modules/ChibiOS/os/hal/include/hal_usb.h"
 1491              		.file 48 "../../modules/ChibiOS/os/hal/ports/STM32/LLD/OTGv1/hal_usb_lld.h"
 1492              		.file 49 "../../modules/ChibiOS/os/hal/ports/STM32/LLD/OTGv1/stm32_otg.h"
 1493              		.file 50 "../../modules/ChibiOS/os/hal/include/hal_usb_cdc.h"
 1494              		.file 51 "../../modules/ChibiOS/os/hal/include/hal_serial_usb.h"
 1495              		.file 52 "../../modules/ChibiOS/os/rt/include/chthreads.h"