ARM GAS  /tmp/ccGTgB3o.s 			page 1


   1              		.cpu cortex-m7
   2              		.eabi_attribute 27, 1
   3              		.eabi_attribute 28, 1
   4              		.eabi_attribute 20, 1
   5              		.eabi_attribute 21, 1
   6              		.eabi_attribute 23, 3
   7              		.eabi_attribute 24, 1
   8              		.eabi_attribute 25, 1
   9              		.eabi_attribute 26, 1
  10              		.eabi_attribute 30, 4
  11              		.eabi_attribute 34, 1
  12              		.eabi_attribute 18, 4
  13              		.file	"hal_mmcsd.c"
  14              		.text
  15              	.Ltext0:
  16              		.cfi_sections	.debug_frame
  17              		.section	.text._mmcsd_get_slice,"ax",%progbits
  18              		.align	1
  19              		.global	_mmcsd_get_slice
  20              		.syntax unified
  21              		.thumb
  22              		.thumb_func
  23              		.fpu fpv4-sp-d16
  24              		.type	_mmcsd_get_slice, %function
  25              	_mmcsd_get_slice:
  26              	.LFB334:
  27              		.file 1 "../../modules/ChibiOS/os/hal/src/hal_mmcsd.c"
  28              		.loc 1 63 0
  29              		.cfi_startproc
  30              		@ args = 0, pretend = 0, frame = 0
  31              		@ frame_needed = 0, uses_anonymous_args = 0
  32              	.LVL0:
  33 0000 30B5     		push	{r4, r5, lr}
  34              		.cfi_def_cfa_offset 12
  35              		.cfi_offset 4, -12
  36              		.cfi_offset 5, -8
  37              		.cfi_offset 14, -4
  38              		.loc 1 71 0
  39 0002 4D09     		lsrs	r5, r1, #5
  40              		.loc 1 72 0
  41 0004 01F01F01 		and	r1, r1, #31
  42              	.LVL1:
  43              		.loc 1 69 0
  44 0008 5409     		lsrs	r4, r2, #5
  45              	.LVL2:
  46              		.loc 1 72 0
  47 000a 0123     		movs	r3, #1
  48 000c 0131     		adds	r1, r1, #1
  49              		.loc 1 70 0
  50 000e 02F01F02 		and	r2, r2, #31
  51              	.LVL3:
  52              		.loc 1 75 0
  53 0012 AC42     		cmp	r4, r5
  54              		.loc 1 72 0
  55 0014 03FA01F3 		lsl	r3, r3, r1
  56 0018 03F1FF33 		add	r3, r3, #-1
  57              	.LVL4:
ARM GAS  /tmp/ccGTgB3o.s 			page 2


  58              		.loc 1 75 0
  59 001c 0AD2     		bcs	.L2
  60              		.loc 1 77 0
  61 001e 50F82510 		ldr	r1, [r0, r5, lsl #2]
  62              		.loc 1 76 0
  63 0022 50F82400 		ldr	r0, [r0, r4, lsl #2]
  64              	.LVL5:
  65              		.loc 1 77 0
  66 0026 0B40     		ands	r3, r3, r1
  67              	.LVL6:
  68 0028 C2F12001 		rsb	r1, r2, #32
  69              		.loc 1 76 0
  70 002c D040     		lsrs	r0, r0, r2
  71              		.loc 1 77 0
  72 002e 8B40     		lsls	r3, r3, r1
  73              		.loc 1 76 0
  74 0030 1843     		orrs	r0, r0, r3
  75 0032 30BD     		pop	{r4, r5, pc}
  76              	.LVL7:
  77              	.L2:
  78              		.loc 1 79 0
  79 0034 50F82400 		ldr	r0, [r0, r4, lsl #2]
  80              	.LVL8:
  81 0038 1840     		ands	r0, r0, r3
  82 003a D040     		lsrs	r0, r0, r2
  83              		.loc 1 80 0
  84 003c 30BD     		pop	{r4, r5, pc}
  85              		.cfi_endproc
  86              	.LFE334:
  87              		.size	_mmcsd_get_slice, .-_mmcsd_get_slice
  88              		.section	.text._mmcsd_get_capacity,"ax",%progbits
  89              		.align	1
  90              		.global	_mmcsd_get_capacity
  91              		.syntax unified
  92              		.thumb
  93              		.thumb_func
  94              		.fpu fpv4-sp-d16
  95              		.type	_mmcsd_get_capacity, %function
  96              	_mmcsd_get_capacity:
  97              	.LFB335:
  98              		.loc 1 93 0
  99              		.cfi_startproc
 100              		@ args = 0, pretend = 0, frame = 0
 101              		@ frame_needed = 0, uses_anonymous_args = 0
 102              	.LVL9:
 103 0000 70B5     		push	{r4, r5, r6, lr}
 104              		.cfi_def_cfa_offset 16
 105              		.cfi_offset 4, -16
 106              		.cfi_offset 5, -12
 107              		.cfi_offset 6, -8
 108              		.cfi_offset 14, -4
 109              		.loc 1 98 0
 110 0002 7E22     		movs	r2, #126
 111 0004 7F21     		movs	r1, #127
 112              		.loc 1 93 0
 113 0006 0546     		mov	r5, r0
 114              		.loc 1 98 0
ARM GAS  /tmp/ccGTgB3o.s 			page 3


 115 0008 FFF7FEFF 		bl	_mmcsd_get_slice
 116              	.LVL10:
 117 000c 18B1     		cbz	r0, .L6
 118 000e 0128     		cmp	r0, #1
 119 0010 19D0     		beq	.L7
 120              		.loc 1 112 0
 121 0012 0020     		movs	r0, #0
 122              		.loc 1 113 0
 123 0014 70BD     		pop	{r4, r5, r6, pc}
 124              	.LVL11:
 125              	.L6:
 126              		.loc 1 101 0
 127 0016 3E22     		movs	r2, #62
 128 0018 4921     		movs	r1, #73
 129 001a 2846     		mov	r0, r5
 130 001c FFF7FEFF 		bl	_mmcsd_get_slice
 131              	.LVL12:
 132              		.loc 1 102 0
 133 0020 2F22     		movs	r2, #47
 134              		.loc 1 101 0
 135 0022 0446     		mov	r4, r0
 136              	.LVL13:
 137              		.loc 1 102 0
 138 0024 3121     		movs	r1, #49
 139 0026 2846     		mov	r0, r5
 140              	.LVL14:
 141 0028 FFF7FEFF 		bl	_mmcsd_get_slice
 142              	.LVL15:
 143 002c 0646     		mov	r6, r0
 144              	.LVL16:
 145              		.loc 1 104 0
 146 002e 0134     		adds	r4, r4, #1
 147              	.LVL17:
 148              		.loc 1 103 0
 149 0030 5022     		movs	r2, #80
 150              		.loc 1 104 0
 151 0032 0236     		adds	r6, r6, #2
 152              		.loc 1 103 0
 153 0034 5321     		movs	r1, #83
 154 0036 2846     		mov	r0, r5
 155              	.LVL18:
 156 0038 FFF7FEFF 		bl	_mmcsd_get_slice
 157              	.LVL19:
 158              		.loc 1 104 0
 159 003c B440     		lsls	r4, r4, r6
 160              	.LVL20:
 161 003e 0938     		subs	r0, r0, #9
 162              	.LVL21:
 163 0040 04FA00F0 		lsl	r0, r4, r0
 164              	.LVL22:
 165 0044 70BD     		pop	{r4, r5, r6, pc}
 166              	.LVL23:
 167              	.L7:
 168              		.loc 1 107 0
 169 0046 3022     		movs	r2, #48
 170 0048 4521     		movs	r1, #69
 171 004a 2846     		mov	r0, r5
ARM GAS  /tmp/ccGTgB3o.s 			page 4


 172 004c FFF7FEFF 		bl	_mmcsd_get_slice
 173              	.LVL24:
 174 0050 0130     		adds	r0, r0, #1
 175 0052 8002     		lsls	r0, r0, #10
 176 0054 70BD     		pop	{r4, r5, r6, pc}
 177              		.cfi_endproc
 178              	.LFE335:
 179              		.size	_mmcsd_get_capacity, .-_mmcsd_get_capacity
 180              		.section	.text._mmcsd_get_capacity_ext,"ax",%progbits
 181              		.align	1
 182              		.global	_mmcsd_get_capacity_ext
 183              		.syntax unified
 184              		.thumb
 185              		.thumb_func
 186              		.fpu fpv4-sp-d16
 187              		.type	_mmcsd_get_capacity_ext, %function
 188              	_mmcsd_get_capacity_ext:
 189              	.LFB336:
 190              		.loc 1 125 0
 191              		.cfi_startproc
 192              		@ args = 0, pretend = 0, frame = 0
 193              		@ frame_needed = 0, uses_anonymous_args = 0
 194              		@ link register save eliminated.
 195              	.LVL25:
 196              		.loc 1 130 0
 197 0000 90F8D630 		ldrb	r3, [r0, #214]	@ zero_extendqisi2
 198              		.loc 1 129 0
 199 0004 90F8D720 		ldrb	r2, [r0, #215]	@ zero_extendqisi2
 200              		.loc 1 130 0
 201 0008 1B04     		lsls	r3, r3, #16
 202              		.loc 1 129 0
 203 000a 03EB0263 		add	r3, r3, r2, lsl #24
 204              		.loc 1 132 0
 205 000e 90F8D420 		ldrb	r2, [r0, #212]	@ zero_extendqisi2
 206              		.loc 1 131 0
 207 0012 90F8D500 		ldrb	r0, [r0, #213]	@ zero_extendqisi2
 208              	.LVL26:
 209 0016 1344     		add	r3, r3, r2
 210              		.loc 1 133 0
 211 0018 03EB0020 		add	r0, r3, r0, lsl #8
 212 001c 7047     		bx	lr
 213              		.cfi_endproc
 214              	.LFE336:
 215              		.size	_mmcsd_get_capacity_ext, .-_mmcsd_get_capacity_ext
 216              		.section	.text._mmcsd_unpack_sdc_cid,"ax",%progbits
 217              		.align	1
 218              		.global	_mmcsd_unpack_sdc_cid
 219              		.syntax unified
 220              		.thumb
 221              		.thumb_func
 222              		.fpu fpv4-sp-d16
 223              		.type	_mmcsd_unpack_sdc_cid, %function
 224              	_mmcsd_unpack_sdc_cid:
 225              	.LFB337:
 226              		.loc 1 144 0
 227              		.cfi_startproc
 228              		@ args = 0, pretend = 0, frame = 0
ARM GAS  /tmp/ccGTgB3o.s 			page 5


 229              		@ frame_needed = 0, uses_anonymous_args = 0
 230              	.LVL27:
 231 0000 38B5     		push	{r3, r4, r5, lr}
 232              		.cfi_def_cfa_offset 16
 233              		.cfi_offset 3, -16
 234              		.cfi_offset 4, -12
 235              		.cfi_offset 5, -8
 236              		.cfi_offset 14, -4
 237              		.loc 1 149 0
 238 0002 00F10805 		add	r5, r0, #8
 239              	.LVL28:
 240              		.loc 1 144 0
 241 0006 0C46     		mov	r4, r1
 242              		.loc 1 150 0
 243 0008 0122     		movs	r2, #1
 244 000a 0721     		movs	r1, #7
 245              	.LVL29:
 246 000c 2846     		mov	r0, r5
 247              	.LVL30:
 248 000e FFF7FEFF 		bl	_mmcsd_get_slice
 249              	.LVL31:
 250              		.loc 1 151 0
 251 0012 0C22     		movs	r2, #12
 252              		.loc 1 150 0
 253 0014 2075     		strb	r0, [r4, #20]
 254              		.loc 1 151 0
 255 0016 1321     		movs	r1, #19
 256 0018 2846     		mov	r0, r5
 257 001a FFF7FEFF 		bl	_mmcsd_get_slice
 258              	.LVL32:
 259 001e 00F5FA60 		add	r0, r0, #2000
 260              		.loc 1 153 0
 261 0022 0822     		movs	r2, #8
 262 0024 0B21     		movs	r1, #11
 263              		.loc 1 151 0
 264 0026 6082     		strh	r0, [r4, #18]	@ movhi
 265              		.loc 1 153 0
 266 0028 2846     		mov	r0, r5
 267 002a FFF7FEFF 		bl	_mmcsd_get_slice
 268              	.LVL33:
 269              		.loc 1 154 0
 270 002e 7822     		movs	r2, #120
 271              		.loc 1 153 0
 272 0030 2074     		strb	r0, [r4, #16]
 273              		.loc 1 154 0
 274 0032 7F21     		movs	r1, #127
 275 0034 2846     		mov	r0, r5
 276 0036 FFF7FEFF 		bl	_mmcsd_get_slice
 277              	.LVL34:
 278              		.loc 1 155 0
 279 003a 6822     		movs	r2, #104
 280              		.loc 1 154 0
 281 003c 2070     		strb	r0, [r4]
 282              		.loc 1 155 0
 283 003e 7721     		movs	r1, #119
 284 0040 2846     		mov	r0, r5
 285 0042 FFF7FEFF 		bl	_mmcsd_get_slice
ARM GAS  /tmp/ccGTgB3o.s 			page 6


 286              	.LVL35:
 287              		.loc 1 156 0
 288 0046 4022     		movs	r2, #64
 289              		.loc 1 155 0
 290 0048 6080     		strh	r0, [r4, #2]	@ movhi
 291              		.loc 1 156 0
 292 004a 4721     		movs	r1, #71
 293 004c 2846     		mov	r0, r5
 294 004e FFF7FEFF 		bl	_mmcsd_get_slice
 295              	.LVL36:
 296              		.loc 1 157 0
 297 0052 4822     		movs	r2, #72
 298              		.loc 1 156 0
 299 0054 2072     		strb	r0, [r4, #8]
 300              		.loc 1 157 0
 301 0056 4F21     		movs	r1, #79
 302 0058 2846     		mov	r0, r5
 303 005a FFF7FEFF 		bl	_mmcsd_get_slice
 304              	.LVL37:
 305              		.loc 1 158 0
 306 005e 5022     		movs	r2, #80
 307              		.loc 1 157 0
 308 0060 E071     		strb	r0, [r4, #7]
 309              		.loc 1 158 0
 310 0062 5721     		movs	r1, #87
 311 0064 2846     		mov	r0, r5
 312 0066 FFF7FEFF 		bl	_mmcsd_get_slice
 313              	.LVL38:
 314              		.loc 1 159 0
 315 006a 5822     		movs	r2, #88
 316              		.loc 1 158 0
 317 006c A071     		strb	r0, [r4, #6]
 318              		.loc 1 159 0
 319 006e 5F21     		movs	r1, #95
 320 0070 2846     		mov	r0, r5
 321 0072 FFF7FEFF 		bl	_mmcsd_get_slice
 322              	.LVL39:
 323              		.loc 1 160 0
 324 0076 6022     		movs	r2, #96
 325              		.loc 1 159 0
 326 0078 6071     		strb	r0, [r4, #5]
 327              		.loc 1 160 0
 328 007a 6721     		movs	r1, #103
 329 007c 2846     		mov	r0, r5
 330 007e FFF7FEFF 		bl	_mmcsd_get_slice
 331              	.LVL40:
 332              		.loc 1 161 0
 333 0082 3C22     		movs	r2, #60
 334              		.loc 1 160 0
 335 0084 2071     		strb	r0, [r4, #4]
 336              		.loc 1 161 0
 337 0086 3F21     		movs	r1, #63
 338 0088 2846     		mov	r0, r5
 339 008a FFF7FEFF 		bl	_mmcsd_get_slice
 340              	.LVL41:
 341              		.loc 1 162 0
 342 008e 3822     		movs	r2, #56
ARM GAS  /tmp/ccGTgB3o.s 			page 7


 343              		.loc 1 161 0
 344 0090 6072     		strb	r0, [r4, #9]
 345              		.loc 1 162 0
 346 0092 3B21     		movs	r1, #59
 347 0094 2846     		mov	r0, r5
 348 0096 FFF7FEFF 		bl	_mmcsd_get_slice
 349              	.LVL42:
 350              		.loc 1 163 0
 351 009a 1822     		movs	r2, #24
 352              		.loc 1 162 0
 353 009c A072     		strb	r0, [r4, #10]
 354              		.loc 1 163 0
 355 009e 3721     		movs	r1, #55
 356 00a0 2846     		mov	r0, r5
 357 00a2 FFF7FEFF 		bl	_mmcsd_get_slice
 358              	.LVL43:
 359 00a6 E060     		str	r0, [r4, #12]
 360 00a8 38BD     		pop	{r3, r4, r5, pc}
 361              		.cfi_endproc
 362              	.LFE337:
 363              		.size	_mmcsd_unpack_sdc_cid, .-_mmcsd_unpack_sdc_cid
 364              		.section	.text._mmcsd_unpack_mmc_cid,"ax",%progbits
 365              		.align	1
 366              		.global	_mmcsd_unpack_mmc_cid
 367              		.syntax unified
 368              		.thumb
 369              		.thumb_func
 370              		.fpu fpv4-sp-d16
 371              		.type	_mmcsd_unpack_mmc_cid, %function
 372              	_mmcsd_unpack_mmc_cid:
 373              	.LFB338:
 374              		.loc 1 175 0
 375              		.cfi_startproc
 376              		@ args = 0, pretend = 0, frame = 0
 377              		@ frame_needed = 0, uses_anonymous_args = 0
 378              	.LVL44:
 379 0000 38B5     		push	{r3, r4, r5, lr}
 380              		.cfi_def_cfa_offset 16
 381              		.cfi_offset 3, -16
 382              		.cfi_offset 4, -12
 383              		.cfi_offset 5, -8
 384              		.cfi_offset 14, -4
 385              		.loc 1 180 0
 386 0002 00F10805 		add	r5, r0, #8
 387              	.LVL45:
 388              		.loc 1 175 0
 389 0006 0C46     		mov	r4, r1
 390              		.loc 1 181 0
 391 0008 0122     		movs	r2, #1
 392 000a 0721     		movs	r1, #7
 393              	.LVL46:
 394 000c 2846     		mov	r0, r5
 395              	.LVL47:
 396 000e FFF7FEFF 		bl	_mmcsd_get_slice
 397              	.LVL48:
 398              		.loc 1 182 0
 399 0012 0822     		movs	r2, #8
ARM GAS  /tmp/ccGTgB3o.s 			page 8


 400              		.loc 1 181 0
 401 0014 2075     		strb	r0, [r4, #20]
 402              		.loc 1 182 0
 403 0016 0B21     		movs	r1, #11
 404 0018 2846     		mov	r0, r5
 405 001a FFF7FEFF 		bl	_mmcsd_get_slice
 406              	.LVL49:
 407 001e 00F2CD70 		addw	r0, r0, #1997
 408              		.loc 1 184 0
 409 0022 0C22     		movs	r2, #12
 410 0024 0F21     		movs	r1, #15
 411              		.loc 1 182 0
 412 0026 6082     		strh	r0, [r4, #18]	@ movhi
 413              		.loc 1 184 0
 414 0028 2846     		mov	r0, r5
 415 002a FFF7FEFF 		bl	_mmcsd_get_slice
 416              	.LVL50:
 417              		.loc 1 185 0
 418 002e 7822     		movs	r2, #120
 419              		.loc 1 184 0
 420 0030 2074     		strb	r0, [r4, #16]
 421              		.loc 1 185 0
 422 0032 7F21     		movs	r1, #127
 423 0034 2846     		mov	r0, r5
 424 0036 FFF7FEFF 		bl	_mmcsd_get_slice
 425              	.LVL51:
 426              		.loc 1 186 0
 427 003a 6822     		movs	r2, #104
 428              		.loc 1 185 0
 429 003c 2070     		strb	r0, [r4]
 430              		.loc 1 186 0
 431 003e 7721     		movs	r1, #119
 432 0040 2846     		mov	r0, r5
 433 0042 FFF7FEFF 		bl	_mmcsd_get_slice
 434              	.LVL52:
 435              		.loc 1 187 0
 436 0046 3822     		movs	r2, #56
 437              		.loc 1 186 0
 438 0048 6080     		strh	r0, [r4, #2]	@ movhi
 439              		.loc 1 187 0
 440 004a 3F21     		movs	r1, #63
 441 004c 2846     		mov	r0, r5
 442 004e FFF7FEFF 		bl	_mmcsd_get_slice
 443              	.LVL53:
 444              		.loc 1 188 0
 445 0052 4022     		movs	r2, #64
 446              		.loc 1 187 0
 447 0054 6072     		strb	r0, [r4, #9]
 448              		.loc 1 188 0
 449 0056 4721     		movs	r1, #71
 450 0058 2846     		mov	r0, r5
 451 005a FFF7FEFF 		bl	_mmcsd_get_slice
 452              	.LVL54:
 453              		.loc 1 189 0
 454 005e 4822     		movs	r2, #72
 455              		.loc 1 188 0
 456 0060 2072     		strb	r0, [r4, #8]
ARM GAS  /tmp/ccGTgB3o.s 			page 9


 457              		.loc 1 189 0
 458 0062 4F21     		movs	r1, #79
 459 0064 2846     		mov	r0, r5
 460 0066 FFF7FEFF 		bl	_mmcsd_get_slice
 461              	.LVL55:
 462              		.loc 1 190 0
 463 006a 5022     		movs	r2, #80
 464              		.loc 1 189 0
 465 006c E071     		strb	r0, [r4, #7]
 466              		.loc 1 190 0
 467 006e 5721     		movs	r1, #87
 468 0070 2846     		mov	r0, r5
 469 0072 FFF7FEFF 		bl	_mmcsd_get_slice
 470              	.LVL56:
 471              		.loc 1 191 0
 472 0076 5822     		movs	r2, #88
 473              		.loc 1 190 0
 474 0078 A071     		strb	r0, [r4, #6]
 475              		.loc 1 191 0
 476 007a 5F21     		movs	r1, #95
 477 007c 2846     		mov	r0, r5
 478 007e FFF7FEFF 		bl	_mmcsd_get_slice
 479              	.LVL57:
 480              		.loc 1 192 0
 481 0082 6022     		movs	r2, #96
 482              		.loc 1 191 0
 483 0084 6071     		strb	r0, [r4, #5]
 484              		.loc 1 192 0
 485 0086 6721     		movs	r1, #103
 486 0088 2846     		mov	r0, r5
 487 008a FFF7FEFF 		bl	_mmcsd_get_slice
 488              	.LVL58:
 489              		.loc 1 193 0
 490 008e 3422     		movs	r2, #52
 491              		.loc 1 192 0
 492 0090 2071     		strb	r0, [r4, #4]
 493              		.loc 1 193 0
 494 0092 3721     		movs	r1, #55
 495 0094 2846     		mov	r0, r5
 496 0096 FFF7FEFF 		bl	_mmcsd_get_slice
 497              	.LVL59:
 498              		.loc 1 194 0
 499 009a 3022     		movs	r2, #48
 500              		.loc 1 193 0
 501 009c A072     		strb	r0, [r4, #10]
 502              		.loc 1 194 0
 503 009e 3321     		movs	r1, #51
 504 00a0 2846     		mov	r0, r5
 505 00a2 FFF7FEFF 		bl	_mmcsd_get_slice
 506              	.LVL60:
 507              		.loc 1 195 0
 508 00a6 1022     		movs	r2, #16
 509              		.loc 1 194 0
 510 00a8 E072     		strb	r0, [r4, #11]
 511              		.loc 1 195 0
 512 00aa 2F21     		movs	r1, #47
 513 00ac 2846     		mov	r0, r5
ARM GAS  /tmp/ccGTgB3o.s 			page 10


 514 00ae FFF7FEFF 		bl	_mmcsd_get_slice
 515              	.LVL61:
 516 00b2 E060     		str	r0, [r4, #12]
 517 00b4 38BD     		pop	{r3, r4, r5, pc}
 518              		.cfi_endproc
 519              	.LFE338:
 520              		.size	_mmcsd_unpack_mmc_cid, .-_mmcsd_unpack_mmc_cid
 521              		.section	.text._mmcsd_unpack_csd_mmc,"ax",%progbits
 522              		.align	1
 523              		.global	_mmcsd_unpack_csd_mmc
 524              		.syntax unified
 525              		.thumb
 526              		.thumb_func
 527              		.fpu fpv4-sp-d16
 528              		.type	_mmcsd_unpack_csd_mmc, %function
 529              	_mmcsd_unpack_csd_mmc:
 530              	.LFB339:
 531              		.loc 1 207 0
 532              		.cfi_startproc
 533              		@ args = 0, pretend = 0, frame = 0
 534              		@ frame_needed = 0, uses_anonymous_args = 0
 535              	.LVL62:
 536 0000 38B5     		push	{r3, r4, r5, lr}
 537              		.cfi_def_cfa_offset 16
 538              		.cfi_offset 3, -16
 539              		.cfi_offset 4, -12
 540              		.cfi_offset 5, -8
 541              		.cfi_offset 14, -4
 542              		.loc 1 212 0
 543 0002 00F11805 		add	r5, r0, #24
 544              	.LVL63:
 545              		.loc 1 207 0
 546 0006 0C46     		mov	r4, r1
 547              		.loc 1 213 0
 548 0008 3E22     		movs	r2, #62
 549 000a 4921     		movs	r1, #73
 550              	.LVL64:
 551 000c 2846     		mov	r0, r5
 552              	.LVL65:
 553 000e FFF7FEFF 		bl	_mmcsd_get_slice
 554              	.LVL66:
 555              		.loc 1 214 0
 556 0012 2F22     		movs	r2, #47
 557              		.loc 1 213 0
 558 0014 E081     		strh	r0, [r4, #14]	@ movhi
 559              		.loc 1 214 0
 560 0016 3121     		movs	r1, #49
 561 0018 2846     		mov	r0, r5
 562 001a FFF7FEFF 		bl	_mmcsd_get_slice
 563              	.LVL67:
 564              		.loc 1 215 0
 565 001e 5422     		movs	r2, #84
 566              		.loc 1 214 0
 567 0020 2075     		strb	r0, [r4, #20]
 568              		.loc 1 215 0
 569 0022 5F21     		movs	r1, #95
 570 0024 2846     		mov	r0, r5
ARM GAS  /tmp/ccGTgB3o.s 			page 11


 571 0026 FFF7FEFF 		bl	_mmcsd_get_slice
 572              	.LVL68:
 573              		.loc 1 216 0
 574 002a 0E22     		movs	r2, #14
 575              		.loc 1 215 0
 576 002c E080     		strh	r0, [r4, #6]	@ movhi
 577              		.loc 1 216 0
 578 002e 2846     		mov	r0, r5
 579 0030 1146     		mov	r1, r2
 580 0032 FFF7FEFF 		bl	_mmcsd_get_slice
 581              	.LVL69:
 582              		.loc 1 217 0
 583 0036 0122     		movs	r2, #1
 584              		.loc 1 216 0
 585 0038 E077     		strb	r0, [r4, #31]
 586              		.loc 1 217 0
 587 003a 0721     		movs	r1, #7
 588 003c 2846     		mov	r0, r5
 589 003e FFF7FEFF 		bl	_mmcsd_get_slice
 590              	.LVL70:
 591              		.loc 1 218 0
 592 0042 7E22     		movs	r2, #126
 593              		.loc 1 217 0
 594 0044 84F82400 		strb	r0, [r4, #36]
 595              		.loc 1 218 0
 596 0048 7F21     		movs	r1, #127
 597 004a 2846     		mov	r0, r5
 598 004c FFF7FEFF 		bl	_mmcsd_get_slice
 599              	.LVL71:
 600              		.loc 1 219 0
 601 0050 4C22     		movs	r2, #76
 602              		.loc 1 218 0
 603 0052 2070     		strb	r0, [r4]
 604              		.loc 1 219 0
 605 0054 2846     		mov	r0, r5
 606 0056 1146     		mov	r1, r2
 607 0058 FFF7FEFF 		bl	_mmcsd_get_slice
 608              	.LVL72:
 609              		.loc 1 220 0
 610 005c 0822     		movs	r2, #8
 611              		.loc 1 219 0
 612 005e 2073     		strb	r0, [r4, #12]
 613              		.loc 1 220 0
 614 0060 0921     		movs	r1, #9
 615 0062 2846     		mov	r0, r5
 616 0064 FFF7FEFF 		bl	_mmcsd_get_slice
 617              	.LVL73:
 618              		.loc 1 221 0
 619 0068 2522     		movs	r2, #37
 620              		.loc 1 220 0
 621 006a 84F82300 		strb	r0, [r4, #35]
 622              		.loc 1 221 0
 623 006e 2921     		movs	r1, #41
 624 0070 2846     		mov	r0, r5
 625 0072 FFF7FEFF 		bl	_mmcsd_get_slice
 626              	.LVL74:
 627              		.loc 1 222 0
ARM GAS  /tmp/ccGTgB3o.s 			page 12


 628 0076 2A22     		movs	r2, #42
 629              		.loc 1 221 0
 630 0078 A075     		strb	r0, [r4, #22]
 631              		.loc 1 222 0
 632 007a 2E21     		movs	r1, #46
 633 007c 2846     		mov	r0, r5
 634 007e FFF7FEFF 		bl	_mmcsd_get_slice
 635              	.LVL75:
 636              		.loc 1 223 0
 637 0082 0A22     		movs	r2, #10
 638              		.loc 1 222 0
 639 0084 6075     		strb	r0, [r4, #21]
 640              		.loc 1 223 0
 641 0086 0B21     		movs	r1, #11
 642 0088 2846     		mov	r0, r5
 643 008a FFF7FEFF 		bl	_mmcsd_get_slice
 644              	.LVL76:
 645              		.loc 1 224 0
 646 008e 0F22     		movs	r2, #15
 647              		.loc 1 223 0
 648 0090 84F82200 		strb	r0, [r4, #34]
 649              		.loc 1 224 0
 650 0094 2846     		mov	r0, r5
 651 0096 1146     		mov	r1, r2
 652 0098 FFF7FEFF 		bl	_mmcsd_get_slice
 653              	.LVL77:
 654              		.loc 1 225 0
 655 009c 6822     		movs	r2, #104
 656              		.loc 1 224 0
 657 009e A077     		strb	r0, [r4, #30]
 658              		.loc 1 225 0
 659 00a0 6F21     		movs	r1, #111
 660 00a2 2846     		mov	r0, r5
 661 00a4 FFF7FEFF 		bl	_mmcsd_get_slice
 662              	.LVL78:
 663              		.loc 1 226 0
 664 00a8 0D22     		movs	r2, #13
 665              		.loc 1 225 0
 666 00aa E070     		strb	r0, [r4, #3]
 667              		.loc 1 226 0
 668 00ac 2846     		mov	r0, r5
 669 00ae 1146     		mov	r1, r2
 670 00b0 FFF7FEFF 		bl	_mmcsd_get_slice
 671              	.LVL79:
 672              		.loc 1 227 0
 673 00b4 1A22     		movs	r2, #26
 674              		.loc 1 226 0
 675 00b6 84F82000 		strb	r0, [r4, #32]
 676              		.loc 1 227 0
 677 00ba 1C21     		movs	r1, #28
 678 00bc 2846     		mov	r0, r5
 679 00be FFF7FEFF 		bl	_mmcsd_get_slice
 680              	.LVL80:
 681              		.loc 1 228 0
 682 00c2 5022     		movs	r2, #80
 683              		.loc 1 227 0
 684 00c4 A076     		strb	r0, [r4, #26]
ARM GAS  /tmp/ccGTgB3o.s 			page 13


 685              		.loc 1 228 0
 686 00c6 5321     		movs	r1, #83
 687 00c8 2846     		mov	r0, r5
 688 00ca FFF7FEFF 		bl	_mmcsd_get_slice
 689              	.LVL81:
 690              		.loc 1 229 0
 691 00ce 4F22     		movs	r2, #79
 692              		.loc 1 228 0
 693 00d0 2072     		strb	r0, [r4, #8]
 694              		.loc 1 229 0
 695 00d2 2846     		mov	r0, r5
 696 00d4 1146     		mov	r1, r2
 697 00d6 FFF7FEFF 		bl	_mmcsd_get_slice
 698              	.LVL82:
 699              		.loc 1 230 0
 700 00da 4D22     		movs	r2, #77
 701              		.loc 1 229 0
 702 00dc 6072     		strb	r0, [r4, #9]
 703              		.loc 1 230 0
 704 00de 2846     		mov	r0, r5
 705 00e0 1146     		mov	r1, r2
 706 00e2 FFF7FEFF 		bl	_mmcsd_get_slice
 707              	.LVL83:
 708              		.loc 1 231 0
 709 00e6 7A22     		movs	r2, #122
 710              		.loc 1 230 0
 711 00e8 E072     		strb	r0, [r4, #11]
 712              		.loc 1 231 0
 713 00ea 7D21     		movs	r1, #125
 714 00ec 2846     		mov	r0, r5
 715 00ee FFF7FEFF 		bl	_mmcsd_get_slice
 716              	.LVL84:
 717              		.loc 1 232 0
 718 00f2 7022     		movs	r2, #112
 719              		.loc 1 231 0
 720 00f4 6070     		strb	r0, [r4, #1]
 721              		.loc 1 232 0
 722 00f6 7721     		movs	r1, #119
 723 00f8 2846     		mov	r0, r5
 724 00fa FFF7FEFF 		bl	_mmcsd_get_slice
 725              	.LVL85:
 726              		.loc 1 233 0
 727 00fe 0C22     		movs	r2, #12
 728              		.loc 1 232 0
 729 0100 A070     		strb	r0, [r4, #2]
 730              		.loc 1 233 0
 731 0102 2846     		mov	r0, r5
 732 0104 1146     		mov	r1, r2
 733 0106 FFF7FEFF 		bl	_mmcsd_get_slice
 734              	.LVL86:
 735              		.loc 1 234 0
 736 010a 6022     		movs	r2, #96
 737              		.loc 1 233 0
 738 010c 84F82100 		strb	r0, [r4, #33]
 739              		.loc 1 234 0
 740 0110 6721     		movs	r1, #103
 741 0112 2846     		mov	r0, r5
ARM GAS  /tmp/ccGTgB3o.s 			page 14


 742 0114 FFF7FEFF 		bl	_mmcsd_get_slice
 743              	.LVL87:
 744              		.loc 1 235 0
 745 0118 3822     		movs	r2, #56
 746              		.loc 1 234 0
 747 011a 2071     		strb	r0, [r4, #4]
 748              		.loc 1 235 0
 749 011c 3A21     		movs	r1, #58
 750 011e 2846     		mov	r0, r5
 751 0120 FFF7FEFF 		bl	_mmcsd_get_slice
 752              	.LVL88:
 753              		.loc 1 236 0
 754 0124 3B22     		movs	r2, #59
 755              		.loc 1 235 0
 756 0126 6074     		strb	r0, [r4, #17]
 757              		.loc 1 236 0
 758 0128 3D21     		movs	r1, #61
 759 012a 2846     		mov	r0, r5
 760 012c FFF7FEFF 		bl	_mmcsd_get_slice
 761              	.LVL89:
 762              		.loc 1 237 0
 763 0130 3222     		movs	r2, #50
 764              		.loc 1 236 0
 765 0132 2074     		strb	r0, [r4, #16]
 766              		.loc 1 237 0
 767 0134 3421     		movs	r1, #52
 768 0136 2846     		mov	r0, r5
 769 0138 FFF7FEFF 		bl	_mmcsd_get_slice
 770              	.LVL90:
 771              		.loc 1 238 0
 772 013c 3522     		movs	r2, #53
 773              		.loc 1 237 0
 774 013e E074     		strb	r0, [r4, #19]
 775              		.loc 1 238 0
 776 0140 3721     		movs	r1, #55
 777 0142 2846     		mov	r0, r5
 778 0144 FFF7FEFF 		bl	_mmcsd_get_slice
 779              	.LVL91:
 780              		.loc 1 239 0
 781 0148 1F22     		movs	r2, #31
 782              		.loc 1 238 0
 783 014a A074     		strb	r0, [r4, #18]
 784              		.loc 1 239 0
 785 014c 2846     		mov	r0, r5
 786 014e 1146     		mov	r1, r2
 787 0150 FFF7FEFF 		bl	_mmcsd_get_slice
 788              	.LVL92:
 789              		.loc 1 240 0
 790 0154 2022     		movs	r2, #32
 791              		.loc 1 239 0
 792 0156 2076     		strb	r0, [r4, #24]
 793              		.loc 1 240 0
 794 0158 2421     		movs	r1, #36
 795 015a 2846     		mov	r0, r5
 796 015c FFF7FEFF 		bl	_mmcsd_get_slice
 797              	.LVL93:
 798              		.loc 1 241 0
ARM GAS  /tmp/ccGTgB3o.s 			page 15


 799 0160 1622     		movs	r2, #22
 800              		.loc 1 240 0
 801 0162 E075     		strb	r0, [r4, #23]
 802              		.loc 1 241 0
 803 0164 1921     		movs	r1, #25
 804 0166 2846     		mov	r0, r5
 805 0168 FFF7FEFF 		bl	_mmcsd_get_slice
 806              	.LVL94:
 807              		.loc 1 242 0
 808 016c 1522     		movs	r2, #21
 809              		.loc 1 241 0
 810 016e E076     		strb	r0, [r4, #27]
 811              		.loc 1 242 0
 812 0170 2846     		mov	r0, r5
 813 0172 1146     		mov	r1, r2
 814 0174 FFF7FEFF 		bl	_mmcsd_get_slice
 815              	.LVL95:
 816              		.loc 1 243 0
 817 0178 4E22     		movs	r2, #78
 818              		.loc 1 242 0
 819 017a 2077     		strb	r0, [r4, #28]
 820              		.loc 1 243 0
 821 017c 2846     		mov	r0, r5
 822 017e 1146     		mov	r1, r2
 823 0180 FFF7FEFF 		bl	_mmcsd_get_slice
 824              	.LVL96:
 825 0184 A072     		strb	r0, [r4, #10]
 826 0186 38BD     		pop	{r3, r4, r5, pc}
 827              		.cfi_endproc
 828              	.LFE339:
 829              		.size	_mmcsd_unpack_csd_mmc, .-_mmcsd_unpack_csd_mmc
 830              		.section	.text._mmcsd_unpack_csd_v10,"ax",%progbits
 831              		.align	1
 832              		.global	_mmcsd_unpack_csd_v10
 833              		.syntax unified
 834              		.thumb
 835              		.thumb_func
 836              		.fpu fpv4-sp-d16
 837              		.type	_mmcsd_unpack_csd_v10, %function
 838              	_mmcsd_unpack_csd_v10:
 839              	.LFB340:
 840              		.loc 1 255 0
 841              		.cfi_startproc
 842              		@ args = 0, pretend = 0, frame = 0
 843              		@ frame_needed = 0, uses_anonymous_args = 0
 844              	.LVL97:
 845 0000 38B5     		push	{r3, r4, r5, lr}
 846              		.cfi_def_cfa_offset 16
 847              		.cfi_offset 3, -16
 848              		.cfi_offset 4, -12
 849              		.cfi_offset 5, -8
 850              		.cfi_offset 14, -4
 851              		.loc 1 260 0
 852 0002 00F11805 		add	r5, r0, #24
 853              	.LVL98:
 854              		.loc 1 255 0
 855 0006 0C46     		mov	r4, r1
ARM GAS  /tmp/ccGTgB3o.s 			page 16


 856              		.loc 1 261 0
 857 0008 3E22     		movs	r2, #62
 858 000a 4921     		movs	r1, #73
 859              	.LVL99:
 860 000c 2846     		mov	r0, r5
 861              	.LVL100:
 862 000e FFF7FEFF 		bl	_mmcsd_get_slice
 863              	.LVL101:
 864              		.loc 1 262 0
 865 0012 2F22     		movs	r2, #47
 866              		.loc 1 261 0
 867 0014 A081     		strh	r0, [r4, #12]	@ movhi
 868              		.loc 1 262 0
 869 0016 3121     		movs	r1, #49
 870 0018 2846     		mov	r0, r5
 871 001a FFF7FEFF 		bl	_mmcsd_get_slice
 872              	.LVL102:
 873              		.loc 1 263 0
 874 001e 5422     		movs	r2, #84
 875              		.loc 1 262 0
 876 0020 A074     		strb	r0, [r4, #18]
 877              		.loc 1 263 0
 878 0022 5F21     		movs	r1, #95
 879 0024 2846     		mov	r0, r5
 880 0026 FFF7FEFF 		bl	_mmcsd_get_slice
 881              	.LVL103:
 882              		.loc 1 264 0
 883 002a 0E22     		movs	r2, #14
 884              		.loc 1 263 0
 885 002c A080     		strh	r0, [r4, #4]	@ movhi
 886              		.loc 1 264 0
 887 002e 2846     		mov	r0, r5
 888 0030 1146     		mov	r1, r2
 889 0032 FFF7FEFF 		bl	_mmcsd_get_slice
 890              	.LVL104:
 891              		.loc 1 265 0
 892 0036 0122     		movs	r2, #1
 893              		.loc 1 264 0
 894 0038 E076     		strb	r0, [r4, #27]
 895              		.loc 1 265 0
 896 003a 0721     		movs	r1, #7
 897 003c 2846     		mov	r0, r5
 898 003e FFF7FEFF 		bl	_mmcsd_get_slice
 899              	.LVL105:
 900              		.loc 1 266 0
 901 0042 7E22     		movs	r2, #126
 902              		.loc 1 265 0
 903 0044 E077     		strb	r0, [r4, #31]
 904              		.loc 1 266 0
 905 0046 7F21     		movs	r1, #127
 906 0048 2846     		mov	r0, r5
 907 004a FFF7FEFF 		bl	_mmcsd_get_slice
 908              	.LVL106:
 909              		.loc 1 267 0
 910 004e 4C22     		movs	r2, #76
 911              		.loc 1 266 0
 912 0050 2070     		strb	r0, [r4]
ARM GAS  /tmp/ccGTgB3o.s 			page 17


 913              		.loc 1 267 0
 914 0052 2846     		mov	r0, r5
 915 0054 1146     		mov	r1, r2
 916 0056 FFF7FEFF 		bl	_mmcsd_get_slice
 917              	.LVL107:
 918              		.loc 1 268 0
 919 005a 2E22     		movs	r2, #46
 920              		.loc 1 267 0
 921 005c A072     		strb	r0, [r4, #10]
 922              		.loc 1 268 0
 923 005e 2846     		mov	r0, r5
 924 0060 1146     		mov	r1, r2
 925 0062 FFF7FEFF 		bl	_mmcsd_get_slice
 926              	.LVL108:
 927              		.loc 1 269 0
 928 0066 2722     		movs	r2, #39
 929              		.loc 1 268 0
 930 0068 E074     		strb	r0, [r4, #19]
 931              		.loc 1 269 0
 932 006a 2D21     		movs	r1, #45
 933 006c 2846     		mov	r0, r5
 934 006e FFF7FEFF 		bl	_mmcsd_get_slice
 935              	.LVL109:
 936              		.loc 1 270 0
 937 0072 0A22     		movs	r2, #10
 938              		.loc 1 269 0
 939 0074 2075     		strb	r0, [r4, #20]
 940              		.loc 1 270 0
 941 0076 0B21     		movs	r1, #11
 942 0078 2846     		mov	r0, r5
 943 007a FFF7FEFF 		bl	_mmcsd_get_slice
 944              	.LVL110:
 945              		.loc 1 271 0
 946 007e 0F22     		movs	r2, #15
 947              		.loc 1 270 0
 948 0080 A077     		strb	r0, [r4, #30]
 949              		.loc 1 271 0
 950 0082 2846     		mov	r0, r5
 951 0084 1146     		mov	r1, r2
 952 0086 FFF7FEFF 		bl	_mmcsd_get_slice
 953              	.LVL111:
 954              		.loc 1 272 0
 955 008a 6822     		movs	r2, #104
 956              		.loc 1 271 0
 957 008c A076     		strb	r0, [r4, #26]
 958              		.loc 1 272 0
 959 008e 6F21     		movs	r1, #111
 960 0090 2846     		mov	r0, r5
 961 0092 FFF7FEFF 		bl	_mmcsd_get_slice
 962              	.LVL112:
 963              		.loc 1 273 0
 964 0096 0D22     		movs	r2, #13
 965              		.loc 1 272 0
 966 0098 A070     		strb	r0, [r4, #2]
 967              		.loc 1 273 0
 968 009a 2846     		mov	r0, r5
 969 009c 1146     		mov	r1, r2
ARM GAS  /tmp/ccGTgB3o.s 			page 18


 970 009e FFF7FEFF 		bl	_mmcsd_get_slice
 971              	.LVL113:
 972              		.loc 1 274 0
 973 00a2 1A22     		movs	r2, #26
 974              		.loc 1 273 0
 975 00a4 2077     		strb	r0, [r4, #28]
 976              		.loc 1 274 0
 977 00a6 1C21     		movs	r1, #28
 978 00a8 2846     		mov	r0, r5
 979 00aa FFF7FEFF 		bl	_mmcsd_get_slice
 980              	.LVL114:
 981              		.loc 1 275 0
 982 00ae 5022     		movs	r2, #80
 983              		.loc 1 274 0
 984 00b0 E075     		strb	r0, [r4, #23]
 985              		.loc 1 275 0
 986 00b2 5321     		movs	r1, #83
 987 00b4 2846     		mov	r0, r5
 988 00b6 FFF7FEFF 		bl	_mmcsd_get_slice
 989              	.LVL115:
 990              		.loc 1 276 0
 991 00ba 4F22     		movs	r2, #79
 992              		.loc 1 275 0
 993 00bc A071     		strb	r0, [r4, #6]
 994              		.loc 1 276 0
 995 00be 2846     		mov	r0, r5
 996 00c0 1146     		mov	r1, r2
 997 00c2 FFF7FEFF 		bl	_mmcsd_get_slice
 998              	.LVL116:
 999              		.loc 1 277 0
 1000 00c6 4D22     		movs	r2, #77
 1001              		.loc 1 276 0
 1002 00c8 E071     		strb	r0, [r4, #7]
 1003              		.loc 1 277 0
 1004 00ca 2846     		mov	r0, r5
 1005 00cc 1146     		mov	r1, r2
 1006 00ce FFF7FEFF 		bl	_mmcsd_get_slice
 1007              	.LVL117:
 1008              		.loc 1 278 0
 1009 00d2 7022     		movs	r2, #112
 1010              		.loc 1 277 0
 1011 00d4 6072     		strb	r0, [r4, #9]
 1012              		.loc 1 278 0
 1013 00d6 7721     		movs	r1, #119
 1014 00d8 2846     		mov	r0, r5
 1015 00da FFF7FEFF 		bl	_mmcsd_get_slice
 1016              	.LVL118:
 1017              		.loc 1 279 0
 1018 00de 0C22     		movs	r2, #12
 1019              		.loc 1 278 0
 1020 00e0 6070     		strb	r0, [r4, #1]
 1021              		.loc 1 279 0
 1022 00e2 2846     		mov	r0, r5
 1023 00e4 1146     		mov	r1, r2
 1024 00e6 FFF7FEFF 		bl	_mmcsd_get_slice
 1025              	.LVL119:
 1026              		.loc 1 280 0
ARM GAS  /tmp/ccGTgB3o.s 			page 19


 1027 00ea 6022     		movs	r2, #96
 1028              		.loc 1 279 0
 1029 00ec 6077     		strb	r0, [r4, #29]
 1030              		.loc 1 280 0
 1031 00ee 6721     		movs	r1, #103
 1032 00f0 2846     		mov	r0, r5
 1033 00f2 FFF7FEFF 		bl	_mmcsd_get_slice
 1034              	.LVL120:
 1035              		.loc 1 281 0
 1036 00f6 1F22     		movs	r2, #31
 1037              		.loc 1 280 0
 1038 00f8 E070     		strb	r0, [r4, #3]
 1039              		.loc 1 281 0
 1040 00fa 2846     		mov	r0, r5
 1041 00fc 1146     		mov	r1, r2
 1042 00fe FFF7FEFF 		bl	_mmcsd_get_slice
 1043              	.LVL121:
 1044              		.loc 1 282 0
 1045 0102 2022     		movs	r2, #32
 1046              		.loc 1 281 0
 1047 0104 A075     		strb	r0, [r4, #22]
 1048              		.loc 1 282 0
 1049 0106 2621     		movs	r1, #38
 1050 0108 2846     		mov	r0, r5
 1051 010a FFF7FEFF 		bl	_mmcsd_get_slice
 1052              	.LVL122:
 1053              		.loc 1 283 0
 1054 010e 0C22     		movs	r2, #12
 1055              		.loc 1 282 0
 1056 0110 6075     		strb	r0, [r4, #21]
 1057              		.loc 1 283 0
 1058 0112 1921     		movs	r1, #25
 1059 0114 2846     		mov	r0, r5
 1060 0116 FFF7FEFF 		bl	_mmcsd_get_slice
 1061              	.LVL123:
 1062              		.loc 1 284 0
 1063 011a 1522     		movs	r2, #21
 1064              		.loc 1 283 0
 1065 011c 2076     		strb	r0, [r4, #24]
 1066              		.loc 1 284 0
 1067 011e 2846     		mov	r0, r5
 1068 0120 1146     		mov	r1, r2
 1069 0122 FFF7FEFF 		bl	_mmcsd_get_slice
 1070              	.LVL124:
 1071              		.loc 1 285 0
 1072 0126 4E22     		movs	r2, #78
 1073              		.loc 1 284 0
 1074 0128 6076     		strb	r0, [r4, #25]
 1075              		.loc 1 285 0
 1076 012a 2846     		mov	r0, r5
 1077 012c 1146     		mov	r1, r2
 1078 012e FFF7FEFF 		bl	_mmcsd_get_slice
 1079              	.LVL125:
 1080 0132 2072     		strb	r0, [r4, #8]
 1081 0134 38BD     		pop	{r3, r4, r5, pc}
 1082              		.cfi_endproc
 1083              	.LFE340:
ARM GAS  /tmp/ccGTgB3o.s 			page 20


 1084              		.size	_mmcsd_unpack_csd_v10, .-_mmcsd_unpack_csd_v10
 1085              		.section	.text._mmcsd_unpack_csd_v20,"ax",%progbits
 1086              		.align	1
 1087              		.global	_mmcsd_unpack_csd_v20
 1088              		.syntax unified
 1089              		.thumb
 1090              		.thumb_func
 1091              		.fpu fpv4-sp-d16
 1092              		.type	_mmcsd_unpack_csd_v20, %function
 1093              	_mmcsd_unpack_csd_v20:
 1094              	.LFB341:
 1095              		.loc 1 297 0
 1096              		.cfi_startproc
 1097              		@ args = 0, pretend = 0, frame = 0
 1098              		@ frame_needed = 0, uses_anonymous_args = 0
 1099              	.LVL126:
 1100 0000 38B5     		push	{r3, r4, r5, lr}
 1101              		.cfi_def_cfa_offset 16
 1102              		.cfi_offset 3, -16
 1103              		.cfi_offset 4, -12
 1104              		.cfi_offset 5, -8
 1105              		.cfi_offset 14, -4
 1106              		.loc 1 302 0
 1107 0002 00F11805 		add	r5, r0, #24
 1108              	.LVL127:
 1109              		.loc 1 297 0
 1110 0006 0C46     		mov	r4, r1
 1111              		.loc 1 303 0
 1112 0008 3022     		movs	r2, #48
 1113 000a 4521     		movs	r1, #69
 1114              	.LVL128:
 1115 000c 2846     		mov	r0, r5
 1116              	.LVL129:
 1117 000e FFF7FEFF 		bl	_mmcsd_get_slice
 1118              	.LVL130:
 1119              		.loc 1 304 0
 1120 0012 0122     		movs	r2, #1
 1121              		.loc 1 303 0
 1122 0014 E060     		str	r0, [r4, #12]
 1123              		.loc 1 304 0
 1124 0016 0721     		movs	r1, #7
 1125 0018 2846     		mov	r0, r5
 1126 001a FFF7FEFF 		bl	_mmcsd_get_slice
 1127              	.LVL131:
 1128              		.loc 1 305 0
 1129 001e 5422     		movs	r2, #84
 1130              		.loc 1 304 0
 1131 0020 2077     		strb	r0, [r4, #28]
 1132              		.loc 1 305 0
 1133 0022 5F21     		movs	r1, #95
 1134 0024 2846     		mov	r0, r5
 1135 0026 FFF7FEFF 		bl	_mmcsd_get_slice
 1136              	.LVL132:
 1137              		.loc 1 306 0
 1138 002a 0E22     		movs	r2, #14
 1139              		.loc 1 305 0
 1140 002c A080     		strh	r0, [r4, #4]	@ movhi
ARM GAS  /tmp/ccGTgB3o.s 			page 21


 1141              		.loc 1 306 0
 1142 002e 2846     		mov	r0, r5
 1143 0030 1146     		mov	r1, r2
 1144 0032 FFF7FEFF 		bl	_mmcsd_get_slice
 1145              	.LVL133:
 1146              		.loc 1 307 0
 1147 0036 7E22     		movs	r2, #126
 1148              		.loc 1 306 0
 1149 0038 2076     		strb	r0, [r4, #24]
 1150              		.loc 1 307 0
 1151 003a 7F21     		movs	r1, #127
 1152 003c 2846     		mov	r0, r5
 1153 003e FFF7FEFF 		bl	_mmcsd_get_slice
 1154              	.LVL134:
 1155              		.loc 1 308 0
 1156 0042 4C22     		movs	r2, #76
 1157              		.loc 1 307 0
 1158 0044 2070     		strb	r0, [r4]
 1159              		.loc 1 308 0
 1160 0046 2846     		mov	r0, r5
 1161 0048 1146     		mov	r1, r2
 1162 004a FFF7FEFF 		bl	_mmcsd_get_slice
 1163              	.LVL135:
 1164              		.loc 1 309 0
 1165 004e 2E22     		movs	r2, #46
 1166              		.loc 1 308 0
 1167 0050 A072     		strb	r0, [r4, #10]
 1168              		.loc 1 309 0
 1169 0052 2846     		mov	r0, r5
 1170 0054 1146     		mov	r1, r2
 1171 0056 FFF7FEFF 		bl	_mmcsd_get_slice
 1172              	.LVL136:
 1173              		.loc 1 310 0
 1174 005a 0A22     		movs	r2, #10
 1175              		.loc 1 309 0
 1176 005c 2074     		strb	r0, [r4, #16]
 1177              		.loc 1 310 0
 1178 005e 0B21     		movs	r1, #11
 1179 0060 2846     		mov	r0, r5
 1180 0062 FFF7FEFF 		bl	_mmcsd_get_slice
 1181              	.LVL137:
 1182              		.loc 1 311 0
 1183 0066 0F22     		movs	r2, #15
 1184              		.loc 1 310 0
 1185 0068 E076     		strb	r0, [r4, #27]
 1186              		.loc 1 311 0
 1187 006a 2846     		mov	r0, r5
 1188 006c 1146     		mov	r1, r2
 1189 006e FFF7FEFF 		bl	_mmcsd_get_slice
 1190              	.LVL138:
 1191              		.loc 1 312 0
 1192 0072 6822     		movs	r2, #104
 1193              		.loc 1 311 0
 1194 0074 E075     		strb	r0, [r4, #23]
 1195              		.loc 1 312 0
 1196 0076 6F21     		movs	r1, #111
 1197 0078 2846     		mov	r0, r5
ARM GAS  /tmp/ccGTgB3o.s 			page 22


 1198 007a FFF7FEFF 		bl	_mmcsd_get_slice
 1199              	.LVL139:
 1200              		.loc 1 313 0
 1201 007e 0D22     		movs	r2, #13
 1202              		.loc 1 312 0
 1203 0080 A070     		strb	r0, [r4, #2]
 1204              		.loc 1 313 0
 1205 0082 2846     		mov	r0, r5
 1206 0084 1146     		mov	r1, r2
 1207 0086 FFF7FEFF 		bl	_mmcsd_get_slice
 1208              	.LVL140:
 1209              		.loc 1 314 0
 1210 008a 1A22     		movs	r2, #26
 1211              		.loc 1 313 0
 1212 008c 6076     		strb	r0, [r4, #25]
 1213              		.loc 1 314 0
 1214 008e 1C21     		movs	r1, #28
 1215 0090 2846     		mov	r0, r5
 1216 0092 FFF7FEFF 		bl	_mmcsd_get_slice
 1217              	.LVL141:
 1218              		.loc 1 315 0
 1219 0096 5022     		movs	r2, #80
 1220              		.loc 1 314 0
 1221 0098 2075     		strb	r0, [r4, #20]
 1222              		.loc 1 315 0
 1223 009a 5321     		movs	r1, #83
 1224 009c 2846     		mov	r0, r5
 1225 009e FFF7FEFF 		bl	_mmcsd_get_slice
 1226              	.LVL142:
 1227              		.loc 1 316 0
 1228 00a2 4F22     		movs	r2, #79
 1229              		.loc 1 315 0
 1230 00a4 A071     		strb	r0, [r4, #6]
 1231              		.loc 1 316 0
 1232 00a6 2846     		mov	r0, r5
 1233 00a8 1146     		mov	r1, r2
 1234 00aa FFF7FEFF 		bl	_mmcsd_get_slice
 1235              	.LVL143:
 1236              		.loc 1 317 0
 1237 00ae 4D22     		movs	r2, #77
 1238              		.loc 1 316 0
 1239 00b0 E071     		strb	r0, [r4, #7]
 1240              		.loc 1 317 0
 1241 00b2 2846     		mov	r0, r5
 1242 00b4 1146     		mov	r1, r2
 1243 00b6 FFF7FEFF 		bl	_mmcsd_get_slice
 1244              	.LVL144:
 1245              		.loc 1 318 0
 1246 00ba 2722     		movs	r2, #39
 1247              		.loc 1 317 0
 1248 00bc 6072     		strb	r0, [r4, #9]
 1249              		.loc 1 318 0
 1250 00be 2D21     		movs	r1, #45
 1251 00c0 2846     		mov	r0, r5
 1252 00c2 FFF7FEFF 		bl	_mmcsd_get_slice
 1253              	.LVL145:
 1254              		.loc 1 319 0
ARM GAS  /tmp/ccGTgB3o.s 			page 23


 1255 00c6 7022     		movs	r2, #112
 1256              		.loc 1 318 0
 1257 00c8 6074     		strb	r0, [r4, #17]
 1258              		.loc 1 319 0
 1259 00ca 7721     		movs	r1, #119
 1260 00cc 2846     		mov	r0, r5
 1261 00ce FFF7FEFF 		bl	_mmcsd_get_slice
 1262              	.LVL146:
 1263              		.loc 1 320 0
 1264 00d2 0C22     		movs	r2, #12
 1265              		.loc 1 319 0
 1266 00d4 6070     		strb	r0, [r4, #1]
 1267              		.loc 1 320 0
 1268 00d6 2846     		mov	r0, r5
 1269 00d8 1146     		mov	r1, r2
 1270 00da FFF7FEFF 		bl	_mmcsd_get_slice
 1271              	.LVL147:
 1272              		.loc 1 321 0
 1273 00de 6022     		movs	r2, #96
 1274              		.loc 1 320 0
 1275 00e0 A076     		strb	r0, [r4, #26]
 1276              		.loc 1 321 0
 1277 00e2 6721     		movs	r1, #103
 1278 00e4 2846     		mov	r0, r5
 1279 00e6 FFF7FEFF 		bl	_mmcsd_get_slice
 1280              	.LVL148:
 1281              		.loc 1 322 0
 1282 00ea 1F22     		movs	r2, #31
 1283              		.loc 1 321 0
 1284 00ec E070     		strb	r0, [r4, #3]
 1285              		.loc 1 322 0
 1286 00ee 2846     		mov	r0, r5
 1287 00f0 1146     		mov	r1, r2
 1288 00f2 FFF7FEFF 		bl	_mmcsd_get_slice
 1289              	.LVL149:
 1290              		.loc 1 323 0
 1291 00f6 2022     		movs	r2, #32
 1292              		.loc 1 322 0
 1293 00f8 E074     		strb	r0, [r4, #19]
 1294              		.loc 1 323 0
 1295 00fa 2621     		movs	r1, #38
 1296 00fc 2846     		mov	r0, r5
 1297 00fe FFF7FEFF 		bl	_mmcsd_get_slice
 1298              	.LVL150:
 1299              		.loc 1 324 0
 1300 0102 0C22     		movs	r2, #12
 1301              		.loc 1 323 0
 1302 0104 A074     		strb	r0, [r4, #18]
 1303              		.loc 1 324 0
 1304 0106 1921     		movs	r1, #25
 1305 0108 2846     		mov	r0, r5
 1306 010a FFF7FEFF 		bl	_mmcsd_get_slice
 1307              	.LVL151:
 1308              		.loc 1 325 0
 1309 010e 1522     		movs	r2, #21
 1310              		.loc 1 324 0
 1311 0110 6075     		strb	r0, [r4, #21]
ARM GAS  /tmp/ccGTgB3o.s 			page 24


 1312              		.loc 1 325 0
 1313 0112 2846     		mov	r0, r5
 1314 0114 1146     		mov	r1, r2
 1315 0116 FFF7FEFF 		bl	_mmcsd_get_slice
 1316              	.LVL152:
 1317              		.loc 1 326 0
 1318 011a 4E22     		movs	r2, #78
 1319              		.loc 1 325 0
 1320 011c A075     		strb	r0, [r4, #22]
 1321              		.loc 1 326 0
 1322 011e 2846     		mov	r0, r5
 1323 0120 1146     		mov	r1, r2
 1324 0122 FFF7FEFF 		bl	_mmcsd_get_slice
 1325              	.LVL153:
 1326 0126 2072     		strb	r0, [r4, #8]
 1327 0128 38BD     		pop	{r3, r4, r5, pc}
 1328              		.cfi_endproc
 1329              	.LFE341:
 1330              		.size	_mmcsd_unpack_csd_v20, .-_mmcsd_unpack_csd_v20
 1331              		.text
 1332              	.Letext0:
 1333              		.file 2 "/opt/gcc-arm-none-eabi-6-2017-q2-update/lib/gcc/arm-none-eabi/6.3.1/include/stddef.h"
 1334              		.file 3 "/opt/gcc-arm-none-eabi-6-2017-q2-update/arm-none-eabi/include/machine/_default_types.h"
 1335              		.file 4 "/opt/gcc-arm-none-eabi-6-2017-q2-update/arm-none-eabi/include/sys/_stdint.h"
 1336              		.file 5 "/opt/gcc-arm-none-eabi-6-2017-q2-update/arm-none-eabi/include/stdint.h"
 1337              		.file 6 "../../modules/ChibiOS/os/common/ports/ARMCMx/compilers/GCC/chtypes.h"
 1338              		.file 7 "../../modules/ChibiOS/os/rt/include/chsystypes.h"
 1339              		.file 8 "../../modules/ChibiOS/os/rt/include/chschd.h"
 1340              		.file 9 "../../modules/ChibiOS/os/rt/include/chtime.h"
 1341              		.file 10 "../../modules/ChibiOS/os/common/ext/ARM/CMSIS/Core/Include/core_cm7.h"
 1342              		.file 11 "../../modules/ChibiOS/os/common/ext/ST/STM32F7xx/system_stm32f7xx.h"
 1343              		.file 12 "../../modules/ChibiOS/os/common/ext/ST/STM32F7xx/stm32f767xx.h"
 1344              		.file 13 "../../modules/ChibiOS/os/common/ports/ARMCMx/chcore.h"
 1345              		.file 14 "../../modules/ChibiOS/os/common/ports/ARMCMx/chcore_v7m.h"
 1346              		.file 15 "../../modules/ChibiOS/os/hal/ports/STM32/LLD/TIMv1/stm32_tim.h"
 1347              		.file 16 "../../modules/ChibiOS/os/rt/include/chtm.h"
 1348              		.file 17 "../../modules/ChibiOS/os/rt/include/chstats.h"
 1349              		.file 18 "../../modules/ChibiOS/os/rt/include/chsem.h"
 1350              		.file 19 "../../modules/ChibiOS/os/rt/include/chmtx.h"
 1351              		.file 20 "../../modules/ChibiOS/os/rt/include/chsys.h"
 1352              		.file 21 "../../modules/ChibiOS/os/rt/include/chregistry.h"
 1353              		.file 22 "../../modules/ChibiOS/os/rt/include/chevents.h"
 1354              		.file 23 "../../modules/ChibiOS/os/oslib/include/chmemcore.h"
 1355              		.file 24 "../../modules/ChibiOS/os/oslib/include/chmempools.h"
 1356              		.file 25 "../../modules/ChibiOS/os/oslib/include/chfactory.h"
 1357              		.file 26 "../../modules/ChibiOS/os/hal/ports/STM32/LLD/DMAv2/stm32_dma.h"
 1358              		.file 27 "../../modules/ChibiOS/os/hal/include/hal_ioblock.h"
 1359              		.file 28 "../../modules/ChibiOS/os/hal/include/hal_mmcsd.h"
 1360              		.file 29 "../../modules/ChibiOS/os/hal/include/hal_queues.h"
 1361              		.file 30 "../../modules/ChibiOS/os/hal/include/hal_pal.h"
 1362              		.file 31 "../../modules/ChibiOS/os/hal/ports/STM32/LLD/GPIOv2/stm32_gpio.h"
 1363              		.file 32 "../../modules/ChibiOS/os/hal/ports/STM32/LLD/GPIOv2/hal_pal_lld.h"
 1364              		.file 33 "../../modules/ChibiOS/os/hal/include/hal_adc.h"
 1365              		.file 34 "../../modules/ChibiOS/os/hal/ports/STM32/LLD/ADCv2/hal_adc_lld.h"
 1366              		.file 35 "../../modules/ChibiOS/os/hal/include/hal_i2c.h"
 1367              		.file 36 "../../modules/ChibiOS/os/hal/ports/STM32/LLD/I2Cv2/hal_i2c_lld.h"
 1368              		.file 37 "../../modules/ChibiOS/os/hal/include/hal_pwm.h"
ARM GAS  /tmp/ccGTgB3o.s 			page 25


 1369              		.file 38 "../../modules/ChibiOS/os/hal/ports/STM32/LLD/TIMv1/hal_pwm_lld.h"
 1370              		.file 39 "../../modules/ChibiOS/os/hal/include/hal_serial.h"
 1371              		.file 40 "../../modules/ChibiOS/os/hal/ports/STM32/LLD/USARTv2/hal_serial_lld.h"
 1372              		.file 41 "../../modules/ChibiOS/os/hal/include/hal_sdc.h"
 1373              		.file 42 "../../modules/ChibiOS/os/hal/ports/STM32/LLD/SDMMCv1/hal_sdc_lld.h"
 1374              		.file 43 "../../modules/ChibiOS/os/hal/include/hal_spi.h"
 1375              		.file 44 "../../modules/ChibiOS/os/hal/ports/STM32/LLD/SPIv2/hal_spi_lld.h"
 1376              		.file 45 "../../modules/ChibiOS/os/hal/include/hal_usb.h"
 1377              		.file 46 "../../modules/ChibiOS/os/hal/ports/STM32/LLD/OTGv1/hal_usb_lld.h"
 1378              		.file 47 "../../modules/ChibiOS/os/hal/ports/STM32/LLD/OTGv1/stm32_otg.h"