ARM GAS  /tmp/ccuFjiNl.s 			page 1


   1              		.cpu cortex-m7
   2              		.eabi_attribute 27, 1
   3              		.eabi_attribute 28, 1
   4              		.eabi_attribute 20, 1
   5              		.eabi_attribute 21, 1
   6              		.eabi_attribute 23, 3
   7              		.eabi_attribute 24, 1
   8              		.eabi_attribute 25, 1
   9              		.eabi_attribute 26, 1
  10              		.eabi_attribute 30, 4
  11              		.eabi_attribute 34, 1
  12              		.eabi_attribute 18, 4
  13              		.file	"hal_spi_lld.c"
  14              		.text
  15              	.Ltext0:
  16              		.cfi_sections	.debug_frame
  17              		.section	.text.spi_lld_serve_tx_interrupt,"ax",%progbits
  18              		.align	1
  19              		.syntax unified
  20              		.thumb
  21              		.thumb_func
  22              		.fpu fpv4-sp-d16
  23              		.type	spi_lld_serve_tx_interrupt, %function
  24              	spi_lld_serve_tx_interrupt:
  25              	.LFB335:
  26              		.file 1 "../../modules/ChibiOS/os/hal/ports/STM32/LLD/SPIv2/hal_spi_lld.c"
  27              		.loc 1 170 0
  28              		.cfi_startproc
  29              		@ args = 0, pretend = 0, frame = 0
  30              		@ frame_needed = 0, uses_anonymous_args = 0
  31              		@ link register save eliminated.
  32              	.LVL0:
  33              		.loc 1 175 0
  34 0000 11F00C0F 		tst	r1, #12
  35 0004 02D0     		beq	.L1
  36              	.LVL1:
  37              	.LBB34:
  38              	.LBB35:
  39              		.file 2 "../../modules/ChibiOS/os/hal/osal/rt/osal.h"
  40              		.loc 2 480 0
  41 0006 0248     		ldr	r0, .L3
  42              	.LVL2:
  43 0008 FFF7FEBF 		b	chSysHalt
  44              	.LVL3:
  45              	.L1:
  46 000c 7047     		bx	lr
  47              	.L4:
  48 000e 00BF     		.align	2
  49              	.L3:
  50 0010 00000000 		.word	.LC0
  51              	.LBE35:
  52              	.LBE34:
  53              		.cfi_endproc
  54              	.LFE335:
  55              		.size	spi_lld_serve_tx_interrupt, .-spi_lld_serve_tx_interrupt
  56              		.section	.text.spi_lld_serve_rx_interrupt,"ax",%progbits
  57              		.align	1
ARM GAS  /tmp/ccuFjiNl.s 			page 2


  58              		.syntax unified
  59              		.thumb
  60              		.thumb_func
  61              		.fpu fpv4-sp-d16
  62              		.type	spi_lld_serve_rx_interrupt, %function
  63              	spi_lld_serve_rx_interrupt:
  64              	.LFB334:
  65              		.loc 1 132 0
  66              		.cfi_startproc
  67              		@ args = 0, pretend = 0, frame = 0
  68              		@ frame_needed = 0, uses_anonymous_args = 0
  69              	.LVL4:
  70              		.loc 1 136 0
  71 0000 11F00C0F 		tst	r1, #12
  72              		.loc 1 132 0
  73 0004 38B5     		push	{r3, r4, r5, lr}
  74              		.cfi_def_cfa_offset 16
  75              		.cfi_offset 3, -16
  76              		.cfi_offset 4, -12
  77              		.cfi_offset 5, -8
  78              		.cfi_offset 14, -4
  79              		.loc 1 132 0
  80 0006 0446     		mov	r4, r0
  81 0008 0D46     		mov	r5, r1
  82              		.loc 1 136 0
  83 000a 02D0     		beq	.L6
  84              	.LVL5:
  85              	.LBB56:
  86              	.LBB57:
  87              		.loc 2 480 0
  88 000c 2948     		ldr	r0, .L33
  89              	.LVL6:
  90 000e FFF7FEFF 		bl	chSysHalt
  91              	.LVL7:
  92              	.L6:
  93              	.LBE57:
  94              	.LBE56:
  95              		.loc 1 143 0
  96 0012 6368     		ldr	r3, [r4, #4]
  97 0014 1A78     		ldrb	r2, [r3]	@ zero_extendqisi2
  98 0016 AAB1     		cbz	r2, .L7
  99              		.loc 1 144 0
 100 0018 EA06     		lsls	r2, r5, #27
 101 001a 03D5     		bpl	.L8
 102              		.loc 1 146 0
 103 001c 5B68     		ldr	r3, [r3, #4]
 104 001e 0BB1     		cbz	r3, .L8
 105              		.loc 1 146 0 is_stmt 0 discriminator 1
 106 0020 2046     		mov	r0, r4
 107 0022 9847     		blx	r3
 108              	.LVL8:
 109              	.L8:
 110              		.loc 1 148 0 is_stmt 1
 111 0024 AB06     		lsls	r3, r5, #26
 112 0026 43D5     		bpl	.L5
 113              		.loc 1 150 0
 114 0028 6368     		ldr	r3, [r4, #4]
ARM GAS  /tmp/ccuFjiNl.s 			page 3


 115 002a 5B68     		ldr	r3, [r3, #4]
 116 002c 002B     		cmp	r3, #0
 117 002e 3FD0     		beq	.L5
 118              		.loc 1 150 0 is_stmt 0 discriminator 1
 119 0030 0422     		movs	r2, #4
 120 0032 2046     		mov	r0, r4
 121 0034 2270     		strb	r2, [r4]
 122 0036 9847     		blx	r3
 123              	.LVL9:
 124 0038 2378     		ldrb	r3, [r4]	@ zero_extendqisi2
 125 003a 042B     		cmp	r3, #4
 126 003c 38D1     		bne	.L5
 127              		.loc 1 150 0 discriminator 2
 128 003e 0323     		movs	r3, #3
 129 0040 2370     		strb	r3, [r4]
 130 0042 38BD     		pop	{r3, r4, r5, pc}
 131              	.LVL10:
 132              	.L7:
 133              		.loc 1 155 0 is_stmt 1
 134 0044 A26A     		ldr	r2, [r4, #40]
 135 0046 1168     		ldr	r1, [r2]
 136 0048 0868     		ldr	r0, [r1]
 137 004a 20F01F00 		bic	r0, r0, #31
 138 004e 0860     		str	r0, [r1]
 139              	.LVL11:
 140              	.L12:
 141              		.loc 1 155 0 is_stmt 0 discriminator 2
 142 0050 0868     		ldr	r0, [r1]
 143 0052 C507     		lsls	r5, r0, #31
 144 0054 FCD4     		bmi	.L12
 145              		.loc 1 155 0 discriminator 3
 146 0056 507A     		ldrb	r0, [r2, #9]	@ zero_extendqisi2
 147 0058 5168     		ldr	r1, [r2, #4]
 148 005a 3D22     		movs	r2, #61
 149 005c 8240     		lsls	r2, r2, r0
 150 005e 0A60     		str	r2, [r1]
 151              		.loc 1 156 0 is_stmt 1 discriminator 3
 152 0060 626A     		ldr	r2, [r4, #36]
 153 0062 1168     		ldr	r1, [r2]
 154 0064 0868     		ldr	r0, [r1]
 155 0066 20F01F00 		bic	r0, r0, #31
 156 006a 0860     		str	r0, [r1]
 157              	.L13:
 158              		.loc 1 156 0 is_stmt 0 discriminator 2
 159 006c 0868     		ldr	r0, [r1]
 160 006e C007     		lsls	r0, r0, #31
 161 0070 FCD4     		bmi	.L13
 162              		.loc 1 156 0 discriminator 3
 163 0072 507A     		ldrb	r0, [r2, #9]	@ zero_extendqisi2
 164 0074 5168     		ldr	r1, [r2, #4]
 165 0076 3D22     		movs	r2, #61
 166              		.loc 1 160 0 is_stmt 1 discriminator 3
 167 0078 5B68     		ldr	r3, [r3, #4]
 168              		.loc 1 156 0 discriminator 3
 169 007a 8240     		lsls	r2, r2, r0
 170 007c 0A60     		str	r2, [r1]
 171              		.loc 1 160 0 discriminator 3
ARM GAS  /tmp/ccuFjiNl.s 			page 4


 172 007e 33B1     		cbz	r3, .L14
 173              		.loc 1 160 0 is_stmt 0 discriminator 1
 174 0080 0422     		movs	r2, #4
 175 0082 2046     		mov	r0, r4
 176 0084 2270     		strb	r2, [r4]
 177 0086 9847     		blx	r3
 178              	.LVL12:
 179 0088 2378     		ldrb	r3, [r4]	@ zero_extendqisi2
 180 008a 042B     		cmp	r3, #4
 181 008c 01D1     		bne	.L15
 182              	.L14:
 183              		.loc 1 160 0 discriminator 3
 184 008e 0223     		movs	r3, #2
 185 0090 2370     		strb	r3, [r4]
 186              	.L15:
 187              	.LVL13:
 188              	.LBB58:
 189              	.LBB59:
 190              	.LBB60:
 191              	.LBB61:
 192              	.LBB62:
 193              	.LBB63:
 194              	.LBB64:
 195              		.file 3 "../../modules/ChibiOS/os/common/ext/ARM/CMSIS/Core/Include/cmsis_gcc.h"
 196              		.loc 3 493 0 is_stmt 1 discriminator 4
 197 0092 2023     		movs	r3, #32
 198              		.syntax unified
 199              	@ 493 "../../modules/ChibiOS/os/common/ext/ARM/CMSIS/Core/Include/cmsis_gcc.h" 1
 200 0094 83F31188 		MSR basepri, r3
 201              	@ 0 "" 2
 202              	.LVL14:
 203              		.thumb
 204              		.syntax unified
 205              	.LBE64:
 206              	.LBE63:
 207              	.LBE62:
 208              	.LBE61:
 209              		.file 4 "../../modules/ChibiOS/os/rt/include/chsys.h"
 210              		.loc 4 396 0 discriminator 4
 211 0098 FFF7FEFF 		bl	_stats_start_measure_crit_isr
 212              	.LVL15:
 213              	.LBE60:
 214              	.LBE59:
 215              	.LBE58:
 216              	.LBB65:
 217              	.LBB66:
 218              		.loc 2 775 0 discriminator 4
 219 009c 0021     		movs	r1, #0
 220 009e 04F10800 		add	r0, r4, #8
 221              	.LVL16:
 222 00a2 FFF7FEFF 		bl	chThdResumeI
 223              	.LVL17:
 224              	.LBE66:
 225              	.LBE65:
 226              	.LBB67:
 227              	.LBB68:
 228              	.LBB69:
ARM GAS  /tmp/ccuFjiNl.s 			page 5


 229              		.loc 4 416 0 discriminator 4
 230 00a6 FFF7FEFF 		bl	_stats_stop_measure_crit_isr
 231              	.LVL18:
 232              	.LBB70:
 233              	.LBB71:
 234              	.LBB72:
 235              	.LBB73:
 236              		.loc 3 493 0 discriminator 4
 237 00aa 0023     		movs	r3, #0
 238              		.syntax unified
 239              	@ 493 "../../modules/ChibiOS/os/common/ext/ARM/CMSIS/Core/Include/cmsis_gcc.h" 1
 240 00ac 83F31188 		MSR basepri, r3
 241              	@ 0 "" 2
 242              	.LVL19:
 243              		.thumb
 244              		.syntax unified
 245              	.L5:
 246 00b0 38BD     		pop	{r3, r4, r5, pc}
 247              	.LVL20:
 248              	.L34:
 249 00b2 00BF     		.align	2
 250              	.L33:
 251 00b4 00000000 		.word	.LC0
 252              	.LBE73:
 253              	.LBE72:
 254              	.LBE71:
 255              	.LBE70:
 256              	.LBE69:
 257              	.LBE68:
 258              	.LBE67:
 259              		.cfi_endproc
 260              	.LFE334:
 261              		.size	spi_lld_serve_rx_interrupt, .-spi_lld_serve_rx_interrupt
 262              		.section	.text.spi_lld_init,"ax",%progbits
 263              		.align	1
 264              		.global	spi_lld_init
 265              		.syntax unified
 266              		.thumb
 267              		.thumb_func
 268              		.fpu fpv4-sp-d16
 269              		.type	spi_lld_init, %function
 270              	spi_lld_init:
 271              	.LFB336:
 272              		.loc 1 197 0
 273              		.cfi_startproc
 274              		@ args = 0, pretend = 0, frame = 0
 275              		@ frame_needed = 0, uses_anonymous_args = 0
 276 0000 38B5     		push	{r3, r4, r5, lr}
 277              		.cfi_def_cfa_offset 16
 278              		.cfi_offset 3, -16
 279              		.cfi_offset 4, -12
 280              		.cfi_offset 5, -8
 281              		.cfi_offset 14, -4
 282              		.loc 1 200 0
 283 0002 134C     		ldr	r4, .L36
 284              		.loc 1 202 0
 285 0004 0025     		movs	r5, #0
ARM GAS  /tmp/ccuFjiNl.s 			page 6


 286              		.loc 1 200 0
 287 0006 2046     		mov	r0, r4
 288 0008 FFF7FEFF 		bl	spiObjectInit
 289              	.LVL21:
 290              		.loc 1 201 0
 291 000c 114B     		ldr	r3, .L36+4
 292              		.loc 1 202 0
 293 000e 6562     		str	r5, [r4, #36]
 294              		.loc 1 201 0
 295 0010 2362     		str	r3, [r4, #32]
 296              		.loc 1 204 0
 297 0012 114B     		ldr	r3, .L36+8
 298              		.loc 1 203 0
 299 0014 A562     		str	r5, [r4, #40]
 300              		.loc 1 204 0
 301 0016 E362     		str	r3, [r4, #44]
 302              		.loc 1 210 0
 303 0018 3033     		adds	r3, r3, #48
 304 001a 2363     		str	r3, [r4, #48]
 305              		.loc 1 218 0
 306 001c 0F4C     		ldr	r4, .L36+12
 307 001e 2046     		mov	r0, r4
 308 0020 FFF7FEFF 		bl	spiObjectInit
 309              	.LVL22:
 310              		.loc 1 219 0
 311 0024 0E4B     		ldr	r3, .L36+16
 312              		.loc 1 220 0
 313 0026 6562     		str	r5, [r4, #36]
 314              		.loc 1 219 0
 315 0028 2362     		str	r3, [r4, #32]
 316              		.loc 1 222 0
 317 002a 0E4B     		ldr	r3, .L36+20
 318              		.loc 1 221 0
 319 002c A562     		str	r5, [r4, #40]
 320              		.loc 1 222 0
 321 002e E362     		str	r3, [r4, #44]
 322              		.loc 1 228 0
 323 0030 0D4B     		ldr	r3, .L36+24
 324 0032 2363     		str	r3, [r4, #48]
 325              		.loc 1 254 0
 326 0034 0D4C     		ldr	r4, .L36+28
 327 0036 2046     		mov	r0, r4
 328 0038 FFF7FEFF 		bl	spiObjectInit
 329              	.LVL23:
 330              		.loc 1 255 0
 331 003c 0C4B     		ldr	r3, .L36+32
 332              		.loc 1 256 0
 333 003e 6562     		str	r5, [r4, #36]
 334              		.loc 1 255 0
 335 0040 2362     		str	r3, [r4, #32]
 336              		.loc 1 258 0
 337 0042 0C4B     		ldr	r3, .L36+36
 338              		.loc 1 257 0
 339 0044 A562     		str	r5, [r4, #40]
 340              		.loc 1 258 0
 341 0046 E362     		str	r3, [r4, #44]
 342              		.loc 1 264 0
ARM GAS  /tmp/ccuFjiNl.s 			page 7


 343 0048 3033     		adds	r3, r3, #48
 344 004a 2363     		str	r3, [r4, #48]
 345 004c 38BD     		pop	{r3, r4, r5, pc}
 346              	.L37:
 347 004e 00BF     		.align	2
 348              	.L36:
 349 0050 00000000 		.word	.LANCHOR0
 350 0054 00300140 		.word	1073819648
 351 0058 16000106 		.word	100728854
 352 005c 00000000 		.word	.LANCHOR1
 353 0060 00380040 		.word	1073756160
 354 0064 16000112 		.word	302055446
 355 0068 46000100 		.word	65606
 356 006c 00000000 		.word	.LANCHOR2
 357 0070 00340140 		.word	1073820672
 358 0074 16000108 		.word	134283286
 359              		.cfi_endproc
 360              	.LFE336:
 361              		.size	spi_lld_init, .-spi_lld_init
 362              		.section	.text.spi_lld_start,"ax",%progbits
 363              		.align	1
 364              		.global	spi_lld_start
 365              		.syntax unified
 366              		.thumb
 367              		.thumb_func
 368              		.fpu fpv4-sp-d16
 369              		.type	spi_lld_start, %function
 370              	spi_lld_start:
 371              	.LFB337:
 372              		.loc 1 315 0
 373              		.cfi_startproc
 374              		@ args = 0, pretend = 0, frame = 0
 375              		@ frame_needed = 0, uses_anonymous_args = 0
 376              	.LVL24:
 377 0000 38B5     		push	{r3, r4, r5, lr}
 378              		.cfi_def_cfa_offset 16
 379              		.cfi_offset 3, -16
 380              		.cfi_offset 4, -12
 381              		.cfi_offset 5, -8
 382              		.cfi_offset 14, -4
 383              		.loc 1 315 0
 384 0002 0446     		mov	r4, r0
 385              		.loc 1 319 0
 386 0004 0078     		ldrb	r0, [r0]	@ zero_extendqisi2
 387              	.LVL25:
 388 0006 0128     		cmp	r0, #1
 389 0008 4FD1     		bne	.L39
 390              		.loc 1 321 0
 391 000a 584B     		ldr	r3, .L50
 392 000c 9C42     		cmp	r4, r3
 393 000e 21D1     		bne	.L40
 394              		.loc 1 322 0
 395 0010 0A21     		movs	r1, #10
 396 0012 2346     		mov	r3, r4
 397 0014 564A     		ldr	r2, .L50+4
 398 0016 0846     		mov	r0, r1
 399 0018 FFF7FEFF 		bl	dmaStreamAllocI
ARM GAS  /tmp/ccuFjiNl.s 			page 8


 400              	.LVL26:
 401              		.loc 1 327 0
 402 001c 2346     		mov	r3, r4
 403              		.loc 1 322 0
 404 001e 6062     		str	r0, [r4, #36]
 405              		.loc 1 327 0
 406 0020 0A21     		movs	r1, #10
 407 0022 544A     		ldr	r2, .L50+8
 408 0024 0B20     		movs	r0, #11
 409 0026 FFF7FEFF 		bl	dmaStreamAllocI
 410              	.LVL27:
 411              		.loc 1 332 0
 412 002a 534B     		ldr	r3, .L50+12
 413              		.loc 1 327 0
 414 002c A062     		str	r0, [r4, #40]
 415              		.loc 1 332 0
 416 002e 5A6A     		ldr	r2, [r3, #36]
 417 0030 42F48052 		orr	r2, r2, #4096
 418 0034 5A62     		str	r2, [r3, #36]
 419 0036 5A6A     		ldr	r2, [r3, #36]
 420 0038 22F48052 		bic	r2, r2, #4096
 421 003c 5A62     		str	r2, [r3, #36]
 422 003e 5A6A     		ldr	r2, [r3, #36]
 423              		.loc 1 333 0
 424 0040 5A6C     		ldr	r2, [r3, #68]
 425 0042 42F48052 		orr	r2, r2, #4096
 426 0046 5A64     		str	r2, [r3, #68]
 427 0048 5A6E     		ldr	r2, [r3, #100]
 428 004a 42F48052 		orr	r2, r2, #4096
 429              	.L47:
 430              		.loc 1 393 0
 431 004e 5A66     		str	r2, [r3, #100]
 432 0050 5B6E     		ldr	r3, [r3, #100]
 433 0052 22E0     		b	.L41
 434              	.L40:
 435              		.loc 1 341 0
 436 0054 494B     		ldr	r3, .L50+16
 437 0056 9C42     		cmp	r4, r3
 438 0058 5ED1     		bne	.L42
 439              		.loc 1 342 0
 440 005a 2346     		mov	r3, r4
 441 005c 444A     		ldr	r2, .L50+4
 442 005e 0A21     		movs	r1, #10
 443 0060 FFF7FEFF 		bl	dmaStreamAllocI
 444              	.LVL28:
 445              		.loc 1 347 0
 446 0064 2346     		mov	r3, r4
 447              		.loc 1 342 0
 448 0066 6062     		str	r0, [r4, #36]
 449              		.loc 1 347 0
 450 0068 0A21     		movs	r1, #10
 451 006a 424A     		ldr	r2, .L50+8
 452 006c 0420     		movs	r0, #4
 453 006e FFF7FEFF 		bl	dmaStreamAllocI
 454              	.LVL29:
 455              		.loc 1 352 0
 456 0072 414B     		ldr	r3, .L50+12
ARM GAS  /tmp/ccuFjiNl.s 			page 9


 457              		.loc 1 347 0
 458 0074 A062     		str	r0, [r4, #40]
 459              		.loc 1 352 0
 460 0076 1A6A     		ldr	r2, [r3, #32]
 461 0078 42F48042 		orr	r2, r2, #16384
 462 007c 1A62     		str	r2, [r3, #32]
 463 007e 1A6A     		ldr	r2, [r3, #32]
 464 0080 22F48042 		bic	r2, r2, #16384
 465 0084 1A62     		str	r2, [r3, #32]
 466 0086 1A6A     		ldr	r2, [r3, #32]
 467              		.loc 1 353 0
 468 0088 1A6C     		ldr	r2, [r3, #64]
 469 008a 42F48042 		orr	r2, r2, #16384
 470 008e 1A64     		str	r2, [r3, #64]
 471 0090 1A6E     		ldr	r2, [r3, #96]
 472 0092 42F48042 		orr	r2, r2, #16384
 473 0096 1A66     		str	r2, [r3, #96]
 474 0098 1B6E     		ldr	r3, [r3, #96]
 475              	.L41:
 476              		.loc 1 442 0
 477 009a 636A     		ldr	r3, [r4, #36]
 478 009c 1A68     		ldr	r2, [r3]
 479 009e 236A     		ldr	r3, [r4, #32]
 480 00a0 0C33     		adds	r3, r3, #12
 481 00a2 9360     		str	r3, [r2, #8]
 482              		.loc 1 443 0
 483 00a4 A26A     		ldr	r2, [r4, #40]
 484 00a6 1268     		ldr	r2, [r2]
 485 00a8 9360     		str	r3, [r2, #8]
 486              	.L39:
 487              		.loc 1 447 0
 488 00aa 6068     		ldr	r0, [r4, #4]
 489              	.LVL30:
 490 00ac E16A     		ldr	r1, [r4, #44]
 491              		.loc 1 448 0
 492 00ae 438A     		ldrh	r3, [r0, #18]
 493              		.loc 1 451 0
 494 00b0 21F4F041 		bic	r1, r1, #30720
 495              		.loc 1 463 0
 496 00b4 0578     		ldrb	r5, [r0]	@ zero_extendqisi2
 497              		.loc 1 448 0
 498 00b6 03F47062 		and	r2, r3, #3840
 499 00ba B2F5E06F 		cmp	r2, #1792
 500 00be 226B     		ldr	r2, [r4, #48]
 501              		.loc 1 459 0
 502 00c0 8BBF     		itete	hi
 503 00c2 22F4F042 		bichi	r2, r2, #30720
 504              		.loc 1 453 0
 505 00c6 22F4F042 		bicls	r2, r2, #30720
 506              		.loc 1 458 0
 507 00ca 41F42051 		orrhi	r1, r1, #10240
 508              		.loc 1 450 0
 509 00ce E162     		strls	r1, [r4, #44]
 510              		.loc 1 460 0
 511 00d0 84BF     		itt	hi
 512 00d2 42F42052 		orrhi	r2, r2, #10240
 513              		.loc 1 457 0
ARM GAS  /tmp/ccuFjiNl.s 			page 10


 514 00d6 E162     		strhi	r1, [r4, #44]
 515              		.loc 1 459 0
 516 00d8 2263     		str	r2, [r4, #48]
 517 00da E16A     		ldr	r1, [r4, #44]
 518 00dc 226B     		ldr	r2, [r4, #48]
 519              		.loc 1 463 0
 520 00de 002D     		cmp	r5, #0
 521 00e0 3DD0     		beq	.L45
 522              		.loc 1 464 0
 523 00e2 41F48471 		orr	r1, r1, #264
 524              		.loc 1 465 0
 525 00e6 42F48472 		orr	r2, r2, #264
 526              		.loc 1 464 0
 527 00ea E162     		str	r1, [r4, #44]
 528              	.L49:
 529              		.loc 1 469 0
 530 00ec 2263     		str	r2, [r4, #48]
 531              		.loc 1 476 0
 532 00ee 43F48053 		orr	r3, r3, #4096
 533              		.loc 1 473 0
 534 00f2 226A     		ldr	r2, [r4, #32]
 535              		.loc 1 476 0
 536 00f4 43F00703 		orr	r3, r3, #7
 537              		.loc 1 473 0
 538 00f8 1168     		ldr	r1, [r2]
 539              		.loc 1 476 0
 540 00fa 9BB2     		uxth	r3, r3
 541              		.loc 1 473 0
 542 00fc 21F04001 		bic	r1, r1, #64
 543 0100 1160     		str	r1, [r2]
 544              		.loc 1 474 0
 545 0102 018A     		ldrh	r1, [r0, #16]
 546 0104 41F00401 		orr	r1, r1, #4
 547 0108 89B2     		uxth	r1, r1
 548 010a 1160     		str	r1, [r2]
 549              		.loc 1 475 0
 550 010c 5360     		str	r3, [r2, #4]
 551              		.loc 1 477 0
 552 010e 1368     		ldr	r3, [r2]
 553 0110 43F04003 		orr	r3, r3, #64
 554 0114 1360     		str	r3, [r2]
 555 0116 38BD     		pop	{r3, r4, r5, pc}
 556              	.LVL31:
 557              	.L42:
 558              		.loc 1 381 0
 559 0118 194B     		ldr	r3, .L50+20
 560 011a 9C42     		cmp	r4, r3
 561 011c BDD1     		bne	.L41
 562              		.loc 1 382 0
 563 011e 2346     		mov	r3, r4
 564 0120 134A     		ldr	r2, .L50+4
 565 0122 0A21     		movs	r1, #10
 566 0124 0820     		movs	r0, #8
 567 0126 FFF7FEFF 		bl	dmaStreamAllocI
 568              	.LVL32:
 569              		.loc 1 387 0
 570 012a 2346     		mov	r3, r4
ARM GAS  /tmp/ccuFjiNl.s 			page 11


 571              		.loc 1 382 0
 572 012c 6062     		str	r0, [r4, #36]
 573              		.loc 1 387 0
 574 012e 0A21     		movs	r1, #10
 575 0130 104A     		ldr	r2, .L50+8
 576 0132 0920     		movs	r0, #9
 577 0134 FFF7FEFF 		bl	dmaStreamAllocI
 578              	.LVL33:
 579              		.loc 1 392 0
 580 0138 0F4B     		ldr	r3, .L50+12
 581              		.loc 1 387 0
 582 013a A062     		str	r0, [r4, #40]
 583              		.loc 1 392 0
 584 013c 5A6A     		ldr	r2, [r3, #36]
 585 013e 42F40052 		orr	r2, r2, #8192
 586 0142 5A62     		str	r2, [r3, #36]
 587 0144 5A6A     		ldr	r2, [r3, #36]
 588 0146 22F40052 		bic	r2, r2, #8192
 589 014a 5A62     		str	r2, [r3, #36]
 590 014c 5A6A     		ldr	r2, [r3, #36]
 591              		.loc 1 393 0
 592 014e 5A6C     		ldr	r2, [r3, #68]
 593 0150 42F40052 		orr	r2, r2, #8192
 594 0154 5A64     		str	r2, [r3, #68]
 595 0156 5A6E     		ldr	r2, [r3, #100]
 596 0158 42F40052 		orr	r2, r2, #8192
 597 015c 77E7     		b	.L47
 598              	.LVL34:
 599              	.L45:
 600              		.loc 1 468 0
 601 015e 21F48471 		bic	r1, r1, #264
 602              		.loc 1 469 0
 603 0162 22F48472 		bic	r2, r2, #264
 604              		.loc 1 468 0
 605 0166 E162     		str	r1, [r4, #44]
 606 0168 C0E7     		b	.L49
 607              	.L51:
 608 016a 00BF     		.align	2
 609              	.L50:
 610 016c 00000000 		.word	.LANCHOR0
 611 0170 00000000 		.word	spi_lld_serve_rx_interrupt
 612 0174 00000000 		.word	spi_lld_serve_tx_interrupt
 613 0178 00380240 		.word	1073887232
 614 017c 00000000 		.word	.LANCHOR1
 615 0180 00000000 		.word	.LANCHOR2
 616              		.cfi_endproc
 617              	.LFE337:
 618              		.size	spi_lld_start, .-spi_lld_start
 619              		.section	.text.spi_lld_stop,"ax",%progbits
 620              		.align	1
 621              		.global	spi_lld_stop
 622              		.syntax unified
 623              		.thumb
 624              		.thumb_func
 625              		.fpu fpv4-sp-d16
 626              		.type	spi_lld_stop, %function
 627              	spi_lld_stop:
ARM GAS  /tmp/ccuFjiNl.s 			page 12


 628              	.LFB338:
 629              		.loc 1 487 0
 630              		.cfi_startproc
 631              		@ args = 0, pretend = 0, frame = 0
 632              		@ frame_needed = 0, uses_anonymous_args = 0
 633              	.LVL35:
 634 0000 38B5     		push	{r3, r4, r5, lr}
 635              		.cfi_def_cfa_offset 16
 636              		.cfi_offset 3, -16
 637              		.cfi_offset 4, -12
 638              		.cfi_offset 5, -8
 639              		.cfi_offset 14, -4
 640              		.loc 1 490 0
 641 0002 0378     		ldrb	r3, [r0]	@ zero_extendqisi2
 642              		.loc 1 487 0
 643 0004 0446     		mov	r4, r0
 644              		.loc 1 490 0
 645 0006 022B     		cmp	r3, #2
 646 0008 1CD1     		bne	.L52
 647              		.loc 1 493 0
 648 000a 036A     		ldr	r3, [r0, #32]
 649              		.loc 1 494 0
 650 000c 0025     		movs	r5, #0
 651              		.loc 1 496 0
 652 000e 406A     		ldr	r0, [r0, #36]
 653              	.LVL36:
 654              		.loc 1 493 0
 655 0010 1A68     		ldr	r2, [r3]
 656 0012 22F04002 		bic	r2, r2, #64
 657 0016 1A60     		str	r2, [r3]
 658              		.loc 1 494 0
 659 0018 1D60     		str	r5, [r3]
 660              		.loc 1 495 0
 661 001a 5D60     		str	r5, [r3, #4]
 662              		.loc 1 496 0
 663 001c FFF7FEFF 		bl	dmaStreamFreeI
 664              	.LVL37:
 665              		.loc 1 497 0
 666 0020 A06A     		ldr	r0, [r4, #40]
 667 0022 FFF7FEFF 		bl	dmaStreamFreeI
 668              	.LVL38:
 669              		.loc 1 502 0
 670 0026 154B     		ldr	r3, .L59
 671              		.loc 1 498 0
 672 0028 6562     		str	r5, [r4, #36]
 673              		.loc 1 502 0
 674 002a 9C42     		cmp	r4, r3
 675              		.loc 1 499 0
 676 002c A562     		str	r5, [r4, #40]
 677              		.loc 1 502 0
 678 002e 0AD1     		bne	.L55
 679              		.loc 1 503 0
 680 0030 134B     		ldr	r3, .L59+4
 681 0032 5A6C     		ldr	r2, [r3, #68]
 682 0034 22F48052 		bic	r2, r2, #4096
 683 0038 5A64     		str	r2, [r3, #68]
 684 003a 5A6E     		ldr	r2, [r3, #100]
ARM GAS  /tmp/ccuFjiNl.s 			page 13


 685 003c 22F48052 		bic	r2, r2, #4096
 686              	.L58:
 687              		.loc 1 515 0
 688 0040 5A66     		str	r2, [r3, #100]
 689 0042 5B6E     		ldr	r3, [r3, #100]
 690              	.L52:
 691 0044 38BD     		pop	{r3, r4, r5, pc}
 692              	.LVL39:
 693              	.L55:
 694              		.loc 1 506 0
 695 0046 0F4B     		ldr	r3, .L59+8
 696 0048 9C42     		cmp	r4, r3
 697 004a 0AD1     		bne	.L56
 698              		.loc 1 507 0
 699 004c 0C4B     		ldr	r3, .L59+4
 700 004e 1A6C     		ldr	r2, [r3, #64]
 701 0050 22F48042 		bic	r2, r2, #16384
 702 0054 1A64     		str	r2, [r3, #64]
 703 0056 1A6E     		ldr	r2, [r3, #96]
 704 0058 22F48042 		bic	r2, r2, #16384
 705 005c 1A66     		str	r2, [r3, #96]
 706 005e 1B6E     		ldr	r3, [r3, #96]
 707 0060 38BD     		pop	{r3, r4, r5, pc}
 708              	.LVL40:
 709              	.L56:
 710              		.loc 1 514 0
 711 0062 094B     		ldr	r3, .L59+12
 712 0064 9C42     		cmp	r4, r3
 713 0066 EDD1     		bne	.L52
 714              		.loc 1 515 0
 715 0068 054B     		ldr	r3, .L59+4
 716 006a 5A6C     		ldr	r2, [r3, #68]
 717 006c 22F40052 		bic	r2, r2, #8192
 718 0070 5A64     		str	r2, [r3, #68]
 719 0072 5A6E     		ldr	r2, [r3, #100]
 720 0074 22F40052 		bic	r2, r2, #8192
 721 0078 E2E7     		b	.L58
 722              	.L60:
 723 007a 00BF     		.align	2
 724              	.L59:
 725 007c 00000000 		.word	.LANCHOR0
 726 0080 00380240 		.word	1073887232
 727 0084 00000000 		.word	.LANCHOR1
 728 0088 00000000 		.word	.LANCHOR2
 729              		.cfi_endproc
 730              	.LFE338:
 731              		.size	spi_lld_stop, .-spi_lld_stop
 732              		.section	.text.spi_lld_ignore,"ax",%progbits
 733              		.align	1
 734              		.global	spi_lld_ignore
 735              		.syntax unified
 736              		.thumb
 737              		.thumb_func
 738              		.fpu fpv4-sp-d16
 739              		.type	spi_lld_ignore, %function
 740              	spi_lld_ignore:
 741              	.LFB339:
ARM GAS  /tmp/ccuFjiNl.s 			page 14


 742              		.loc 1 566 0
 743              		.cfi_startproc
 744              		@ args = 0, pretend = 0, frame = 0
 745              		@ frame_needed = 0, uses_anonymous_args = 0
 746              	.LVL41:
 747              		.loc 1 570 0
 748 0000 436A     		ldr	r3, [r0, #36]
 749 0002 1A68     		ldr	r2, [r3]
 750 0004 0A4B     		ldr	r3, .L62
 751              		.loc 1 566 0
 752 0006 10B5     		push	{r4, lr}
 753              		.cfi_def_cfa_offset 8
 754              		.cfi_offset 4, -8
 755              		.cfi_offset 14, -4
 756              		.loc 1 570 0
 757 0008 D360     		str	r3, [r2, #12]
 758              		.loc 1 572 0
 759 000a C36A     		ldr	r3, [r0, #44]
 760              		.loc 1 571 0
 761 000c 5160     		str	r1, [r2, #4]
 762              		.loc 1 572 0
 763 000e 1360     		str	r3, [r2]
 764              		.loc 1 574 0
 765 0010 836A     		ldr	r3, [r0, #40]
 766 0012 084C     		ldr	r4, .L62+4
 767 0014 1B68     		ldr	r3, [r3]
 768 0016 DC60     		str	r4, [r3, #12]
 769              		.loc 1 575 0
 770 0018 5960     		str	r1, [r3, #4]
 771              		.loc 1 576 0
 772 001a 016B     		ldr	r1, [r0, #48]
 773              	.LVL42:
 774 001c 1960     		str	r1, [r3]
 775              	.LVL43:
 776              		.loc 1 578 0
 777 001e 1168     		ldr	r1, [r2]
 778 0020 41F00101 		orr	r1, r1, #1
 779 0024 1160     		str	r1, [r2]
 780              		.loc 1 579 0
 781 0026 1A68     		ldr	r2, [r3]
 782 0028 42F00102 		orr	r2, r2, #1
 783 002c 1A60     		str	r2, [r3]
 784 002e 10BD     		pop	{r4, pc}
 785              	.L63:
 786              		.align	2
 787              	.L62:
 788 0030 00000000 		.word	.LANCHOR3
 789 0034 00000000 		.word	.LANCHOR4
 790              		.cfi_endproc
 791              	.LFE339:
 792              		.size	spi_lld_ignore, .-spi_lld_ignore
 793              		.section	.text.spi_lld_exchange,"ax",%progbits
 794              		.align	1
 795              		.global	spi_lld_exchange
 796              		.syntax unified
 797              		.thumb
 798              		.thumb_func
ARM GAS  /tmp/ccuFjiNl.s 			page 15


 799              		.fpu fpv4-sp-d16
 800              		.type	spi_lld_exchange, %function
 801              	spi_lld_exchange:
 802              	.LFB340:
 803              		.loc 1 598 0
 804              		.cfi_startproc
 805              		@ args = 0, pretend = 0, frame = 0
 806              		@ frame_needed = 0, uses_anonymous_args = 0
 807              	.LVL44:
 808 0000 10B5     		push	{r4, lr}
 809              		.cfi_def_cfa_offset 8
 810              		.cfi_offset 4, -8
 811              		.cfi_offset 14, -4
 812              		.loc 1 602 0
 813 0002 446A     		ldr	r4, [r0, #36]
 814 0004 2468     		ldr	r4, [r4]
 815 0006 E360     		str	r3, [r4, #12]
 816              		.loc 1 604 0
 817 0008 C36A     		ldr	r3, [r0, #44]
 818              	.LVL45:
 819              		.loc 1 603 0
 820 000a 6160     		str	r1, [r4, #4]
 821              	.LVL46:
 822              		.loc 1 604 0
 823 000c 43F48063 		orr	r3, r3, #1024
 824 0010 2360     		str	r3, [r4]
 825              		.loc 1 606 0
 826 0012 836A     		ldr	r3, [r0, #40]
 827 0014 1B68     		ldr	r3, [r3]
 828 0016 DA60     		str	r2, [r3, #12]
 829              		.loc 1 608 0
 830 0018 026B     		ldr	r2, [r0, #48]
 831              	.LVL47:
 832              		.loc 1 607 0
 833 001a 5960     		str	r1, [r3, #4]
 834              	.LVL48:
 835              		.loc 1 608 0
 836 001c 42F48062 		orr	r2, r2, #1024
 837 0020 1A60     		str	r2, [r3]
 838              		.loc 1 610 0
 839 0022 2268     		ldr	r2, [r4]
 840 0024 42F00102 		orr	r2, r2, #1
 841 0028 2260     		str	r2, [r4]
 842              		.loc 1 611 0
 843 002a 1A68     		ldr	r2, [r3]
 844 002c 42F00102 		orr	r2, r2, #1
 845 0030 1A60     		str	r2, [r3]
 846 0032 10BD     		pop	{r4, pc}
 847              		.cfi_endproc
 848              	.LFE340:
 849              		.size	spi_lld_exchange, .-spi_lld_exchange
 850              		.section	.text.spi_lld_send,"ax",%progbits
 851              		.align	1
 852              		.global	spi_lld_send
 853              		.syntax unified
 854              		.thumb
 855              		.thumb_func
ARM GAS  /tmp/ccuFjiNl.s 			page 16


 856              		.fpu fpv4-sp-d16
 857              		.type	spi_lld_send, %function
 858              	spi_lld_send:
 859              	.LFB341:
 860              		.loc 1 627 0
 861              		.cfi_startproc
 862              		@ args = 0, pretend = 0, frame = 0
 863              		@ frame_needed = 0, uses_anonymous_args = 0
 864              	.LVL49:
 865              		.loc 1 631 0
 866 0000 436A     		ldr	r3, [r0, #36]
 867              		.loc 1 627 0
 868 0002 10B5     		push	{r4, lr}
 869              		.cfi_def_cfa_offset 8
 870              		.cfi_offset 4, -8
 871              		.cfi_offset 14, -4
 872              		.loc 1 631 0
 873 0004 1C68     		ldr	r4, [r3]
 874 0006 0B4B     		ldr	r3, .L66
 875 0008 E360     		str	r3, [r4, #12]
 876              		.loc 1 633 0
 877 000a C36A     		ldr	r3, [r0, #44]
 878              		.loc 1 632 0
 879 000c 6160     		str	r1, [r4, #4]
 880              		.loc 1 633 0
 881 000e 2360     		str	r3, [r4]
 882              		.loc 1 635 0
 883 0010 836A     		ldr	r3, [r0, #40]
 884 0012 1B68     		ldr	r3, [r3]
 885 0014 DA60     		str	r2, [r3, #12]
 886              		.loc 1 637 0
 887 0016 026B     		ldr	r2, [r0, #48]
 888              	.LVL50:
 889              		.loc 1 636 0
 890 0018 5960     		str	r1, [r3, #4]
 891              	.LVL51:
 892              		.loc 1 637 0
 893 001a 42F48062 		orr	r2, r2, #1024
 894 001e 1A60     		str	r2, [r3]
 895              		.loc 1 639 0
 896 0020 2268     		ldr	r2, [r4]
 897 0022 42F00102 		orr	r2, r2, #1
 898 0026 2260     		str	r2, [r4]
 899              		.loc 1 640 0
 900 0028 1A68     		ldr	r2, [r3]
 901 002a 42F00102 		orr	r2, r2, #1
 902 002e 1A60     		str	r2, [r3]
 903 0030 10BD     		pop	{r4, pc}
 904              	.L67:
 905 0032 00BF     		.align	2
 906              	.L66:
 907 0034 00000000 		.word	.LANCHOR3
 908              		.cfi_endproc
 909              	.LFE341:
 910              		.size	spi_lld_send, .-spi_lld_send
 911              		.section	.text.spi_lld_receive,"ax",%progbits
 912              		.align	1
ARM GAS  /tmp/ccuFjiNl.s 			page 17


 913              		.global	spi_lld_receive
 914              		.syntax unified
 915              		.thumb
 916              		.thumb_func
 917              		.fpu fpv4-sp-d16
 918              		.type	spi_lld_receive, %function
 919              	spi_lld_receive:
 920              	.LFB342:
 921              		.loc 1 656 0
 922              		.cfi_startproc
 923              		@ args = 0, pretend = 0, frame = 0
 924              		@ frame_needed = 0, uses_anonymous_args = 0
 925              	.LVL52:
 926              		.loc 1 660 0
 927 0000 436A     		ldr	r3, [r0, #36]
 928              		.loc 1 656 0
 929 0002 10B5     		push	{r4, lr}
 930              		.cfi_def_cfa_offset 8
 931              		.cfi_offset 4, -8
 932              		.cfi_offset 14, -4
 933              		.loc 1 660 0
 934 0004 1C68     		ldr	r4, [r3]
 935              		.loc 1 662 0
 936 0006 C36A     		ldr	r3, [r0, #44]
 937              		.loc 1 660 0
 938 0008 E260     		str	r2, [r4, #12]
 939              		.loc 1 662 0
 940 000a 43F48063 		orr	r3, r3, #1024
 941              		.loc 1 661 0
 942 000e 6160     		str	r1, [r4, #4]
 943              		.loc 1 664 0
 944 0010 084A     		ldr	r2, .L69
 945              	.LVL53:
 946              		.loc 1 662 0
 947 0012 2360     		str	r3, [r4]
 948              		.loc 1 664 0
 949 0014 836A     		ldr	r3, [r0, #40]
 950 0016 1B68     		ldr	r3, [r3]
 951 0018 DA60     		str	r2, [r3, #12]
 952              		.loc 1 666 0
 953 001a 026B     		ldr	r2, [r0, #48]
 954              		.loc 1 665 0
 955 001c 5960     		str	r1, [r3, #4]
 956              		.loc 1 666 0
 957 001e 1A60     		str	r2, [r3]
 958              		.loc 1 668 0
 959 0020 2268     		ldr	r2, [r4]
 960 0022 42F00102 		orr	r2, r2, #1
 961 0026 2260     		str	r2, [r4]
 962              		.loc 1 669 0
 963 0028 1A68     		ldr	r2, [r3]
 964 002a 42F00102 		orr	r2, r2, #1
 965 002e 1A60     		str	r2, [r3]
 966 0030 10BD     		pop	{r4, pc}
 967              	.L70:
 968 0032 00BF     		.align	2
 969              	.L69:
ARM GAS  /tmp/ccuFjiNl.s 			page 18


 970 0034 00000000 		.word	.LANCHOR4
 971              		.cfi_endproc
 972              	.LFE342:
 973              		.size	spi_lld_receive, .-spi_lld_receive
 974              		.section	.text.spi_lld_abort,"ax",%progbits
 975              		.align	1
 976              		.global	spi_lld_abort
 977              		.syntax unified
 978              		.thumb
 979              		.thumb_func
 980              		.fpu fpv4-sp-d16
 981              		.type	spi_lld_abort, %function
 982              	spi_lld_abort:
 983              	.LFB343:
 984              		.loc 1 680 0
 985              		.cfi_startproc
 986              		@ args = 0, pretend = 0, frame = 0
 987              		@ frame_needed = 0, uses_anonymous_args = 0
 988              		@ link register save eliminated.
 989              	.LVL54:
 990              		.loc 1 683 0
 991 0000 836A     		ldr	r3, [r0, #40]
 992 0002 1A68     		ldr	r2, [r3]
 993 0004 1168     		ldr	r1, [r2]
 994 0006 21F01F01 		bic	r1, r1, #31
 995 000a 1160     		str	r1, [r2]
 996              	.L72:
 997              		.loc 1 683 0 is_stmt 0 discriminator 2
 998 000c 1168     		ldr	r1, [r2]
 999 000e C907     		lsls	r1, r1, #31
 1000 0010 FCD4     		bmi	.L72
 1001              		.loc 1 683 0 discriminator 3
 1002 0012 597A     		ldrb	r1, [r3, #9]	@ zero_extendqisi2
 1003 0014 5A68     		ldr	r2, [r3, #4]
 1004 0016 3D23     		movs	r3, #61
 1005 0018 8B40     		lsls	r3, r3, r1
 1006 001a 1360     		str	r3, [r2]
 1007              		.loc 1 684 0 is_stmt 1 discriminator 3
 1008 001c 436A     		ldr	r3, [r0, #36]
 1009 001e 1A68     		ldr	r2, [r3]
 1010 0020 1168     		ldr	r1, [r2]
 1011 0022 21F01F01 		bic	r1, r1, #31
 1012 0026 1160     		str	r1, [r2]
 1013              	.L73:
 1014              		.loc 1 684 0 is_stmt 0 discriminator 2
 1015 0028 1168     		ldr	r1, [r2]
 1016 002a C907     		lsls	r1, r1, #31
 1017 002c FCD4     		bmi	.L73
 1018              		.loc 1 684 0 discriminator 3
 1019 002e 597A     		ldrb	r1, [r3, #9]	@ zero_extendqisi2
 1020 0030 5A68     		ldr	r2, [r3, #4]
 1021 0032 3D23     		movs	r3, #61
 1022 0034 8B40     		lsls	r3, r3, r1
 1023 0036 1360     		str	r3, [r2]
 1024 0038 7047     		bx	lr
 1025              		.cfi_endproc
 1026              	.LFE343:
ARM GAS  /tmp/ccuFjiNl.s 			page 19


 1027              		.size	spi_lld_abort, .-spi_lld_abort
 1028              		.section	.text.spi_lld_polled_exchange,"ax",%progbits
 1029              		.align	1
 1030              		.global	spi_lld_polled_exchange
 1031              		.syntax unified
 1032              		.thumb
 1033              		.thumb_func
 1034              		.fpu fpv4-sp-d16
 1035              		.type	spi_lld_polled_exchange, %function
 1036              	spi_lld_polled_exchange:
 1037              	.LFB344:
 1038              		.loc 1 700 0 is_stmt 1
 1039              		.cfi_startproc
 1040              		@ args = 0, pretend = 0, frame = 0
 1041              		@ frame_needed = 0, uses_anonymous_args = 0
 1042              		@ link register save eliminated.
 1043              	.LVL55:
 1044              		.loc 1 707 0
 1045 0000 4368     		ldr	r3, [r0, #4]
 1046 0002 5B8A     		ldrh	r3, [r3, #18]
 1047 0004 03F47063 		and	r3, r3, #3840
 1048 0008 B3F5E06F 		cmp	r3, #1792
 1049 000c 036A     		ldr	r3, [r0, #32]
 1050 000e 07D8     		bhi	.L77
 1051              	.LVL56:
 1052              	.LBB74:
 1053              		.loc 1 711 0
 1054 0010 C9B2     		uxtb	r1, r1
 1055              	.LVL57:
 1056 0012 1973     		strb	r1, [r3, #12]
 1057              		.loc 1 712 0
 1058 0014 016A     		ldr	r1, [r0, #32]
 1059              	.LVL58:
 1060              	.L78:
 1061              		.loc 1 712 0 is_stmt 0 discriminator 1
 1062 0016 8A68     		ldr	r2, [r1, #8]
 1063 0018 D007     		lsls	r0, r2, #31
 1064 001a FCD5     		bpl	.L78
 1065              		.loc 1 714 0 is_stmt 1
 1066 001c 187B     		ldrb	r0, [r3, #12]	@ zero_extendqisi2
 1067 001e 7047     		bx	lr
 1068              	.LVL59:
 1069              	.L77:
 1070              	.LBE74:
 1071              		.loc 1 717 0
 1072 0020 D960     		str	r1, [r3, #12]
 1073              	.L80:
 1074              		.loc 1 718 0 discriminator 1
 1075 0022 9A68     		ldr	r2, [r3, #8]
 1076 0024 D207     		lsls	r2, r2, #31
 1077 0026 FCD5     		bpl	.L80
 1078              		.loc 1 720 0
 1079 0028 D868     		ldr	r0, [r3, #12]
 1080              	.LVL60:
 1081 002a 80B2     		uxth	r0, r0
 1082              		.loc 1 722 0
 1083 002c 7047     		bx	lr
ARM GAS  /tmp/ccuFjiNl.s 			page 20


 1084              		.cfi_endproc
 1085              	.LFE344:
 1086              		.size	spi_lld_polled_exchange, .-spi_lld_polled_exchange
 1087              		.global	SPID4
 1088              		.global	SPID2
 1089              		.global	SPID1
 1090              		.section	.bss.SPID1,"aw",%nobits
 1091              		.align	2
 1092              		.set	.LANCHOR0,. + 0
 1093              		.type	SPID1, %object
 1094              		.size	SPID1, 52
 1095              	SPID1:
 1096 0000 00000000 		.space	52
 1096      00000000 
 1096      00000000 
 1096      00000000 
 1096      00000000 
 1097              		.section	.bss.SPID2,"aw",%nobits
 1098              		.align	2
 1099              		.set	.LANCHOR1,. + 0
 1100              		.type	SPID2, %object
 1101              		.size	SPID2, 52
 1102              	SPID2:
 1103 0000 00000000 		.space	52
 1103      00000000 
 1103      00000000 
 1103      00000000 
 1103      00000000 
 1104              		.section	.bss.SPID4,"aw",%nobits
 1105              		.align	2
 1106              		.set	.LANCHOR2,. + 0
 1107              		.type	SPID4, %object
 1108              		.size	SPID4, 52
 1109              	SPID4:
 1110 0000 00000000 		.space	52
 1110      00000000 
 1110      00000000 
 1110      00000000 
 1110      00000000 
 1111              		.section	.bss.dummyrx,"aw",%nobits
 1112              		.align	1
 1113              		.set	.LANCHOR3,. + 0
 1114              		.type	dummyrx, %object
 1115              		.size	dummyrx, 2
 1116              	dummyrx:
 1117 0000 0000     		.space	2
 1118              		.section	.rodata.dummytx,"a",%progbits
 1119              		.align	1
 1120              		.set	.LANCHOR4,. + 0
 1121              		.type	dummytx, %object
 1122              		.size	dummytx, 2
 1123              	dummytx:
 1124 0000 FFFF     		.short	-1
 1125              		.section	.rodata.spi_lld_serve_tx_interrupt.str1.1,"aMS",%progbits,1
 1126              	.LC0:
 1127 0000 444D4120 		.ascii	"DMA failure\000"
 1127      6661696C 
ARM GAS  /tmp/ccuFjiNl.s 			page 21


 1127      75726500 
 1128              		.text
 1129              	.Letext0:
 1130              		.file 5 "/opt/gcc-arm-none-eabi-6-2017-q2-update/lib/gcc/arm-none-eabi/6.3.1/include/stddef.h"
 1131              		.file 6 "/opt/gcc-arm-none-eabi-6-2017-q2-update/arm-none-eabi/include/machine/_default_types.h"
 1132              		.file 7 "/opt/gcc-arm-none-eabi-6-2017-q2-update/arm-none-eabi/include/sys/_stdint.h"
 1133              		.file 8 "/opt/gcc-arm-none-eabi-6-2017-q2-update/arm-none-eabi/include/stdint.h"
 1134              		.file 9 "../../modules/ChibiOS/os/common/ports/ARMCMx/compilers/GCC/chtypes.h"
 1135              		.file 10 "../../modules/ChibiOS/os/rt/include/chsystypes.h"
 1136              		.file 11 "../../modules/ChibiOS/os/rt/include/chschd.h"
 1137              		.file 12 "../../modules/ChibiOS/os/rt/include/chtime.h"
 1138              		.file 13 "../../modules/ChibiOS/os/common/ext/ARM/CMSIS/Core/Include/core_cm7.h"
 1139              		.file 14 "../../modules/ChibiOS/os/common/ext/ST/STM32F7xx/system_stm32f7xx.h"
 1140              		.file 15 "../../modules/ChibiOS/os/common/ext/ST/STM32F7xx/stm32f767xx.h"
 1141              		.file 16 "../../modules/ChibiOS/os/common/ports/ARMCMx/chcore.h"
 1142              		.file 17 "../../modules/ChibiOS/os/common/ports/ARMCMx/chcore_v7m.h"
 1143              		.file 18 "../../modules/ChibiOS/os/hal/ports/STM32/LLD/TIMv1/stm32_tim.h"
 1144              		.file 19 "../../modules/ChibiOS/os/rt/include/chtm.h"
 1145              		.file 20 "../../modules/ChibiOS/os/rt/include/chstats.h"
 1146              		.file 21 "../../modules/ChibiOS/os/rt/include/chsem.h"
 1147              		.file 22 "../../modules/ChibiOS/os/rt/include/chmtx.h"
 1148              		.file 23 "../../modules/ChibiOS/os/rt/include/chregistry.h"
 1149              		.file 24 "../../modules/ChibiOS/os/rt/include/chevents.h"
 1150              		.file 25 "../../modules/ChibiOS/os/oslib/include/chmemcore.h"
 1151              		.file 26 "../../modules/ChibiOS/os/oslib/include/chmempools.h"
 1152              		.file 27 "../../modules/ChibiOS/os/oslib/include/chfactory.h"
 1153              		.file 28 "../../modules/ChibiOS/os/hal/ports/STM32/LLD/DMAv2/stm32_dma.h"
 1154              		.file 29 "../../modules/ChibiOS/os/hal/include/hal_ioblock.h"
 1155              		.file 30 "../../modules/ChibiOS/os/hal/include/hal_queues.h"
 1156              		.file 31 "../../modules/ChibiOS/os/hal/include/hal_pal.h"
 1157              		.file 32 "../../modules/ChibiOS/os/hal/ports/STM32/LLD/GPIOv2/stm32_gpio.h"
 1158              		.file 33 "../../modules/ChibiOS/os/hal/ports/STM32/LLD/GPIOv2/hal_pal_lld.h"
 1159              		.file 34 "../../modules/ChibiOS/os/hal/include/hal_adc.h"
 1160              		.file 35 "../../modules/ChibiOS/os/hal/ports/STM32/LLD/ADCv2/hal_adc_lld.h"
 1161              		.file 36 "../../modules/ChibiOS/os/hal/include/hal_i2c.h"
 1162              		.file 37 "../../modules/ChibiOS/os/hal/ports/STM32/LLD/I2Cv2/hal_i2c_lld.h"
 1163              		.file 38 "../../modules/ChibiOS/os/hal/include/hal_pwm.h"
 1164              		.file 39 "../../modules/ChibiOS/os/hal/ports/STM32/LLD/TIMv1/hal_pwm_lld.h"
 1165              		.file 40 "../../modules/ChibiOS/os/hal/include/hal_serial.h"
 1166              		.file 41 "../../modules/ChibiOS/os/hal/ports/STM32/LLD/USARTv2/hal_serial_lld.h"
 1167              		.file 42 "../../modules/ChibiOS/os/hal/include/hal_sdc.h"
 1168              		.file 43 "../../modules/ChibiOS/os/hal/ports/STM32/LLD/SDMMCv1/hal_sdc_lld.h"
 1169              		.file 44 "../../modules/ChibiOS/os/hal/include/hal_spi.h"
 1170              		.file 45 "../../modules/ChibiOS/os/hal/ports/STM32/LLD/SPIv2/hal_spi_lld.h"
 1171              		.file 46 "../../modules/ChibiOS/os/hal/include/hal_usb.h"
 1172              		.file 47 "../../modules/ChibiOS/os/hal/ports/STM32/LLD/OTGv1/hal_usb_lld.h"
 1173              		.file 48 "../../modules/ChibiOS/os/hal/ports/STM32/LLD/OTGv1/stm32_otg.h"
 1174              		.file 49 "../../modules/ChibiOS/os/rt/include/ch.h"
 1175              		.file 50 "../../modules/ChibiOS/os/rt/include/chthreads.h"