ARM GAS  /tmp/ccEI3m4F.s 			page 1


   1              		.cpu cortex-m7
   2              		.eabi_attribute 27, 1
   3              		.eabi_attribute 28, 1
   4              		.eabi_attribute 20, 1
   5              		.eabi_attribute 21, 1
   6              		.eabi_attribute 23, 3
   7              		.eabi_attribute 24, 1
   8              		.eabi_attribute 25, 1
   9              		.eabi_attribute 26, 1
  10              		.eabi_attribute 30, 4
  11              		.eabi_attribute 34, 1
  12              		.eabi_attribute 18, 4
  13              		.file	"hal_queues.c"
  14              		.text
  15              	.Ltext0:
  16              		.cfi_sections	.debug_frame
  17              		.section	.text.chSysLock,"ax",%progbits
  18              		.align	1
  19              		.syntax unified
  20              		.thumb
  21              		.thumb_func
  22              		.fpu fpv4-sp-d16
  23              		.type	chSysLock, %function
  24              	chSysLock:
  25              	.LFB195:
  26              		.file 1 "../../modules/ChibiOS/os/rt/include/chsys.h"
  27              		.loc 1 353 0
  28              		.cfi_startproc
  29              		@ args = 0, pretend = 0, frame = 0
  30              		@ frame_needed = 0, uses_anonymous_args = 0
  31              		@ link register save eliminated.
  32              	.LVL0:
  33              	.LBB81:
  34              	.LBB82:
  35              	.LBB83:
  36              		.file 2 "../../modules/ChibiOS/os/common/ext/ARM/CMSIS/Core/Include/cmsis_gcc.h"
  37              		.loc 2 493 0
  38 0000 2023     		movs	r3, #32
  39              		.syntax unified
  40              	@ 493 "../../modules/ChibiOS/os/common/ext/ARM/CMSIS/Core/Include/cmsis_gcc.h" 1
  41 0002 83F31188 		MSR basepri, r3
  42              	@ 0 "" 2
  43              	.LVL1:
  44              		.thumb
  45              		.syntax unified
  46              	.LBE83:
  47              	.LBE82:
  48              	.LBE81:
  49              		.loc 1 356 0
  50 0006 FFF7FEBF 		b	_stats_start_measure_crit_thd
  51              	.LVL2:
  52              		.cfi_endproc
  53              	.LFE195:
  54              		.size	chSysLock, .-chSysLock
  55              		.section	.text.chSysUnlock,"ax",%progbits
  56              		.align	1
  57              		.syntax unified
ARM GAS  /tmp/ccEI3m4F.s 			page 2


  58              		.thumb
  59              		.thumb_func
  60              		.fpu fpv4-sp-d16
  61              		.type	chSysUnlock, %function
  62              	chSysUnlock:
  63              	.LFB196:
  64              		.loc 1 365 0
  65              		.cfi_startproc
  66              		@ args = 0, pretend = 0, frame = 0
  67              		@ frame_needed = 0, uses_anonymous_args = 0
  68 0000 08B5     		push	{r3, lr}
  69              		.cfi_def_cfa_offset 8
  70              		.cfi_offset 3, -8
  71              		.cfi_offset 14, -4
  72              		.loc 1 368 0
  73 0002 FFF7FEFF 		bl	_stats_stop_measure_crit_thd
  74              	.LVL3:
  75              	.LBB84:
  76              	.LBB85:
  77              	.LBB86:
  78              		.loc 2 493 0
  79 0006 0023     		movs	r3, #0
  80              		.syntax unified
  81              	@ 493 "../../modules/ChibiOS/os/common/ext/ARM/CMSIS/Core/Include/cmsis_gcc.h" 1
  82 0008 83F31188 		MSR basepri, r3
  83              	@ 0 "" 2
  84              	.LVL4:
  85              		.thumb
  86              		.syntax unified
  87 000c 08BD     		pop	{r3, pc}
  88              	.LBE86:
  89              	.LBE85:
  90              	.LBE84:
  91              		.cfi_endproc
  92              	.LFE196:
  93              		.size	chSysUnlock, .-chSysUnlock
  94              		.section	.text.iq_read,"ax",%progbits
  95              		.align	1
  96              		.syntax unified
  97              		.thumb
  98              		.thumb_func
  99              		.fpu fpv4-sp-d16
 100              		.type	iq_read, %function
 101              	iq_read:
 102              	.LFB334:
 103              		.file 3 "../../modules/ChibiOS/os/hal/src/hal_queues.c"
 104              		.loc 3 60 0
 105              		.cfi_startproc
 106              		@ args = 0, pretend = 0, frame = 0
 107              		@ frame_needed = 0, uses_anonymous_args = 0
 108              	.LVL5:
 109 0000 F8B5     		push	{r3, r4, r5, r6, r7, lr}
 110              		.cfi_def_cfa_offset 24
 111              		.cfi_offset 3, -24
 112              		.cfi_offset 4, -20
 113              		.cfi_offset 5, -16
 114              		.cfi_offset 6, -12
ARM GAS  /tmp/ccEI3m4F.s 			page 3


 115              		.cfi_offset 7, -8
 116              		.cfi_offset 14, -4
 117              		.loc 3 60 0
 118 0002 1546     		mov	r5, r2
 119              		.loc 3 66 0
 120 0004 8268     		ldr	r2, [r0, #8]
 121              	.LVL6:
 122              		.loc 3 60 0
 123 0006 0446     		mov	r4, r0
 124 0008 0B46     		mov	r3, r1
 125              		.loc 3 66 0
 126 000a AA42     		cmp	r2, r5
 127 000c 00D2     		bcs	.L4
 128              		.loc 3 67 0
 129 000e 8568     		ldr	r5, [r0, #8]
 130              	.LVL7:
 131              	.L4:
 132              		.loc 3 72 0
 133 0010 A169     		ldr	r1, [r4, #24]
 134              	.LVL8:
 135 0012 2669     		ldr	r6, [r4, #16]
 136 0014 761A     		subs	r6, r6, r1
 137              	.LVL9:
 138              		.loc 3 74 0
 139 0016 B542     		cmp	r5, r6
 140 0018 07D2     		bcs	.L5
 141              		.loc 3 75 0
 142 001a 1846     		mov	r0, r3
 143              	.LVL10:
 144 001c 2A46     		mov	r2, r5
 145 001e FFF7FEFF 		bl	memcpy
 146              	.LVL11:
 147              		.loc 3 76 0
 148 0022 A369     		ldr	r3, [r4, #24]
 149 0024 2B44     		add	r3, r3, r5
 150              	.L8:
 151              		.loc 3 87 0
 152 0026 A361     		str	r3, [r4, #24]
 153 0028 0DE0     		b	.L6
 154              	.LVL12:
 155              	.L5:
 156              		.loc 3 78 0
 157 002a 11D9     		bls	.L7
 158              		.loc 3 81 0
 159 002c AF1B     		subs	r7, r5, r6
 160              		.loc 3 79 0
 161 002e 3246     		mov	r2, r6
 162 0030 1846     		mov	r0, r3
 163              	.LVL13:
 164 0032 FFF7FEFF 		bl	memcpy
 165              	.LVL14:
 166              		.loc 3 82 0
 167 0036 3A46     		mov	r2, r7
 168 0038 E168     		ldr	r1, [r4, #12]
 169 003a 3044     		add	r0, r0, r6
 170              	.LVL15:
 171 003c FFF7FEFF 		bl	memcpy
ARM GAS  /tmp/ccEI3m4F.s 			page 4


 172              	.LVL16:
 173              		.loc 3 83 0
 174 0040 E268     		ldr	r2, [r4, #12]
 175 0042 3A44     		add	r2, r2, r7
 176 0044 A261     		str	r2, [r4, #24]
 177              	.LVL17:
 178              	.L6:
 179              		.loc 3 90 0
 180 0046 A368     		ldr	r3, [r4, #8]
 181              		.loc 3 92 0
 182 0048 2846     		mov	r0, r5
 183              		.loc 3 90 0
 184 004a 5B1B     		subs	r3, r3, r5
 185 004c A360     		str	r3, [r4, #8]
 186              		.loc 3 92 0
 187 004e F8BD     		pop	{r3, r4, r5, r6, r7, pc}
 188              	.LVL18:
 189              	.L7:
 190              		.loc 3 86 0
 191 0050 1846     		mov	r0, r3
 192              	.LVL19:
 193 0052 2A46     		mov	r2, r5
 194 0054 FFF7FEFF 		bl	memcpy
 195              	.LVL20:
 196              		.loc 3 87 0
 197 0058 E368     		ldr	r3, [r4, #12]
 198 005a E4E7     		b	.L8
 199              		.cfi_endproc
 200              	.LFE334:
 201              		.size	iq_read, .-iq_read
 202              		.section	.text.oq_write,"ax",%progbits
 203              		.align	1
 204              		.syntax unified
 205              		.thumb
 206              		.thumb_func
 207              		.fpu fpv4-sp-d16
 208              		.type	oq_write, %function
 209              	oq_write:
 210              	.LFB335:
 211              		.loc 3 108 0
 212              		.cfi_startproc
 213              		@ args = 0, pretend = 0, frame = 0
 214              		@ frame_needed = 0, uses_anonymous_args = 0
 215              	.LVL21:
 216              		.loc 3 114 0
 217 0000 8368     		ldr	r3, [r0, #8]
 218 0002 9342     		cmp	r3, r2
 219              		.loc 3 108 0
 220 0004 2DE9F041 		push	{r4, r5, r6, r7, r8, lr}
 221              		.cfi_def_cfa_offset 24
 222              		.cfi_offset 4, -24
 223              		.cfi_offset 5, -20
 224              		.cfi_offset 6, -16
 225              		.cfi_offset 7, -12
 226              		.cfi_offset 8, -8
 227              		.cfi_offset 14, -4
 228              		.loc 3 108 0
ARM GAS  /tmp/ccEI3m4F.s 			page 5


 229 0008 0446     		mov	r4, r0
 230 000a 0F46     		mov	r7, r1
 231 000c 1546     		mov	r5, r2
 232              		.loc 3 114 0
 233 000e 00D2     		bcs	.L10
 234              		.loc 3 115 0
 235 0010 8568     		ldr	r5, [r0, #8]
 236              	.LVL22:
 237              	.L10:
 238              		.loc 3 120 0
 239 0012 6069     		ldr	r0, [r4, #20]
 240              	.LVL23:
 241 0014 2669     		ldr	r6, [r4, #16]
 242 0016 361A     		subs	r6, r6, r0
 243              	.LVL24:
 244              		.loc 3 122 0
 245 0018 B542     		cmp	r5, r6
 246 001a 07D2     		bcs	.L11
 247              		.loc 3 123 0
 248 001c 2A46     		mov	r2, r5
 249 001e 3946     		mov	r1, r7
 250              	.LVL25:
 251 0020 FFF7FEFF 		bl	memcpy
 252              	.LVL26:
 253              		.loc 3 124 0
 254 0024 6369     		ldr	r3, [r4, #20]
 255 0026 2B44     		add	r3, r3, r5
 256              	.L14:
 257              		.loc 3 135 0
 258 0028 6361     		str	r3, [r4, #20]
 259 002a 0EE0     		b	.L12
 260              	.LVL27:
 261              	.L11:
 262              		.loc 3 126 0
 263 002c 13D9     		bls	.L13
 264              		.loc 3 129 0
 265 002e A5EB0608 		sub	r8, r5, r6
 266              		.loc 3 127 0
 267 0032 3246     		mov	r2, r6
 268 0034 3946     		mov	r1, r7
 269              	.LVL28:
 270 0036 FFF7FEFF 		bl	memcpy
 271              	.LVL29:
 272              		.loc 3 130 0
 273 003a 4246     		mov	r2, r8
 274 003c B919     		adds	r1, r7, r6
 275              	.LVL30:
 276 003e E068     		ldr	r0, [r4, #12]
 277 0040 FFF7FEFF 		bl	memcpy
 278              	.LVL31:
 279              		.loc 3 131 0
 280 0044 E268     		ldr	r2, [r4, #12]
 281 0046 4244     		add	r2, r2, r8
 282 0048 6261     		str	r2, [r4, #20]
 283              	.LVL32:
 284              	.L12:
 285              		.loc 3 138 0
ARM GAS  /tmp/ccEI3m4F.s 			page 6


 286 004a A368     		ldr	r3, [r4, #8]
 287              		.loc 3 140 0
 288 004c 2846     		mov	r0, r5
 289              		.loc 3 138 0
 290 004e 5B1B     		subs	r3, r3, r5
 291 0050 A360     		str	r3, [r4, #8]
 292              		.loc 3 140 0
 293 0052 BDE8F081 		pop	{r4, r5, r6, r7, r8, pc}
 294              	.LVL33:
 295              	.L13:
 296              		.loc 3 134 0
 297 0056 2A46     		mov	r2, r5
 298 0058 3946     		mov	r1, r7
 299              	.LVL34:
 300 005a FFF7FEFF 		bl	memcpy
 301              	.LVL35:
 302              		.loc 3 135 0
 303 005e E368     		ldr	r3, [r4, #12]
 304 0060 E2E7     		b	.L14
 305              		.cfi_endproc
 306              	.LFE335:
 307              		.size	oq_write, .-oq_write
 308              		.section	.text.iqObjectInit,"ax",%progbits
 309              		.align	1
 310              		.global	iqObjectInit
 311              		.syntax unified
 312              		.thumb
 313              		.thumb_func
 314              		.fpu fpv4-sp-d16
 315              		.type	iqObjectInit, %function
 316              	iqObjectInit:
 317              	.LFB336:
 318              		.loc 3 178 0
 319              		.cfi_startproc
 320              		@ args = 4, pretend = 0, frame = 0
 321              		@ frame_needed = 0, uses_anonymous_args = 0
 322              	.LVL36:
 323 0000 10B5     		push	{r4, lr}
 324              		.cfi_def_cfa_offset 8
 325              		.cfi_offset 4, -8
 326              		.cfi_offset 14, -4
 327              		.loc 3 185 0
 328 0002 0A44     		add	r2, r2, r1
 329              	.LVL37:
 330              		.loc 3 181 0
 331 0004 0024     		movs	r4, #0
 332              		.loc 3 186 0
 333 0006 C361     		str	r3, [r0, #28]
 334              		.loc 3 187 0
 335 0008 029B     		ldr	r3, [sp, #8]
 336              	.LVL38:
 337              	.LBB87:
 338              	.LBB88:
 339              	.LBB89:
 340              	.LBB90:
 341              		.file 4 "../../modules/ChibiOS/os/rt/include/chschd.h"
 342              		.loc 4 539 0
ARM GAS  /tmp/ccEI3m4F.s 			page 7


 343 000a 0060     		str	r0, [r0]
 344              		.loc 4 540 0
 345 000c 4060     		str	r0, [r0, #4]
 346              	.LVL39:
 347              	.LBE90:
 348              	.LBE89:
 349              	.LBE88:
 350              	.LBE87:
 351              		.loc 3 181 0
 352 000e 8460     		str	r4, [r0, #8]
 353              		.loc 3 182 0
 354 0010 C160     		str	r1, [r0, #12]
 355              		.loc 3 183 0
 356 0012 8161     		str	r1, [r0, #24]
 357              		.loc 3 184 0
 358 0014 4161     		str	r1, [r0, #20]
 359              		.loc 3 185 0
 360 0016 0261     		str	r2, [r0, #16]
 361              		.loc 3 187 0
 362 0018 0362     		str	r3, [r0, #32]
 363 001a 10BD     		pop	{r4, pc}
 364              		.cfi_endproc
 365              	.LFE336:
 366              		.size	iqObjectInit, .-iqObjectInit
 367              		.section	.text.iqResetI,"ax",%progbits
 368              		.align	1
 369              		.global	iqResetI
 370              		.syntax unified
 371              		.thumb
 372              		.thumb_func
 373              		.fpu fpv4-sp-d16
 374              		.type	iqResetI, %function
 375              	iqResetI:
 376              	.LFB337:
 377              		.loc 3 201 0
 378              		.cfi_startproc
 379              		@ args = 0, pretend = 0, frame = 0
 380              		@ frame_needed = 0, uses_anonymous_args = 0
 381              		@ link register save eliminated.
 382              	.LVL40:
 383              		.loc 3 205 0
 384 0000 C268     		ldr	r2, [r0, #12]
 385              	.LBB91:
 386              	.LBB92:
 387              		.file 5 "../../modules/ChibiOS/os/hal/osal/rt/osal.h"
 388              		.loc 5 857 0
 389 0002 6FF00101 		mvn	r1, #1
 390              	.LBE92:
 391              	.LBE91:
 392              		.loc 3 205 0
 393 0006 8261     		str	r2, [r0, #24]
 394              		.loc 3 206 0
 395 0008 4261     		str	r2, [r0, #20]
 396              		.loc 3 207 0
 397 000a 0022     		movs	r2, #0
 398 000c 8260     		str	r2, [r0, #8]
 399              	.LVL41:
ARM GAS  /tmp/ccEI3m4F.s 			page 8


 400              	.LBB94:
 401              	.LBB93:
 402              		.loc 5 857 0
 403 000e FFF7FEBF 		b	chThdDequeueAllI
 404              	.LVL42:
 405              	.LBE93:
 406              	.LBE94:
 407              		.cfi_endproc
 408              	.LFE337:
 409              		.size	iqResetI, .-iqResetI
 410              		.section	.text.iqPutI,"ax",%progbits
 411              		.align	1
 412              		.global	iqPutI
 413              		.syntax unified
 414              		.thumb
 415              		.thumb_func
 416              		.fpu fpv4-sp-d16
 417              		.type	iqPutI, %function
 418              	iqPutI:
 419              	.LFB338:
 420              		.loc 3 224 0
 421              		.cfi_startproc
 422              		@ args = 0, pretend = 0, frame = 0
 423              		@ frame_needed = 0, uses_anonymous_args = 0
 424              	.LVL43:
 425 0000 08B5     		push	{r3, lr}
 426              		.cfi_def_cfa_offset 8
 427              		.cfi_offset 3, -8
 428              		.cfi_offset 14, -4
 429              		.loc 3 229 0
 430 0002 8269     		ldr	r2, [r0, #24]
 431 0004 4369     		ldr	r3, [r0, #20]
 432 0006 9342     		cmp	r3, r2
 433 0008 01D1     		bne	.L18
 434              		.loc 3 229 0 is_stmt 0 discriminator 1
 435 000a 8268     		ldr	r2, [r0, #8]
 436 000c 82B9     		cbnz	r2, .L22
 437              	.L18:
 438              		.loc 3 230 0 is_stmt 1
 439 000e 8268     		ldr	r2, [r0, #8]
 440 0010 0132     		adds	r2, r2, #1
 441 0012 8260     		str	r2, [r0, #8]
 442              		.loc 3 231 0
 443 0014 5A1C     		adds	r2, r3, #1
 444 0016 4261     		str	r2, [r0, #20]
 445 0018 1970     		strb	r1, [r3]
 446              		.loc 3 232 0
 447 001a 4269     		ldr	r2, [r0, #20]
 448 001c 0369     		ldr	r3, [r0, #16]
 449 001e 9A42     		cmp	r2, r3
 450 0020 01D3     		bcc	.L21
 451              		.loc 3 233 0
 452 0022 C368     		ldr	r3, [r0, #12]
 453 0024 4361     		str	r3, [r0, #20]
 454              	.L21:
 455              	.LVL44:
 456              	.LBB95:
ARM GAS  /tmp/ccEI3m4F.s 			page 9


 457              	.LBB96:
 458              		.loc 5 844 0
 459 0026 0021     		movs	r1, #0
 460              	.LVL45:
 461 0028 FFF7FEFF 		bl	chThdDequeueNextI
 462              	.LVL46:
 463              	.LBE96:
 464              	.LBE95:
 465              		.loc 3 238 0
 466 002c 0020     		movs	r0, #0
 467 002e 08BD     		pop	{r3, pc}
 468              	.LVL47:
 469              	.L22:
 470              		.loc 3 241 0
 471 0030 4FF0FF30 		mov	r0, #-1
 472              	.LVL48:
 473 0034 08BD     		pop	{r3, pc}
 474              		.cfi_endproc
 475              	.LFE338:
 476              		.size	iqPutI, .-iqPutI
 477              		.section	.text.iqGetI,"ax",%progbits
 478              		.align	1
 479              		.global	iqGetI
 480              		.syntax unified
 481              		.thumb
 482              		.thumb_func
 483              		.fpu fpv4-sp-d16
 484              		.type	iqGetI, %function
 485              	iqGetI:
 486              	.LFB339:
 487              		.loc 3 258 0
 488              		.cfi_startproc
 489              		@ args = 0, pretend = 0, frame = 0
 490              		@ frame_needed = 0, uses_anonymous_args = 0
 491              	.LVL49:
 492              		.loc 3 263 0
 493 0000 8368     		ldr	r3, [r0, #8]
 494              		.loc 3 258 0
 495 0002 10B5     		push	{r4, lr}
 496              		.cfi_def_cfa_offset 8
 497              		.cfi_offset 4, -8
 498              		.cfi_offset 14, -4
 499              		.loc 3 263 0
 500 0004 83B1     		cbz	r3, .L27
 501              	.LBB97:
 502              		.loc 3 267 0
 503 0006 8368     		ldr	r3, [r0, #8]
 504              		.loc 3 268 0
 505 0008 8269     		ldr	r2, [r0, #24]
 506              		.loc 3 267 0
 507 000a 013B     		subs	r3, r3, #1
 508 000c 8360     		str	r3, [r0, #8]
 509              		.loc 3 268 0
 510 000e 531C     		adds	r3, r2, #1
 511 0010 8361     		str	r3, [r0, #24]
 512 0012 1478     		ldrb	r4, [r2]	@ zero_extendqisi2
 513              	.LVL50:
ARM GAS  /tmp/ccEI3m4F.s 			page 10


 514              		.loc 3 269 0
 515 0014 0269     		ldr	r2, [r0, #16]
 516 0016 9342     		cmp	r3, r2
 517              		.loc 3 270 0
 518 0018 24BF     		itt	cs
 519 001a C368     		ldrcs	r3, [r0, #12]
 520 001c 8361     		strcs	r3, [r0, #24]
 521              		.loc 3 274 0
 522 001e C369     		ldr	r3, [r0, #28]
 523 0020 03B1     		cbz	r3, .L26
 524              		.loc 3 275 0
 525 0022 9847     		blx	r3
 526              	.LVL51:
 527              	.L26:
 528              		.loc 3 278 0
 529 0024 2046     		mov	r0, r4
 530 0026 10BD     		pop	{r4, pc}
 531              	.LVL52:
 532              	.L27:
 533              	.LBE97:
 534              		.loc 3 281 0
 535 0028 4FF0FF30 		mov	r0, #-1
 536              	.LVL53:
 537              		.loc 3 282 0
 538 002c 10BD     		pop	{r4, pc}
 539              		.cfi_endproc
 540              	.LFE339:
 541              		.size	iqGetI, .-iqGetI
 542              		.section	.text.iqGetTimeout,"ax",%progbits
 543              		.align	1
 544              		.global	iqGetTimeout
 545              		.syntax unified
 546              		.thumb
 547              		.thumb_func
 548              		.fpu fpv4-sp-d16
 549              		.type	iqGetTimeout, %function
 550              	iqGetTimeout:
 551              	.LFB340:
 552              		.loc 3 304 0
 553              		.cfi_startproc
 554              		@ args = 0, pretend = 0, frame = 0
 555              		@ frame_needed = 0, uses_anonymous_args = 0
 556              	.LVL54:
 557 0000 70B5     		push	{r4, r5, r6, lr}
 558              		.cfi_def_cfa_offset 16
 559              		.cfi_offset 4, -16
 560              		.cfi_offset 5, -12
 561              		.cfi_offset 6, -8
 562              		.cfi_offset 14, -4
 563              		.loc 3 304 0
 564 0002 0446     		mov	r4, r0
 565 0004 0E46     		mov	r6, r1
 566              	.LBB98:
 567              	.LBB99:
 568              		.loc 5 511 0
 569 0006 FFF7FEFF 		bl	chSysLock
 570              	.LVL55:
ARM GAS  /tmp/ccEI3m4F.s 			page 11


 571              	.L32:
 572              	.LBE99:
 573              	.LBE98:
 574              		.loc 3 310 0
 575 000a A368     		ldr	r3, [r4, #8]
 576 000c 83B1     		cbz	r3, .L34
 577              		.loc 3 319 0
 578 000e A368     		ldr	r3, [r4, #8]
 579              		.loc 3 320 0
 580 0010 A269     		ldr	r2, [r4, #24]
 581              		.loc 3 319 0
 582 0012 013B     		subs	r3, r3, #1
 583 0014 A360     		str	r3, [r4, #8]
 584              		.loc 3 320 0
 585 0016 531C     		adds	r3, r2, #1
 586 0018 A361     		str	r3, [r4, #24]
 587 001a 1578     		ldrb	r5, [r2]	@ zero_extendqisi2
 588              	.LVL56:
 589              		.loc 3 321 0
 590 001c 2269     		ldr	r2, [r4, #16]
 591 001e 9342     		cmp	r3, r2
 592              		.loc 3 322 0
 593 0020 24BF     		itt	cs
 594 0022 E368     		ldrcs	r3, [r4, #12]
 595 0024 A361     		strcs	r3, [r4, #24]
 596              		.loc 3 326 0
 597 0026 E369     		ldr	r3, [r4, #28]
 598 0028 43B1     		cbz	r3, .L36
 599              		.loc 3 327 0
 600 002a 2046     		mov	r0, r4
 601 002c 9847     		blx	r3
 602              	.LVL57:
 603 002e 05E0     		b	.L36
 604              	.LVL58:
 605              	.L34:
 606              	.LBB100:
 607              	.LBB101:
 608              	.LBB102:
 609              		.loc 5 831 0
 610 0030 3146     		mov	r1, r6
 611 0032 2046     		mov	r0, r4
 612 0034 FFF7FEFF 		bl	chThdEnqueueTimeoutS
 613              	.LVL59:
 614              	.LBE102:
 615              	.LBE101:
 616              		.loc 3 312 0
 617 0038 051E     		subs	r5, r0, #0
 618 003a E6DA     		bge	.L32
 619              	.L36:
 620              	.LBE100:
 621              	.LBB103:
 622              	.LBB104:
 623              		.loc 5 522 0
 624 003c FFF7FEFF 		bl	chSysUnlock
 625              	.LVL60:
 626              	.LBE104:
 627              	.LBE103:
ARM GAS  /tmp/ccEI3m4F.s 			page 12


 628              		.loc 3 333 0
 629 0040 2846     		mov	r0, r5
 630 0042 70BD     		pop	{r4, r5, r6, pc}
 631              		.cfi_endproc
 632              	.LFE340:
 633              		.size	iqGetTimeout, .-iqGetTimeout
 634              		.section	.text.iqReadI,"ax",%progbits
 635              		.align	1
 636              		.global	iqReadI
 637              		.syntax unified
 638              		.thumb
 639              		.thumb_func
 640              		.fpu fpv4-sp-d16
 641              		.type	iqReadI, %function
 642              	iqReadI:
 643              	.LFB341:
 644              		.loc 3 348 0
 645              		.cfi_startproc
 646              		@ args = 0, pretend = 0, frame = 0
 647              		@ frame_needed = 0, uses_anonymous_args = 0
 648              	.LVL61:
 649 0000 70B5     		push	{r4, r5, r6, lr}
 650              		.cfi_def_cfa_offset 16
 651              		.cfi_offset 4, -16
 652              		.cfi_offset 5, -12
 653              		.cfi_offset 6, -8
 654              		.cfi_offset 14, -4
 655              		.loc 3 348 0
 656 0002 0646     		mov	r6, r0
 657              		.loc 3 349 0
 658 0004 C569     		ldr	r5, [r0, #28]
 659              	.LVL62:
 660              		.loc 3 354 0
 661 0006 FFF7FEFF 		bl	iq_read
 662              	.LVL63:
 663              		.loc 3 358 0
 664 000a 0446     		mov	r4, r0
 665 000c 10B1     		cbz	r0, .L41
 666              		.loc 3 358 0 is_stmt 0 discriminator 1
 667 000e 0DB1     		cbz	r5, .L41
 668              		.loc 3 359 0 is_stmt 1
 669 0010 3046     		mov	r0, r6
 670              	.LVL64:
 671 0012 A847     		blx	r5
 672              	.LVL65:
 673              	.L41:
 674              		.loc 3 363 0
 675 0014 2046     		mov	r0, r4
 676 0016 70BD     		pop	{r4, r5, r6, pc}
 677              		.cfi_endproc
 678              	.LFE341:
 679              		.size	iqReadI, .-iqReadI
 680              		.section	.text.iqReadTimeout,"ax",%progbits
 681              		.align	1
 682              		.global	iqReadTimeout
 683              		.syntax unified
 684              		.thumb
ARM GAS  /tmp/ccEI3m4F.s 			page 13


 685              		.thumb_func
 686              		.fpu fpv4-sp-d16
 687              		.type	iqReadTimeout, %function
 688              	iqReadTimeout:
 689              	.LFB342:
 690              		.loc 3 390 0
 691              		.cfi_startproc
 692              		@ args = 0, pretend = 0, frame = 0
 693              		@ frame_needed = 0, uses_anonymous_args = 0
 694              	.LVL66:
 695 0000 2DE9F047 		push	{r4, r5, r6, r7, r8, r9, r10, lr}
 696              		.cfi_def_cfa_offset 32
 697              		.cfi_offset 4, -32
 698              		.cfi_offset 5, -28
 699              		.cfi_offset 6, -24
 700              		.cfi_offset 7, -20
 701              		.cfi_offset 8, -16
 702              		.cfi_offset 9, -12
 703              		.cfi_offset 10, -8
 704              		.cfi_offset 14, -4
 705              		.loc 3 390 0
 706 0004 9046     		mov	r8, r2
 707 0006 0546     		mov	r5, r0
 708 0008 0E46     		mov	r6, r1
 709 000a 9A46     		mov	r10, r3
 710              	.LBB105:
 711              	.LBB106:
 712              		.loc 5 511 0
 713 000c 4446     		mov	r4, r8
 714              	.LBE106:
 715              	.LBE105:
 716              		.loc 3 391 0
 717 000e D0F81C90 		ldr	r9, [r0, #28]
 718              	.LVL67:
 719              	.LBB108:
 720              	.LBB107:
 721              		.loc 5 511 0
 722 0012 FFF7FEFF 		bl	chSysLock
 723              	.LVL68:
 724              	.L50:
 725              	.LBE107:
 726              	.LBE108:
 727              		.loc 3 398 0
 728 0016 64B1     		cbz	r4, .L52
 729              	.LBB109:
 730              		.loc 3 401 0
 731 0018 2246     		mov	r2, r4
 732 001a 3146     		mov	r1, r6
 733 001c 2846     		mov	r0, r5
 734 001e FFF7FEFF 		bl	iq_read
 735              	.LVL69:
 736              		.loc 3 402 0
 737 0022 0746     		mov	r7, r0
 738 0024 58B9     		cbnz	r0, .L51
 739              	.LVL70:
 740              	.LBB110:
 741              	.LBB111:
ARM GAS  /tmp/ccEI3m4F.s 			page 14


 742              	.LBB112:
 743              		.loc 5 831 0
 744 0026 5146     		mov	r1, r10
 745 0028 2846     		mov	r0, r5
 746              	.LVL71:
 747 002a FFF7FEFF 		bl	chThdEnqueueTimeoutS
 748              	.LVL72:
 749              	.LBE112:
 750              	.LBE111:
 751              		.loc 3 406 0
 752 002e 0028     		cmp	r0, #0
 753 0030 F1D0     		beq	.L50
 754              	.LVL73:
 755              	.L52:
 756              	.LBE110:
 757              	.LBE109:
 758              	.LBB117:
 759              	.LBB118:
 760              		.loc 5 522 0
 761 0032 FFF7FEFF 		bl	chSysUnlock
 762              	.LVL74:
 763              	.LBE118:
 764              	.LBE117:
 765              		.loc 3 429 0
 766 0036 A8EB0400 		sub	r0, r8, r4
 767 003a BDE8F087 		pop	{r4, r5, r6, r7, r8, r9, r10, pc}
 768              	.LVL75:
 769              	.L51:
 770              	.LBB119:
 771              		.loc 3 413 0
 772 003e B9F1000F 		cmp	r9, #0
 773 0042 01D0     		beq	.L54
 774              		.loc 3 414 0
 775 0044 2846     		mov	r0, r5
 776              	.LVL76:
 777 0046 C847     		blx	r9
 778              	.LVL77:
 779              	.L54:
 780              	.LBB113:
 781              	.LBB114:
 782              		.loc 5 522 0
 783 0048 FFF7FEFF 		bl	chSysUnlock
 784              	.LVL78:
 785              	.LBE114:
 786              	.LBE113:
 787              		.loc 3 420 0
 788 004c E41B     		subs	r4, r4, r7
 789              	.LVL79:
 790              		.loc 3 421 0
 791 004e 3E44     		add	r6, r6, r7
 792              	.LVL80:
 793              	.LBB115:
 794              	.LBB116:
 795              		.loc 5 511 0
 796 0050 FFF7FEFF 		bl	chSysLock
 797              	.LVL81:
 798 0054 DFE7     		b	.L50
ARM GAS  /tmp/ccEI3m4F.s 			page 15


 799              	.LBE116:
 800              	.LBE115:
 801              	.LBE119:
 802              		.cfi_endproc
 803              	.LFE342:
 804              		.size	iqReadTimeout, .-iqReadTimeout
 805              		.section	.text.oqObjectInit,"ax",%progbits
 806              		.align	1
 807              		.global	oqObjectInit
 808              		.syntax unified
 809              		.thumb
 810              		.thumb_func
 811              		.fpu fpv4-sp-d16
 812              		.type	oqObjectInit, %function
 813              	oqObjectInit:
 814              	.LFB343:
 815              		.loc 3 447 0
 816              		.cfi_startproc
 817              		@ args = 4, pretend = 0, frame = 0
 818              		@ frame_needed = 0, uses_anonymous_args = 0
 819              		@ link register save eliminated.
 820              	.LVL82:
 821              		.loc 3 451 0
 822 0000 C160     		str	r1, [r0, #12]
 823              		.loc 3 452 0
 824 0002 8161     		str	r1, [r0, #24]
 825              		.loc 3 453 0
 826 0004 4161     		str	r1, [r0, #20]
 827              		.loc 3 454 0
 828 0006 1144     		add	r1, r1, r2
 829              	.LVL83:
 830              		.loc 3 455 0
 831 0008 C361     		str	r3, [r0, #28]
 832              		.loc 3 456 0
 833 000a 009B     		ldr	r3, [sp]
 834              	.LVL84:
 835              	.LBB120:
 836              	.LBB121:
 837              	.LBB122:
 838              	.LBB123:
 839              		.loc 4 539 0
 840 000c 0060     		str	r0, [r0]
 841              		.loc 4 540 0
 842 000e 4060     		str	r0, [r0, #4]
 843              	.LVL85:
 844              	.LBE123:
 845              	.LBE122:
 846              	.LBE121:
 847              	.LBE120:
 848              		.loc 3 450 0
 849 0010 8260     		str	r2, [r0, #8]
 850              		.loc 3 454 0
 851 0012 0161     		str	r1, [r0, #16]
 852              		.loc 3 456 0
 853 0014 0362     		str	r3, [r0, #32]
 854 0016 7047     		bx	lr
 855              		.cfi_endproc
ARM GAS  /tmp/ccEI3m4F.s 			page 16


 856              	.LFE343:
 857              		.size	oqObjectInit, .-oqObjectInit
 858              		.section	.text.oqResetI,"ax",%progbits
 859              		.align	1
 860              		.global	oqResetI
 861              		.syntax unified
 862              		.thumb
 863              		.thumb_func
 864              		.fpu fpv4-sp-d16
 865              		.type	oqResetI, %function
 866              	oqResetI:
 867              	.LFB344:
 868              		.loc 3 470 0
 869              		.cfi_startproc
 870              		@ args = 0, pretend = 0, frame = 0
 871              		@ frame_needed = 0, uses_anonymous_args = 0
 872              		@ link register save eliminated.
 873              	.LVL86:
 874              		.loc 3 474 0
 875 0000 C168     		ldr	r1, [r0, #12]
 876              		.loc 3 476 0
 877 0002 0269     		ldr	r2, [r0, #16]
 878              		.loc 3 474 0
 879 0004 8161     		str	r1, [r0, #24]
 880              		.loc 3 476 0
 881 0006 521A     		subs	r2, r2, r1
 882              		.loc 3 475 0
 883 0008 4161     		str	r1, [r0, #20]
 884              	.LBB124:
 885              	.LBB125:
 886              		.loc 5 857 0
 887 000a 6FF00101 		mvn	r1, #1
 888              	.LBE125:
 889              	.LBE124:
 890              		.loc 3 476 0
 891 000e 8260     		str	r2, [r0, #8]
 892              	.LVL87:
 893              	.LBB127:
 894              	.LBB126:
 895              		.loc 5 857 0
 896 0010 FFF7FEBF 		b	chThdDequeueAllI
 897              	.LVL88:
 898              	.LBE126:
 899              	.LBE127:
 900              		.cfi_endproc
 901              	.LFE344:
 902              		.size	oqResetI, .-oqResetI
 903              		.section	.text.oqPutI,"ax",%progbits
 904              		.align	1
 905              		.global	oqPutI
 906              		.syntax unified
 907              		.thumb
 908              		.thumb_func
 909              		.fpu fpv4-sp-d16
 910              		.type	oqPutI, %function
 911              	oqPutI:
 912              	.LFB345:
ARM GAS  /tmp/ccEI3m4F.s 			page 17


 913              		.loc 3 494 0
 914              		.cfi_startproc
 915              		@ args = 0, pretend = 0, frame = 0
 916              		@ frame_needed = 0, uses_anonymous_args = 0
 917              	.LVL89:
 918 0000 08B5     		push	{r3, lr}
 919              		.cfi_def_cfa_offset 8
 920              		.cfi_offset 3, -8
 921              		.cfi_offset 14, -4
 922              		.loc 3 499 0
 923 0002 8368     		ldr	r3, [r0, #8]
 924 0004 8BB1     		cbz	r3, .L64
 925              		.loc 3 501 0
 926 0006 8368     		ldr	r3, [r0, #8]
 927 0008 013B     		subs	r3, r3, #1
 928 000a 8360     		str	r3, [r0, #8]
 929              		.loc 3 502 0
 930 000c 4369     		ldr	r3, [r0, #20]
 931 000e 5A1C     		adds	r2, r3, #1
 932 0010 4261     		str	r2, [r0, #20]
 933 0012 1970     		strb	r1, [r3]
 934              		.loc 3 503 0
 935 0014 0369     		ldr	r3, [r0, #16]
 936 0016 4269     		ldr	r2, [r0, #20]
 937 0018 9A42     		cmp	r2, r3
 938              		.loc 3 504 0
 939 001a 24BF     		itt	cs
 940 001c C368     		ldrcs	r3, [r0, #12]
 941 001e 4361     		strcs	r3, [r0, #20]
 942              		.loc 3 508 0
 943 0020 C369     		ldr	r3, [r0, #28]
 944 0022 03B1     		cbz	r3, .L66
 945              		.loc 3 509 0
 946 0024 9847     		blx	r3
 947              	.LVL90:
 948              	.L66:
 949              		.loc 3 512 0
 950 0026 0020     		movs	r0, #0
 951 0028 08BD     		pop	{r3, pc}
 952              	.LVL91:
 953              	.L64:
 954              		.loc 3 515 0
 955 002a 4FF0FF30 		mov	r0, #-1
 956              	.LVL92:
 957 002e 08BD     		pop	{r3, pc}
 958              		.cfi_endproc
 959              	.LFE345:
 960              		.size	oqPutI, .-oqPutI
 961              		.section	.text.oqPutTimeout,"ax",%progbits
 962              		.align	1
 963              		.global	oqPutTimeout
 964              		.syntax unified
 965              		.thumb
 966              		.thumb_func
 967              		.fpu fpv4-sp-d16
 968              		.type	oqPutTimeout, %function
 969              	oqPutTimeout:
ARM GAS  /tmp/ccEI3m4F.s 			page 18


 970              	.LFB346:
 971              		.loc 3 540 0
 972              		.cfi_startproc
 973              		@ args = 0, pretend = 0, frame = 0
 974              		@ frame_needed = 0, uses_anonymous_args = 0
 975              	.LVL93:
 976 0000 F8B5     		push	{r3, r4, r5, r6, r7, lr}
 977              		.cfi_def_cfa_offset 24
 978              		.cfi_offset 3, -24
 979              		.cfi_offset 4, -20
 980              		.cfi_offset 5, -16
 981              		.cfi_offset 6, -12
 982              		.cfi_offset 7, -8
 983              		.cfi_offset 14, -4
 984              		.loc 3 540 0
 985 0002 0446     		mov	r4, r0
 986 0004 0E46     		mov	r6, r1
 987 0006 1746     		mov	r7, r2
 988              	.LBB128:
 989              	.LBB129:
 990              		.loc 5 511 0
 991 0008 FFF7FEFF 		bl	chSysLock
 992              	.LVL94:
 993              	.L68:
 994              	.LBE129:
 995              	.LBE128:
 996              		.loc 3 545 0
 997 000c A368     		ldr	r3, [r4, #8]
 998 000e A3B1     		cbz	r3, .L70
 999              		.loc 3 554 0
 1000 0010 A368     		ldr	r3, [r4, #8]
 1001 0012 013B     		subs	r3, r3, #1
 1002 0014 A360     		str	r3, [r4, #8]
 1003              		.loc 3 555 0
 1004 0016 6369     		ldr	r3, [r4, #20]
 1005 0018 5A1C     		adds	r2, r3, #1
 1006 001a 6261     		str	r2, [r4, #20]
 1007 001c 1E70     		strb	r6, [r3]
 1008              		.loc 3 556 0
 1009 001e 2369     		ldr	r3, [r4, #16]
 1010 0020 6269     		ldr	r2, [r4, #20]
 1011 0022 9A42     		cmp	r2, r3
 1012              		.loc 3 557 0
 1013 0024 24BF     		itt	cs
 1014 0026 E368     		ldrcs	r3, [r4, #12]
 1015 0028 6361     		strcs	r3, [r4, #20]
 1016              		.loc 3 561 0
 1017 002a E369     		ldr	r3, [r4, #28]
 1018 002c 0BB1     		cbz	r3, .L72
 1019              		.loc 3 562 0
 1020 002e 2046     		mov	r0, r4
 1021 0030 9847     		blx	r3
 1022              	.LVL95:
 1023              	.L72:
 1024              	.LBB130:
 1025              	.LBB131:
 1026              		.loc 5 522 0
ARM GAS  /tmp/ccEI3m4F.s 			page 19


 1027 0032 FFF7FEFF 		bl	chSysUnlock
 1028              	.LVL96:
 1029              	.LBE131:
 1030              	.LBE130:
 1031              		.loc 3 567 0
 1032 0036 0025     		movs	r5, #0
 1033 0038 07E0     		b	.L67
 1034              	.L70:
 1035              	.LVL97:
 1036              	.LBB132:
 1037              	.LBB133:
 1038              	.LBB134:
 1039              		.loc 5 831 0
 1040 003a 3946     		mov	r1, r7
 1041 003c 2046     		mov	r0, r4
 1042 003e FFF7FEFF 		bl	chThdEnqueueTimeoutS
 1043              	.LVL98:
 1044              	.LBE134:
 1045              	.LBE133:
 1046              		.loc 3 547 0
 1047 0042 051E     		subs	r5, r0, #0
 1048 0044 E2DA     		bge	.L68
 1049              	.LBB135:
 1050              	.LBB136:
 1051              		.loc 5 522 0
 1052 0046 FFF7FEFF 		bl	chSysUnlock
 1053              	.LVL99:
 1054              	.L67:
 1055              	.LBE136:
 1056              	.LBE135:
 1057              	.LBE132:
 1058              		.loc 3 568 0
 1059 004a 2846     		mov	r0, r5
 1060 004c F8BD     		pop	{r3, r4, r5, r6, r7, pc}
 1061              		.cfi_endproc
 1062              	.LFE346:
 1063              		.size	oqPutTimeout, .-oqPutTimeout
 1064              		.section	.text.oqGetI,"ax",%progbits
 1065              		.align	1
 1066              		.global	oqGetI
 1067              		.syntax unified
 1068              		.thumb
 1069              		.thumb_func
 1070              		.fpu fpv4-sp-d16
 1071              		.type	oqGetI, %function
 1072              	oqGetI:
 1073              	.LFB347:
 1074              		.loc 3 581 0
 1075              		.cfi_startproc
 1076              		@ args = 0, pretend = 0, frame = 0
 1077              		@ frame_needed = 0, uses_anonymous_args = 0
 1078              	.LVL100:
 1079              		.loc 3 586 0
 1080 0000 8369     		ldr	r3, [r0, #24]
 1081 0002 4269     		ldr	r2, [r0, #20]
 1082 0004 9A42     		cmp	r2, r3
 1083              		.loc 3 581 0
ARM GAS  /tmp/ccEI3m4F.s 			page 20


 1084 0006 10B5     		push	{r4, lr}
 1085              		.cfi_def_cfa_offset 8
 1086              		.cfi_offset 4, -8
 1087              		.cfi_offset 14, -4
 1088              		.loc 3 586 0
 1089 0008 01D1     		bne	.L78
 1090              		.loc 3 586 0 is_stmt 0 discriminator 1
 1091 000a 8268     		ldr	r2, [r0, #8]
 1092 000c 7AB9     		cbnz	r2, .L82
 1093              	.L78:
 1094              	.LBB137:
 1095              		.loc 3 589 0 is_stmt 1
 1096 000e 8268     		ldr	r2, [r0, #8]
 1097 0010 0132     		adds	r2, r2, #1
 1098 0012 8260     		str	r2, [r0, #8]
 1099              		.loc 3 590 0
 1100 0014 5A1C     		adds	r2, r3, #1
 1101 0016 8261     		str	r2, [r0, #24]
 1102 0018 1C78     		ldrb	r4, [r3]	@ zero_extendqisi2
 1103              	.LVL101:
 1104              		.loc 3 591 0
 1105 001a 0369     		ldr	r3, [r0, #16]
 1106 001c 9A42     		cmp	r2, r3
 1107 001e 01D3     		bcc	.L81
 1108              		.loc 3 592 0
 1109 0020 C368     		ldr	r3, [r0, #12]
 1110 0022 8361     		str	r3, [r0, #24]
 1111              	.L81:
 1112              	.LVL102:
 1113              	.LBB138:
 1114              	.LBB139:
 1115              		.loc 5 844 0
 1116 0024 0021     		movs	r1, #0
 1117 0026 FFF7FEFF 		bl	chThdDequeueNextI
 1118              	.LVL103:
 1119              	.LBE139:
 1120              	.LBE138:
 1121              		.loc 3 597 0
 1122 002a 2046     		mov	r0, r4
 1123 002c 10BD     		pop	{r4, pc}
 1124              	.LVL104:
 1125              	.L82:
 1126              	.LBE137:
 1127              		.loc 3 600 0
 1128 002e 4FF0FF30 		mov	r0, #-1
 1129              	.LVL105:
 1130 0032 10BD     		pop	{r4, pc}
 1131              		.cfi_endproc
 1132              	.LFE347:
 1133              		.size	oqGetI, .-oqGetI
 1134              		.section	.text.oqWriteI,"ax",%progbits
 1135              		.align	1
 1136              		.global	oqWriteI
 1137              		.syntax unified
 1138              		.thumb
 1139              		.thumb_func
 1140              		.fpu fpv4-sp-d16
ARM GAS  /tmp/ccEI3m4F.s 			page 21


 1141              		.type	oqWriteI, %function
 1142              	oqWriteI:
 1143              	.LFB348:
 1144              		.loc 3 617 0
 1145              		.cfi_startproc
 1146              		@ args = 0, pretend = 0, frame = 0
 1147              		@ frame_needed = 0, uses_anonymous_args = 0
 1148              	.LVL106:
 1149 0000 70B5     		push	{r4, r5, r6, lr}
 1150              		.cfi_def_cfa_offset 16
 1151              		.cfi_offset 4, -16
 1152              		.cfi_offset 5, -12
 1153              		.cfi_offset 6, -8
 1154              		.cfi_offset 14, -4
 1155              		.loc 3 617 0
 1156 0002 0646     		mov	r6, r0
 1157              		.loc 3 618 0
 1158 0004 C569     		ldr	r5, [r0, #28]
 1159              	.LVL107:
 1160              		.loc 3 623 0
 1161 0006 FFF7FEFF 		bl	oq_write
 1162              	.LVL108:
 1163              		.loc 3 627 0
 1164 000a 0446     		mov	r4, r0
 1165 000c 10B1     		cbz	r0, .L83
 1166              		.loc 3 627 0 is_stmt 0 discriminator 1
 1167 000e 0DB1     		cbz	r5, .L83
 1168              		.loc 3 628 0 is_stmt 1
 1169 0010 3046     		mov	r0, r6
 1170              	.LVL109:
 1171 0012 A847     		blx	r5
 1172              	.LVL110:
 1173              	.L83:
 1174              		.loc 3 632 0
 1175 0014 2046     		mov	r0, r4
 1176 0016 70BD     		pop	{r4, r5, r6, pc}
 1177              		.cfi_endproc
 1178              	.LFE348:
 1179              		.size	oqWriteI, .-oqWriteI
 1180              		.section	.text.oqWriteTimeout,"ax",%progbits
 1181              		.align	1
 1182              		.global	oqWriteTimeout
 1183              		.syntax unified
 1184              		.thumb
 1185              		.thumb_func
 1186              		.fpu fpv4-sp-d16
 1187              		.type	oqWriteTimeout, %function
 1188              	oqWriteTimeout:
 1189              	.LFB349:
 1190              		.loc 3 659 0
 1191              		.cfi_startproc
 1192              		@ args = 0, pretend = 0, frame = 0
 1193              		@ frame_needed = 0, uses_anonymous_args = 0
 1194              	.LVL111:
 1195 0000 2DE9F047 		push	{r4, r5, r6, r7, r8, r9, r10, lr}
 1196              		.cfi_def_cfa_offset 32
 1197              		.cfi_offset 4, -32
ARM GAS  /tmp/ccEI3m4F.s 			page 22


 1198              		.cfi_offset 5, -28
 1199              		.cfi_offset 6, -24
 1200              		.cfi_offset 7, -20
 1201              		.cfi_offset 8, -16
 1202              		.cfi_offset 9, -12
 1203              		.cfi_offset 10, -8
 1204              		.cfi_offset 14, -4
 1205              		.loc 3 659 0
 1206 0004 9046     		mov	r8, r2
 1207 0006 0546     		mov	r5, r0
 1208 0008 0E46     		mov	r6, r1
 1209 000a 9A46     		mov	r10, r3
 1210              	.LBB140:
 1211              	.LBB141:
 1212              		.loc 5 511 0
 1213 000c 4446     		mov	r4, r8
 1214              	.LBE141:
 1215              	.LBE140:
 1216              		.loc 3 660 0
 1217 000e D0F81C90 		ldr	r9, [r0, #28]
 1218              	.LVL112:
 1219              	.LBB143:
 1220              	.LBB142:
 1221              		.loc 5 511 0
 1222 0012 FFF7FEFF 		bl	chSysLock
 1223              	.LVL113:
 1224              	.L92:
 1225              	.LBE142:
 1226              	.LBE143:
 1227              		.loc 3 667 0
 1228 0016 64B1     		cbz	r4, .L94
 1229              	.LBB144:
 1230              		.loc 3 670 0
 1231 0018 2246     		mov	r2, r4
 1232 001a 3146     		mov	r1, r6
 1233 001c 2846     		mov	r0, r5
 1234 001e FFF7FEFF 		bl	oq_write
 1235              	.LVL114:
 1236              		.loc 3 671 0
 1237 0022 0746     		mov	r7, r0
 1238 0024 58B9     		cbnz	r0, .L93
 1239              	.LVL115:
 1240              	.LBB145:
 1241              	.LBB146:
 1242              	.LBB147:
 1243              		.loc 5 831 0
 1244 0026 5146     		mov	r1, r10
 1245 0028 2846     		mov	r0, r5
 1246              	.LVL116:
 1247 002a FFF7FEFF 		bl	chThdEnqueueTimeoutS
 1248              	.LVL117:
 1249              	.LBE147:
 1250              	.LBE146:
 1251              		.loc 3 675 0
 1252 002e 0028     		cmp	r0, #0
 1253 0030 F1D0     		beq	.L92
 1254              	.LVL118:
ARM GAS  /tmp/ccEI3m4F.s 			page 23


 1255              	.L94:
 1256              	.LBE145:
 1257              	.LBE144:
 1258              	.LBB152:
 1259              	.LBB153:
 1260              		.loc 5 522 0
 1261 0032 FFF7FEFF 		bl	chSysUnlock
 1262              	.LVL119:
 1263              	.LBE153:
 1264              	.LBE152:
 1265              		.loc 3 698 0
 1266 0036 A8EB0400 		sub	r0, r8, r4
 1267 003a BDE8F087 		pop	{r4, r5, r6, r7, r8, r9, r10, pc}
 1268              	.LVL120:
 1269              	.L93:
 1270              	.LBB154:
 1271              		.loc 3 682 0
 1272 003e B9F1000F 		cmp	r9, #0
 1273 0042 01D0     		beq	.L96
 1274              		.loc 3 683 0
 1275 0044 2846     		mov	r0, r5
 1276              	.LVL121:
 1277 0046 C847     		blx	r9
 1278              	.LVL122:
 1279              	.L96:
 1280              	.LBB148:
 1281              	.LBB149:
 1282              		.loc 5 522 0
 1283 0048 FFF7FEFF 		bl	chSysUnlock
 1284              	.LVL123:
 1285              	.LBE149:
 1286              	.LBE148:
 1287              		.loc 3 689 0
 1288 004c E41B     		subs	r4, r4, r7
 1289              	.LVL124:
 1290              		.loc 3 690 0
 1291 004e 3E44     		add	r6, r6, r7
 1292              	.LVL125:
 1293              	.LBB150:
 1294              	.LBB151:
 1295              		.loc 5 511 0
 1296 0050 FFF7FEFF 		bl	chSysLock
 1297              	.LVL126:
 1298 0054 DFE7     		b	.L92
 1299              	.LBE151:
 1300              	.LBE150:
 1301              	.LBE154:
 1302              		.cfi_endproc
 1303              	.LFE349:
 1304              		.size	oqWriteTimeout, .-oqWriteTimeout
 1305              		.text
 1306              	.Letext0:
 1307              		.file 6 "/opt/gcc-arm-none-eabi-6-2017-q2-update/lib/gcc/arm-none-eabi/6.3.1/include/stddef.h"
 1308              		.file 7 "/opt/gcc-arm-none-eabi-6-2017-q2-update/arm-none-eabi/include/machine/_default_types.h"
 1309              		.file 8 "/opt/gcc-arm-none-eabi-6-2017-q2-update/arm-none-eabi/include/sys/lock.h"
 1310              		.file 9 "/opt/gcc-arm-none-eabi-6-2017-q2-update/arm-none-eabi/include/sys/_types.h"
 1311              		.file 10 "/opt/gcc-arm-none-eabi-6-2017-q2-update/arm-none-eabi/include/sys/reent.h"
ARM GAS  /tmp/ccEI3m4F.s 			page 24


 1312              		.file 11 "/opt/gcc-arm-none-eabi-6-2017-q2-update/arm-none-eabi/include/sys/_stdint.h"
 1313              		.file 12 "/opt/gcc-arm-none-eabi-6-2017-q2-update/arm-none-eabi/include/stdint.h"
 1314              		.file 13 "../../modules/ChibiOS/os/common/ports/ARMCMx/compilers/GCC/chtypes.h"
 1315              		.file 14 "../../modules/ChibiOS/os/rt/include/chsystypes.h"
 1316              		.file 15 "../../modules/ChibiOS/os/rt/include/chtime.h"
 1317              		.file 16 "../../modules/ChibiOS/os/common/ext/ARM/CMSIS/Core/Include/core_cm7.h"
 1318              		.file 17 "../../modules/ChibiOS/os/common/ext/ST/STM32F7xx/system_stm32f7xx.h"
 1319              		.file 18 "../../modules/ChibiOS/os/common/ext/ST/STM32F7xx/stm32f767xx.h"
 1320              		.file 19 "../../modules/ChibiOS/os/common/ports/ARMCMx/chcore.h"
 1321              		.file 20 "../../modules/ChibiOS/os/common/ports/ARMCMx/chcore_v7m.h"
 1322              		.file 21 "../../modules/ChibiOS/os/hal/ports/STM32/LLD/TIMv1/stm32_tim.h"
 1323              		.file 22 "../../modules/ChibiOS/os/rt/include/chtm.h"
 1324              		.file 23 "../../modules/ChibiOS/os/rt/include/chstats.h"
 1325              		.file 24 "../../modules/ChibiOS/os/rt/include/chsem.h"
 1326              		.file 25 "../../modules/ChibiOS/os/rt/include/chmtx.h"
 1327              		.file 26 "../../modules/ChibiOS/os/rt/include/chregistry.h"
 1328              		.file 27 "../../modules/ChibiOS/os/rt/include/chevents.h"
 1329              		.file 28 "../../modules/ChibiOS/os/oslib/include/chmemcore.h"
 1330              		.file 29 "../../modules/ChibiOS/os/oslib/include/chmempools.h"
 1331              		.file 30 "../../modules/ChibiOS/os/oslib/include/chfactory.h"
 1332              		.file 31 "../../modules/ChibiOS/os/hal/ports/STM32/LLD/DMAv2/stm32_dma.h"
 1333              		.file 32 "../../modules/ChibiOS/os/hal/include/hal_ioblock.h"
 1334              		.file 33 "../../modules/ChibiOS/os/hal/include/hal_queues.h"
 1335              		.file 34 "../../modules/ChibiOS/os/hal/include/hal_pal.h"
 1336              		.file 35 "../../modules/ChibiOS/os/hal/ports/STM32/LLD/GPIOv2/stm32_gpio.h"
 1337              		.file 36 "../../modules/ChibiOS/os/hal/ports/STM32/LLD/GPIOv2/hal_pal_lld.h"
 1338              		.file 37 "../../modules/ChibiOS/os/hal/include/hal_adc.h"
 1339              		.file 38 "../../modules/ChibiOS/os/hal/ports/STM32/LLD/ADCv2/hal_adc_lld.h"
 1340              		.file 39 "../../modules/ChibiOS/os/hal/include/hal_i2c.h"
 1341              		.file 40 "../../modules/ChibiOS/os/hal/ports/STM32/LLD/I2Cv2/hal_i2c_lld.h"
 1342              		.file 41 "../../modules/ChibiOS/os/hal/include/hal_pwm.h"
 1343              		.file 42 "../../modules/ChibiOS/os/hal/ports/STM32/LLD/TIMv1/hal_pwm_lld.h"
 1344              		.file 43 "../../modules/ChibiOS/os/hal/include/hal_serial.h"
 1345              		.file 44 "../../modules/ChibiOS/os/hal/ports/STM32/LLD/USARTv2/hal_serial_lld.h"
 1346              		.file 45 "../../modules/ChibiOS/os/hal/include/hal_sdc.h"
 1347              		.file 46 "../../modules/ChibiOS/os/hal/ports/STM32/LLD/SDMMCv1/hal_sdc_lld.h"
 1348              		.file 47 "../../modules/ChibiOS/os/hal/include/hal_spi.h"
 1349              		.file 48 "../../modules/ChibiOS/os/hal/ports/STM32/LLD/SPIv2/hal_spi_lld.h"
 1350              		.file 49 "../../modules/ChibiOS/os/hal/include/hal_usb.h"
 1351              		.file 50 "../../modules/ChibiOS/os/hal/ports/STM32/LLD/OTGv1/hal_usb_lld.h"
 1352              		.file 51 "../../modules/ChibiOS/os/hal/ports/STM32/LLD/OTGv1/stm32_otg.h"
 1353              		.file 52 "../../modules/ChibiOS/os/rt/include/chthreads.h"