ARM GAS  /tmp/ccF5htzD.s 			page 1


   1              		.cpu cortex-m7
   2              		.eabi_attribute 27, 1
   3              		.eabi_attribute 28, 1
   4              		.eabi_attribute 20, 1
   5              		.eabi_attribute 21, 1
   6              		.eabi_attribute 23, 3
   7              		.eabi_attribute 24, 1
   8              		.eabi_attribute 25, 1
   9              		.eabi_attribute 26, 1
  10              		.eabi_attribute 30, 4
  11              		.eabi_attribute 34, 1
  12              		.eabi_attribute 18, 4
  13              		.file	"hal_buffers.c"
  14              		.text
  15              	.Ltext0:
  16              		.cfi_sections	.debug_frame
  17              		.section	.text.chSysLock,"ax",%progbits
  18              		.align	1
  19              		.syntax unified
  20              		.thumb
  21              		.thumb_func
  22              		.fpu fpv4-sp-d16
  23              		.type	chSysLock, %function
  24              	chSysLock:
  25              	.LFB195:
  26              		.file 1 "../../modules/ChibiOS/os/rt/include/chsys.h"
  27              		.loc 1 353 0
  28              		.cfi_startproc
  29              		@ args = 0, pretend = 0, frame = 0
  30              		@ frame_needed = 0, uses_anonymous_args = 0
  31              		@ link register save eliminated.
  32              	.LVL0:
  33              	.LBB103:
  34              	.LBB104:
  35              	.LBB105:
  36              		.file 2 "../../modules/ChibiOS/os/common/ext/ARM/CMSIS/Core/Include/cmsis_gcc.h"
  37              		.loc 2 493 0
  38 0000 2023     		movs	r3, #32
  39              		.syntax unified
  40              	@ 493 "../../modules/ChibiOS/os/common/ext/ARM/CMSIS/Core/Include/cmsis_gcc.h" 1
  41 0002 83F31188 		MSR basepri, r3
  42              	@ 0 "" 2
  43              	.LVL1:
  44              		.thumb
  45              		.syntax unified
  46              	.LBE105:
  47              	.LBE104:
  48              	.LBE103:
  49              		.loc 1 356 0
  50 0006 FFF7FEBF 		b	_stats_start_measure_crit_thd
  51              	.LVL2:
  52              		.cfi_endproc
  53              	.LFE195:
  54              		.size	chSysLock, .-chSysLock
  55              		.section	.text.chSysUnlock,"ax",%progbits
  56              		.align	1
  57              		.syntax unified
ARM GAS  /tmp/ccF5htzD.s 			page 2


  58              		.thumb
  59              		.thumb_func
  60              		.fpu fpv4-sp-d16
  61              		.type	chSysUnlock, %function
  62              	chSysUnlock:
  63              	.LFB196:
  64              		.loc 1 365 0
  65              		.cfi_startproc
  66              		@ args = 0, pretend = 0, frame = 0
  67              		@ frame_needed = 0, uses_anonymous_args = 0
  68 0000 08B5     		push	{r3, lr}
  69              		.cfi_def_cfa_offset 8
  70              		.cfi_offset 3, -8
  71              		.cfi_offset 14, -4
  72              		.loc 1 368 0
  73 0002 FFF7FEFF 		bl	_stats_stop_measure_crit_thd
  74              	.LVL3:
  75              	.LBB106:
  76              	.LBB107:
  77              	.LBB108:
  78              		.loc 2 493 0
  79 0006 0023     		movs	r3, #0
  80              		.syntax unified
  81              	@ 493 "../../modules/ChibiOS/os/common/ext/ARM/CMSIS/Core/Include/cmsis_gcc.h" 1
  82 0008 83F31188 		MSR basepri, r3
  83              	@ 0 "" 2
  84              	.LVL4:
  85              		.thumb
  86              		.syntax unified
  87 000c 08BD     		pop	{r3, pc}
  88              	.LBE108:
  89              	.LBE107:
  90              	.LBE106:
  91              		.cfi_endproc
  92              	.LFE196:
  93              		.size	chSysUnlock, .-chSysUnlock
  94              		.section	.text.ibqObjectInit,"ax",%progbits
  95              		.align	1
  96              		.global	ibqObjectInit
  97              		.syntax unified
  98              		.thumb
  99              		.thumb_func
 100              		.fpu fpv4-sp-d16
 101              		.type	ibqObjectInit, %function
 102              	ibqObjectInit:
 103              	.LFB334:
 104              		.file 3 "../../modules/ChibiOS/os/hal/src/hal_buffers.c"
 105              		.loc 3 77 0
 106              		.cfi_startproc
 107              		@ args = 12, pretend = 0, frame = 0
 108              		@ frame_needed = 0, uses_anonymous_args = 0
 109              	.LVL5:
 110 0000 30B5     		push	{r4, r5, lr}
 111              		.cfi_def_cfa_offset 12
 112              		.cfi_offset 4, -12
 113              		.cfi_offset 5, -8
 114              		.cfi_offset 14, -4
ARM GAS  /tmp/ccF5htzD.s 			page 3


 115              		.loc 3 86 0
 116 0002 0433     		adds	r3, r3, #4
 117              	.LVL6:
 118              		.loc 3 77 0
 119 0004 039C     		ldr	r4, [sp, #12]
 120              		.loc 3 82 0
 121 0006 0172     		strb	r1, [r0, #8]
 122              		.loc 3 83 0
 123 0008 0021     		movs	r1, #0
 124              	.LVL7:
 125              		.loc 3 86 0
 126 000a 04FB0325 		mla	r5, r4, r3, r2
 127              		.loc 3 87 0
 128 000e C361     		str	r3, [r0, #28]
 129              		.loc 3 92 0
 130 0010 049B     		ldr	r3, [sp, #16]
 131              	.LVL8:
 132              	.LBB109:
 133              	.LBB110:
 134              	.LBB111:
 135              	.LBB112:
 136              		.file 4 "../../modules/ChibiOS/os/rt/include/chschd.h"
 137              		.loc 4 539 0
 138 0012 0060     		str	r0, [r0]
 139              	.LBE112:
 140              	.LBE111:
 141              	.LBE110:
 142              	.LBE109:
 143              		.loc 3 92 0
 144 0014 0363     		str	r3, [r0, #48]
 145              		.loc 3 93 0
 146 0016 059B     		ldr	r3, [sp, #20]
 147              	.LBB116:
 148              	.LBB115:
 149              	.LBB114:
 150              	.LBB113:
 151              		.loc 4 540 0
 152 0018 4060     		str	r0, [r0, #4]
 153              	.LVL9:
 154              	.LBE113:
 155              	.LBE114:
 156              	.LBE115:
 157              	.LBE116:
 158              		.loc 3 83 0
 159 001a C160     		str	r1, [r0, #12]
 160              		.loc 3 84 0
 161 001c 4261     		str	r2, [r0, #20]
 162              		.loc 3 85 0
 163 001e 0261     		str	r2, [r0, #16]
 164              		.loc 3 86 0
 165 0020 8561     		str	r5, [r0, #24]
 166              		.loc 3 88 0
 167 0022 0462     		str	r4, [r0, #32]
 168              		.loc 3 89 0
 169 0024 4262     		str	r2, [r0, #36]
 170              		.loc 3 90 0
 171 0026 8162     		str	r1, [r0, #40]
ARM GAS  /tmp/ccF5htzD.s 			page 4


 172              		.loc 3 91 0
 173 0028 C162     		str	r1, [r0, #44]
 174              		.loc 3 93 0
 175 002a 4363     		str	r3, [r0, #52]
 176 002c 30BD     		pop	{r4, r5, pc}
 177              		.cfi_endproc
 178              	.LFE334:
 179              		.size	ibqObjectInit, .-ibqObjectInit
 180              		.section	.text.ibqResetI,"ax",%progbits
 181              		.align	1
 182              		.global	ibqResetI
 183              		.syntax unified
 184              		.thumb
 185              		.thumb_func
 186              		.fpu fpv4-sp-d16
 187              		.type	ibqResetI, %function
 188              	ibqResetI:
 189              	.LFB335:
 190              		.loc 3 107 0
 191              		.cfi_startproc
 192              		@ args = 0, pretend = 0, frame = 0
 193              		@ frame_needed = 0, uses_anonymous_args = 0
 194              		@ link register save eliminated.
 195              	.LVL10:
 196              		.loc 3 111 0
 197 0000 0022     		movs	r2, #0
 198              		.loc 3 112 0
 199 0002 416A     		ldr	r1, [r0, #36]
 200              		.loc 3 111 0
 201 0004 C260     		str	r2, [r0, #12]
 202              		.loc 3 112 0
 203 0006 4161     		str	r1, [r0, #20]
 204              		.loc 3 113 0
 205 0008 0161     		str	r1, [r0, #16]
 206              	.LBB117:
 207              	.LBB118:
 208              		.file 5 "../../modules/ChibiOS/os/hal/osal/rt/osal.h"
 209              		.loc 5 857 0
 210 000a 6FF00101 		mvn	r1, #1
 211              	.LBE118:
 212              	.LBE117:
 213              		.loc 3 114 0
 214 000e 8262     		str	r2, [r0, #40]
 215              		.loc 3 115 0
 216 0010 C262     		str	r2, [r0, #44]
 217              	.LVL11:
 218              	.LBB120:
 219              	.LBB119:
 220              		.loc 5 857 0
 221 0012 FFF7FEBF 		b	chThdDequeueAllI
 222              	.LVL12:
 223              	.LBE119:
 224              	.LBE120:
 225              		.cfi_endproc
 226              	.LFE335:
 227              		.size	ibqResetI, .-ibqResetI
 228              		.section	.text.ibqGetEmptyBufferI,"ax",%progbits
ARM GAS  /tmp/ccF5htzD.s 			page 5


 229              		.align	1
 230              		.global	ibqGetEmptyBufferI
 231              		.syntax unified
 232              		.thumb
 233              		.thumb_func
 234              		.fpu fpv4-sp-d16
 235              		.type	ibqGetEmptyBufferI, %function
 236              	ibqGetEmptyBufferI:
 237              	.LFB336:
 238              		.loc 3 129 0
 239              		.cfi_startproc
 240              		@ args = 0, pretend = 0, frame = 0
 241              		@ frame_needed = 0, uses_anonymous_args = 0
 242              		@ link register save eliminated.
 243              	.LVL13:
 244              		.loc 3 133 0
 245 0000 0369     		ldr	r3, [r0, #16]
 246 0002 4269     		ldr	r2, [r0, #20]
 247 0004 9342     		cmp	r3, r2
 248 0006 03D1     		bne	.L6
 249              		.loc 3 133 0 is_stmt 0 discriminator 1
 250 0008 C268     		ldr	r2, [r0, #12]
 251 000a 0AB1     		cbz	r2, .L6
 252              		.loc 3 134 0 is_stmt 1
 253 000c 0020     		movs	r0, #0
 254              	.LVL14:
 255 000e 7047     		bx	lr
 256              	.LVL15:
 257              	.L6:
 258              		.loc 3 137 0
 259 0010 181D     		adds	r0, r3, #4
 260              	.LVL16:
 261              		.loc 3 138 0
 262 0012 7047     		bx	lr
 263              		.cfi_endproc
 264              	.LFE336:
 265              		.size	ibqGetEmptyBufferI, .-ibqGetEmptyBufferI
 266              		.section	.text.ibqPostFullBufferI,"ax",%progbits
 267              		.align	1
 268              		.global	ibqPostFullBufferI
 269              		.syntax unified
 270              		.thumb
 271              		.thumb_func
 272              		.fpu fpv4-sp-d16
 273              		.type	ibqPostFullBufferI, %function
 274              	ibqPostFullBufferI:
 275              	.LFB337:
 276              		.loc 3 148 0
 277              		.cfi_startproc
 278              		@ args = 0, pretend = 0, frame = 0
 279              		@ frame_needed = 0, uses_anonymous_args = 0
 280              		@ link register save eliminated.
 281              	.LVL17:
 282              		.loc 3 156 0
 283 0000 0369     		ldr	r3, [r0, #16]
 284 0002 1960     		str	r1, [r3]
 285              	.LBB121:
ARM GAS  /tmp/ccF5htzD.s 			page 6


 286              	.LBB122:
 287              		.loc 5 844 0
 288 0004 0021     		movs	r1, #0
 289              	.LVL18:
 290              	.LBE122:
 291              	.LBE121:
 292              		.loc 3 159 0
 293 0006 C268     		ldr	r2, [r0, #12]
 294 0008 0132     		adds	r2, r2, #1
 295 000a C260     		str	r2, [r0, #12]
 296              	.LVL19:
 297              		.loc 3 160 0
 298 000c C269     		ldr	r2, [r0, #28]
 299 000e 1344     		add	r3, r3, r2
 300              		.loc 3 161 0
 301 0010 8269     		ldr	r2, [r0, #24]
 302 0012 9342     		cmp	r3, r2
 303              		.loc 3 160 0
 304 0014 0361     		str	r3, [r0, #16]
 305              		.loc 3 162 0
 306 0016 24BF     		itt	cs
 307 0018 436A     		ldrcs	r3, [r0, #36]
 308 001a 0361     		strcs	r3, [r0, #16]
 309              	.LVL20:
 310              	.LBB124:
 311              	.LBB123:
 312              		.loc 5 844 0
 313 001c FFF7FEBF 		b	chThdDequeueNextI
 314              	.LVL21:
 315              	.LBE123:
 316              	.LBE124:
 317              		.cfi_endproc
 318              	.LFE337:
 319              		.size	ibqPostFullBufferI, .-ibqPostFullBufferI
 320              		.section	.text.ibqGetFullBufferTimeoutS,"ax",%progbits
 321              		.align	1
 322              		.global	ibqGetFullBufferTimeoutS
 323              		.syntax unified
 324              		.thumb
 325              		.thumb_func
 326              		.fpu fpv4-sp-d16
 327              		.type	ibqGetFullBufferTimeoutS, %function
 328              	ibqGetFullBufferTimeoutS:
 329              	.LFB339:
 330              		.loc 3 223 0
 331              		.cfi_startproc
 332              		@ args = 0, pretend = 0, frame = 0
 333              		@ frame_needed = 0, uses_anonymous_args = 0
 334              	.LVL22:
 335 0000 38B5     		push	{r3, r4, r5, lr}
 336              		.cfi_def_cfa_offset 16
 337              		.cfi_offset 3, -16
 338              		.cfi_offset 4, -12
 339              		.cfi_offset 5, -8
 340              		.cfi_offset 14, -4
 341 0002 0446     		mov	r4, r0
 342 0004 0D46     		mov	r5, r1
ARM GAS  /tmp/ccF5htzD.s 			page 7


 343              	.LVL23:
 344              	.L14:
 345              		.loc 3 227 0
 346 0006 E368     		ldr	r3, [r4, #12]
 347 0008 3BB1     		cbz	r3, .L16
 348              	.LVL24:
 349              	.LBB133:
 350              	.LBB134:
 351              		.loc 3 240 0
 352 000a 6269     		ldr	r2, [r4, #20]
 353              		.loc 3 241 0
 354 000c 0020     		movs	r0, #0
 355              		.loc 3 240 0
 356 000e 131D     		adds	r3, r2, #4
 357              		.loc 3 241 0
 358 0010 1268     		ldr	r2, [r2]
 359              		.loc 3 240 0
 360 0012 A362     		str	r3, [r4, #40]
 361              		.loc 3 241 0
 362 0014 1344     		add	r3, r3, r2
 363 0016 E362     		str	r3, [r4, #44]
 364              	.LVL25:
 365 0018 38BD     		pop	{r3, r4, r5, pc}
 366              	.LVL26:
 367              	.L16:
 368              	.LBE134:
 369              	.LBE133:
 370              	.LBB135:
 371              		.loc 3 228 0
 372 001a 237A     		ldrb	r3, [r4, #8]	@ zero_extendqisi2
 373 001c 33B9     		cbnz	r3, .L17
 374              	.LVL27:
 375              	.LBB136:
 376              	.LBB137:
 377              		.loc 5 831 0
 378 001e 2946     		mov	r1, r5
 379 0020 2046     		mov	r0, r4
 380 0022 FFF7FEFF 		bl	chThdEnqueueTimeoutS
 381              	.LVL28:
 382              	.LBE137:
 383              	.LBE136:
 384              		.loc 3 232 0
 385 0026 0028     		cmp	r0, #0
 386 0028 EDDA     		bge	.L14
 387              	.L13:
 388              	.LBE135:
 389              		.loc 3 244 0
 390 002a 38BD     		pop	{r3, r4, r5, pc}
 391              	.LVL29:
 392              	.L17:
 393              	.LBB138:
 394              		.loc 3 229 0
 395 002c 6FF00100 		mvn	r0, #1
 396 0030 FBE7     		b	.L13
 397              	.LBE138:
 398              		.cfi_endproc
 399              	.LFE339:
ARM GAS  /tmp/ccF5htzD.s 			page 8


 400              		.size	ibqGetFullBufferTimeoutS, .-ibqGetFullBufferTimeoutS
 401              		.section	.text.ibqGetFullBufferTimeout,"ax",%progbits
 402              		.align	1
 403              		.global	ibqGetFullBufferTimeout
 404              		.syntax unified
 405              		.thumb
 406              		.thumb_func
 407              		.fpu fpv4-sp-d16
 408              		.type	ibqGetFullBufferTimeout, %function
 409              	ibqGetFullBufferTimeout:
 410              	.LFB338:
 411              		.loc 3 191 0
 412              		.cfi_startproc
 413              		@ args = 0, pretend = 0, frame = 0
 414              		@ frame_needed = 0, uses_anonymous_args = 0
 415              	.LVL30:
 416 0000 38B5     		push	{r3, r4, r5, lr}
 417              		.cfi_def_cfa_offset 16
 418              		.cfi_offset 3, -16
 419              		.cfi_offset 4, -12
 420              		.cfi_offset 5, -8
 421              		.cfi_offset 14, -4
 422              		.loc 3 191 0
 423 0002 0446     		mov	r4, r0
 424 0004 0D46     		mov	r5, r1
 425              	.LBB139:
 426              	.LBB140:
 427              		.loc 5 511 0
 428 0006 FFF7FEFF 		bl	chSysLock
 429              	.LVL31:
 430              	.LBE140:
 431              	.LBE139:
 432              		.loc 3 195 0
 433 000a 2946     		mov	r1, r5
 434 000c 2046     		mov	r0, r4
 435 000e FFF7FEFF 		bl	ibqGetFullBufferTimeoutS
 436              	.LVL32:
 437 0012 0446     		mov	r4, r0
 438              	.LVL33:
 439              	.LBB141:
 440              	.LBB142:
 441              		.loc 5 522 0
 442 0014 FFF7FEFF 		bl	chSysUnlock
 443              	.LVL34:
 444              	.LBE142:
 445              	.LBE141:
 446              		.loc 3 199 0
 447 0018 2046     		mov	r0, r4
 448 001a 38BD     		pop	{r3, r4, r5, pc}
 449              		.cfi_endproc
 450              	.LFE338:
 451              		.size	ibqGetFullBufferTimeout, .-ibqGetFullBufferTimeout
 452              		.section	.text.ibqReleaseEmptyBufferS,"ax",%progbits
 453              		.align	1
 454              		.global	ibqReleaseEmptyBufferS
 455              		.syntax unified
 456              		.thumb
ARM GAS  /tmp/ccF5htzD.s 			page 9


 457              		.thumb_func
 458              		.fpu fpv4-sp-d16
 459              		.type	ibqReleaseEmptyBufferS, %function
 460              	ibqReleaseEmptyBufferS:
 461              	.LFB341:
 462              		.loc 3 269 0
 463              		.cfi_startproc
 464              		@ args = 0, pretend = 0, frame = 0
 465              		@ frame_needed = 0, uses_anonymous_args = 0
 466              		@ link register save eliminated.
 467              	.LVL35:
 468              		.loc 3 275 0
 469 0000 C368     		ldr	r3, [r0, #12]
 470              		.loc 3 276 0
 471 0002 C269     		ldr	r2, [r0, #28]
 472              		.loc 3 275 0
 473 0004 013B     		subs	r3, r3, #1
 474 0006 C360     		str	r3, [r0, #12]
 475              		.loc 3 276 0
 476 0008 4369     		ldr	r3, [r0, #20]
 477 000a 1344     		add	r3, r3, r2
 478              		.loc 3 277 0
 479 000c 8269     		ldr	r2, [r0, #24]
 480 000e 9342     		cmp	r3, r2
 481              		.loc 3 276 0
 482 0010 4361     		str	r3, [r0, #20]
 483              		.loc 3 278 0
 484 0012 24BF     		itt	cs
 485 0014 436A     		ldrcs	r3, [r0, #36]
 486 0016 4361     		strcs	r3, [r0, #20]
 487              		.loc 3 282 0
 488 0018 0023     		movs	r3, #0
 489 001a 8362     		str	r3, [r0, #40]
 490              		.loc 3 285 0
 491 001c 036B     		ldr	r3, [r0, #48]
 492 001e 03B1     		cbz	r3, .L19
 493              		.loc 3 286 0
 494 0020 1847     		bx	r3	@ indirect register sibling call
 495              	.LVL36:
 496              	.L19:
 497 0022 7047     		bx	lr
 498              		.cfi_endproc
 499              	.LFE341:
 500              		.size	ibqReleaseEmptyBufferS, .-ibqReleaseEmptyBufferS
 501              		.section	.text.ibqReleaseEmptyBuffer,"ax",%progbits
 502              		.align	1
 503              		.global	ibqReleaseEmptyBuffer
 504              		.syntax unified
 505              		.thumb
 506              		.thumb_func
 507              		.fpu fpv4-sp-d16
 508              		.type	ibqReleaseEmptyBuffer, %function
 509              	ibqReleaseEmptyBuffer:
 510              	.LFB340:
 511              		.loc 3 254 0
 512              		.cfi_startproc
 513              		@ args = 0, pretend = 0, frame = 0
ARM GAS  /tmp/ccF5htzD.s 			page 10


 514              		@ frame_needed = 0, uses_anonymous_args = 0
 515              	.LVL37:
 516 0000 10B5     		push	{r4, lr}
 517              		.cfi_def_cfa_offset 8
 518              		.cfi_offset 4, -8
 519              		.cfi_offset 14, -4
 520              		.loc 3 254 0
 521 0002 0446     		mov	r4, r0
 522              	.LBB143:
 523              	.LBB144:
 524              		.loc 5 511 0
 525 0004 FFF7FEFF 		bl	chSysLock
 526              	.LVL38:
 527              	.LBE144:
 528              	.LBE143:
 529              		.loc 3 257 0
 530 0008 2046     		mov	r0, r4
 531 000a FFF7FEFF 		bl	ibqReleaseEmptyBufferS
 532              	.LVL39:
 533              		.loc 3 259 0
 534 000e BDE81040 		pop	{r4, lr}
 535              		.cfi_restore 14
 536              		.cfi_restore 4
 537              		.cfi_def_cfa_offset 0
 538              	.LVL40:
 539              	.LBB145:
 540              	.LBB146:
 541              		.loc 5 522 0
 542 0012 FFF7FEBF 		b	chSysUnlock
 543              	.LVL41:
 544              	.LBE146:
 545              	.LBE145:
 546              		.cfi_endproc
 547              	.LFE340:
 548              		.size	ibqReleaseEmptyBuffer, .-ibqReleaseEmptyBuffer
 549              		.section	.text.ibqGetTimeout,"ax",%progbits
 550              		.align	1
 551              		.global	ibqGetTimeout
 552              		.syntax unified
 553              		.thumb
 554              		.thumb_func
 555              		.fpu fpv4-sp-d16
 556              		.type	ibqGetTimeout, %function
 557              	ibqGetTimeout:
 558              	.LFB342:
 559              		.loc 3 309 0
 560              		.cfi_startproc
 561              		@ args = 0, pretend = 0, frame = 0
 562              		@ frame_needed = 0, uses_anonymous_args = 0
 563              	.LVL42:
 564 0000 38B5     		push	{r3, r4, r5, lr}
 565              		.cfi_def_cfa_offset 16
 566              		.cfi_offset 3, -16
 567              		.cfi_offset 4, -12
 568              		.cfi_offset 5, -8
 569              		.cfi_offset 14, -4
 570              		.loc 3 309 0
ARM GAS  /tmp/ccF5htzD.s 			page 11


 571 0002 0446     		mov	r4, r0
 572 0004 0D46     		mov	r5, r1
 573              	.LBB147:
 574              	.LBB148:
 575              		.loc 5 511 0
 576 0006 FFF7FEFF 		bl	chSysLock
 577              	.LVL43:
 578              	.LBE148:
 579              	.LBE147:
 580              		.loc 3 315 0
 581 000a A36A     		ldr	r3, [r4, #40]
 582 000c 4BB9     		cbnz	r3, .L24
 583              		.loc 3 316 0
 584 000e 2946     		mov	r1, r5
 585 0010 2046     		mov	r0, r4
 586 0012 FFF7FEFF 		bl	ibqGetFullBufferTimeoutS
 587              	.LVL44:
 588              		.loc 3 317 0
 589 0016 0546     		mov	r5, r0
 590              	.LVL45:
 591 0018 18B1     		cbz	r0, .L24
 592              	.LVL46:
 593              	.L26:
 594              	.LBB149:
 595              	.LBB150:
 596              		.loc 5 522 0
 597 001a FFF7FEFF 		bl	chSysUnlock
 598              	.LVL47:
 599              	.LBE150:
 600              	.LBE149:
 601              		.loc 3 335 0
 602 001e 2846     		mov	r0, r5
 603 0020 38BD     		pop	{r3, r4, r5, pc}
 604              	.LVL48:
 605              	.L24:
 606              		.loc 3 324 0
 607 0022 A36A     		ldr	r3, [r4, #40]
 608              		.loc 3 329 0
 609 0024 E26A     		ldr	r2, [r4, #44]
 610              		.loc 3 324 0
 611 0026 13F8015B 		ldrb	r5, [r3], #1	@ zero_extendqisi2
 612              	.LVL49:
 613              		.loc 3 329 0
 614 002a 9342     		cmp	r3, r2
 615              		.loc 3 325 0
 616 002c A362     		str	r3, [r4, #40]
 617              		.loc 3 329 0
 618 002e F4D3     		bcc	.L26
 619              		.loc 3 330 0
 620 0030 2046     		mov	r0, r4
 621 0032 FFF7FEFF 		bl	ibqReleaseEmptyBufferS
 622              	.LVL50:
 623 0036 F0E7     		b	.L26
 624              		.cfi_endproc
 625              	.LFE342:
 626              		.size	ibqGetTimeout, .-ibqGetTimeout
 627              		.section	.text.ibqReadTimeout,"ax",%progbits
ARM GAS  /tmp/ccF5htzD.s 			page 12


 628              		.align	1
 629              		.global	ibqReadTimeout
 630              		.syntax unified
 631              		.thumb
 632              		.thumb_func
 633              		.fpu fpv4-sp-d16
 634              		.type	ibqReadTimeout, %function
 635              	ibqReadTimeout:
 636              	.LFB343:
 637              		.loc 3 359 0
 638              		.cfi_startproc
 639              		@ args = 0, pretend = 0, frame = 0
 640              		@ frame_needed = 0, uses_anonymous_args = 0
 641              	.LVL51:
 642 0000 2DE9F843 		push	{r3, r4, r5, r6, r7, r8, r9, lr}
 643              		.cfi_def_cfa_offset 32
 644              		.cfi_offset 3, -32
 645              		.cfi_offset 4, -28
 646              		.cfi_offset 5, -24
 647              		.cfi_offset 6, -20
 648              		.cfi_offset 7, -16
 649              		.cfi_offset 8, -12
 650              		.cfi_offset 9, -8
 651              		.cfi_offset 14, -4
 652              		.loc 3 360 0
 653 0004 0025     		movs	r5, #0
 654              		.loc 3 359 0
 655 0006 0446     		mov	r4, r0
 656 0008 0F46     		mov	r7, r1
 657 000a 9046     		mov	r8, r2
 658 000c 9946     		mov	r9, r3
 659              	.LBB151:
 660              	.LBB152:
 661              		.loc 5 511 0
 662 000e FFF7FEFF 		bl	chSysLock
 663              	.LVL52:
 664              	.L37:
 665              	.LBE152:
 666              	.LBE151:
 667              	.LBB153:
 668              		.loc 3 370 0
 669 0012 A36A     		ldr	r3, [r4, #40]
 670 0014 4BB9     		cbnz	r3, .L31
 671              	.LBB154:
 672              		.loc 3 374 0
 673 0016 4946     		mov	r1, r9
 674 0018 2046     		mov	r0, r4
 675 001a FFF7FEFF 		bl	ibqGetFullBufferTimeoutS
 676              	.LVL53:
 677              		.loc 3 377 0
 678 001e 20B1     		cbz	r0, .L31
 679              	.LBB155:
 680              	.LBB156:
 681              		.loc 5 522 0
 682 0020 FFF7FEFF 		bl	chSysUnlock
 683              	.LVL54:
 684              	.L30:
ARM GAS  /tmp/ccF5htzD.s 			page 13


 685              	.LBE156:
 686              	.LBE155:
 687              	.LBE154:
 688              	.LBE153:
 689              		.loc 3 417 0
 690 0024 2846     		mov	r0, r5
 691 0026 BDE8F883 		pop	{r3, r4, r5, r6, r7, r8, r9, pc}
 692              	.LVL55:
 693              	.L31:
 694              	.LBB161:
 695              		.loc 3 384 0
 696 002a E66A     		ldr	r6, [r4, #44]
 697 002c A16A     		ldr	r1, [r4, #40]
 698 002e 731A     		subs	r3, r6, r1
 699              	.LVL56:
 700              		.loc 3 385 0
 701 0030 A8EB0506 		sub	r6, r8, r5
 702 0034 9E42     		cmp	r6, r3
 703 0036 28BF     		it	cs
 704 0038 1E46     		movcs	r6, r3
 705              	.LVL57:
 706              		.loc 3 391 0
 707 003a 402E     		cmp	r6, #64
 708 003c 1BD9     		bls	.L33
 709              		.loc 3 393 0
 710 003e 3B46     		mov	r3, r7
 711 0040 01F14002 		add	r2, r1, #64
 712              	.L34:
 713 0044 51F8040B 		ldr	r0, [r1], #4	@ unaligned
 714 0048 9142     		cmp	r1, r2
 715 004a 43F8040B 		str	r0, [r3], #4	@ unaligned
 716 004e F9D1     		bne	.L34
 717              		.loc 3 395 0
 718 0050 A36A     		ldr	r3, [r4, #40]
 719              		.loc 3 394 0
 720 0052 4037     		adds	r7, r7, #64
 721              	.LVL58:
 722              		.loc 3 396 0
 723 0054 4035     		adds	r5, r5, #64
 724              	.LVL59:
 725              		.loc 3 395 0
 726 0056 4033     		adds	r3, r3, #64
 727 0058 A362     		str	r3, [r4, #40]
 728              	.L35:
 729              		.loc 3 406 0
 730 005a A26A     		ldr	r2, [r4, #40]
 731 005c E36A     		ldr	r3, [r4, #44]
 732 005e 9A42     		cmp	r2, r3
 733 0060 02D3     		bcc	.L36
 734              		.loc 3 407 0
 735 0062 2046     		mov	r0, r4
 736 0064 FFF7FEFF 		bl	ibqReleaseEmptyBufferS
 737              	.LVL60:
 738              	.L36:
 739              	.LBB157:
 740              	.LBB158:
 741              		.loc 5 522 0
ARM GAS  /tmp/ccF5htzD.s 			page 14


 742 0068 FFF7FEFF 		bl	chSysUnlock
 743              	.LVL61:
 744              	.LBE158:
 745              	.LBE157:
 746              		.loc 3 412 0
 747 006c 4545     		cmp	r5, r8
 748 006e D9D2     		bcs	.L30
 749              	.LBB159:
 750              	.LBB160:
 751              		.loc 5 511 0
 752 0070 FFF7FEFF 		bl	chSysLock
 753              	.LVL62:
 754 0074 CDE7     		b	.L37
 755              	.L33:
 756              	.LBE160:
 757              	.LBE159:
 758              		.loc 3 399 0
 759 0076 3846     		mov	r0, r7
 760 0078 3246     		mov	r2, r6
 761 007a FFF7FEFF 		bl	memcpy
 762              	.LVL63:
 763              		.loc 3 401 0
 764 007e A36A     		ldr	r3, [r4, #40]
 765              		.loc 3 400 0
 766 0080 3744     		add	r7, r7, r6
 767              	.LVL64:
 768              		.loc 3 402 0
 769 0082 3544     		add	r5, r5, r6
 770              	.LVL65:
 771              		.loc 3 401 0
 772 0084 3344     		add	r3, r3, r6
 773 0086 A362     		str	r3, [r4, #40]
 774 0088 E7E7     		b	.L35
 775              	.LBE161:
 776              		.cfi_endproc
 777              	.LFE343:
 778              		.size	ibqReadTimeout, .-ibqReadTimeout
 779              		.section	.text.obqObjectInit,"ax",%progbits
 780              		.align	1
 781              		.global	obqObjectInit
 782              		.syntax unified
 783              		.thumb
 784              		.thumb_func
 785              		.fpu fpv4-sp-d16
 786              		.type	obqObjectInit, %function
 787              	obqObjectInit:
 788              	.LFB344:
 789              		.loc 3 433 0
 790              		.cfi_startproc
 791              		@ args = 12, pretend = 0, frame = 0
 792              		@ frame_needed = 0, uses_anonymous_args = 0
 793              	.LVL66:
 794 0000 10B5     		push	{r4, lr}
 795              		.cfi_def_cfa_offset 8
 796              		.cfi_offset 4, -8
 797              		.cfi_offset 14, -4
 798              		.loc 3 433 0
ARM GAS  /tmp/ccF5htzD.s 			page 15


 799 0002 029C     		ldr	r4, [sp, #8]
 800              		.loc 3 442 0
 801 0004 0433     		adds	r3, r3, #4
 802              	.LVL67:
 803              		.loc 3 438 0
 804 0006 0172     		strb	r1, [r0, #8]
 805              		.loc 3 443 0
 806 0008 C361     		str	r3, [r0, #28]
 807              		.loc 3 442 0
 808 000a 03FB0421 		mla	r1, r3, r4, r2
 809              	.LVL68:
 810              		.loc 3 446 0
 811 000e 0023     		movs	r3, #0
 812              	.LVL69:
 813              	.LBB162:
 814              	.LBB163:
 815              	.LBB164:
 816              	.LBB165:
 817              		.loc 4 539 0
 818 0010 0060     		str	r0, [r0]
 819              	.LBE165:
 820              	.LBE164:
 821              	.LBE163:
 822              	.LBE162:
 823              		.loc 3 446 0
 824 0012 8362     		str	r3, [r0, #40]
 825              		.loc 3 447 0
 826 0014 C362     		str	r3, [r0, #44]
 827              		.loc 3 448 0
 828 0016 039B     		ldr	r3, [sp, #12]
 829              	.LBB169:
 830              	.LBB168:
 831              	.LBB167:
 832              	.LBB166:
 833              		.loc 4 540 0
 834 0018 4060     		str	r0, [r0, #4]
 835              	.LVL70:
 836              	.LBE166:
 837              	.LBE167:
 838              	.LBE168:
 839              	.LBE169:
 840              		.loc 3 448 0
 841 001a 0363     		str	r3, [r0, #48]
 842              		.loc 3 449 0
 843 001c 049B     		ldr	r3, [sp, #16]
 844              		.loc 3 439 0
 845 001e C460     		str	r4, [r0, #12]
 846              		.loc 3 440 0
 847 0020 4261     		str	r2, [r0, #20]
 848              		.loc 3 441 0
 849 0022 0261     		str	r2, [r0, #16]
 850              		.loc 3 442 0
 851 0024 8161     		str	r1, [r0, #24]
 852              		.loc 3 444 0
 853 0026 0462     		str	r4, [r0, #32]
 854              		.loc 3 445 0
 855 0028 4262     		str	r2, [r0, #36]
ARM GAS  /tmp/ccF5htzD.s 			page 16


 856              		.loc 3 449 0
 857 002a 4363     		str	r3, [r0, #52]
 858 002c 10BD     		pop	{r4, pc}
 859              		.cfi_endproc
 860              	.LFE344:
 861              		.size	obqObjectInit, .-obqObjectInit
 862              		.section	.text.obqResetI,"ax",%progbits
 863              		.align	1
 864              		.global	obqResetI
 865              		.syntax unified
 866              		.thumb
 867              		.thumb_func
 868              		.fpu fpv4-sp-d16
 869              		.type	obqResetI, %function
 870              	obqResetI:
 871              	.LFB345:
 872              		.loc 3 463 0
 873              		.cfi_startproc
 874              		@ args = 0, pretend = 0, frame = 0
 875              		@ frame_needed = 0, uses_anonymous_args = 0
 876              		@ link register save eliminated.
 877              	.LVL71:
 878              		.loc 3 467 0
 879 0000 026A     		ldr	r2, [r0, #32]
 880              	.LBB170:
 881              	.LBB171:
 882              		.loc 5 857 0
 883 0002 6FF00101 		mvn	r1, #1
 884              	.LBE171:
 885              	.LBE170:
 886              		.loc 3 467 0
 887 0006 C260     		str	r2, [r0, #12]
 888              		.loc 3 468 0
 889 0008 426A     		ldr	r2, [r0, #36]
 890 000a 4261     		str	r2, [r0, #20]
 891              		.loc 3 469 0
 892 000c 0261     		str	r2, [r0, #16]
 893              		.loc 3 470 0
 894 000e 0022     		movs	r2, #0
 895 0010 8262     		str	r2, [r0, #40]
 896              		.loc 3 471 0
 897 0012 C262     		str	r2, [r0, #44]
 898              	.LVL72:
 899              	.LBB173:
 900              	.LBB172:
 901              		.loc 5 857 0
 902 0014 FFF7FEBF 		b	chThdDequeueAllI
 903              	.LVL73:
 904              	.LBE172:
 905              	.LBE173:
 906              		.cfi_endproc
 907              	.LFE345:
 908              		.size	obqResetI, .-obqResetI
 909              		.section	.text.obqGetFullBufferI,"ax",%progbits
 910              		.align	1
 911              		.global	obqGetFullBufferI
 912              		.syntax unified
ARM GAS  /tmp/ccF5htzD.s 			page 17


 913              		.thumb
 914              		.thumb_func
 915              		.fpu fpv4-sp-d16
 916              		.type	obqGetFullBufferI, %function
 917              	obqGetFullBufferI:
 918              	.LFB346:
 919              		.loc 3 487 0
 920              		.cfi_startproc
 921              		@ args = 0, pretend = 0, frame = 0
 922              		@ frame_needed = 0, uses_anonymous_args = 0
 923              		@ link register save eliminated.
 924              	.LVL74:
 925              		.loc 3 491 0
 926 0000 4369     		ldr	r3, [r0, #20]
 927 0002 0269     		ldr	r2, [r0, #16]
 928 0004 9A42     		cmp	r2, r3
 929 0006 03D1     		bne	.L45
 930              		.loc 3 491 0 is_stmt 0 discriminator 1
 931 0008 C268     		ldr	r2, [r0, #12]
 932 000a 0AB1     		cbz	r2, .L45
 933              		.loc 3 492 0 is_stmt 1
 934 000c 0020     		movs	r0, #0
 935              	.LVL75:
 936 000e 7047     		bx	lr
 937              	.LVL76:
 938              	.L45:
 939              		.loc 3 496 0
 940 0010 1846     		mov	r0, r3
 941              	.LVL77:
 942 0012 50F8043B 		ldr	r3, [r0], #4
 943 0016 0B60     		str	r3, [r1]
 944              		.loc 3 499 0
 945 0018 7047     		bx	lr
 946              		.cfi_endproc
 947              	.LFE346:
 948              		.size	obqGetFullBufferI, .-obqGetFullBufferI
 949              		.section	.text.obqReleaseEmptyBufferI,"ax",%progbits
 950              		.align	1
 951              		.global	obqReleaseEmptyBufferI
 952              		.syntax unified
 953              		.thumb
 954              		.thumb_func
 955              		.fpu fpv4-sp-d16
 956              		.type	obqReleaseEmptyBufferI, %function
 957              	obqReleaseEmptyBufferI:
 958              	.LFB347:
 959              		.loc 3 508 0
 960              		.cfi_startproc
 961              		@ args = 0, pretend = 0, frame = 0
 962              		@ frame_needed = 0, uses_anonymous_args = 0
 963              		@ link register save eliminated.
 964              	.LVL78:
 965              		.loc 3 514 0
 966 0000 C368     		ldr	r3, [r0, #12]
 967              	.LBB174:
 968              	.LBB175:
 969              		.loc 5 844 0
ARM GAS  /tmp/ccF5htzD.s 			page 18


 970 0002 0021     		movs	r1, #0
 971              	.LBE175:
 972              	.LBE174:
 973              		.loc 3 515 0
 974 0004 C269     		ldr	r2, [r0, #28]
 975              		.loc 3 514 0
 976 0006 0133     		adds	r3, r3, #1
 977 0008 C360     		str	r3, [r0, #12]
 978              		.loc 3 515 0
 979 000a 4369     		ldr	r3, [r0, #20]
 980 000c 1344     		add	r3, r3, r2
 981              		.loc 3 516 0
 982 000e 8269     		ldr	r2, [r0, #24]
 983 0010 9342     		cmp	r3, r2
 984              		.loc 3 515 0
 985 0012 4361     		str	r3, [r0, #20]
 986              		.loc 3 517 0
 987 0014 24BF     		itt	cs
 988 0016 436A     		ldrcs	r3, [r0, #36]
 989 0018 4361     		strcs	r3, [r0, #20]
 990              	.LVL79:
 991              	.LBB177:
 992              	.LBB176:
 993              		.loc 5 844 0
 994 001a FFF7FEBF 		b	chThdDequeueNextI
 995              	.LVL80:
 996              	.LBE176:
 997              	.LBE177:
 998              		.cfi_endproc
 999              	.LFE347:
 1000              		.size	obqReleaseEmptyBufferI, .-obqReleaseEmptyBufferI
 1001              		.section	.text.obqGetEmptyBufferTimeoutS,"ax",%progbits
 1002              		.align	1
 1003              		.global	obqGetEmptyBufferTimeoutS
 1004              		.syntax unified
 1005              		.thumb
 1006              		.thumb_func
 1007              		.fpu fpv4-sp-d16
 1008              		.type	obqGetEmptyBufferTimeoutS, %function
 1009              	obqGetEmptyBufferTimeoutS:
 1010              	.LFB349:
 1011              		.loc 3 578 0
 1012              		.cfi_startproc
 1013              		@ args = 0, pretend = 0, frame = 0
 1014              		@ frame_needed = 0, uses_anonymous_args = 0
 1015              	.LVL81:
 1016 0000 38B5     		push	{r3, r4, r5, lr}
 1017              		.cfi_def_cfa_offset 16
 1018              		.cfi_offset 3, -16
 1019              		.cfi_offset 4, -12
 1020              		.cfi_offset 5, -8
 1021              		.cfi_offset 14, -4
 1022 0002 0446     		mov	r4, r0
 1023 0004 0D46     		mov	r5, r1
 1024              	.LVL82:
 1025              	.L53:
 1026              		.loc 3 582 0
ARM GAS  /tmp/ccF5htzD.s 			page 19


 1027 0006 E368     		ldr	r3, [r4, #12]
 1028 0008 3BB1     		cbz	r3, .L55
 1029              	.LVL83:
 1030              	.LBB186:
 1031              	.LBB187:
 1032              		.loc 3 595 0
 1033 000a 2369     		ldr	r3, [r4, #16]
 1034              		.loc 3 596 0
 1035 000c 0020     		movs	r0, #0
 1036              		.loc 3 595 0
 1037 000e 1A1D     		adds	r2, r3, #4
 1038 0010 A262     		str	r2, [r4, #40]
 1039              		.loc 3 596 0
 1040 0012 E269     		ldr	r2, [r4, #28]
 1041 0014 1344     		add	r3, r3, r2
 1042 0016 E362     		str	r3, [r4, #44]
 1043              	.LVL84:
 1044 0018 38BD     		pop	{r3, r4, r5, pc}
 1045              	.LVL85:
 1046              	.L55:
 1047              	.LBE187:
 1048              	.LBE186:
 1049              	.LBB188:
 1050              		.loc 3 583 0
 1051 001a 237A     		ldrb	r3, [r4, #8]	@ zero_extendqisi2
 1052 001c 33B9     		cbnz	r3, .L56
 1053              	.LVL86:
 1054              	.LBB189:
 1055              	.LBB190:
 1056              		.loc 5 831 0
 1057 001e 2946     		mov	r1, r5
 1058 0020 2046     		mov	r0, r4
 1059 0022 FFF7FEFF 		bl	chThdEnqueueTimeoutS
 1060              	.LVL87:
 1061              	.LBE190:
 1062              	.LBE189:
 1063              		.loc 3 587 0
 1064 0026 0028     		cmp	r0, #0
 1065 0028 EDDA     		bge	.L53
 1066              	.L52:
 1067              	.LBE188:
 1068              		.loc 3 599 0
 1069 002a 38BD     		pop	{r3, r4, r5, pc}
 1070              	.LVL88:
 1071              	.L56:
 1072              	.LBB191:
 1073              		.loc 3 584 0
 1074 002c 6FF00100 		mvn	r0, #1
 1075 0030 FBE7     		b	.L52
 1076              	.LBE191:
 1077              		.cfi_endproc
 1078              	.LFE349:
 1079              		.size	obqGetEmptyBufferTimeoutS, .-obqGetEmptyBufferTimeoutS
 1080              		.section	.text.obqGetEmptyBufferTimeout,"ax",%progbits
 1081              		.align	1
 1082              		.global	obqGetEmptyBufferTimeout
 1083              		.syntax unified
ARM GAS  /tmp/ccF5htzD.s 			page 20


 1084              		.thumb
 1085              		.thumb_func
 1086              		.fpu fpv4-sp-d16
 1087              		.type	obqGetEmptyBufferTimeout, %function
 1088              	obqGetEmptyBufferTimeout:
 1089              	.LFB348:
 1090              		.loc 3 546 0
 1091              		.cfi_startproc
 1092              		@ args = 0, pretend = 0, frame = 0
 1093              		@ frame_needed = 0, uses_anonymous_args = 0
 1094              	.LVL89:
 1095 0000 38B5     		push	{r3, r4, r5, lr}
 1096              		.cfi_def_cfa_offset 16
 1097              		.cfi_offset 3, -16
 1098              		.cfi_offset 4, -12
 1099              		.cfi_offset 5, -8
 1100              		.cfi_offset 14, -4
 1101              		.loc 3 546 0
 1102 0002 0446     		mov	r4, r0
 1103 0004 0D46     		mov	r5, r1
 1104              	.LBB192:
 1105              	.LBB193:
 1106              		.loc 5 511 0
 1107 0006 FFF7FEFF 		bl	chSysLock
 1108              	.LVL90:
 1109              	.LBE193:
 1110              	.LBE192:
 1111              		.loc 3 550 0
 1112 000a 2946     		mov	r1, r5
 1113 000c 2046     		mov	r0, r4
 1114 000e FFF7FEFF 		bl	obqGetEmptyBufferTimeoutS
 1115              	.LVL91:
 1116 0012 0446     		mov	r4, r0
 1117              	.LVL92:
 1118              	.LBB194:
 1119              	.LBB195:
 1120              		.loc 5 522 0
 1121 0014 FFF7FEFF 		bl	chSysUnlock
 1122              	.LVL93:
 1123              	.LBE195:
 1124              	.LBE194:
 1125              		.loc 3 554 0
 1126 0018 2046     		mov	r0, r4
 1127 001a 38BD     		pop	{r3, r4, r5, pc}
 1128              		.cfi_endproc
 1129              	.LFE348:
 1130              		.size	obqGetEmptyBufferTimeout, .-obqGetEmptyBufferTimeout
 1131              		.section	.text.obqPostFullBufferS,"ax",%progbits
 1132              		.align	1
 1133              		.global	obqPostFullBufferS
 1134              		.syntax unified
 1135              		.thumb
 1136              		.thumb_func
 1137              		.fpu fpv4-sp-d16
 1138              		.type	obqPostFullBufferS, %function
 1139              	obqPostFullBufferS:
 1140              	.LFB351:
ARM GAS  /tmp/ccF5htzD.s 			page 21


 1141              		.loc 3 626 0
 1142              		.cfi_startproc
 1143              		@ args = 0, pretend = 0, frame = 0
 1144              		@ frame_needed = 0, uses_anonymous_args = 0
 1145              		@ link register save eliminated.
 1146              	.LVL94:
 1147              		.loc 3 633 0
 1148 0000 0369     		ldr	r3, [r0, #16]
 1149 0002 1960     		str	r1, [r3]
 1150              		.loc 3 636 0
 1151 0004 C268     		ldr	r2, [r0, #12]
 1152 0006 013A     		subs	r2, r2, #1
 1153 0008 C260     		str	r2, [r0, #12]
 1154              		.loc 3 637 0
 1155 000a C269     		ldr	r2, [r0, #28]
 1156 000c 1344     		add	r3, r3, r2
 1157              		.loc 3 638 0
 1158 000e 8269     		ldr	r2, [r0, #24]
 1159 0010 9342     		cmp	r3, r2
 1160              		.loc 3 637 0
 1161 0012 0361     		str	r3, [r0, #16]
 1162              		.loc 3 639 0
 1163 0014 24BF     		itt	cs
 1164 0016 436A     		ldrcs	r3, [r0, #36]
 1165 0018 0361     		strcs	r3, [r0, #16]
 1166              		.loc 3 643 0
 1167 001a 0023     		movs	r3, #0
 1168 001c 8362     		str	r3, [r0, #40]
 1169              		.loc 3 646 0
 1170 001e 036B     		ldr	r3, [r0, #48]
 1171 0020 03B1     		cbz	r3, .L58
 1172              		.loc 3 647 0
 1173 0022 1847     		bx	r3	@ indirect register sibling call
 1174              	.LVL95:
 1175              	.L58:
 1176 0024 7047     		bx	lr
 1177              		.cfi_endproc
 1178              	.LFE351:
 1179              		.size	obqPostFullBufferS, .-obqPostFullBufferS
 1180              		.section	.text.obqPostFullBuffer,"ax",%progbits
 1181              		.align	1
 1182              		.global	obqPostFullBuffer
 1183              		.syntax unified
 1184              		.thumb
 1185              		.thumb_func
 1186              		.fpu fpv4-sp-d16
 1187              		.type	obqPostFullBuffer, %function
 1188              	obqPostFullBuffer:
 1189              	.LFB350:
 1190              		.loc 3 610 0
 1191              		.cfi_startproc
 1192              		@ args = 0, pretend = 0, frame = 0
 1193              		@ frame_needed = 0, uses_anonymous_args = 0
 1194              	.LVL96:
 1195 0000 38B5     		push	{r3, r4, r5, lr}
 1196              		.cfi_def_cfa_offset 16
 1197              		.cfi_offset 3, -16
ARM GAS  /tmp/ccF5htzD.s 			page 22


 1198              		.cfi_offset 4, -12
 1199              		.cfi_offset 5, -8
 1200              		.cfi_offset 14, -4
 1201              		.loc 3 610 0
 1202 0002 0446     		mov	r4, r0
 1203 0004 0D46     		mov	r5, r1
 1204              	.LBB196:
 1205              	.LBB197:
 1206              		.loc 5 511 0
 1207 0006 FFF7FEFF 		bl	chSysLock
 1208              	.LVL97:
 1209              	.LBE197:
 1210              	.LBE196:
 1211              		.loc 3 613 0
 1212 000a 2946     		mov	r1, r5
 1213 000c 2046     		mov	r0, r4
 1214 000e FFF7FEFF 		bl	obqPostFullBufferS
 1215              	.LVL98:
 1216              		.loc 3 615 0
 1217 0012 BDE83840 		pop	{r3, r4, r5, lr}
 1218              		.cfi_restore 14
 1219              		.cfi_restore 5
 1220              		.cfi_restore 4
 1221              		.cfi_restore 3
 1222              		.cfi_def_cfa_offset 0
 1223              	.LVL99:
 1224              	.LBB198:
 1225              	.LBB199:
 1226              		.loc 5 522 0
 1227 0016 FFF7FEBF 		b	chSysUnlock
 1228              	.LVL100:
 1229              	.LBE199:
 1230              	.LBE198:
 1231              		.cfi_endproc
 1232              	.LFE350:
 1233              		.size	obqPostFullBuffer, .-obqPostFullBuffer
 1234              		.section	.text.obqPutTimeout,"ax",%progbits
 1235              		.align	1
 1236              		.global	obqPutTimeout
 1237              		.syntax unified
 1238              		.thumb
 1239              		.thumb_func
 1240              		.fpu fpv4-sp-d16
 1241              		.type	obqPutTimeout, %function
 1242              	obqPutTimeout:
 1243              	.LFB352:
 1244              		.loc 3 672 0
 1245              		.cfi_startproc
 1246              		@ args = 0, pretend = 0, frame = 0
 1247              		@ frame_needed = 0, uses_anonymous_args = 0
 1248              	.LVL101:
 1249 0000 70B5     		push	{r4, r5, r6, lr}
 1250              		.cfi_def_cfa_offset 16
 1251              		.cfi_offset 4, -16
 1252              		.cfi_offset 5, -12
 1253              		.cfi_offset 6, -8
 1254              		.cfi_offset 14, -4
ARM GAS  /tmp/ccF5htzD.s 			page 23


 1255              		.loc 3 672 0
 1256 0002 0446     		mov	r4, r0
 1257 0004 0E46     		mov	r6, r1
 1258 0006 1546     		mov	r5, r2
 1259              	.LBB200:
 1260              	.LBB201:
 1261              		.loc 5 511 0
 1262 0008 FFF7FEFF 		bl	chSysLock
 1263              	.LVL102:
 1264              	.LBE201:
 1265              	.LBE200:
 1266              		.loc 3 678 0
 1267 000c A36A     		ldr	r3, [r4, #40]
 1268 000e 4BB9     		cbnz	r3, .L63
 1269              		.loc 3 679 0
 1270 0010 2946     		mov	r1, r5
 1271 0012 2046     		mov	r0, r4
 1272 0014 FFF7FEFF 		bl	obqGetEmptyBufferTimeoutS
 1273              	.LVL103:
 1274              		.loc 3 680 0
 1275 0018 0546     		mov	r5, r0
 1276              	.LVL104:
 1277 001a 18B1     		cbz	r0, .L63
 1278              	.LBB202:
 1279              	.LBB203:
 1280              		.loc 5 522 0
 1281 001c FFF7FEFF 		bl	chSysUnlock
 1282              	.LVL105:
 1283              	.L62:
 1284              	.LBE203:
 1285              	.LBE202:
 1286              		.loc 3 698 0
 1287 0020 2846     		mov	r0, r5
 1288 0022 70BD     		pop	{r4, r5, r6, pc}
 1289              	.LVL106:
 1290              	.L63:
 1291              		.loc 3 687 0
 1292 0024 A36A     		ldr	r3, [r4, #40]
 1293 0026 1E70     		strb	r6, [r3]
 1294              		.loc 3 688 0
 1295 0028 A36A     		ldr	r3, [r4, #40]
 1296              		.loc 3 692 0
 1297 002a E26A     		ldr	r2, [r4, #44]
 1298              		.loc 3 688 0
 1299 002c 0133     		adds	r3, r3, #1
 1300              		.loc 3 692 0
 1301 002e 9342     		cmp	r3, r2
 1302              		.loc 3 688 0
 1303 0030 A362     		str	r3, [r4, #40]
 1304              		.loc 3 692 0
 1305 0032 04D3     		bcc	.L65
 1306              		.loc 3 693 0
 1307 0034 E169     		ldr	r1, [r4, #28]
 1308 0036 2046     		mov	r0, r4
 1309 0038 0439     		subs	r1, r1, #4
 1310 003a FFF7FEFF 		bl	obqPostFullBufferS
 1311              	.LVL107:
ARM GAS  /tmp/ccF5htzD.s 			page 24


 1312              	.L65:
 1313              	.LBB204:
 1314              	.LBB205:
 1315              		.loc 5 522 0
 1316 003e FFF7FEFF 		bl	chSysUnlock
 1317              	.LVL108:
 1318              	.LBE205:
 1319              	.LBE204:
 1320              		.loc 3 697 0
 1321 0042 0025     		movs	r5, #0
 1322 0044 ECE7     		b	.L62
 1323              		.cfi_endproc
 1324              	.LFE352:
 1325              		.size	obqPutTimeout, .-obqPutTimeout
 1326              		.section	.text.obqWriteTimeout,"ax",%progbits
 1327              		.align	1
 1328              		.global	obqWriteTimeout
 1329              		.syntax unified
 1330              		.thumb
 1331              		.thumb_func
 1332              		.fpu fpv4-sp-d16
 1333              		.type	obqWriteTimeout, %function
 1334              	obqWriteTimeout:
 1335              	.LFB353:
 1336              		.loc 3 722 0
 1337              		.cfi_startproc
 1338              		@ args = 0, pretend = 0, frame = 0
 1339              		@ frame_needed = 0, uses_anonymous_args = 0
 1340              	.LVL109:
 1341 0000 2DE9F843 		push	{r3, r4, r5, r6, r7, r8, r9, lr}
 1342              		.cfi_def_cfa_offset 32
 1343              		.cfi_offset 3, -32
 1344              		.cfi_offset 4, -28
 1345              		.cfi_offset 5, -24
 1346              		.cfi_offset 6, -20
 1347              		.cfi_offset 7, -16
 1348              		.cfi_offset 8, -12
 1349              		.cfi_offset 9, -8
 1350              		.cfi_offset 14, -4
 1351              		.loc 3 723 0
 1352 0004 0026     		movs	r6, #0
 1353              		.loc 3 722 0
 1354 0006 0446     		mov	r4, r0
 1355              	.LVL110:
 1356 0008 0D46     		mov	r5, r1
 1357 000a 9046     		mov	r8, r2
 1358 000c 9946     		mov	r9, r3
 1359              	.LBB206:
 1360              	.LBB207:
 1361              		.loc 5 511 0
 1362 000e FFF7FEFF 		bl	chSysLock
 1363              	.LVL111:
 1364              	.L76:
 1365              	.LBE207:
 1366              	.LBE206:
 1367              	.LBB208:
 1368              		.loc 3 733 0
ARM GAS  /tmp/ccF5htzD.s 			page 25


 1369 0012 A36A     		ldr	r3, [r4, #40]
 1370 0014 4BB9     		cbnz	r3, .L70
 1371              	.LBB209:
 1372              		.loc 3 737 0
 1373 0016 4946     		mov	r1, r9
 1374 0018 2046     		mov	r0, r4
 1375 001a FFF7FEFF 		bl	obqGetEmptyBufferTimeoutS
 1376              	.LVL112:
 1377              		.loc 3 740 0
 1378 001e 20B1     		cbz	r0, .L70
 1379              	.LBB210:
 1380              	.LBB211:
 1381              		.loc 5 522 0
 1382 0020 FFF7FEFF 		bl	chSysUnlock
 1383              	.LVL113:
 1384              	.L69:
 1385              	.LBE211:
 1386              	.LBE210:
 1387              	.LBE209:
 1388              	.LBE208:
 1389              		.loc 3 780 0
 1390 0024 3046     		mov	r0, r6
 1391 0026 BDE8F883 		pop	{r3, r4, r5, r6, r7, r8, r9, pc}
 1392              	.LVL114:
 1393              	.L70:
 1394              	.LBB216:
 1395              		.loc 3 747 0
 1396 002a E76A     		ldr	r7, [r4, #44]
 1397 002c A06A     		ldr	r0, [r4, #40]
 1398 002e 3B1A     		subs	r3, r7, r0
 1399              	.LVL115:
 1400              		.loc 3 748 0
 1401 0030 A8EB0607 		sub	r7, r8, r6
 1402 0034 9F42     		cmp	r7, r3
 1403 0036 28BF     		it	cs
 1404 0038 1F46     		movcs	r7, r3
 1405              	.LVL116:
 1406              		.loc 3 754 0
 1407 003a 402F     		cmp	r7, #64
 1408 003c 1BD9     		bls	.L72
 1409              		.loc 3 756 0
 1410 003e 05F14003 		add	r3, r5, #64
 1411              	.LVL117:
 1412              	.L73:
 1413 0042 55F8042B 		ldr	r2, [r5], #4	@ unaligned
 1414 0046 9D42     		cmp	r5, r3
 1415 0048 40F8042B 		str	r2, [r0], #4	@ unaligned
 1416 004c F9D1     		bne	.L73
 1417              	.LVL118:
 1418              		.loc 3 758 0
 1419 004e A36A     		ldr	r3, [r4, #40]
 1420              		.loc 3 759 0
 1421 0050 4036     		adds	r6, r6, #64
 1422              	.LVL119:
 1423              		.loc 3 758 0
 1424 0052 4033     		adds	r3, r3, #64
 1425 0054 A362     		str	r3, [r4, #40]
ARM GAS  /tmp/ccF5htzD.s 			page 26


 1426              	.LVL120:
 1427              	.L74:
 1428              		.loc 3 769 0
 1429 0056 A26A     		ldr	r2, [r4, #40]
 1430 0058 E36A     		ldr	r3, [r4, #44]
 1431 005a 9A42     		cmp	r2, r3
 1432 005c 04D3     		bcc	.L75
 1433              		.loc 3 770 0
 1434 005e E169     		ldr	r1, [r4, #28]
 1435 0060 2046     		mov	r0, r4
 1436 0062 0439     		subs	r1, r1, #4
 1437 0064 FFF7FEFF 		bl	obqPostFullBufferS
 1438              	.LVL121:
 1439              	.L75:
 1440              	.LBB212:
 1441              	.LBB213:
 1442              		.loc 5 522 0
 1443 0068 FFF7FEFF 		bl	chSysUnlock
 1444              	.LVL122:
 1445              	.LBE213:
 1446              	.LBE212:
 1447              		.loc 3 775 0
 1448 006c 4645     		cmp	r6, r8
 1449 006e D9D2     		bcs	.L69
 1450              	.LBB214:
 1451              	.LBB215:
 1452              		.loc 5 511 0
 1453 0070 FFF7FEFF 		bl	chSysLock
 1454              	.LVL123:
 1455 0074 CDE7     		b	.L76
 1456              	.L72:
 1457              	.LBE215:
 1458              	.LBE214:
 1459              		.loc 3 762 0
 1460 0076 2946     		mov	r1, r5
 1461 0078 3A46     		mov	r2, r7
 1462 007a FFF7FEFF 		bl	memcpy
 1463              	.LVL124:
 1464              		.loc 3 764 0
 1465 007e A36A     		ldr	r3, [r4, #40]
 1466              		.loc 3 763 0
 1467 0080 3D44     		add	r5, r5, r7
 1468              	.LVL125:
 1469              		.loc 3 765 0
 1470 0082 3E44     		add	r6, r6, r7
 1471              	.LVL126:
 1472              		.loc 3 764 0
 1473 0084 3B44     		add	r3, r3, r7
 1474 0086 A362     		str	r3, [r4, #40]
 1475 0088 E5E7     		b	.L74
 1476              	.LBE216:
 1477              		.cfi_endproc
 1478              	.LFE353:
 1479              		.size	obqWriteTimeout, .-obqWriteTimeout
 1480              		.section	.text.obqTryFlushI,"ax",%progbits
 1481              		.align	1
 1482              		.global	obqTryFlushI
ARM GAS  /tmp/ccF5htzD.s 			page 27


 1483              		.syntax unified
 1484              		.thumb
 1485              		.thumb_func
 1486              		.fpu fpv4-sp-d16
 1487              		.type	obqTryFlushI, %function
 1488              	obqTryFlushI:
 1489              	.LFB354:
 1490              		.loc 3 795 0
 1491              		.cfi_startproc
 1492              		@ args = 0, pretend = 0, frame = 0
 1493              		@ frame_needed = 0, uses_anonymous_args = 0
 1494              		@ link register save eliminated.
 1495              	.LVL127:
 1496              		.loc 3 801 0
 1497 0000 0269     		ldr	r2, [r0, #16]
 1498 0002 4369     		ldr	r3, [r0, #20]
 1499 0004 9A42     		cmp	r2, r3
 1500 0006 03D1     		bne	.L86
 1501              		.loc 3 801 0 is_stmt 0 discriminator 1
 1502 0008 C368     		ldr	r3, [r0, #12]
 1503 000a 1BB9     		cbnz	r3, .L83
 1504              	.L88:
 1505              		.loc 3 823 0 is_stmt 1
 1506 000c 1846     		mov	r0, r3
 1507              	.LVL128:
 1508 000e 7047     		bx	lr
 1509              	.LVL129:
 1510              	.L86:
 1511              		.loc 3 822 0
 1512 0010 0023     		movs	r3, #0
 1513 0012 FBE7     		b	.L88
 1514              	.L83:
 1515              		.loc 3 801 0
 1516 0014 836A     		ldr	r3, [r0, #40]
 1517 0016 002B     		cmp	r3, #0
 1518 0018 F8D0     		beq	.L88
 1519              	.LBB217:
 1520              		.loc 3 802 0
 1521 001a 043B     		subs	r3, r3, #4
 1522              	.LVL130:
 1523              		.loc 3 804 0
 1524 001c 9B1A     		subs	r3, r3, r2
 1525              	.LVL131:
 1526 001e F5D0     		beq	.L88
 1527              		.loc 3 807 0
 1528 0020 1360     		str	r3, [r2]
 1529              		.loc 3 810 0
 1530 0022 C368     		ldr	r3, [r0, #12]
 1531              	.LVL132:
 1532 0024 013B     		subs	r3, r3, #1
 1533 0026 C360     		str	r3, [r0, #12]
 1534              	.LVL133:
 1535              		.loc 3 811 0
 1536 0028 C369     		ldr	r3, [r0, #28]
 1537 002a 1A44     		add	r2, r2, r3
 1538              	.LVL134:
 1539              		.loc 3 812 0
ARM GAS  /tmp/ccF5htzD.s 			page 28


 1540 002c 8369     		ldr	r3, [r0, #24]
 1541 002e 9A42     		cmp	r2, r3
 1542              		.loc 3 811 0
 1543 0030 0261     		str	r2, [r0, #16]
 1544              	.LVL135:
 1545              		.loc 3 813 0
 1546 0032 24BF     		itt	cs
 1547 0034 436A     		ldrcs	r3, [r0, #36]
 1548 0036 0361     		strcs	r3, [r0, #16]
 1549              		.loc 3 817 0
 1550 0038 0023     		movs	r3, #0
 1551 003a 8362     		str	r3, [r0, #40]
 1552              		.loc 3 819 0
 1553 003c 0123     		movs	r3, #1
 1554 003e E5E7     		b	.L88
 1555              	.LBE217:
 1556              		.cfi_endproc
 1557              	.LFE354:
 1558              		.size	obqTryFlushI, .-obqTryFlushI
 1559              		.section	.text.obqFlush,"ax",%progbits
 1560              		.align	1
 1561              		.global	obqFlush
 1562              		.syntax unified
 1563              		.thumb
 1564              		.thumb_func
 1565              		.fpu fpv4-sp-d16
 1566              		.type	obqFlush, %function
 1567              	obqFlush:
 1568              	.LFB355:
 1569              		.loc 3 832 0
 1570              		.cfi_startproc
 1571              		@ args = 0, pretend = 0, frame = 0
 1572              		@ frame_needed = 0, uses_anonymous_args = 0
 1573              	.LVL136:
 1574 0000 10B5     		push	{r4, lr}
 1575              		.cfi_def_cfa_offset 8
 1576              		.cfi_offset 4, -8
 1577              		.cfi_offset 14, -4
 1578              		.loc 3 832 0
 1579 0002 0446     		mov	r4, r0
 1580              	.LBB218:
 1581              	.LBB219:
 1582              		.loc 5 511 0
 1583 0004 FFF7FEFF 		bl	chSysLock
 1584              	.LVL137:
 1585              	.LBE219:
 1586              	.LBE218:
 1587              		.loc 3 837 0
 1588 0008 A16A     		ldr	r1, [r4, #40]
 1589 000a 31B1     		cbz	r1, .L90
 1590              	.LBB220:
 1591              		.loc 3 838 0
 1592 000c 0439     		subs	r1, r1, #4
 1593 000e 2369     		ldr	r3, [r4, #16]
 1594              	.LVL138:
 1595              		.loc 3 840 0
 1596 0010 C91A     		subs	r1, r1, r3
ARM GAS  /tmp/ccF5htzD.s 			page 29


 1597              	.LVL139:
 1598 0012 02D0     		beq	.L90
 1599              		.loc 3 841 0
 1600 0014 2046     		mov	r0, r4
 1601 0016 FFF7FEFF 		bl	obqPostFullBufferS
 1602              	.LVL140:
 1603              	.L90:
 1604              	.LBE220:
 1605              		.loc 3 846 0
 1606 001a BDE81040 		pop	{r4, lr}
 1607              		.cfi_restore 14
 1608              		.cfi_restore 4
 1609              		.cfi_def_cfa_offset 0
 1610              	.LVL141:
 1611              	.LBB221:
 1612              	.LBB222:
 1613              		.loc 5 522 0
 1614 001e FFF7FEBF 		b	chSysUnlock
 1615              	.LVL142:
 1616              	.LBE222:
 1617              	.LBE221:
 1618              		.cfi_endproc
 1619              	.LFE355:
 1620              		.size	obqFlush, .-obqFlush
 1621              		.text
 1622              	.Letext0:
 1623              		.file 6 "/opt/gcc-arm-none-eabi-6-2017-q2-update/lib/gcc/arm-none-eabi/6.3.1/include/stddef.h"
 1624              		.file 7 "/opt/gcc-arm-none-eabi-6-2017-q2-update/arm-none-eabi/include/machine/_default_types.h"
 1625              		.file 8 "/opt/gcc-arm-none-eabi-6-2017-q2-update/arm-none-eabi/include/sys/lock.h"
 1626              		.file 9 "/opt/gcc-arm-none-eabi-6-2017-q2-update/arm-none-eabi/include/sys/_types.h"
 1627              		.file 10 "/opt/gcc-arm-none-eabi-6-2017-q2-update/arm-none-eabi/include/sys/reent.h"
 1628              		.file 11 "/opt/gcc-arm-none-eabi-6-2017-q2-update/arm-none-eabi/include/sys/_stdint.h"
 1629              		.file 12 "/opt/gcc-arm-none-eabi-6-2017-q2-update/arm-none-eabi/include/stdint.h"
 1630              		.file 13 "../../modules/ChibiOS/os/common/ports/ARMCMx/compilers/GCC/chtypes.h"
 1631              		.file 14 "../../modules/ChibiOS/os/rt/include/chsystypes.h"
 1632              		.file 15 "../../modules/ChibiOS/os/rt/include/chtime.h"
 1633              		.file 16 "../../modules/ChibiOS/os/common/ext/ARM/CMSIS/Core/Include/core_cm7.h"
 1634              		.file 17 "../../modules/ChibiOS/os/common/ext/ST/STM32F7xx/system_stm32f7xx.h"
 1635              		.file 18 "../../modules/ChibiOS/os/common/ext/ST/STM32F7xx/stm32f767xx.h"
 1636              		.file 19 "../../modules/ChibiOS/os/common/ports/ARMCMx/chcore.h"
 1637              		.file 20 "../../modules/ChibiOS/os/common/ports/ARMCMx/chcore_v7m.h"
 1638              		.file 21 "../../modules/ChibiOS/os/hal/ports/STM32/LLD/TIMv1/stm32_tim.h"
 1639              		.file 22 "../../modules/ChibiOS/os/rt/include/chtm.h"
 1640              		.file 23 "../../modules/ChibiOS/os/rt/include/chstats.h"
 1641              		.file 24 "../../modules/ChibiOS/os/rt/include/chsem.h"
 1642              		.file 25 "../../modules/ChibiOS/os/rt/include/chmtx.h"
 1643              		.file 26 "../../modules/ChibiOS/os/rt/include/chregistry.h"
 1644              		.file 27 "../../modules/ChibiOS/os/rt/include/chevents.h"
 1645              		.file 28 "../../modules/ChibiOS/os/oslib/include/chmemcore.h"
 1646              		.file 29 "../../modules/ChibiOS/os/oslib/include/chmempools.h"
 1647              		.file 30 "../../modules/ChibiOS/os/oslib/include/chfactory.h"
 1648              		.file 31 "../../modules/ChibiOS/os/hal/ports/STM32/LLD/DMAv2/stm32_dma.h"
 1649              		.file 32 "../../modules/ChibiOS/os/hal/include/hal_ioblock.h"
 1650              		.file 33 "../../modules/ChibiOS/os/hal/include/hal_buffers.h"
 1651              		.file 34 "../../modules/ChibiOS/os/hal/include/hal_queues.h"
 1652              		.file 35 "../../modules/ChibiOS/os/hal/include/hal_pal.h"
 1653              		.file 36 "../../modules/ChibiOS/os/hal/ports/STM32/LLD/GPIOv2/stm32_gpio.h"
ARM GAS  /tmp/ccF5htzD.s 			page 30


 1654              		.file 37 "../../modules/ChibiOS/os/hal/ports/STM32/LLD/GPIOv2/hal_pal_lld.h"
 1655              		.file 38 "../../modules/ChibiOS/os/hal/include/hal_adc.h"
 1656              		.file 39 "../../modules/ChibiOS/os/hal/ports/STM32/LLD/ADCv2/hal_adc_lld.h"
 1657              		.file 40 "../../modules/ChibiOS/os/hal/include/hal_i2c.h"
 1658              		.file 41 "../../modules/ChibiOS/os/hal/ports/STM32/LLD/I2Cv2/hal_i2c_lld.h"
 1659              		.file 42 "../../modules/ChibiOS/os/hal/include/hal_pwm.h"
 1660              		.file 43 "../../modules/ChibiOS/os/hal/ports/STM32/LLD/TIMv1/hal_pwm_lld.h"
 1661              		.file 44 "../../modules/ChibiOS/os/hal/include/hal_serial.h"
 1662              		.file 45 "../../modules/ChibiOS/os/hal/ports/STM32/LLD/USARTv2/hal_serial_lld.h"
 1663              		.file 46 "../../modules/ChibiOS/os/hal/include/hal_sdc.h"
 1664              		.file 47 "../../modules/ChibiOS/os/hal/ports/STM32/LLD/SDMMCv1/hal_sdc_lld.h"
 1665              		.file 48 "../../modules/ChibiOS/os/hal/include/hal_spi.h"
 1666              		.file 49 "../../modules/ChibiOS/os/hal/ports/STM32/LLD/SPIv2/hal_spi_lld.h"
 1667              		.file 50 "../../modules/ChibiOS/os/hal/include/hal_usb.h"
 1668              		.file 51 "../../modules/ChibiOS/os/hal/ports/STM32/LLD/OTGv1/hal_usb_lld.h"
 1669              		.file 52 "../../modules/ChibiOS/os/hal/ports/STM32/LLD/OTGv1/stm32_otg.h"
 1670              		.file 53 "../../modules/ChibiOS/os/rt/include/chthreads.h"