ARM GAS  /tmp/ccZwuFQJ.s 			page 1


   1              		.cpu cortex-m7
   2              		.eabi_attribute 27, 1
   3              		.eabi_attribute 28, 1
   4              		.eabi_attribute 20, 1
   5              		.eabi_attribute 21, 1
   6              		.eabi_attribute 23, 3
   7              		.eabi_attribute 24, 1
   8              		.eabi_attribute 25, 1
   9              		.eabi_attribute 26, 1
  10              		.eabi_attribute 30, 4
  11              		.eabi_attribute 34, 1
  12              		.eabi_attribute 18, 4
  13              		.file	"hal_st_lld.c"
  14              		.text
  15              	.Ltext0:
  16              		.cfi_sections	.debug_frame
  17              		.section	.text.VectorB0,"ax",%progbits
  18              		.align	1
  19              		.global	VectorB0
  20              		.syntax unified
  21              		.thumb
  22              		.thumb_func
  23              		.fpu fpv4-sp-d16
  24              		.type	VectorB0, %function
  25              	VectorB0:
  26              	.LFB334:
  27              		.file 1 "../../modules/ChibiOS/os/hal/ports/STM32/LLD/TIMv1/hal_st_lld.c"
  28              		.loc 1 328 0
  29              		.cfi_startproc
  30              		@ args = 0, pretend = 0, frame = 0
  31              		@ frame_needed = 0, uses_anonymous_args = 0
  32 0000 10B5     		push	{r4, lr}
  33              		.cfi_def_cfa_offset 8
  34              		.cfi_offset 4, -8
  35              		.cfi_offset 14, -4
  36              		.loc 1 330 0
  37 0002 FFF7FEFF 		bl	_stats_increase_irq
  38              	.LVL0:
  39              		.loc 1 335 0
  40 0006 4FF08043 		mov	r3, #1073741824
  41 000a 1A69     		ldr	r2, [r3, #16]
  42 000c 9207     		lsls	r2, r2, #30
  43 000e 0CD5     		bpl	.L2
  44              		.loc 1 336 0
  45 0010 0024     		movs	r4, #0
  46 0012 1C61     		str	r4, [r3, #16]
  47              	.LVL1:
  48              	.LBB48:
  49              	.LBB49:
  50              	.LBB50:
  51              	.LBB51:
  52              	.LBB52:
  53              	.LBB53:
  54              	.LBB54:
  55              		.file 2 "../../modules/ChibiOS/os/common/ext/ARM/CMSIS/Core/Include/cmsis_gcc.h"
  56              		.loc 2 493 0
  57 0014 2023     		movs	r3, #32
ARM GAS  /tmp/ccZwuFQJ.s 			page 2


  58              		.syntax unified
  59              	@ 493 "../../modules/ChibiOS/os/common/ext/ARM/CMSIS/Core/Include/cmsis_gcc.h" 1
  60 0016 83F31188 		MSR basepri, r3
  61              	@ 0 "" 2
  62              	.LVL2:
  63              		.thumb
  64              		.syntax unified
  65              	.LBE54:
  66              	.LBE53:
  67              	.LBE52:
  68              	.LBE51:
  69              		.file 3 "../../modules/ChibiOS/os/rt/include/chsys.h"
  70              		.loc 3 396 0
  71 001a FFF7FEFF 		bl	_stats_start_measure_crit_isr
  72              	.LVL3:
  73              	.LBE50:
  74              	.LBE49:
  75              	.LBE48:
  76              	.LBB55:
  77              	.LBB56:
  78              		.file 4 "../../modules/ChibiOS/os/hal/osal/rt/osal.h"
  79              		.loc 4 603 0
  80 001e FFF7FEFF 		bl	chSysTimerHandlerI
  81              	.LVL4:
  82              	.LBE56:
  83              	.LBE55:
  84              	.LBB57:
  85              	.LBB58:
  86              	.LBB59:
  87              		.loc 3 416 0
  88 0022 FFF7FEFF 		bl	_stats_stop_measure_crit_isr
  89              	.LVL5:
  90              	.LBB60:
  91              	.LBB61:
  92              	.LBB62:
  93              	.LBB63:
  94              		.loc 2 493 0
  95              		.syntax unified
  96              	@ 493 "../../modules/ChibiOS/os/common/ext/ARM/CMSIS/Core/Include/cmsis_gcc.h" 1
  97 0026 84F31188 		MSR basepri, r4
  98              	@ 0 "" 2
  99              	.LVL6:
 100              		.thumb
 101              		.syntax unified
 102              	.L2:
 103              	.LBE63:
 104              	.LBE62:
 105              	.LBE61:
 106              	.LBE60:
 107              	.LBE59:
 108              	.LBE58:
 109              	.LBE57:
 110              		.loc 1 344 0
 111 002a BDE81040 		pop	{r4, lr}
 112              		.cfi_restore 14
 113              		.cfi_restore 4
 114              		.cfi_def_cfa_offset 0
ARM GAS  /tmp/ccZwuFQJ.s 			page 3


 115              		.loc 1 343 0
 116 002e FFF7FEBF 		b	_port_irq_epilogue
 117              	.LVL7:
 118              		.cfi_endproc
 119              	.LFE334:
 120              		.size	VectorB0, .-VectorB0
 121              		.section	.text.st_lld_init,"ax",%progbits
 122              		.align	1
 123              		.global	st_lld_init
 124              		.syntax unified
 125              		.thumb
 126              		.thumb_func
 127              		.fpu fpv4-sp-d16
 128              		.type	st_lld_init, %function
 129              	st_lld_init:
 130              	.LFB335:
 131              		.loc 1 356 0
 132              		.cfi_startproc
 133              		@ args = 0, pretend = 0, frame = 0
 134              		@ frame_needed = 0, uses_anonymous_args = 0
 135              		@ link register save eliminated.
 136              		.loc 1 362 0
 137 0000 104B     		ldr	r3, .L7
 138              		.loc 1 378 0
 139 0002 0821     		movs	r1, #8
 140 0004 1C20     		movs	r0, #28
 141              		.loc 1 362 0
 142 0006 1A6C     		ldr	r2, [r3, #64]
 143 0008 42F00102 		orr	r2, r2, #1
 144 000c 1A64     		str	r2, [r3, #64]
 145 000e 1A6E     		ldr	r2, [r3, #96]
 146 0010 42F00102 		orr	r2, r2, #1
 147 0014 1A66     		str	r2, [r3, #96]
 148              		.loc 1 365 0
 149 0016 0C4A     		ldr	r2, .L7+4
 150              		.loc 1 362 0
 151 0018 1B6E     		ldr	r3, [r3, #96]
 152              		.loc 1 365 0
 153 001a 9368     		ldr	r3, [r2, #8]
 154 001c 43F00103 		orr	r3, r3, #1
 155 0020 9360     		str	r3, [r2, #8]
 156              		.loc 1 368 0
 157 0022 4FF08043 		mov	r3, #1073741824
 158 0026 6B22     		movs	r2, #107
 159 0028 9A62     		str	r2, [r3, #40]
 160              		.loc 1 369 0
 161 002a 4FF0FF32 		mov	r2, #-1
 162 002e DA62     		str	r2, [r3, #44]
 163              		.loc 1 370 0
 164 0030 0022     		movs	r2, #0
 165 0032 9A61     		str	r2, [r3, #24]
 166              		.loc 1 371 0
 167 0034 5A63     		str	r2, [r3, #52]
 168              		.loc 1 372 0
 169 0036 DA60     		str	r2, [r3, #12]
 170              		.loc 1 373 0
 171 0038 5A60     		str	r2, [r3, #4]
ARM GAS  /tmp/ccZwuFQJ.s 			page 4


 172              		.loc 1 374 0
 173 003a 0122     		movs	r2, #1
 174 003c 5A61     		str	r2, [r3, #20]
 175              		.loc 1 375 0
 176 003e 1A60     		str	r2, [r3]
 177              		.loc 1 378 0
 178 0040 FFF7FEBF 		b	nvicEnableVector
 179              	.LVL8:
 180              	.L8:
 181              		.align	2
 182              	.L7:
 183 0044 00380240 		.word	1073887232
 184 0048 002004E0 		.word	-536600576
 185              		.cfi_endproc
 186              	.LFE335:
 187              		.size	st_lld_init, .-st_lld_init
 188              		.text
 189              	.Letext0:
 190              		.file 5 "/opt/gcc-arm-none-eabi-6-2017-q2-update/lib/gcc/arm-none-eabi/6.3.1/include/stddef.h"
 191              		.file 6 "/opt/gcc-arm-none-eabi-6-2017-q2-update/arm-none-eabi/include/machine/_default_types.h"
 192              		.file 7 "/opt/gcc-arm-none-eabi-6-2017-q2-update/arm-none-eabi/include/sys/_stdint.h"
 193              		.file 8 "/opt/gcc-arm-none-eabi-6-2017-q2-update/arm-none-eabi/include/stdint.h"
 194              		.file 9 "../../modules/ChibiOS/os/common/ports/ARMCMx/compilers/GCC/chtypes.h"
 195              		.file 10 "../../modules/ChibiOS/os/rt/include/chsystypes.h"
 196              		.file 11 "../../modules/ChibiOS/os/rt/include/chschd.h"
 197              		.file 12 "../../modules/ChibiOS/os/rt/include/chtime.h"
 198              		.file 13 "../../modules/ChibiOS/os/common/ext/ARM/CMSIS/Core/Include/core_cm7.h"
 199              		.file 14 "../../modules/ChibiOS/os/common/ext/ST/STM32F7xx/system_stm32f7xx.h"
 200              		.file 15 "../../modules/ChibiOS/os/common/ext/ST/STM32F7xx/stm32f767xx.h"
 201              		.file 16 "../../modules/ChibiOS/os/common/ports/ARMCMx/chcore.h"
 202              		.file 17 "../../modules/ChibiOS/os/common/ports/ARMCMx/chcore_v7m.h"
 203              		.file 18 "../../modules/ChibiOS/os/hal/ports/STM32/LLD/TIMv1/stm32_tim.h"
 204              		.file 19 "../../modules/ChibiOS/os/rt/include/chtm.h"
 205              		.file 20 "../../modules/ChibiOS/os/rt/include/chstats.h"
 206              		.file 21 "../../modules/ChibiOS/os/rt/include/chsem.h"
 207              		.file 22 "../../modules/ChibiOS/os/rt/include/chmtx.h"
 208              		.file 23 "../../modules/ChibiOS/os/rt/include/chregistry.h"
 209              		.file 24 "../../modules/ChibiOS/os/rt/include/chevents.h"
 210              		.file 25 "../../modules/ChibiOS/os/oslib/include/chmemcore.h"
 211              		.file 26 "../../modules/ChibiOS/os/oslib/include/chmempools.h"
 212              		.file 27 "../../modules/ChibiOS/os/oslib/include/chfactory.h"
 213              		.file 28 "../../modules/ChibiOS/os/hal/ports/STM32/LLD/DMAv2/stm32_dma.h"
 214              		.file 29 "../../modules/ChibiOS/os/hal/include/hal_ioblock.h"
 215              		.file 30 "../../modules/ChibiOS/os/hal/include/hal_queues.h"
 216              		.file 31 "../../modules/ChibiOS/os/hal/include/hal_pal.h"
 217              		.file 32 "../../modules/ChibiOS/os/hal/ports/STM32/LLD/GPIOv2/stm32_gpio.h"
 218              		.file 33 "../../modules/ChibiOS/os/hal/ports/STM32/LLD/GPIOv2/hal_pal_lld.h"
 219              		.file 34 "../../modules/ChibiOS/os/hal/include/hal_adc.h"
 220              		.file 35 "../../modules/ChibiOS/os/hal/ports/STM32/LLD/ADCv2/hal_adc_lld.h"
 221              		.file 36 "../../modules/ChibiOS/os/hal/include/hal_i2c.h"
 222              		.file 37 "../../modules/ChibiOS/os/hal/ports/STM32/LLD/I2Cv2/hal_i2c_lld.h"
 223              		.file 38 "../../modules/ChibiOS/os/hal/include/hal_pwm.h"
 224              		.file 39 "../../modules/ChibiOS/os/hal/ports/STM32/LLD/TIMv1/hal_pwm_lld.h"
 225              		.file 40 "../../modules/ChibiOS/os/hal/include/hal_serial.h"
 226              		.file 41 "../../modules/ChibiOS/os/hal/ports/STM32/LLD/USARTv2/hal_serial_lld.h"
 227              		.file 42 "../../modules/ChibiOS/os/hal/include/hal_sdc.h"
 228              		.file 43 "../../modules/ChibiOS/os/hal/ports/STM32/LLD/SDMMCv1/hal_sdc_lld.h"
ARM GAS  /tmp/ccZwuFQJ.s 			page 5


 229              		.file 44 "../../modules/ChibiOS/os/hal/include/hal_spi.h"
 230              		.file 45 "../../modules/ChibiOS/os/hal/ports/STM32/LLD/SPIv2/hal_spi_lld.h"
 231              		.file 46 "../../modules/ChibiOS/os/hal/include/hal_usb.h"
 232              		.file 47 "../../modules/ChibiOS/os/hal/ports/STM32/LLD/OTGv1/hal_usb_lld.h"
 233              		.file 48 "../../modules/ChibiOS/os/hal/ports/STM32/LLD/OTGv1/stm32_otg.h"
 234              		.file 49 "../../modules/ChibiOS/os/hal/ports/common/ARMCMx/nvic.h"