ARM GAS  /tmp/cc7uH6RG.s 			page 1


   1              		.cpu cortex-m7
   2              		.eabi_attribute 27, 1
   3              		.eabi_attribute 28, 1
   4              		.eabi_attribute 20, 1
   5              		.eabi_attribute 21, 1
   6              		.eabi_attribute 23, 3
   7              		.eabi_attribute 24, 1
   8              		.eabi_attribute 25, 1
   9              		.eabi_attribute 26, 1
  10              		.eabi_attribute 30, 4
  11              		.eabi_attribute 34, 1
  12              		.eabi_attribute 18, 4
  13              		.file	"hal_pwm_lld.c"
  14              		.text
  15              	.Ltext0:
  16              		.cfi_sections	.debug_frame
  17              		.section	.text.pwm_lld_init,"ax",%progbits
  18              		.align	1
  19              		.global	pwm_lld_init
  20              		.syntax unified
  21              		.thumb
  22              		.thumb_func
  23              		.fpu fpv4-sp-d16
  24              		.type	pwm_lld_init, %function
  25              	pwm_lld_init:
  26              	.LFB334:
  27              		.file 1 "../../modules/ChibiOS/os/hal/ports/STM32/LLD/TIMv1/hal_pwm_lld.c"
  28              		.loc 1 391 0
  29              		.cfi_startproc
  30              		@ args = 0, pretend = 0, frame = 0
  31              		@ frame_needed = 0, uses_anonymous_args = 0
  32 0000 38B5     		push	{r3, r4, r5, lr}
  33              		.cfi_def_cfa_offset 16
  34              		.cfi_offset 3, -16
  35              		.cfi_offset 4, -12
  36              		.cfi_offset 5, -8
  37              		.cfi_offset 14, -4
  38              		.loc 1 395 0
  39 0002 104C     		ldr	r4, .L2
  40              		.loc 1 438 0
  41 0004 0225     		movs	r5, #2
  42              		.loc 1 395 0
  43 0006 2046     		mov	r0, r4
  44 0008 FFF7FEFF 		bl	pwmObjectInit
  45              	.LVL0:
  46              		.loc 1 396 0
  47 000c 0623     		movs	r3, #6
  48 000e 2374     		strb	r3, [r4, #16]
  49              		.loc 1 397 0
  50 0010 0D4B     		ldr	r3, .L2+4
  51 0012 A361     		str	r3, [r4, #24]
  52              		.loc 1 416 0
  53 0014 0D4C     		ldr	r4, .L2+8
  54 0016 2046     		mov	r0, r4
  55 0018 FFF7FEFF 		bl	pwmObjectInit
  56              	.LVL1:
  57              		.loc 1 417 0
ARM GAS  /tmp/cc7uH6RG.s 			page 2


  58 001c 0423     		movs	r3, #4
  59 001e 2374     		strb	r3, [r4, #16]
  60              		.loc 1 418 0
  61 0020 0B4B     		ldr	r3, .L2+12
  62 0022 A361     		str	r3, [r4, #24]
  63              		.loc 1 437 0
  64 0024 0B4C     		ldr	r4, .L2+16
  65 0026 2046     		mov	r0, r4
  66 0028 FFF7FEFF 		bl	pwmObjectInit
  67              	.LVL2:
  68              		.loc 1 439 0
  69 002c 0A4B     		ldr	r3, .L2+20
  70              		.loc 1 438 0
  71 002e 2574     		strb	r5, [r4, #16]
  72              		.loc 1 439 0
  73 0030 A361     		str	r3, [r4, #24]
  74              		.loc 1 451 0
  75 0032 0A4C     		ldr	r4, .L2+24
  76 0034 2046     		mov	r0, r4
  77 0036 FFF7FEFF 		bl	pwmObjectInit
  78              	.LVL3:
  79              		.loc 1 453 0
  80 003a 094B     		ldr	r3, .L2+28
  81              		.loc 1 452 0
  82 003c 2574     		strb	r5, [r4, #16]
  83              		.loc 1 453 0
  84 003e A361     		str	r3, [r4, #24]
  85 0040 38BD     		pop	{r3, r4, r5, pc}
  86              	.L3:
  87 0042 00BF     		.align	2
  88              	.L2:
  89 0044 00000000 		.word	.LANCHOR0
  90 0048 00000140 		.word	1073807360
  91 004c 00000000 		.word	.LANCHOR1
  92 0050 00080040 		.word	1073743872
  93 0054 00000000 		.word	.LANCHOR2
  94 0058 00400140 		.word	1073823744
  95 005c 00000000 		.word	.LANCHOR3
  96 0060 00180040 		.word	1073747968
  97              		.cfi_endproc
  98              	.LFE334:
  99              		.size	pwm_lld_init, .-pwm_lld_init
 100              		.section	.text.pwm_lld_start,"ax",%progbits
 101              		.align	1
 102              		.global	pwm_lld_start
 103              		.syntax unified
 104              		.thumb
 105              		.thumb_func
 106              		.fpu fpv4-sp-d16
 107              		.type	pwm_lld_start, %function
 108              	pwm_lld_start:
 109              	.LFB335:
 110              		.loc 1 494 0
 111              		.cfi_startproc
 112              		@ args = 0, pretend = 0, frame = 0
 113              		@ frame_needed = 0, uses_anonymous_args = 0
 114              	.LVL4:
ARM GAS  /tmp/cc7uH6RG.s 			page 3


 115              		.loc 1 498 0
 116 0000 0378     		ldrb	r3, [r0]	@ zero_extendqisi2
 117 0002 8269     		ldr	r2, [r0, #24]
 118 0004 012B     		cmp	r3, #1
 119              		.loc 1 494 0
 120 0006 10B5     		push	{r4, lr}
 121              		.cfi_def_cfa_offset 8
 122              		.cfi_offset 4, -8
 123              		.cfi_offset 14, -4
 124              		.loc 1 498 0
 125 0008 40F0AB80 		bne	.L5
 126              		.loc 1 501 0
 127 000c 5D4B     		ldr	r3, .L39
 128 000e 9842     		cmp	r0, r3
 129 0010 64D1     		bne	.L6
 130              		.loc 1 502 0
 131 0012 5D4B     		ldr	r3, .L39+4
 132 0014 596C     		ldr	r1, [r3, #68]
 133 0016 41F00101 		orr	r1, r1, #1
 134 001a 5964     		str	r1, [r3, #68]
 135 001c 596E     		ldr	r1, [r3, #100]
 136 001e 41F00101 		orr	r1, r1, #1
 137 0022 5966     		str	r1, [r3, #100]
 138 0024 596E     		ldr	r1, [r3, #100]
 139              		.loc 1 503 0
 140 0026 596A     		ldr	r1, [r3, #36]
 141 0028 41F00101 		orr	r1, r1, #1
 142 002c 5962     		str	r1, [r3, #36]
 143 002e 596A     		ldr	r1, [r3, #36]
 144 0030 21F00101 		bic	r1, r1, #1
 145              	.L38:
 146              		.loc 1 595 0
 147 0034 5962     		str	r1, [r3, #36]
 148 0036 5B6A     		ldr	r3, [r3, #36]
 149              		.loc 1 602 0
 150 0038 544B     		ldr	r3, .L39+8
 151              	.L37:
 152              		.loc 1 626 0
 153 003a 4361     		str	r3, [r0, #20]
 154              	.L7:
 155              		.loc 1 681 0
 156 003c 46F66803 		movw	r3, #26728
 157 0040 9361     		str	r3, [r2, #24]
 158              		.loc 1 683 0
 159 0042 D361     		str	r3, [r2, #28]
 160              		.loc 1 686 0
 161 0044 03F18073 		add	r3, r3, #16777216
 162 0048 03F58033 		add	r3, r3, #65536
 163 004c 5365     		str	r3, [r2, #84]
 164              	.L10:
 165              		.loc 1 707 0
 166 004e 4168     		ldr	r1, [r0, #4]
 167 0050 4369     		ldr	r3, [r0, #20]
 168 0052 0C68     		ldr	r4, [r1]
 169 0054 B3FBF4F3 		udiv	r3, r3, r4
 170 0058 013B     		subs	r3, r3, #1
 171              	.LVL5:
ARM GAS  /tmp/cc7uH6RG.s 			page 4


 172              		.loc 1 709 0
 173 005a 9362     		str	r3, [r2, #40]
 174              		.loc 1 710 0
 175 005c 8368     		ldr	r3, [r0, #8]
 176              	.LVL6:
 177 005e 013B     		subs	r3, r3, #1
 178 0060 D362     		str	r3, [r2, #44]
 179              	.LVL7:
 180              		.loc 1 711 0
 181 0062 CB6B     		ldr	r3, [r1, #60]
 182 0064 5360     		str	r3, [r2, #4]
 183              	.LVL8:
 184              		.loc 1 715 0
 185 0066 CB68     		ldr	r3, [r1, #12]
 186 0068 03F00F03 		and	r3, r3, #15
 187 006c 012B     		cmp	r3, #1
 188 006e 00F08580 		beq	.L25
 189 0072 022B     		cmp	r3, #2
 190 0074 40F08480 		bne	.L35
 191              	.L13:
 192              	.LVL9:
 193              		.loc 1 720 0
 194 0078 43F00103 		orr	r3, r3, #1
 195              	.LVL10:
 196              	.L12:
 197              		.loc 1 725 0
 198 007c 4869     		ldr	r0, [r1, #20]
 199              	.LVL11:
 200 007e 00F00F00 		and	r0, r0, #15
 201 0082 0128     		cmp	r0, #1
 202 0084 03D0     		beq	.L16
 203 0086 0228     		cmp	r0, #2
 204 0088 03D1     		bne	.L15
 205              		.loc 1 727 0
 206 008a 43F02003 		orr	r3, r3, #32
 207              	.LVL12:
 208              	.L16:
 209              		.loc 1 730 0
 210 008e 43F01003 		orr	r3, r3, #16
 211              	.LVL13:
 212              	.L15:
 213              		.loc 1 735 0
 214 0092 C869     		ldr	r0, [r1, #28]
 215 0094 00F00F00 		and	r0, r0, #15
 216 0098 0128     		cmp	r0, #1
 217 009a 03D0     		beq	.L19
 218 009c 0228     		cmp	r0, #2
 219 009e 03D1     		bne	.L18
 220              		.loc 1 737 0
 221 00a0 43F40073 		orr	r3, r3, #512
 222              	.LVL14:
 223              	.L19:
 224              		.loc 1 740 0
 225 00a4 43F48073 		orr	r3, r3, #256
 226              	.LVL15:
 227              	.L18:
 228              		.loc 1 745 0
ARM GAS  /tmp/cc7uH6RG.s 			page 5


 229 00a8 486A     		ldr	r0, [r1, #36]
 230 00aa 00F00F00 		and	r0, r0, #15
 231 00ae 0128     		cmp	r0, #1
 232 00b0 03D0     		beq	.L22
 233 00b2 0228     		cmp	r0, #2
 234 00b4 03D1     		bne	.L21
 235              		.loc 1 747 0
 236 00b6 43F40053 		orr	r3, r3, #8192
 237              	.LVL16:
 238              	.L22:
 239              		.loc 1 750 0
 240 00ba 43F48053 		orr	r3, r3, #4096
 241              	.LVL17:
 242              	.L21:
 243              		.loc 1 798 0
 244 00be 1362     		str	r3, [r2, #32]
 245              		.loc 1 799 0
 246 00c0 0123     		movs	r3, #1
 247              	.LVL18:
 248 00c2 5361     		str	r3, [r2, #20]
 249              	.LVL19:
 250              		.loc 1 800 0
 251 00c4 0023     		movs	r3, #0
 252 00c6 1361     		str	r3, [r2, #16]
 253              		.loc 1 801 0
 254 00c8 0B6C     		ldr	r3, [r1, #64]
 255 00ca 23F0FF03 		bic	r3, r3, #255
 256 00ce D360     		str	r3, [r2, #12]
 257              		.loc 1 807 0
 258 00d0 4FF40043 		mov	r3, #32768
 259 00d4 5364     		str	r3, [r2, #68]
 260              		.loc 1 811 0
 261 00d6 8523     		movs	r3, #133
 262 00d8 1360     		str	r3, [r2]
 263 00da 10BD     		pop	{r4, pc}
 264              	.LVL20:
 265              	.L6:
 266              		.loc 1 547 0
 267 00dc 2C4B     		ldr	r3, .L39+12
 268 00de 9842     		cmp	r0, r3
 269 00e0 14D1     		bne	.L8
 270              		.loc 1 548 0
 271 00e2 294B     		ldr	r3, .L39+4
 272 00e4 196C     		ldr	r1, [r3, #64]
 273 00e6 41F00401 		orr	r1, r1, #4
 274 00ea 1964     		str	r1, [r3, #64]
 275 00ec 196E     		ldr	r1, [r3, #96]
 276 00ee 41F00401 		orr	r1, r1, #4
 277 00f2 1966     		str	r1, [r3, #96]
 278 00f4 196E     		ldr	r1, [r3, #96]
 279              		.loc 1 549 0
 280 00f6 196A     		ldr	r1, [r3, #32]
 281 00f8 41F00401 		orr	r1, r1, #4
 282 00fc 1962     		str	r1, [r3, #32]
 283 00fe 196A     		ldr	r1, [r3, #32]
 284 0100 21F00401 		bic	r1, r1, #4
 285              	.L36:
ARM GAS  /tmp/cc7uH6RG.s 			page 6


 286              		.loc 1 622 0
 287 0104 1962     		str	r1, [r3, #32]
 288 0106 1B6A     		ldr	r3, [r3, #32]
 289              		.loc 1 626 0
 290 0108 224B     		ldr	r3, .L39+16
 291 010a 96E7     		b	.L37
 292              	.L8:
 293              		.loc 1 593 0
 294 010c 224B     		ldr	r3, .L39+20
 295 010e 9842     		cmp	r0, r3
 296 0110 11D1     		bne	.L9
 297              		.loc 1 594 0
 298 0112 1D4B     		ldr	r3, .L39+4
 299 0114 596C     		ldr	r1, [r3, #68]
 300 0116 41F48031 		orr	r1, r1, #65536
 301 011a 5964     		str	r1, [r3, #68]
 302 011c 596E     		ldr	r1, [r3, #100]
 303 011e 41F48031 		orr	r1, r1, #65536
 304 0122 5966     		str	r1, [r3, #100]
 305 0124 596E     		ldr	r1, [r3, #100]
 306              		.loc 1 595 0
 307 0126 596A     		ldr	r1, [r3, #36]
 308 0128 41F48031 		orr	r1, r1, #65536
 309 012c 5962     		str	r1, [r3, #36]
 310 012e 596A     		ldr	r1, [r3, #36]
 311 0130 21F48031 		bic	r1, r1, #65536
 312 0134 7EE7     		b	.L38
 313              	.L9:
 314              		.loc 1 620 0
 315 0136 194B     		ldr	r3, .L39+24
 316 0138 9842     		cmp	r0, r3
 317 013a 7FF47FAF 		bne	.L7
 318              		.loc 1 621 0
 319 013e 124B     		ldr	r3, .L39+4
 320 0140 196C     		ldr	r1, [r3, #64]
 321 0142 41F04001 		orr	r1, r1, #64
 322 0146 1964     		str	r1, [r3, #64]
 323 0148 196E     		ldr	r1, [r3, #96]
 324 014a 41F04001 		orr	r1, r1, #64
 325 014e 1966     		str	r1, [r3, #96]
 326 0150 196E     		ldr	r1, [r3, #96]
 327              		.loc 1 622 0
 328 0152 196A     		ldr	r1, [r3, #32]
 329 0154 41F04001 		orr	r1, r1, #64
 330 0158 1962     		str	r1, [r3, #32]
 331 015a 196A     		ldr	r1, [r3, #32]
 332 015c 21F04001 		bic	r1, r1, #64
 333 0160 D0E7     		b	.L36
 334              	.L5:
 335              		.loc 1 692 0
 336 0162 0023     		movs	r3, #0
 337 0164 1360     		str	r3, [r2]
 338              		.loc 1 693 0
 339 0166 5363     		str	r3, [r2, #52]
 340              		.loc 1 694 0
 341 0168 9363     		str	r3, [r2, #56]
 342              		.loc 1 695 0
ARM GAS  /tmp/cc7uH6RG.s 			page 7


 343 016a D363     		str	r3, [r2, #60]
 344              		.loc 1 696 0
 345 016c 1364     		str	r3, [r2, #64]
 346              		.loc 1 698 0
 347 016e 017C     		ldrb	r1, [r0, #16]	@ zero_extendqisi2
 348 0170 0429     		cmp	r1, #4
 349 0172 01D9     		bls	.L11
 350              		.loc 1 699 0
 351 0174 9365     		str	r3, [r2, #88]
 352              		.loc 1 700 0
 353 0176 D365     		str	r3, [r2, #92]
 354              	.L11:
 355              		.loc 1 703 0
 356 0178 5362     		str	r3, [r2, #36]
 357 017a 68E7     		b	.L10
 358              	.LVL21:
 359              	.L25:
 360              		.loc 1 714 0
 361 017c 0023     		movs	r3, #0
 362 017e 7BE7     		b	.L13
 363              	.L35:
 364 0180 0023     		movs	r3, #0
 365 0182 7BE7     		b	.L12
 366              	.L40:
 367              		.align	2
 368              	.L39:
 369 0184 00000000 		.word	.LANCHOR0
 370 0188 00380240 		.word	1073887232
 371 018c 00E6DF0C 		.word	216000000
 372 0190 00000000 		.word	.LANCHOR1
 373 0194 00F36F06 		.word	108000000
 374 0198 00000000 		.word	.LANCHOR2
 375 019c 00000000 		.word	.LANCHOR3
 376              		.cfi_endproc
 377              	.LFE335:
 378              		.size	pwm_lld_start, .-pwm_lld_start
 379              		.section	.text.pwm_lld_stop,"ax",%progbits
 380              		.align	1
 381              		.global	pwm_lld_stop
 382              		.syntax unified
 383              		.thumb
 384              		.thumb_func
 385              		.fpu fpv4-sp-d16
 386              		.type	pwm_lld_stop, %function
 387              	pwm_lld_stop:
 388              	.LFB336:
 389              		.loc 1 822 0
 390              		.cfi_startproc
 391              		@ args = 0, pretend = 0, frame = 0
 392              		@ frame_needed = 0, uses_anonymous_args = 0
 393              		@ link register save eliminated.
 394              	.LVL22:
 395              		.loc 1 825 0
 396 0000 0378     		ldrb	r3, [r0]	@ zero_extendqisi2
 397 0002 022B     		cmp	r3, #2
 398 0004 20D1     		bne	.L41
 399              		.loc 1 826 0
ARM GAS  /tmp/cc7uH6RG.s 			page 8


 400 0006 8369     		ldr	r3, [r0, #24]
 401 0008 0022     		movs	r2, #0
 402 000a 1A60     		str	r2, [r3]
 403              		.loc 1 827 0
 404 000c DA60     		str	r2, [r3, #12]
 405              		.loc 1 828 0
 406 000e 1A61     		str	r2, [r3, #16]
 407              		.loc 1 830 0
 408 0010 5A64     		str	r2, [r3, #68]
 409              		.loc 1 834 0
 410 0012 1A4B     		ldr	r3, .L50
 411 0014 9842     		cmp	r0, r3
 412 0016 0AD1     		bne	.L44
 413              		.loc 1 839 0
 414 0018 194B     		ldr	r3, .L50+4
 415 001a 5A6C     		ldr	r2, [r3, #68]
 416 001c 22F00102 		bic	r2, r2, #1
 417 0020 5A64     		str	r2, [r3, #68]
 418 0022 5A6E     		ldr	r2, [r3, #100]
 419 0024 22F00102 		bic	r2, r2, #1
 420              	.L48:
 421              		.loc 1 894 0
 422 0028 5A66     		str	r2, [r3, #100]
 423 002a 5B6E     		ldr	r3, [r3, #100]
 424 002c 7047     		bx	lr
 425              	.L44:
 426              		.loc 1 862 0
 427 002e 154B     		ldr	r3, .L50+8
 428 0030 9842     		cmp	r0, r3
 429 0032 0AD1     		bne	.L46
 430              		.loc 1 866 0
 431 0034 124B     		ldr	r3, .L50+4
 432 0036 1A6C     		ldr	r2, [r3, #64]
 433 0038 22F00402 		bic	r2, r2, #4
 434 003c 1A64     		str	r2, [r3, #64]
 435 003e 1A6E     		ldr	r2, [r3, #96]
 436 0040 22F00402 		bic	r2, r2, #4
 437              	.L49:
 438              		.loc 1 906 0
 439 0044 1A66     		str	r2, [r3, #96]
 440 0046 1B6E     		ldr	r3, [r3, #96]
 441              	.L41:
 442 0048 7047     		bx	lr
 443              	.L46:
 444              		.loc 1 890 0
 445 004a 0F4B     		ldr	r3, .L50+12
 446 004c 9842     		cmp	r0, r3
 447 004e 08D1     		bne	.L47
 448              		.loc 1 894 0
 449 0050 0B4B     		ldr	r3, .L50+4
 450 0052 5A6C     		ldr	r2, [r3, #68]
 451 0054 22F48032 		bic	r2, r2, #65536
 452 0058 5A64     		str	r2, [r3, #68]
 453 005a 5A6E     		ldr	r2, [r3, #100]
 454 005c 22F48032 		bic	r2, r2, #65536
 455 0060 E2E7     		b	.L48
 456              	.L47:
ARM GAS  /tmp/cc7uH6RG.s 			page 9


 457              		.loc 1 905 0
 458 0062 0A4B     		ldr	r3, .L50+16
 459 0064 9842     		cmp	r0, r3
 460 0066 EFD1     		bne	.L41
 461              		.loc 1 906 0
 462 0068 054B     		ldr	r3, .L50+4
 463 006a 1A6C     		ldr	r2, [r3, #64]
 464 006c 22F04002 		bic	r2, r2, #64
 465 0070 1A64     		str	r2, [r3, #64]
 466 0072 1A6E     		ldr	r2, [r3, #96]
 467 0074 22F04002 		bic	r2, r2, #64
 468 0078 E4E7     		b	.L49
 469              	.L51:
 470 007a 00BF     		.align	2
 471              	.L50:
 472 007c 00000000 		.word	.LANCHOR0
 473 0080 00380240 		.word	1073887232
 474 0084 00000000 		.word	.LANCHOR1
 475 0088 00000000 		.word	.LANCHOR2
 476 008c 00000000 		.word	.LANCHOR3
 477              		.cfi_endproc
 478              	.LFE336:
 479              		.size	pwm_lld_stop, .-pwm_lld_stop
 480              		.section	.text.pwm_lld_enable_channel,"ax",%progbits
 481              		.align	1
 482              		.global	pwm_lld_enable_channel
 483              		.syntax unified
 484              		.thumb
 485              		.thumb_func
 486              		.fpu fpv4-sp-d16
 487              		.type	pwm_lld_enable_channel, %function
 488              	pwm_lld_enable_channel:
 489              	.LFB337:
 490              		.loc 1 951 0
 491              		.cfi_startproc
 492              		@ args = 0, pretend = 0, frame = 0
 493              		@ frame_needed = 0, uses_anonymous_args = 0
 494              		@ link register save eliminated.
 495              	.LVL23:
 496              		.loc 1 957 0
 497 0000 0329     		cmp	r1, #3
 498 0002 8369     		ldr	r3, [r0, #24]
 499 0004 04D8     		bhi	.L53
 500              		.loc 1 958 0
 501 0006 0C31     		adds	r1, r1, #12
 502              	.LVL24:
 503 0008 03EB8101 		add	r1, r3, r1, lsl #2
 504 000c 4A60     		str	r2, [r1, #4]
 505 000e 7047     		bx	lr
 506              	.LVL25:
 507              	.L53:
 508              		.loc 1 960 0
 509 0010 1231     		adds	r1, r1, #18
 510              	.LVL26:
 511 0012 43F82120 		str	r2, [r3, r1, lsl #2]
 512 0016 7047     		bx	lr
 513              		.cfi_endproc
ARM GAS  /tmp/cc7uH6RG.s 			page 10


 514              	.LFE337:
 515              		.size	pwm_lld_enable_channel, .-pwm_lld_enable_channel
 516              		.section	.text.pwm_lld_disable_channel,"ax",%progbits
 517              		.align	1
 518              		.global	pwm_lld_disable_channel
 519              		.syntax unified
 520              		.thumb
 521              		.thumb_func
 522              		.fpu fpv4-sp-d16
 523              		.type	pwm_lld_disable_channel, %function
 524              	pwm_lld_disable_channel:
 525              	.LFB338:
 526              		.loc 1 976 0
 527              		.cfi_startproc
 528              		@ args = 0, pretend = 0, frame = 0
 529              		@ frame_needed = 0, uses_anonymous_args = 0
 530              		@ link register save eliminated.
 531              	.LVL27:
 532              		.loc 1 982 0
 533 0000 0329     		cmp	r1, #3
 534 0002 8369     		ldr	r3, [r0, #24]
 535 0004 0DD8     		bhi	.L56
 536              		.loc 1 983 0
 537 0006 01F10C02 		add	r2, r1, #12
 538 000a 0020     		movs	r0, #0
 539              	.LVL28:
 540 000c 03EB8202 		add	r2, r3, r2, lsl #2
 541 0010 5060     		str	r0, [r2, #4]
 542              		.loc 1 984 0
 543 0012 0220     		movs	r0, #2
 544 0014 DA68     		ldr	r2, [r3, #12]
 545 0016 00FA01F1 		lsl	r1, r0, r1
 546              	.LVL29:
 547 001a 22EA0101 		bic	r1, r2, r1
 548 001e D960     		str	r1, [r3, #12]
 549 0020 7047     		bx	lr
 550              	.LVL30:
 551              	.L56:
 552              		.loc 1 987 0
 553 0022 1231     		adds	r1, r1, #18
 554              	.LVL31:
 555 0024 0022     		movs	r2, #0
 556 0026 43F82120 		str	r2, [r3, r1, lsl #2]
 557 002a 7047     		bx	lr
 558              		.cfi_endproc
 559              	.LFE338:
 560              		.size	pwm_lld_disable_channel, .-pwm_lld_disable_channel
 561              		.section	.text.pwm_lld_enable_periodic_notification,"ax",%progbits
 562              		.align	1
 563              		.global	pwm_lld_enable_periodic_notification
 564              		.syntax unified
 565              		.thumb
 566              		.thumb_func
 567              		.fpu fpv4-sp-d16
 568              		.type	pwm_lld_enable_periodic_notification, %function
 569              	pwm_lld_enable_periodic_notification:
 570              	.LFB339:
ARM GAS  /tmp/cc7uH6RG.s 			page 11


 571              		.loc 1 1000 0
 572              		.cfi_startproc
 573              		@ args = 0, pretend = 0, frame = 0
 574              		@ frame_needed = 0, uses_anonymous_args = 0
 575              		@ link register save eliminated.
 576              	.LVL32:
 577              		.loc 1 1001 0
 578 0000 8269     		ldr	r2, [r0, #24]
 579 0002 D368     		ldr	r3, [r2, #12]
 580              	.LVL33:
 581              		.loc 1 1005 0
 582 0004 D907     		lsls	r1, r3, #31
 583 0006 05D4     		bmi	.L58
 584              		.loc 1 1006 0
 585 0008 6FF00101 		mvn	r1, #1
 586              		.loc 1 1007 0
 587 000c 43F00103 		orr	r3, r3, #1
 588              	.LVL34:
 589              		.loc 1 1006 0
 590 0010 1161     		str	r1, [r2, #16]
 591              		.loc 1 1007 0
 592 0012 D360     		str	r3, [r2, #12]
 593              	.L58:
 594 0014 7047     		bx	lr
 595              		.cfi_endproc
 596              	.LFE339:
 597              		.size	pwm_lld_enable_periodic_notification, .-pwm_lld_enable_periodic_notification
 598              		.section	.text.pwm_lld_disable_periodic_notification,"ax",%progbits
 599              		.align	1
 600              		.global	pwm_lld_disable_periodic_notification
 601              		.syntax unified
 602              		.thumb
 603              		.thumb_func
 604              		.fpu fpv4-sp-d16
 605              		.type	pwm_lld_disable_periodic_notification, %function
 606              	pwm_lld_disable_periodic_notification:
 607              	.LFB340:
 608              		.loc 1 1020 0
 609              		.cfi_startproc
 610              		@ args = 0, pretend = 0, frame = 0
 611              		@ frame_needed = 0, uses_anonymous_args = 0
 612              		@ link register save eliminated.
 613              	.LVL35:
 614              		.loc 1 1022 0
 615 0000 8269     		ldr	r2, [r0, #24]
 616 0002 D368     		ldr	r3, [r2, #12]
 617 0004 23F00103 		bic	r3, r3, #1
 618 0008 D360     		str	r3, [r2, #12]
 619 000a 7047     		bx	lr
 620              		.cfi_endproc
 621              	.LFE340:
 622              		.size	pwm_lld_disable_periodic_notification, .-pwm_lld_disable_periodic_notification
 623              		.section	.text.pwm_lld_enable_channel_notification,"ax",%progbits
 624              		.align	1
 625              		.global	pwm_lld_enable_channel_notification
 626              		.syntax unified
 627              		.thumb
ARM GAS  /tmp/cc7uH6RG.s 			page 12


 628              		.thumb_func
 629              		.fpu fpv4-sp-d16
 630              		.type	pwm_lld_enable_channel_notification, %function
 631              	pwm_lld_enable_channel_notification:
 632              	.LFB341:
 633              		.loc 1 1037 0
 634              		.cfi_startproc
 635              		@ args = 0, pretend = 0, frame = 0
 636              		@ frame_needed = 0, uses_anonymous_args = 0
 637              		@ link register save eliminated.
 638              	.LVL36:
 639              		.loc 1 1038 0
 640 0000 8069     		ldr	r0, [r0, #24]
 641              	.LVL37:
 642              		.loc 1 1047 0
 643 0002 0223     		movs	r3, #2
 644              		.loc 1 1038 0
 645 0004 C268     		ldr	r2, [r0, #12]
 646              	.LVL38:
 647              		.loc 1 1047 0
 648 0006 03FA01F1 		lsl	r1, r3, r1
 649              	.LVL39:
 650 000a 0A42     		tst	r2, r1
 651 000c 03D1     		bne	.L61
 652              		.loc 1 1048 0
 653 000e CB43     		mvns	r3, r1
 654              		.loc 1 1049 0
 655 0010 1143     		orrs	r1, r1, r2
 656              		.loc 1 1048 0
 657 0012 0361     		str	r3, [r0, #16]
 658              		.loc 1 1049 0
 659 0014 C160     		str	r1, [r0, #12]
 660              	.L61:
 661 0016 7047     		bx	lr
 662              		.cfi_endproc
 663              	.LFE341:
 664              		.size	pwm_lld_enable_channel_notification, .-pwm_lld_enable_channel_notification
 665              		.section	.text.pwm_lld_disable_channel_notification,"ax",%progbits
 666              		.align	1
 667              		.global	pwm_lld_disable_channel_notification
 668              		.syntax unified
 669              		.thumb
 670              		.thumb_func
 671              		.fpu fpv4-sp-d16
 672              		.type	pwm_lld_disable_channel_notification, %function
 673              	pwm_lld_disable_channel_notification:
 674              	.LFB342:
 675              		.loc 1 1065 0
 676              		.cfi_startproc
 677              		@ args = 0, pretend = 0, frame = 0
 678              		@ frame_needed = 0, uses_anonymous_args = 0
 679              		@ link register save eliminated.
 680              	.LVL40:
 681              		.loc 1 1067 0
 682 0000 8069     		ldr	r0, [r0, #24]
 683              	.LVL41:
 684 0002 0222     		movs	r2, #2
ARM GAS  /tmp/cc7uH6RG.s 			page 13


 685 0004 C368     		ldr	r3, [r0, #12]
 686 0006 02FA01F1 		lsl	r1, r2, r1
 687              	.LVL42:
 688 000a 23EA0103 		bic	r3, r3, r1
 689 000e C360     		str	r3, [r0, #12]
 690 0010 7047     		bx	lr
 691              		.cfi_endproc
 692              	.LFE342:
 693              		.size	pwm_lld_disable_channel_notification, .-pwm_lld_disable_channel_notification
 694              		.section	.text.pwm_lld_serve_interrupt,"ax",%progbits
 695              		.align	1
 696              		.global	pwm_lld_serve_interrupt
 697              		.syntax unified
 698              		.thumb
 699              		.thumb_func
 700              		.fpu fpv4-sp-d16
 701              		.type	pwm_lld_serve_interrupt, %function
 702              	pwm_lld_serve_interrupt:
 703              	.LFB343:
 704              		.loc 1 1080 0
 705              		.cfi_startproc
 706              		@ args = 0, pretend = 0, frame = 0
 707              		@ frame_needed = 0, uses_anonymous_args = 0
 708              	.LVL43:
 709              		.loc 1 1083 0
 710 0000 8369     		ldr	r3, [r0, #24]
 711              		.loc 1 1080 0
 712 0002 70B5     		push	{r4, r5, r6, lr}
 713              		.cfi_def_cfa_offset 16
 714              		.cfi_offset 4, -16
 715              		.cfi_offset 5, -12
 716              		.cfi_offset 6, -8
 717              		.cfi_offset 14, -4
 718              		.loc 1 1083 0
 719 0004 1D69     		ldr	r5, [r3, #16]
 720              	.LVL44:
 721              		.loc 1 1080 0
 722 0006 0446     		mov	r4, r0
 723              		.loc 1 1084 0
 724 0008 DA68     		ldr	r2, [r3, #12]
 725 000a 1540     		ands	r5, r5, r2
 726              	.LVL45:
 727 000c EAB2     		uxtb	r2, r5
 728              		.loc 1 1086 0
 729 000e AE07     		lsls	r6, r5, #30
 730              		.loc 1 1085 0
 731 0010 6FEA0202 		mvn	r2, r2
 732 0014 1A61     		str	r2, [r3, #16]
 733              		.loc 1 1086 0
 734 0016 03D5     		bpl	.L65
 735              		.loc 1 1087 0 discriminator 1
 736 0018 4368     		ldr	r3, [r0, #4]
 737 001a 1B69     		ldr	r3, [r3, #16]
 738              		.loc 1 1086 0 discriminator 1
 739 001c 03B1     		cbz	r3, .L65
 740              		.loc 1 1088 0
 741 001e 9847     		blx	r3
ARM GAS  /tmp/cc7uH6RG.s 			page 14


 742              	.LVL46:
 743              	.L65:
 744              		.loc 1 1089 0
 745 0020 6807     		lsls	r0, r5, #29
 746 0022 04D5     		bpl	.L66
 747              		.loc 1 1090 0 discriminator 1
 748 0024 6368     		ldr	r3, [r4, #4]
 749 0026 9B69     		ldr	r3, [r3, #24]
 750              		.loc 1 1089 0 discriminator 1
 751 0028 0BB1     		cbz	r3, .L66
 752              		.loc 1 1091 0
 753 002a 2046     		mov	r0, r4
 754 002c 9847     		blx	r3
 755              	.LVL47:
 756              	.L66:
 757              		.loc 1 1092 0
 758 002e 2907     		lsls	r1, r5, #28
 759 0030 04D5     		bpl	.L67
 760              		.loc 1 1093 0 discriminator 1
 761 0032 6368     		ldr	r3, [r4, #4]
 762 0034 1B6A     		ldr	r3, [r3, #32]
 763              		.loc 1 1092 0 discriminator 1
 764 0036 0BB1     		cbz	r3, .L67
 765              		.loc 1 1094 0
 766 0038 2046     		mov	r0, r4
 767 003a 9847     		blx	r3
 768              	.LVL48:
 769              	.L67:
 770              		.loc 1 1095 0
 771 003c EA06     		lsls	r2, r5, #27
 772 003e 04D5     		bpl	.L68
 773              		.loc 1 1096 0 discriminator 1
 774 0040 6368     		ldr	r3, [r4, #4]
 775 0042 9B6A     		ldr	r3, [r3, #40]
 776              		.loc 1 1095 0 discriminator 1
 777 0044 0BB1     		cbz	r3, .L68
 778              		.loc 1 1097 0
 779 0046 2046     		mov	r0, r4
 780 0048 9847     		blx	r3
 781              	.LVL49:
 782              	.L68:
 783              		.loc 1 1098 0
 784 004a EB07     		lsls	r3, r5, #31
 785 004c 06D5     		bpl	.L64
 786              		.loc 1 1098 0 is_stmt 0 discriminator 1
 787 004e 6368     		ldr	r3, [r4, #4]
 788 0050 9B68     		ldr	r3, [r3, #8]
 789 0052 1BB1     		cbz	r3, .L64
 790              		.loc 1 1099 0 is_stmt 1
 791 0054 2046     		mov	r0, r4
 792              		.loc 1 1100 0
 793 0056 BDE87040 		pop	{r4, r5, r6, lr}
 794              		.cfi_remember_state
 795              		.cfi_restore 14
 796              		.cfi_restore 6
 797              		.cfi_restore 5
 798              		.cfi_restore 4
ARM GAS  /tmp/cc7uH6RG.s 			page 15


 799              		.cfi_def_cfa_offset 0
 800              	.LVL50:
 801              		.loc 1 1099 0
 802 005a 1847     		bx	r3	@ indirect register sibling call
 803              	.LVL51:
 804              	.L64:
 805              		.cfi_restore_state
 806 005c 70BD     		pop	{r4, r5, r6, pc}
 807              		.cfi_endproc
 808              	.LFE343:
 809              		.size	pwm_lld_serve_interrupt, .-pwm_lld_serve_interrupt
 810              		.global	PWMD12
 811              		.global	PWMD9
 812              		.global	PWMD4
 813              		.global	PWMD1
 814              		.section	.bss.PWMD1,"aw",%nobits
 815              		.align	2
 816              		.set	.LANCHOR0,. + 0
 817              		.type	PWMD1, %object
 818              		.size	PWMD1, 28
 819              	PWMD1:
 820 0000 00000000 		.space	28
 820      00000000 
 820      00000000 
 820      00000000 
 820      00000000 
 821              		.section	.bss.PWMD12,"aw",%nobits
 822              		.align	2
 823              		.set	.LANCHOR3,. + 0
 824              		.type	PWMD12, %object
 825              		.size	PWMD12, 28
 826              	PWMD12:
 827 0000 00000000 		.space	28
 827      00000000 
 827      00000000 
 827      00000000 
 827      00000000 
 828              		.section	.bss.PWMD4,"aw",%nobits
 829              		.align	2
 830              		.set	.LANCHOR1,. + 0
 831              		.type	PWMD4, %object
 832              		.size	PWMD4, 28
 833              	PWMD4:
 834 0000 00000000 		.space	28
 834      00000000 
 834      00000000 
 834      00000000 
 834      00000000 
 835              		.section	.bss.PWMD9,"aw",%nobits
 836              		.align	2
 837              		.set	.LANCHOR2,. + 0
 838              		.type	PWMD9, %object
 839              		.size	PWMD9, 28
 840              	PWMD9:
 841 0000 00000000 		.space	28
 841      00000000 
 841      00000000 
ARM GAS  /tmp/cc7uH6RG.s 			page 16


 841      00000000 
 841      00000000 
 842              		.text
 843              	.Letext0:
 844              		.file 2 "/opt/gcc-arm-none-eabi-6-2017-q2-update/lib/gcc/arm-none-eabi/6.3.1/include/stddef.h"
 845              		.file 3 "/opt/gcc-arm-none-eabi-6-2017-q2-update/arm-none-eabi/include/machine/_default_types.h"
 846              		.file 4 "/opt/gcc-arm-none-eabi-6-2017-q2-update/arm-none-eabi/include/sys/_stdint.h"
 847              		.file 5 "/opt/gcc-arm-none-eabi-6-2017-q2-update/arm-none-eabi/include/stdint.h"
 848              		.file 6 "../../modules/ChibiOS/os/common/ports/ARMCMx/compilers/GCC/chtypes.h"
 849              		.file 7 "../../modules/ChibiOS/os/rt/include/chsystypes.h"
 850              		.file 8 "../../modules/ChibiOS/os/rt/include/chschd.h"
 851              		.file 9 "../../modules/ChibiOS/os/rt/include/chtime.h"
 852              		.file 10 "../../modules/ChibiOS/os/common/ext/ARM/CMSIS/Core/Include/core_cm7.h"
 853              		.file 11 "../../modules/ChibiOS/os/common/ext/ST/STM32F7xx/system_stm32f7xx.h"
 854              		.file 12 "../../modules/ChibiOS/os/common/ext/ST/STM32F7xx/stm32f767xx.h"
 855              		.file 13 "../../modules/ChibiOS/os/common/ports/ARMCMx/chcore.h"
 856              		.file 14 "../../modules/ChibiOS/os/common/ports/ARMCMx/chcore_v7m.h"
 857              		.file 15 "../../modules/ChibiOS/os/hal/ports/STM32/LLD/TIMv1/stm32_tim.h"
 858              		.file 16 "../../modules/ChibiOS/os/rt/include/chtm.h"
 859              		.file 17 "../../modules/ChibiOS/os/rt/include/chstats.h"
 860              		.file 18 "../../modules/ChibiOS/os/rt/include/chsem.h"
 861              		.file 19 "../../modules/ChibiOS/os/rt/include/chmtx.h"
 862              		.file 20 "../../modules/ChibiOS/os/rt/include/chsys.h"
 863              		.file 21 "../../modules/ChibiOS/os/rt/include/chregistry.h"
 864              		.file 22 "../../modules/ChibiOS/os/rt/include/chevents.h"
 865              		.file 23 "../../modules/ChibiOS/os/oslib/include/chmemcore.h"
 866              		.file 24 "../../modules/ChibiOS/os/oslib/include/chmempools.h"
 867              		.file 25 "../../modules/ChibiOS/os/oslib/include/chfactory.h"
 868              		.file 26 "../../modules/ChibiOS/os/hal/ports/STM32/LLD/DMAv2/stm32_dma.h"
 869              		.file 27 "../../modules/ChibiOS/os/hal/include/hal_ioblock.h"
 870              		.file 28 "../../modules/ChibiOS/os/hal/include/hal_queues.h"
 871              		.file 29 "../../modules/ChibiOS/os/hal/include/hal_pal.h"
 872              		.file 30 "../../modules/ChibiOS/os/hal/ports/STM32/LLD/GPIOv2/stm32_gpio.h"
 873              		.file 31 "../../modules/ChibiOS/os/hal/ports/STM32/LLD/GPIOv2/hal_pal_lld.h"
 874              		.file 32 "../../modules/ChibiOS/os/hal/include/hal_adc.h"
 875              		.file 33 "../../modules/ChibiOS/os/hal/ports/STM32/LLD/ADCv2/hal_adc_lld.h"
 876              		.file 34 "../../modules/ChibiOS/os/hal/include/hal_i2c.h"
 877              		.file 35 "../../modules/ChibiOS/os/hal/ports/STM32/LLD/I2Cv2/hal_i2c_lld.h"
 878              		.file 36 "../../modules/ChibiOS/os/hal/include/hal_pwm.h"
 879              		.file 37 "../../modules/ChibiOS/os/hal/ports/STM32/LLD/TIMv1/hal_pwm_lld.h"
 880              		.file 38 "../../modules/ChibiOS/os/hal/include/hal_serial.h"
 881              		.file 39 "../../modules/ChibiOS/os/hal/ports/STM32/LLD/USARTv2/hal_serial_lld.h"
 882              		.file 40 "../../modules/ChibiOS/os/hal/include/hal_sdc.h"
 883              		.file 41 "../../modules/ChibiOS/os/hal/ports/STM32/LLD/SDMMCv1/hal_sdc_lld.h"
 884              		.file 42 "../../modules/ChibiOS/os/hal/include/hal_spi.h"
 885              		.file 43 "../../modules/ChibiOS/os/hal/ports/STM32/LLD/SPIv2/hal_spi_lld.h"
 886              		.file 44 "../../modules/ChibiOS/os/hal/include/hal_usb.h"
 887              		.file 45 "../../modules/ChibiOS/os/hal/ports/STM32/LLD/OTGv1/hal_usb_lld.h"
 888              		.file 46 "../../modules/ChibiOS/os/hal/ports/STM32/LLD/OTGv1/stm32_otg.h"