ARM GAS  /tmp/ccQpZ0ZL.s 			page 1


   1              		.cpu cortex-m7
   2              		.eabi_attribute 27, 1
   3              		.eabi_attribute 28, 1
   4              		.eabi_attribute 20, 1
   5              		.eabi_attribute 21, 1
   6              		.eabi_attribute 23, 3
   7              		.eabi_attribute 24, 1
   8              		.eabi_attribute 25, 1
   9              		.eabi_attribute 26, 1
  10              		.eabi_attribute 30, 4
  11              		.eabi_attribute 34, 1
  12              		.eabi_attribute 18, 4
  13              		.file	"hal_serial_lld.c"
  14              		.text
  15              	.Ltext0:
  16              		.cfi_sections	.debug_frame
  17              		.section	.text.notify1,"ax",%progbits
  18              		.align	1
  19              		.syntax unified
  20              		.thumb
  21              		.thumb_func
  22              		.fpu fpv4-sp-d16
  23              		.type	notify1, %function
  24              	notify1:
  25              	.LFB338:
  26              		.file 1 "../../modules/ChibiOS/os/hal/ports/STM32/LLD/USARTv2/hal_serial_lld.c"
  27              		.loc 1 397 0
  28              		.cfi_startproc
  29              		@ args = 0, pretend = 0, frame = 0
  30              		@ frame_needed = 0, uses_anonymous_args = 0
  31              		@ link register save eliminated.
  32              	.LVL0:
  33              		.loc 1 400 0
  34 0000 024A     		ldr	r2, .L2
  35 0002 1368     		ldr	r3, [r2]
  36 0004 43F0C003 		orr	r3, r3, #192
  37 0008 1360     		str	r3, [r2]
  38 000a 7047     		bx	lr
  39              	.L3:
  40              		.align	2
  41              	.L2:
  42 000c 00100140 		.word	1073811456
  43              		.cfi_endproc
  44              	.LFE338:
  45              		.size	notify1, .-notify1
  46              		.section	.text.notify2,"ax",%progbits
  47              		.align	1
  48              		.syntax unified
  49              		.thumb
  50              		.thumb_func
  51              		.fpu fpv4-sp-d16
  52              		.type	notify2, %function
  53              	notify2:
  54              	.LFB339:
  55              		.loc 1 405 0
  56              		.cfi_startproc
  57              		@ args = 0, pretend = 0, frame = 0
ARM GAS  /tmp/ccQpZ0ZL.s 			page 2


  58              		@ frame_needed = 0, uses_anonymous_args = 0
  59              		@ link register save eliminated.
  60              	.LVL1:
  61              		.loc 1 408 0
  62 0000 024A     		ldr	r2, .L5
  63 0002 1368     		ldr	r3, [r2]
  64 0004 43F0C003 		orr	r3, r3, #192
  65 0008 1360     		str	r3, [r2]
  66 000a 7047     		bx	lr
  67              	.L6:
  68              		.align	2
  69              	.L5:
  70 000c 00440040 		.word	1073759232
  71              		.cfi_endproc
  72              	.LFE339:
  73              		.size	notify2, .-notify2
  74              		.section	.text.notify3,"ax",%progbits
  75              		.align	1
  76              		.syntax unified
  77              		.thumb
  78              		.thumb_func
  79              		.fpu fpv4-sp-d16
  80              		.type	notify3, %function
  81              	notify3:
  82              	.LFB340:
  83              		.loc 1 413 0
  84              		.cfi_startproc
  85              		@ args = 0, pretend = 0, frame = 0
  86              		@ frame_needed = 0, uses_anonymous_args = 0
  87              		@ link register save eliminated.
  88              	.LVL2:
  89              		.loc 1 416 0
  90 0000 024A     		ldr	r2, .L8
  91 0002 1368     		ldr	r3, [r2]
  92 0004 43F0C003 		orr	r3, r3, #192
  93 0008 1360     		str	r3, [r2]
  94 000a 7047     		bx	lr
  95              	.L9:
  96              		.align	2
  97              	.L8:
  98 000c 00480040 		.word	1073760256
  99              		.cfi_endproc
 100              	.LFE340:
 101              		.size	notify3, .-notify3
 102              		.section	.text.notify4,"ax",%progbits
 103              		.align	1
 104              		.syntax unified
 105              		.thumb
 106              		.thumb_func
 107              		.fpu fpv4-sp-d16
 108              		.type	notify4, %function
 109              	notify4:
 110              	.LFB341:
 111              		.loc 1 421 0
 112              		.cfi_startproc
 113              		@ args = 0, pretend = 0, frame = 0
 114              		@ frame_needed = 0, uses_anonymous_args = 0
ARM GAS  /tmp/ccQpZ0ZL.s 			page 3


 115              		@ link register save eliminated.
 116              	.LVL3:
 117              		.loc 1 424 0
 118 0000 024A     		ldr	r2, .L11
 119 0002 1368     		ldr	r3, [r2]
 120 0004 43F0C003 		orr	r3, r3, #192
 121 0008 1360     		str	r3, [r2]
 122 000a 7047     		bx	lr
 123              	.L12:
 124              		.align	2
 125              	.L11:
 126 000c 004C0040 		.word	1073761280
 127              		.cfi_endproc
 128              	.LFE341:
 129              		.size	notify4, .-notify4
 130              		.section	.text.notify6,"ax",%progbits
 131              		.align	1
 132              		.syntax unified
 133              		.thumb
 134              		.thumb_func
 135              		.fpu fpv4-sp-d16
 136              		.type	notify6, %function
 137              	notify6:
 138              	.LFB342:
 139              		.loc 1 437 0
 140              		.cfi_startproc
 141              		@ args = 0, pretend = 0, frame = 0
 142              		@ frame_needed = 0, uses_anonymous_args = 0
 143              		@ link register save eliminated.
 144              	.LVL4:
 145              		.loc 1 440 0
 146 0000 024A     		ldr	r2, .L14
 147 0002 1368     		ldr	r3, [r2]
 148 0004 43F0C003 		orr	r3, r3, #192
 149 0008 1360     		str	r3, [r2]
 150 000a 7047     		bx	lr
 151              	.L15:
 152              		.align	2
 153              	.L14:
 154 000c 00140140 		.word	1073812480
 155              		.cfi_endproc
 156              	.LFE342:
 157              		.size	notify6, .-notify6
 158              		.section	.text.notify7,"ax",%progbits
 159              		.align	1
 160              		.syntax unified
 161              		.thumb
 162              		.thumb_func
 163              		.fpu fpv4-sp-d16
 164              		.type	notify7, %function
 165              	notify7:
 166              	.LFB343:
 167              		.loc 1 445 0
 168              		.cfi_startproc
 169              		@ args = 0, pretend = 0, frame = 0
 170              		@ frame_needed = 0, uses_anonymous_args = 0
 171              		@ link register save eliminated.
ARM GAS  /tmp/ccQpZ0ZL.s 			page 4


 172              	.LVL5:
 173              		.loc 1 448 0
 174 0000 024A     		ldr	r2, .L17
 175 0002 1368     		ldr	r3, [r2]
 176 0004 43F0C003 		orr	r3, r3, #192
 177 0008 1360     		str	r3, [r2]
 178 000a 7047     		bx	lr
 179              	.L18:
 180              		.align	2
 181              	.L17:
 182 000c 00780040 		.word	1073772544
 183              		.cfi_endproc
 184              	.LFE343:
 185              		.size	notify7, .-notify7
 186              		.section	.text.notify8,"ax",%progbits
 187              		.align	1
 188              		.syntax unified
 189              		.thumb
 190              		.thumb_func
 191              		.fpu fpv4-sp-d16
 192              		.type	notify8, %function
 193              	notify8:
 194              	.LFB344:
 195              		.loc 1 453 0
 196              		.cfi_startproc
 197              		@ args = 0, pretend = 0, frame = 0
 198              		@ frame_needed = 0, uses_anonymous_args = 0
 199              		@ link register save eliminated.
 200              	.LVL6:
 201              		.loc 1 456 0
 202 0000 024A     		ldr	r2, .L20
 203 0002 1368     		ldr	r3, [r2]
 204 0004 43F0C003 		orr	r3, r3, #192
 205 0008 1360     		str	r3, [r2]
 206 000a 7047     		bx	lr
 207              	.L21:
 208              		.align	2
 209              	.L20:
 210 000c 007C0040 		.word	1073773568
 211              		.cfi_endproc
 212              	.LFE344:
 213              		.size	notify8, .-notify8
 214              		.section	.text.chSysUnlockFromISR,"ax",%progbits
 215              		.align	1
 216              		.syntax unified
 217              		.thumb
 218              		.thumb_func
 219              		.fpu fpv4-sp-d16
 220              		.type	chSysUnlockFromISR, %function
 221              	chSysUnlockFromISR:
 222              	.LFB198:
 223              		.file 2 "../../modules/ChibiOS/os/rt/include/chsys.h"
 224              		.loc 2 413 0
 225              		.cfi_startproc
 226              		@ args = 0, pretend = 0, frame = 0
 227              		@ frame_needed = 0, uses_anonymous_args = 0
 228 0000 08B5     		push	{r3, lr}
ARM GAS  /tmp/ccQpZ0ZL.s 			page 5


 229              		.cfi_def_cfa_offset 8
 230              		.cfi_offset 3, -8
 231              		.cfi_offset 14, -4
 232              		.loc 2 416 0
 233 0002 FFF7FEFF 		bl	_stats_stop_measure_crit_isr
 234              	.LVL7:
 235              	.LBB57:
 236              	.LBB58:
 237              	.LBB59:
 238              	.LBB60:
 239              		.file 3 "../../modules/ChibiOS/os/common/ext/ARM/CMSIS/Core/Include/cmsis_gcc.h"
 240              		.loc 3 493 0
 241 0006 0023     		movs	r3, #0
 242              		.syntax unified
 243              	@ 493 "../../modules/ChibiOS/os/common/ext/ARM/CMSIS/Core/Include/cmsis_gcc.h" 1
 244 0008 83F31188 		MSR basepri, r3
 245              	@ 0 "" 2
 246              	.LVL8:
 247              		.thumb
 248              		.syntax unified
 249 000c 08BD     		pop	{r3, pc}
 250              	.LBE60:
 251              	.LBE59:
 252              	.LBE58:
 253              	.LBE57:
 254              		.cfi_endproc
 255              	.LFE198:
 256              		.size	chSysUnlockFromISR, .-chSysUnlockFromISR
 257              		.section	.text.serve_interrupt,"ax",%progbits
 258              		.align	1
 259              		.syntax unified
 260              		.thumb
 261              		.thumb_func
 262              		.fpu fpv4-sp-d16
 263              		.type	serve_interrupt, %function
 264              	serve_interrupt:
 265              	.LFB337:
 266              		.loc 1 323 0
 267              		.cfi_startproc
 268              		@ args = 0, pretend = 0, frame = 0
 269              		@ frame_needed = 0, uses_anonymous_args = 0
 270              	.LVL9:
 271 0000 2DE9F047 		push	{r4, r5, r6, r7, r8, r9, r10, lr}
 272              		.cfi_def_cfa_offset 32
 273              		.cfi_offset 4, -32
 274              		.cfi_offset 5, -28
 275              		.cfi_offset 6, -24
 276              		.cfi_offset 7, -20
 277              		.cfi_offset 8, -16
 278              		.cfi_offset 9, -12
 279              		.cfi_offset 10, -8
 280              		.cfi_offset 14, -4
 281              		.loc 1 324 0
 282 0004 466D     		ldr	r6, [r0, #84]
 283              	.LVL10:
 284              		.loc 1 323 0
 285 0006 0546     		mov	r5, r0
ARM GAS  /tmp/ccQpZ0ZL.s 			page 6


 286              		.loc 1 325 0
 287 0008 D6F80080 		ldr	r8, [r6]
 288              	.LVL11:
 289              		.loc 1 329 0
 290 000c F469     		ldr	r4, [r6, #28]
 291              	.LVL12:
 292              		.loc 1 333 0
 293 000e 2007     		lsls	r0, r4, #28
 294              	.LVL13:
 295              		.loc 1 330 0
 296 0010 3462     		str	r4, [r6, #32]
 297              		.loc 1 333 0
 298 0012 1CD0     		beq	.L24
 299              	.LVL14:
 300              	.LBB124:
 301              	.LBB125:
 302              		.loc 1 306 0
 303 0014 14F0080F 		tst	r4, #8
 304 0018 0CBF     		ite	eq
 305 001a 0027     		moveq	r7, #0
 306 001c 8027     		movne	r7, #128
 307              	.LVL15:
 308              		.loc 1 307 0
 309 001e E107     		lsls	r1, r4, #31
 310              		.loc 1 308 0
 311 0020 48BF     		it	mi
 312 0022 47F02007 		orrmi	r7, r7, #32
 313              	.LVL16:
 314              		.loc 1 309 0
 315 0026 A207     		lsls	r2, r4, #30
 316              		.loc 1 310 0
 317 0028 48BF     		it	mi
 318 002a 47F04007 		orrmi	r7, r7, #64
 319              	.LVL17:
 320              		.loc 1 311 0
 321 002e 6307     		lsls	r3, r4, #29
 322              	.LBB126:
 323              	.LBB127:
 324              	.LBB128:
 325              	.LBB129:
 326              	.LBB130:
 327              	.LBB131:
 328              	.LBB132:
 329              		.loc 3 493 0
 330 0030 4FF02003 		mov	r3, #32
 331              	.LBE132:
 332              	.LBE131:
 333              	.LBE130:
 334              	.LBE129:
 335              	.LBE128:
 336              	.LBE127:
 337              	.LBE126:
 338              		.loc 1 312 0
 339 0034 48BF     		it	mi
 340 0036 47F48077 		orrmi	r7, r7, #256
 341              	.LVL18:
 342              	.LBB139:
ARM GAS  /tmp/ccQpZ0ZL.s 			page 7


 343              	.LBB138:
 344              	.LBB137:
 345              	.LBB136:
 346              	.LBB135:
 347              	.LBB134:
 348              	.LBB133:
 349              		.loc 3 493 0
 350              		.syntax unified
 351              	@ 493 "../../modules/ChibiOS/os/common/ext/ARM/CMSIS/Core/Include/cmsis_gcc.h" 1
 352 003a 83F31188 		MSR basepri, r3
 353              	@ 0 "" 2
 354              	.LVL19:
 355              		.thumb
 356              		.syntax unified
 357              	.LBE133:
 358              	.LBE134:
 359              	.LBE135:
 360              	.LBE136:
 361              		.loc 2 396 0
 362 003e FFF7FEFF 		bl	_stats_start_measure_crit_isr
 363              	.LVL20:
 364              	.LBE137:
 365              	.LBE138:
 366              	.LBE139:
 367              	.LBB140:
 368              	.LBB141:
 369              		.file 4 "../../modules/ChibiOS/os/hal/osal/rt/osal.h"
 370              		.loc 4 895 0
 371 0042 3946     		mov	r1, r7
 372 0044 281D     		adds	r0, r5, #4
 373              	.LVL21:
 374 0046 FFF7FEFF 		bl	chEvtBroadcastFlagsI
 375              	.LVL22:
 376              	.LBE141:
 377              	.LBE140:
 378              	.LBB142:
 379              	.LBB143:
 380              		.loc 4 544 0
 381 004a FFF7FEFF 		bl	chSysUnlockFromISR
 382              	.LVL23:
 383              	.L24:
 384              	.LBE143:
 385              	.LBE142:
 386              	.LBE125:
 387              	.LBE124:
 388              		.loc 1 337 0
 389 004e E705     		lsls	r7, r4, #23
 390 0050 0BD5     		bpl	.L29
 391              	.LVL24:
 392              	.LBB144:
 393              	.LBB145:
 394              	.LBB146:
 395              	.LBB147:
 396              	.LBB148:
 397              	.LBB149:
 398              	.LBB150:
 399              		.loc 3 493 0
ARM GAS  /tmp/ccQpZ0ZL.s 			page 8


 400 0052 2023     		movs	r3, #32
 401              		.syntax unified
 402              	@ 493 "../../modules/ChibiOS/os/common/ext/ARM/CMSIS/Core/Include/cmsis_gcc.h" 1
 403 0054 83F31188 		MSR basepri, r3
 404              	@ 0 "" 2
 405              	.LVL25:
 406              		.thumb
 407              		.syntax unified
 408              	.LBE150:
 409              	.LBE149:
 410              	.LBE148:
 411              	.LBE147:
 412              		.loc 2 396 0
 413 0058 FFF7FEFF 		bl	_stats_start_measure_crit_isr
 414              	.LVL26:
 415              	.LBE146:
 416              	.LBE145:
 417              	.LBE144:
 418              	.LBB151:
 419              	.LBB152:
 420              		.loc 4 895 0
 421 005c 4FF40071 		mov	r1, #512
 422 0060 281D     		adds	r0, r5, #4
 423              	.LVL27:
 424 0062 FFF7FEFF 		bl	chEvtBroadcastFlagsI
 425              	.LVL28:
 426              	.LBE152:
 427              	.LBE151:
 428              	.LBB153:
 429              	.LBB154:
 430              		.loc 4 544 0
 431 0066 FFF7FEFF 		bl	chSysUnlockFromISR
 432              	.LVL29:
 433              	.L29:
 434              	.LBE154:
 435              	.LBE153:
 436              	.LBB155:
 437              	.LBB156:
 438              	.LBB157:
 439              	.LBB158:
 440              	.LBB159:
 441              	.LBB160:
 442              	.LBB161:
 443              		.loc 3 493 0
 444 006a 2027     		movs	r7, #32
 445              	.L30:
 446              	.LBE161:
 447              	.LBE160:
 448              	.LBE159:
 449              	.LBE158:
 450              	.LBE157:
 451              	.LBE156:
 452              	.LBE155:
 453              		.loc 1 348 0
 454 006c A006     		lsls	r0, r4, #26
 455 006e 34D4     		bmi	.L31
 456              		.loc 1 362 0
ARM GAS  /tmp/ccQpZ0ZL.s 			page 9


 457 0070 18F0800F 		tst	r8, #128
 458 0074 16D0     		beq	.L32
 459              	.LBB168:
 460              	.LBB169:
 461              	.LBB170:
 462              	.LBB171:
 463              	.LBB172:
 464              	.LBB173:
 465              	.LBB174:
 466              	.LBB175:
 467              		.loc 3 493 0
 468 0076 2027     		movs	r7, #32
 469              	.LBE175:
 470              	.LBE174:
 471              	.LBE173:
 472              	.LBE172:
 473              	.LBE171:
 474              	.LBE170:
 475              	.LBE169:
 476              		.loc 1 367 0
 477 0078 05F13009 		add	r9, r5, #48
 478              	.L33:
 479              	.LBE168:
 480              		.loc 1 363 0
 481 007c 2106     		lsls	r1, r4, #24
 482 007e 11D5     		bpl	.L32
 483              	.LVL30:
 484              	.LBB189:
 485              	.LBB182:
 486              	.LBB181:
 487              	.LBB180:
 488              	.LBB179:
 489              	.LBB178:
 490              	.LBB177:
 491              	.LBB176:
 492              		.loc 3 493 0
 493              		.syntax unified
 494              	@ 493 "../../modules/ChibiOS/os/common/ext/ARM/CMSIS/Core/Include/cmsis_gcc.h" 1
 495 0080 87F31188 		MSR basepri, r7
 496              	@ 0 "" 2
 497              	.LVL31:
 498              		.thumb
 499              		.syntax unified
 500              	.LBE176:
 501              	.LBE177:
 502              	.LBE178:
 503              	.LBE179:
 504              		.loc 2 396 0
 505 0084 FFF7FEFF 		bl	_stats_start_measure_crit_isr
 506              	.LVL32:
 507              	.LBE180:
 508              	.LBE181:
 509              	.LBE182:
 510              		.loc 1 367 0
 511 0088 4846     		mov	r0, r9
 512 008a FFF7FEFF 		bl	oqGetI
 513              	.LVL33:
ARM GAS  /tmp/ccQpZ0ZL.s 			page 10


 514              		.loc 1 368 0
 515 008e 0028     		cmp	r0, #0
 516 0090 32DA     		bge	.L34
 517              	.LVL34:
 518              	.LBB183:
 519              	.LBB184:
 520              		.loc 4 895 0
 521 0092 0821     		movs	r1, #8
 522 0094 281D     		adds	r0, r5, #4
 523              	.LVL35:
 524 0096 FFF7FEFF 		bl	chEvtBroadcastFlagsI
 525              	.LVL36:
 526              	.LBE184:
 527              	.LBE183:
 528              		.loc 1 370 0
 529 009a 28F08003 		bic	r3, r8, #128
 530 009e 3360     		str	r3, [r6]
 531              	.LBB185:
 532              	.LBB186:
 533              		.loc 4 544 0
 534 00a0 FFF7FEFF 		bl	chSysUnlockFromISR
 535              	.LVL37:
 536              	.L32:
 537              	.LBE186:
 538              	.LBE185:
 539              	.LBE189:
 540              		.loc 1 382 0
 541 00a4 18F0400F 		tst	r8, #64
 542 00a8 0ED0     		beq	.L36
 543              		.loc 1 382 0 is_stmt 0 discriminator 1
 544 00aa 6206     		lsls	r2, r4, #25
 545 00ac 0CD5     		bpl	.L36
 546              	.LVL38:
 547              	.LBB190:
 548              	.LBB191:
 549              	.LBB192:
 550              	.LBB193:
 551              	.LBB194:
 552              	.LBB195:
 553              	.LBB196:
 554              		.loc 3 493 0 is_stmt 1
 555 00ae 2023     		movs	r3, #32
 556              		.syntax unified
 557              	@ 493 "../../modules/ChibiOS/os/common/ext/ARM/CMSIS/Core/Include/cmsis_gcc.h" 1
 558 00b0 83F31188 		MSR basepri, r3
 559              	@ 0 "" 2
 560              	.LVL39:
 561              		.thumb
 562              		.syntax unified
 563              	.LBE196:
 564              	.LBE195:
 565              	.LBE194:
 566              	.LBE193:
 567              		.loc 2 396 0
 568 00b4 FFF7FEFF 		bl	_stats_start_measure_crit_isr
 569              	.LVL40:
 570              	.LBE192:
ARM GAS  /tmp/ccQpZ0ZL.s 			page 11


 571              	.LBE191:
 572              	.LBE190:
 573              		.loc 1 384 0
 574 00b8 6A6C     		ldr	r2, [r5, #68]
 575 00ba AB6C     		ldr	r3, [r5, #72]
 576 00bc 9A42     		cmp	r2, r3
 577 00be 01D1     		bne	.L37
 578              		.loc 1 384 0 is_stmt 0 discriminator 1
 579 00c0 AB6B     		ldr	r3, [r5, #56]
 580 00c2 F3B9     		cbnz	r3, .L38
 581              	.L37:
 582              	.LBB197:
 583              	.LBB198:
 584              		.loc 4 544 0 is_stmt 1
 585 00c4 FFF7FEFF 		bl	chSysUnlockFromISR
 586              	.LVL41:
 587              	.L36:
 588              	.LBE198:
 589              	.LBE197:
 590              		.loc 1 391 0
 591 00c8 E306     		lsls	r3, r4, #27
 592 00ca 22D5     		bpl	.L23
 593              		.loc 1 392 0
 594 00cc 2A6E     		ldr	r2, [r5, #96]
 595 00ce 1369     		ldr	r3, [r2, #16]
 596 00d0 FBB1     		cbz	r3, .L23
 597              		.loc 1 392 0 is_stmt 0 discriminator 1
 598 00d2 5069     		ldr	r0, [r2, #20]
 599              		.loc 1 394 0 is_stmt 1 discriminator 1
 600 00d4 BDE8F047 		pop	{r4, r5, r6, r7, r8, r9, r10, lr}
 601              		.cfi_remember_state
 602              		.cfi_restore 14
 603              		.cfi_restore 10
 604              		.cfi_restore 9
 605              		.cfi_restore 8
 606              		.cfi_restore 7
 607              		.cfi_restore 6
 608              		.cfi_restore 5
 609              		.cfi_restore 4
 610              		.cfi_def_cfa_offset 0
 611              	.LVL42:
 612              		.loc 1 392 0 discriminator 1
 613 00d8 1847     		bx	r3	@ indirect register sibling call
 614              	.LVL43:
 615              	.L31:
 616              		.cfi_restore_state
 617              	.LBB199:
 618              	.LBB167:
 619              	.LBB166:
 620              	.LBB165:
 621              	.LBB164:
 622              	.LBB163:
 623              	.LBB162:
 624              		.loc 3 493 0
 625              		.syntax unified
 626              	@ 493 "../../modules/ChibiOS/os/common/ext/ARM/CMSIS/Core/Include/cmsis_gcc.h" 1
 627 00da 87F31188 		MSR basepri, r7
ARM GAS  /tmp/ccQpZ0ZL.s 			page 12


 628              	@ 0 "" 2
 629              	.LVL44:
 630              		.thumb
 631              		.syntax unified
 632              	.LBE162:
 633              	.LBE163:
 634              	.LBE164:
 635              	.LBE165:
 636              		.loc 2 396 0
 637 00de FFF7FEFF 		bl	_stats_start_measure_crit_isr
 638              	.LVL45:
 639              	.LBE166:
 640              	.LBE167:
 641              	.LBE199:
 642              		.loc 1 350 0
 643 00e2 736A     		ldr	r3, [r6, #36]
 644 00e4 95F85C10 		ldrb	r1, [r5, #92]	@ zero_extendqisi2
 645 00e8 2846     		mov	r0, r5
 646 00ea 1940     		ands	r1, r1, r3
 647 00ec FFF7FEFF 		bl	sdIncomingDataI
 648              	.LVL46:
 649              	.LBB200:
 650              	.LBB201:
 651              		.loc 4 544 0
 652 00f0 FFF7FEFF 		bl	chSysUnlockFromISR
 653              	.LVL47:
 654              	.LBE201:
 655              	.LBE200:
 656              		.loc 1 353 0
 657 00f4 F469     		ldr	r4, [r6, #28]
 658              	.LVL48:
 659 00f6 B9E7     		b	.L30
 660              	.LVL49:
 661              	.L34:
 662              	.LBB202:
 663              		.loc 1 374 0
 664 00f8 B062     		str	r0, [r6, #40]
 665              	.LBB187:
 666              	.LBB188:
 667              		.loc 4 544 0
 668 00fa FFF7FEFF 		bl	chSysUnlockFromISR
 669              	.LVL50:
 670              	.LBE188:
 671              	.LBE187:
 672              		.loc 1 377 0
 673 00fe F469     		ldr	r4, [r6, #28]
 674              	.LVL51:
 675 0100 BCE7     		b	.L33
 676              	.L38:
 677              	.LVL52:
 678              	.LBE202:
 679              	.LBB203:
 680              	.LBB204:
 681              		.loc 4 895 0
 682 0102 1021     		movs	r1, #16
 683 0104 281D     		adds	r0, r5, #4
 684              	.LVL53:
ARM GAS  /tmp/ccQpZ0ZL.s 			page 13


 685 0106 FFF7FEFF 		bl	chEvtBroadcastFlagsI
 686              	.LVL54:
 687              	.LBE204:
 688              	.LBE203:
 689              		.loc 1 386 0
 690 010a 28F04003 		bic	r3, r8, #64
 691 010e 3360     		str	r3, [r6]
 692 0110 D8E7     		b	.L37
 693              	.L23:
 694 0112 BDE8F087 		pop	{r4, r5, r6, r7, r8, r9, r10, pc}
 695              		.cfi_endproc
 696              	.LFE337:
 697              		.size	serve_interrupt, .-serve_interrupt
 698              		.section	.text.VectorD4,"ax",%progbits
 699              		.align	1
 700              		.global	VectorD4
 701              		.syntax unified
 702              		.thumb
 703              		.thumb_func
 704              		.fpu fpv4-sp-d16
 705              		.type	VectorD4, %function
 706              	VectorD4:
 707              	.LFB345:
 708              		.loc 1 481 0
 709              		.cfi_startproc
 710              		@ args = 0, pretend = 0, frame = 0
 711              		@ frame_needed = 0, uses_anonymous_args = 0
 712 0000 08B5     		push	{r3, lr}
 713              		.cfi_def_cfa_offset 8
 714              		.cfi_offset 3, -8
 715              		.cfi_offset 14, -4
 716              		.loc 1 483 0
 717 0002 FFF7FEFF 		bl	_stats_increase_irq
 718              	.LVL55:
 719              		.loc 1 485 0
 720 0006 0348     		ldr	r0, .L72
 721 0008 FFF7FEFF 		bl	serve_interrupt
 722              	.LVL56:
 723              		.loc 1 488 0
 724 000c BDE80840 		pop	{r3, lr}
 725              		.cfi_restore 14
 726              		.cfi_restore 3
 727              		.cfi_def_cfa_offset 0
 728              		.loc 1 487 0
 729 0010 FFF7FEBF 		b	_port_irq_epilogue
 730              	.LVL57:
 731              	.L73:
 732              		.align	2
 733              	.L72:
 734 0014 00000000 		.word	.LANCHOR0
 735              		.cfi_endproc
 736              	.LFE345:
 737              		.size	VectorD4, .-VectorD4
 738              		.section	.text.VectorD8,"ax",%progbits
 739              		.align	1
 740              		.global	VectorD8
 741              		.syntax unified
ARM GAS  /tmp/ccQpZ0ZL.s 			page 14


 742              		.thumb
 743              		.thumb_func
 744              		.fpu fpv4-sp-d16
 745              		.type	VectorD8, %function
 746              	VectorD8:
 747              	.LFB346:
 748              		.loc 1 500 0
 749              		.cfi_startproc
 750              		@ args = 0, pretend = 0, frame = 0
 751              		@ frame_needed = 0, uses_anonymous_args = 0
 752 0000 08B5     		push	{r3, lr}
 753              		.cfi_def_cfa_offset 8
 754              		.cfi_offset 3, -8
 755              		.cfi_offset 14, -4
 756              		.loc 1 502 0
 757 0002 FFF7FEFF 		bl	_stats_increase_irq
 758              	.LVL58:
 759              		.loc 1 504 0
 760 0006 0348     		ldr	r0, .L75
 761 0008 FFF7FEFF 		bl	serve_interrupt
 762              	.LVL59:
 763              		.loc 1 507 0
 764 000c BDE80840 		pop	{r3, lr}
 765              		.cfi_restore 14
 766              		.cfi_restore 3
 767              		.cfi_def_cfa_offset 0
 768              		.loc 1 506 0
 769 0010 FFF7FEBF 		b	_port_irq_epilogue
 770              	.LVL60:
 771              	.L76:
 772              		.align	2
 773              	.L75:
 774 0014 00000000 		.word	.LANCHOR1
 775              		.cfi_endproc
 776              	.LFE346:
 777              		.size	VectorD8, .-VectorD8
 778              		.section	.text.VectorDC,"ax",%progbits
 779              		.align	1
 780              		.global	VectorDC
 781              		.syntax unified
 782              		.thumb
 783              		.thumb_func
 784              		.fpu fpv4-sp-d16
 785              		.type	VectorDC, %function
 786              	VectorDC:
 787              	.LFB347:
 788              		.loc 1 557 0
 789              		.cfi_startproc
 790              		@ args = 0, pretend = 0, frame = 0
 791              		@ frame_needed = 0, uses_anonymous_args = 0
 792 0000 08B5     		push	{r3, lr}
 793              		.cfi_def_cfa_offset 8
 794              		.cfi_offset 3, -8
 795              		.cfi_offset 14, -4
 796              		.loc 1 559 0
 797 0002 FFF7FEFF 		bl	_stats_increase_irq
 798              	.LVL61:
ARM GAS  /tmp/ccQpZ0ZL.s 			page 15


 799              		.loc 1 561 0
 800 0006 0348     		ldr	r0, .L78
 801 0008 FFF7FEFF 		bl	serve_interrupt
 802              	.LVL62:
 803              		.loc 1 564 0
 804 000c BDE80840 		pop	{r3, lr}
 805              		.cfi_restore 14
 806              		.cfi_restore 3
 807              		.cfi_def_cfa_offset 0
 808              		.loc 1 563 0
 809 0010 FFF7FEBF 		b	_port_irq_epilogue
 810              	.LVL63:
 811              	.L79:
 812              		.align	2
 813              	.L78:
 814 0014 00000000 		.word	.LANCHOR2
 815              		.cfi_endproc
 816              	.LFE347:
 817              		.size	VectorDC, .-VectorDC
 818              		.section	.text.Vector110,"ax",%progbits
 819              		.align	1
 820              		.global	Vector110
 821              		.syntax unified
 822              		.thumb
 823              		.thumb_func
 824              		.fpu fpv4-sp-d16
 825              		.type	Vector110, %function
 826              	Vector110:
 827              	.LFB348:
 828              		.loc 1 576 0
 829              		.cfi_startproc
 830              		@ args = 0, pretend = 0, frame = 0
 831              		@ frame_needed = 0, uses_anonymous_args = 0
 832 0000 08B5     		push	{r3, lr}
 833              		.cfi_def_cfa_offset 8
 834              		.cfi_offset 3, -8
 835              		.cfi_offset 14, -4
 836              		.loc 1 578 0
 837 0002 FFF7FEFF 		bl	_stats_increase_irq
 838              	.LVL64:
 839              		.loc 1 580 0
 840 0006 0348     		ldr	r0, .L81
 841 0008 FFF7FEFF 		bl	serve_interrupt
 842              	.LVL65:
 843              		.loc 1 583 0
 844 000c BDE80840 		pop	{r3, lr}
 845              		.cfi_restore 14
 846              		.cfi_restore 3
 847              		.cfi_def_cfa_offset 0
 848              		.loc 1 582 0
 849 0010 FFF7FEBF 		b	_port_irq_epilogue
 850              	.LVL66:
 851              	.L82:
 852              		.align	2
 853              	.L81:
 854 0014 00000000 		.word	.LANCHOR3
 855              		.cfi_endproc
ARM GAS  /tmp/ccQpZ0ZL.s 			page 16


 856              	.LFE348:
 857              		.size	Vector110, .-Vector110
 858              		.section	.text.Vector15C,"ax",%progbits
 859              		.align	1
 860              		.global	Vector15C
 861              		.syntax unified
 862              		.thumb
 863              		.thumb_func
 864              		.fpu fpv4-sp-d16
 865              		.type	Vector15C, %function
 866              	Vector15C:
 867              	.LFB349:
 868              		.loc 1 614 0
 869              		.cfi_startproc
 870              		@ args = 0, pretend = 0, frame = 0
 871              		@ frame_needed = 0, uses_anonymous_args = 0
 872 0000 08B5     		push	{r3, lr}
 873              		.cfi_def_cfa_offset 8
 874              		.cfi_offset 3, -8
 875              		.cfi_offset 14, -4
 876              		.loc 1 616 0
 877 0002 FFF7FEFF 		bl	_stats_increase_irq
 878              	.LVL67:
 879              		.loc 1 618 0
 880 0006 0348     		ldr	r0, .L84
 881 0008 FFF7FEFF 		bl	serve_interrupt
 882              	.LVL68:
 883              		.loc 1 621 0
 884 000c BDE80840 		pop	{r3, lr}
 885              		.cfi_restore 14
 886              		.cfi_restore 3
 887              		.cfi_def_cfa_offset 0
 888              		.loc 1 620 0
 889 0010 FFF7FEBF 		b	_port_irq_epilogue
 890              	.LVL69:
 891              	.L85:
 892              		.align	2
 893              	.L84:
 894 0014 00000000 		.word	.LANCHOR4
 895              		.cfi_endproc
 896              	.LFE349:
 897              		.size	Vector15C, .-Vector15C
 898              		.section	.text.Vector188,"ax",%progbits
 899              		.align	1
 900              		.global	Vector188
 901              		.syntax unified
 902              		.thumb
 903              		.thumb_func
 904              		.fpu fpv4-sp-d16
 905              		.type	Vector188, %function
 906              	Vector188:
 907              	.LFB350:
 908              		.loc 1 633 0
 909              		.cfi_startproc
 910              		@ args = 0, pretend = 0, frame = 0
 911              		@ frame_needed = 0, uses_anonymous_args = 0
 912 0000 08B5     		push	{r3, lr}
ARM GAS  /tmp/ccQpZ0ZL.s 			page 17


 913              		.cfi_def_cfa_offset 8
 914              		.cfi_offset 3, -8
 915              		.cfi_offset 14, -4
 916              		.loc 1 635 0
 917 0002 FFF7FEFF 		bl	_stats_increase_irq
 918              	.LVL70:
 919              		.loc 1 637 0
 920 0006 0348     		ldr	r0, .L87
 921 0008 FFF7FEFF 		bl	serve_interrupt
 922              	.LVL71:
 923              		.loc 1 640 0
 924 000c BDE80840 		pop	{r3, lr}
 925              		.cfi_restore 14
 926              		.cfi_restore 3
 927              		.cfi_def_cfa_offset 0
 928              		.loc 1 639 0
 929 0010 FFF7FEBF 		b	_port_irq_epilogue
 930              	.LVL72:
 931              	.L88:
 932              		.align	2
 933              	.L87:
 934 0014 00000000 		.word	.LANCHOR5
 935              		.cfi_endproc
 936              	.LFE350:
 937              		.size	Vector188, .-Vector188
 938              		.section	.text.Vector18C,"ax",%progbits
 939              		.align	1
 940              		.global	Vector18C
 941              		.syntax unified
 942              		.thumb
 943              		.thumb_func
 944              		.fpu fpv4-sp-d16
 945              		.type	Vector18C, %function
 946              	Vector18C:
 947              	.LFB351:
 948              		.loc 1 652 0
 949              		.cfi_startproc
 950              		@ args = 0, pretend = 0, frame = 0
 951              		@ frame_needed = 0, uses_anonymous_args = 0
 952 0000 08B5     		push	{r3, lr}
 953              		.cfi_def_cfa_offset 8
 954              		.cfi_offset 3, -8
 955              		.cfi_offset 14, -4
 956              		.loc 1 654 0
 957 0002 FFF7FEFF 		bl	_stats_increase_irq
 958              	.LVL73:
 959              		.loc 1 656 0
 960 0006 0348     		ldr	r0, .L90
 961 0008 FFF7FEFF 		bl	serve_interrupt
 962              	.LVL74:
 963              		.loc 1 659 0
 964 000c BDE80840 		pop	{r3, lr}
 965              		.cfi_restore 14
 966              		.cfi_restore 3
 967              		.cfi_def_cfa_offset 0
 968              		.loc 1 658 0
 969 0010 FFF7FEBF 		b	_port_irq_epilogue
ARM GAS  /tmp/ccQpZ0ZL.s 			page 18


 970              	.LVL75:
 971              	.L91:
 972              		.align	2
 973              	.L90:
 974 0014 00000000 		.word	.LANCHOR6
 975              		.cfi_endproc
 976              	.LFE351:
 977              		.size	Vector18C, .-Vector18C
 978              		.section	.text.sd_lld_init,"ax",%progbits
 979              		.align	1
 980              		.global	sd_lld_init
 981              		.syntax unified
 982              		.thumb
 983              		.thumb_func
 984              		.fpu fpv4-sp-d16
 985              		.type	sd_lld_init, %function
 986              	sd_lld_init:
 987              	.LFB352:
 988              		.loc 1 692 0
 989              		.cfi_startproc
 990              		@ args = 0, pretend = 0, frame = 0
 991              		@ frame_needed = 0, uses_anonymous_args = 0
 992 0000 73B5     		push	{r0, r1, r4, r5, r6, lr}
 993              		.cfi_def_cfa_offset 24
 994              		.cfi_offset 4, -16
 995              		.cfi_offset 5, -12
 996              		.cfi_offset 6, -8
 997              		.cfi_offset 14, -4
 998              		.loc 1 695 0
 999 0002 684C     		ldr	r4, .L93
 1000              		.loc 1 699 0
 1001 0004 684E     		ldr	r6, .L93+4
 1002              		.loc 1 695 0
 1003 0006 2046     		mov	r0, r4
 1004              		.loc 1 710 0
 1005 0008 684D     		ldr	r5, .L93+8
 1006              		.loc 1 695 0
 1007 000a FFF7FEFF 		bl	sdObjectInit
 1008              	.LVL76:
 1009              		.loc 1 696 0
 1010 000e 0094     		str	r4, [sp]
 1011 0010 04F10C00 		add	r0, r4, #12
 1012 0014 0023     		movs	r3, #0
 1013 0016 4FF40072 		mov	r2, #512
 1014 001a 6549     		ldr	r1, .L93+12
 1015 001c FFF7FEFF 		bl	iqObjectInit
 1016              	.LVL77:
 1017              		.loc 1 697 0
 1018 0020 4FF40072 		mov	r2, #512
 1019 0024 0094     		str	r4, [sp]
 1020 0026 04F13000 		add	r0, r4, #48
 1021 002a 624B     		ldr	r3, .L93+16
 1022 002c 6249     		ldr	r1, .L93+20
 1023 002e FFF7FEFF 		bl	oqObjectInit
 1024              	.LVL78:
 1025              		.loc 1 698 0
 1026 0032 624B     		ldr	r3, .L93+24
ARM GAS  /tmp/ccQpZ0ZL.s 			page 19


 1027              		.loc 1 699 0
 1028 0034 A665     		str	r6, [r4, #88]
 1029              		.loc 1 701 0
 1030 0036 0B21     		movs	r1, #11
 1031              		.loc 1 698 0
 1032 0038 6365     		str	r3, [r4, #84]
 1033              		.loc 1 701 0
 1034 003a 2520     		movs	r0, #37
 1035              		.loc 1 706 0
 1036 003c 604C     		ldr	r4, .L93+28
 1037              		.loc 1 701 0
 1038 003e FFF7FEFF 		bl	nvicEnableVector
 1039              	.LVL79:
 1040              		.loc 1 706 0
 1041 0042 2046     		mov	r0, r4
 1042 0044 FFF7FEFF 		bl	sdObjectInit
 1043              	.LVL80:
 1044              		.loc 1 707 0
 1045 0048 0094     		str	r4, [sp]
 1046 004a 04F10C00 		add	r0, r4, #12
 1047 004e 0023     		movs	r3, #0
 1048 0050 4FF40072 		mov	r2, #512
 1049 0054 5B49     		ldr	r1, .L93+32
 1050 0056 FFF7FEFF 		bl	iqObjectInit
 1051              	.LVL81:
 1052              		.loc 1 708 0
 1053 005a 4FF40072 		mov	r2, #512
 1054 005e 0094     		str	r4, [sp]
 1055 0060 04F13000 		add	r0, r4, #48
 1056 0064 584B     		ldr	r3, .L93+36
 1057 0066 5949     		ldr	r1, .L93+40
 1058 0068 FFF7FEFF 		bl	oqObjectInit
 1059              	.LVL82:
 1060              		.loc 1 709 0
 1061 006c 584B     		ldr	r3, .L93+44
 1062              		.loc 1 710 0
 1063 006e A565     		str	r5, [r4, #88]
 1064              		.loc 1 712 0
 1065 0070 0B21     		movs	r1, #11
 1066              		.loc 1 709 0
 1067 0072 6365     		str	r3, [r4, #84]
 1068              		.loc 1 712 0
 1069 0074 2620     		movs	r0, #38
 1070              		.loc 1 717 0
 1071 0076 574C     		ldr	r4, .L93+48
 1072              		.loc 1 712 0
 1073 0078 FFF7FEFF 		bl	nvicEnableVector
 1074              	.LVL83:
 1075              		.loc 1 717 0
 1076 007c 2046     		mov	r0, r4
 1077 007e FFF7FEFF 		bl	sdObjectInit
 1078              	.LVL84:
 1079              		.loc 1 718 0
 1080 0082 0094     		str	r4, [sp]
 1081 0084 04F10C00 		add	r0, r4, #12
 1082 0088 0023     		movs	r3, #0
 1083 008a 4FF40072 		mov	r2, #512
ARM GAS  /tmp/ccQpZ0ZL.s 			page 20


 1084 008e 5249     		ldr	r1, .L93+52
 1085 0090 FFF7FEFF 		bl	iqObjectInit
 1086              	.LVL85:
 1087              		.loc 1 719 0
 1088 0094 4FF40072 		mov	r2, #512
 1089 0098 0094     		str	r4, [sp]
 1090 009a 04F13000 		add	r0, r4, #48
 1091 009e 4F4B     		ldr	r3, .L93+56
 1092 00a0 4F49     		ldr	r1, .L93+60
 1093 00a2 FFF7FEFF 		bl	oqObjectInit
 1094              	.LVL86:
 1095              		.loc 1 720 0
 1096 00a6 4F4B     		ldr	r3, .L93+64
 1097              		.loc 1 721 0
 1098 00a8 A565     		str	r5, [r4, #88]
 1099              		.loc 1 723 0
 1100 00aa 0B21     		movs	r1, #11
 1101              		.loc 1 720 0
 1102 00ac 6365     		str	r3, [r4, #84]
 1103              		.loc 1 723 0
 1104 00ae 2720     		movs	r0, #39
 1105              		.loc 1 728 0
 1106 00b0 4D4C     		ldr	r4, .L93+68
 1107              		.loc 1 723 0
 1108 00b2 FFF7FEFF 		bl	nvicEnableVector
 1109              	.LVL87:
 1110              		.loc 1 728 0
 1111 00b6 2046     		mov	r0, r4
 1112 00b8 FFF7FEFF 		bl	sdObjectInit
 1113              	.LVL88:
 1114              		.loc 1 729 0
 1115 00bc 0094     		str	r4, [sp]
 1116 00be 04F10C00 		add	r0, r4, #12
 1117 00c2 0023     		movs	r3, #0
 1118 00c4 4FF40072 		mov	r2, #512
 1119 00c8 4849     		ldr	r1, .L93+72
 1120 00ca FFF7FEFF 		bl	iqObjectInit
 1121              	.LVL89:
 1122              		.loc 1 730 0
 1123 00ce 4FF40072 		mov	r2, #512
 1124 00d2 0094     		str	r4, [sp]
 1125 00d4 04F13000 		add	r0, r4, #48
 1126 00d8 454B     		ldr	r3, .L93+76
 1127 00da 4649     		ldr	r1, .L93+80
 1128 00dc FFF7FEFF 		bl	oqObjectInit
 1129              	.LVL90:
 1130              		.loc 1 731 0
 1131 00e0 454B     		ldr	r3, .L93+84
 1132              		.loc 1 732 0
 1133 00e2 A565     		str	r5, [r4, #88]
 1134              		.loc 1 734 0
 1135 00e4 0B21     		movs	r1, #11
 1136              		.loc 1 731 0
 1137 00e6 6365     		str	r3, [r4, #84]
 1138              		.loc 1 734 0
 1139 00e8 3420     		movs	r0, #52
 1140              		.loc 1 750 0
ARM GAS  /tmp/ccQpZ0ZL.s 			page 21


 1141 00ea 444C     		ldr	r4, .L93+88
 1142              		.loc 1 734 0
 1143 00ec FFF7FEFF 		bl	nvicEnableVector
 1144              	.LVL91:
 1145              		.loc 1 750 0
 1146 00f0 2046     		mov	r0, r4
 1147 00f2 FFF7FEFF 		bl	sdObjectInit
 1148              	.LVL92:
 1149              		.loc 1 751 0
 1150 00f6 0094     		str	r4, [sp]
 1151 00f8 04F10C00 		add	r0, r4, #12
 1152 00fc 0023     		movs	r3, #0
 1153 00fe 4FF40072 		mov	r2, #512
 1154 0102 3F49     		ldr	r1, .L93+92
 1155 0104 FFF7FEFF 		bl	iqObjectInit
 1156              	.LVL93:
 1157              		.loc 1 752 0
 1158 0108 4FF40072 		mov	r2, #512
 1159 010c 0094     		str	r4, [sp]
 1160 010e 04F13000 		add	r0, r4, #48
 1161 0112 3C4B     		ldr	r3, .L93+96
 1162 0114 3C49     		ldr	r1, .L93+100
 1163 0116 FFF7FEFF 		bl	oqObjectInit
 1164              	.LVL94:
 1165              		.loc 1 753 0
 1166 011a 3C4B     		ldr	r3, .L93+104
 1167              		.loc 1 754 0
 1168 011c A665     		str	r6, [r4, #88]
 1169              		.loc 1 756 0
 1170 011e 0B21     		movs	r1, #11
 1171              		.loc 1 753 0
 1172 0120 6365     		str	r3, [r4, #84]
 1173              		.loc 1 756 0
 1174 0122 4720     		movs	r0, #71
 1175              		.loc 1 761 0
 1176 0124 3A4C     		ldr	r4, .L93+108
 1177              		.loc 1 756 0
 1178 0126 FFF7FEFF 		bl	nvicEnableVector
 1179              	.LVL95:
 1180              		.loc 1 761 0
 1181 012a 2046     		mov	r0, r4
 1182 012c FFF7FEFF 		bl	sdObjectInit
 1183              	.LVL96:
 1184              		.loc 1 762 0
 1185 0130 0094     		str	r4, [sp]
 1186 0132 04F10C00 		add	r0, r4, #12
 1187 0136 0023     		movs	r3, #0
 1188 0138 4FF40072 		mov	r2, #512
 1189 013c 3549     		ldr	r1, .L93+112
 1190 013e FFF7FEFF 		bl	iqObjectInit
 1191              	.LVL97:
 1192              		.loc 1 763 0
 1193 0142 4FF40072 		mov	r2, #512
 1194 0146 0094     		str	r4, [sp]
 1195 0148 04F13000 		add	r0, r4, #48
 1196 014c 324B     		ldr	r3, .L93+116
 1197 014e 3349     		ldr	r1, .L93+120
ARM GAS  /tmp/ccQpZ0ZL.s 			page 22


 1198 0150 FFF7FEFF 		bl	oqObjectInit
 1199              	.LVL98:
 1200              		.loc 1 764 0
 1201 0154 324B     		ldr	r3, .L93+124
 1202              		.loc 1 765 0
 1203 0156 A565     		str	r5, [r4, #88]
 1204              		.loc 1 767 0
 1205 0158 0B21     		movs	r1, #11
 1206              		.loc 1 764 0
 1207 015a 6365     		str	r3, [r4, #84]
 1208              		.loc 1 767 0
 1209 015c 5220     		movs	r0, #82
 1210              		.loc 1 772 0
 1211 015e 314C     		ldr	r4, .L93+128
 1212              		.loc 1 767 0
 1213 0160 FFF7FEFF 		bl	nvicEnableVector
 1214              	.LVL99:
 1215              		.loc 1 772 0
 1216 0164 2046     		mov	r0, r4
 1217 0166 FFF7FEFF 		bl	sdObjectInit
 1218              	.LVL100:
 1219              		.loc 1 773 0
 1220 016a 04F10C00 		add	r0, r4, #12
 1221 016e 0094     		str	r4, [sp]
 1222 0170 0023     		movs	r3, #0
 1223 0172 4FF40072 		mov	r2, #512
 1224 0176 2C49     		ldr	r1, .L93+132
 1225 0178 FFF7FEFF 		bl	iqObjectInit
 1226              	.LVL101:
 1227              		.loc 1 774 0
 1228 017c 04F13000 		add	r0, r4, #48
 1229 0180 0094     		str	r4, [sp]
 1230 0182 4FF40072 		mov	r2, #512
 1231 0186 294B     		ldr	r3, .L93+136
 1232 0188 2949     		ldr	r1, .L93+140
 1233 018a FFF7FEFF 		bl	oqObjectInit
 1234              	.LVL102:
 1235              		.loc 1 775 0
 1236 018e 294B     		ldr	r3, .L93+144
 1237              		.loc 1 778 0
 1238 0190 0B21     		movs	r1, #11
 1239 0192 5320     		movs	r0, #83
 1240              		.loc 1 775 0
 1241 0194 6365     		str	r3, [r4, #84]
 1242              		.loc 1 776 0
 1243 0196 A565     		str	r5, [r4, #88]
 1244              		.loc 1 800 0
 1245 0198 02B0     		add	sp, sp, #8
 1246              		.cfi_def_cfa_offset 16
 1247              		@ sp needed
 1248 019a BDE87040 		pop	{r4, r5, r6, lr}
 1249              		.cfi_restore 14
 1250              		.cfi_restore 6
 1251              		.cfi_restore 5
 1252              		.cfi_restore 4
 1253              		.cfi_def_cfa_offset 0
 1254              		.loc 1 778 0
ARM GAS  /tmp/ccQpZ0ZL.s 			page 23


 1255 019e FFF7FEBF 		b	nvicEnableVector
 1256              	.LVL103:
 1257              	.L94:
 1258 01a2 00BF     		.align	2
 1259              	.L93:
 1260 01a4 00000000 		.word	.LANCHOR0
 1261 01a8 00F36F06 		.word	108000000
 1262 01ac 80F93703 		.word	54000000
 1263 01b0 00000000 		.word	.LANCHOR7
 1264 01b4 00000000 		.word	notify1
 1265 01b8 00000000 		.word	.LANCHOR8
 1266 01bc 00100140 		.word	1073811456
 1267 01c0 00000000 		.word	.LANCHOR1
 1268 01c4 00000000 		.word	.LANCHOR9
 1269 01c8 00000000 		.word	notify2
 1270 01cc 00000000 		.word	.LANCHOR10
 1271 01d0 00440040 		.word	1073759232
 1272 01d4 00000000 		.word	.LANCHOR2
 1273 01d8 00000000 		.word	.LANCHOR11
 1274 01dc 00000000 		.word	notify3
 1275 01e0 00000000 		.word	.LANCHOR12
 1276 01e4 00480040 		.word	1073760256
 1277 01e8 00000000 		.word	.LANCHOR3
 1278 01ec 00000000 		.word	.LANCHOR13
 1279 01f0 00000000 		.word	notify4
 1280 01f4 00000000 		.word	.LANCHOR14
 1281 01f8 004C0040 		.word	1073761280
 1282 01fc 00000000 		.word	.LANCHOR4
 1283 0200 00000000 		.word	.LANCHOR15
 1284 0204 00000000 		.word	notify6
 1285 0208 00000000 		.word	.LANCHOR16
 1286 020c 00140140 		.word	1073812480
 1287 0210 00000000 		.word	.LANCHOR5
 1288 0214 00000000 		.word	.LANCHOR17
 1289 0218 00000000 		.word	notify7
 1290 021c 00000000 		.word	.LANCHOR18
 1291 0220 00780040 		.word	1073772544
 1292 0224 00000000 		.word	.LANCHOR6
 1293 0228 00000000 		.word	.LANCHOR19
 1294 022c 00000000 		.word	notify8
 1295 0230 00000000 		.word	.LANCHOR20
 1296 0234 007C0040 		.word	1073773568
 1297              		.cfi_endproc
 1298              	.LFE352:
 1299              		.size	sd_lld_init, .-sd_lld_init
 1300              		.section	.text.sd_lld_start,"ax",%progbits
 1301              		.align	1
 1302              		.global	sd_lld_start
 1303              		.syntax unified
 1304              		.thumb
 1305              		.thumb_func
 1306              		.fpu fpv4-sp-d16
 1307              		.type	sd_lld_start, %function
 1308              	sd_lld_start:
 1309              	.LFB353:
 1310              		.loc 1 812 0
 1311              		.cfi_startproc
ARM GAS  /tmp/ccQpZ0ZL.s 			page 24


 1312              		@ args = 0, pretend = 0, frame = 0
 1313              		@ frame_needed = 0, uses_anonymous_args = 0
 1314              	.LVL104:
 1315              		.loc 1 815 0
 1316 0000 494B     		ldr	r3, .L117
 1317 0002 0029     		cmp	r1, #0
 1318 0004 08BF     		it	eq
 1319 0006 1946     		moveq	r1, r3
 1320              	.LVL105:
 1321              		.loc 1 819 0
 1322 0008 037A     		ldrb	r3, [r0, #8]	@ zero_extendqisi2
 1323 000a 012B     		cmp	r3, #1
 1324              		.loc 1 817 0
 1325 000c 0166     		str	r1, [r0, #96]
 1326              		.loc 1 812 0
 1327 000e 30B5     		push	{r4, r5, lr}
 1328              		.cfi_def_cfa_offset 12
 1329              		.cfi_offset 4, -12
 1330              		.cfi_offset 5, -8
 1331              		.cfi_offset 14, -4
 1332              		.loc 1 819 0
 1333 0010 5AD1     		bne	.L98
 1334              		.loc 1 821 0
 1335 0012 464B     		ldr	r3, .L117+4
 1336 0014 9842     		cmp	r0, r3
 1337 0016 15D1     		bne	.L99
 1338              		.loc 1 822 0
 1339 0018 454B     		ldr	r3, .L117+8
 1340 001a 5A6C     		ldr	r2, [r3, #68]
 1341 001c 42F01002 		orr	r2, r2, #16
 1342 0020 5A64     		str	r2, [r3, #68]
 1343 0022 5A6E     		ldr	r2, [r3, #100]
 1344 0024 42F01002 		orr	r2, r2, #16
 1345 0028 5A66     		str	r2, [r3, #100]
 1346 002a 5B6E     		ldr	r3, [r3, #100]
 1347              	.L100:
 1348              		.loc 1 851 0
 1349 002c 414B     		ldr	r3, .L117+12
 1350 002e 9842     		cmp	r0, r3
 1351 0030 23D1     		bne	.L103
 1352              		.loc 1 852 0
 1353 0032 3F4B     		ldr	r3, .L117+8
 1354 0034 1A6C     		ldr	r2, [r3, #64]
 1355 0036 42F08042 		orr	r2, r2, #1073741824
 1356 003a 1A64     		str	r2, [r3, #64]
 1357 003c 1A6E     		ldr	r2, [r3, #96]
 1358 003e 42F08042 		orr	r2, r2, #1073741824
 1359 0042 31E0     		b	.L116
 1360              	.L99:
 1361              		.loc 1 826 0
 1362 0044 3C4B     		ldr	r3, .L117+16
 1363 0046 9842     		cmp	r0, r3
 1364 0048 0AD1     		bne	.L101
 1365              		.loc 1 827 0
 1366 004a 394B     		ldr	r3, .L117+8
 1367 004c 1A6C     		ldr	r2, [r3, #64]
 1368 004e 42F40032 		orr	r2, r2, #131072
ARM GAS  /tmp/ccQpZ0ZL.s 			page 25


 1369 0052 1A64     		str	r2, [r3, #64]
 1370 0054 1A6E     		ldr	r2, [r3, #96]
 1371 0056 42F40032 		orr	r2, r2, #131072
 1372 005a 1A66     		str	r2, [r3, #96]
 1373 005c 1B6E     		ldr	r3, [r3, #96]
 1374 005e E5E7     		b	.L100
 1375              	.L101:
 1376              		.loc 1 831 0
 1377 0060 364B     		ldr	r3, .L117+20
 1378 0062 9842     		cmp	r0, r3
 1379 0064 15D1     		bne	.L102
 1380              		.loc 1 832 0
 1381 0066 324B     		ldr	r3, .L117+8
 1382 0068 1A6C     		ldr	r2, [r3, #64]
 1383 006a 42F48022 		orr	r2, r2, #262144
 1384 006e 1A64     		str	r2, [r3, #64]
 1385 0070 1A6E     		ldr	r2, [r3, #96]
 1386 0072 42F48022 		orr	r2, r2, #262144
 1387 0076 1A66     		str	r2, [r3, #96]
 1388 0078 1B6E     		ldr	r3, [r3, #96]
 1389              	.L103:
 1390              		.loc 1 856 0
 1391 007a 314B     		ldr	r3, .L117+24
 1392 007c 9842     		cmp	r0, r3
 1393 007e 23D1     		bne	.L98
 1394              		.loc 1 857 0
 1395 0080 2B4B     		ldr	r3, .L117+8
 1396 0082 1A6C     		ldr	r2, [r3, #64]
 1397 0084 42F00042 		orr	r2, r2, #-2147483648
 1398 0088 1A64     		str	r2, [r3, #64]
 1399 008a 1A6E     		ldr	r2, [r3, #96]
 1400 008c 42F00042 		orr	r2, r2, #-2147483648
 1401 0090 0AE0     		b	.L116
 1402              	.L102:
 1403              		.loc 1 836 0
 1404 0092 2C4B     		ldr	r3, .L117+28
 1405 0094 9842     		cmp	r0, r3
 1406 0096 0AD1     		bne	.L104
 1407              		.loc 1 837 0
 1408 0098 254B     		ldr	r3, .L117+8
 1409 009a 1A6C     		ldr	r2, [r3, #64]
 1410 009c 42F40022 		orr	r2, r2, #524288
 1411 00a0 1A64     		str	r2, [r3, #64]
 1412 00a2 1A6E     		ldr	r2, [r3, #96]
 1413 00a4 42F40022 		orr	r2, r2, #524288
 1414              	.L116:
 1415              		.loc 1 857 0
 1416 00a8 1A66     		str	r2, [r3, #96]
 1417 00aa 1B6E     		ldr	r3, [r3, #96]
 1418 00ac 0CE0     		b	.L98
 1419              	.L104:
 1420              		.loc 1 846 0
 1421 00ae 264B     		ldr	r3, .L117+32
 1422 00b0 9842     		cmp	r0, r3
 1423 00b2 BBD1     		bne	.L100
 1424              		.loc 1 847 0
 1425 00b4 1E4B     		ldr	r3, .L117+8
ARM GAS  /tmp/ccQpZ0ZL.s 			page 26


 1426 00b6 5A6C     		ldr	r2, [r3, #68]
 1427 00b8 42F02002 		orr	r2, r2, #32
 1428 00bc 5A64     		str	r2, [r3, #68]
 1429 00be 5A6E     		ldr	r2, [r3, #100]
 1430 00c0 42F02002 		orr	r2, r2, #32
 1431 00c4 5A66     		str	r2, [r3, #100]
 1432 00c6 5B6E     		ldr	r3, [r3, #100]
 1433              	.L98:
 1434              	.LVL106:
 1435              	.LBB207:
 1436              	.LBB208:
 1437              		.loc 1 246 0
 1438 00c8 0A68     		ldr	r2, [r1]
 1439 00ca 836D     		ldr	r3, [r0, #88]
 1440              		.loc 1 236 0
 1441 00cc 446D     		ldr	r4, [r0, #84]
 1442              	.LVL107:
 1443              		.loc 1 246 0
 1444 00ce 03EB5203 		add	r3, r3, r2, lsr #1
 1445 00d2 B3FBF2F3 		udiv	r3, r3, r2
 1446              	.LVL108:
 1447              		.loc 1 252 0
 1448 00d6 4A68     		ldr	r2, [r1, #4]
 1449 00d8 1504     		lsls	r5, r2, #16
 1450              		.loc 1 253 0
 1451 00da 42BF     		ittt	mi
 1452 00dc 23F00705 		bicmi	r5, r3, #7
 1453 00e0 03F00703 		andmi	r3, r3, #7
 1454              	.LVL109:
 1455 00e4 43EA4503 		orrmi	r3, r3, r5, lsl #1
 1456              	.LVL110:
 1457              		.loc 1 254 0
 1458 00e8 E360     		str	r3, [r4, #12]
 1459              		.loc 1 257 0
 1460 00ea 8B68     		ldr	r3, [r1, #8]
 1461              	.LVL111:
 1462 00ec 43F04003 		orr	r3, r3, #64
 1463 00f0 6360     		str	r3, [r4, #4]
 1464              	.LVL112:
 1465              		.loc 1 258 0
 1466 00f2 CB68     		ldr	r3, [r1, #12]
 1467              		.loc 1 266 0
 1468 00f4 5105     		lsls	r1, r2, #21
 1469              	.LVL113:
 1470              		.loc 1 258 0
 1471 00f6 43F00103 		orr	r3, r3, #1
 1472 00fa A360     		str	r3, [r4, #8]
 1473              		.loc 1 260 0
 1474 00fc 42F49673 		orr	r3, r2, #300
 1475 0100 43F00103 		orr	r3, r3, #1
 1476              		.loc 1 259 0
 1477 0104 2360     		str	r3, [r4]
 1478              		.loc 1 262 0
 1479 0106 4FF0FF33 		mov	r3, #-1
 1480 010a 2362     		str	r3, [r4, #32]
 1481              		.loc 1 266 0
 1482 010c 05D5     		bpl	.L107
ARM GAS  /tmp/ccQpZ0ZL.s 			page 27


 1483              		.loc 1 267 0
 1484 010e 12F01022 		ands	r2, r2, #268439552
 1485              	.LVL114:
 1486 0112 05D0     		beq	.L109
 1487 0114 B2F1805F 		cmp	r2, #268435456
 1488 0118 04D0     		beq	.L110
 1489              	.L107:
 1490              		.loc 1 279 0
 1491 011a 80F85C30 		strb	r3, [r0, #92]
 1492              	.LVL115:
 1493 011e 30BD     		pop	{r4, r5, pc}
 1494              	.LVL116:
 1495              	.L109:
 1496              		.loc 1 269 0
 1497 0120 7F23     		movs	r3, #127
 1498 0122 FAE7     		b	.L107
 1499              	.L110:
 1500              		.loc 1 272 0
 1501 0124 3F23     		movs	r3, #63
 1502 0126 F8E7     		b	.L107
 1503              	.L118:
 1504              		.align	2
 1505              	.L117:
 1506 0128 00000000 		.word	.LANCHOR21
 1507 012c 00000000 		.word	.LANCHOR0
 1508 0130 00380240 		.word	1073887232
 1509 0134 00000000 		.word	.LANCHOR5
 1510 0138 00000000 		.word	.LANCHOR1
 1511 013c 00000000 		.word	.LANCHOR2
 1512 0140 00000000 		.word	.LANCHOR6
 1513 0144 00000000 		.word	.LANCHOR3
 1514 0148 00000000 		.word	.LANCHOR4
 1515              	.LBE208:
 1516              	.LBE207:
 1517              		.cfi_endproc
 1518              	.LFE353:
 1519              		.size	sd_lld_start, .-sd_lld_start
 1520              		.section	.text.sd_lld_stop,"ax",%progbits
 1521              		.align	1
 1522              		.global	sd_lld_stop
 1523              		.syntax unified
 1524              		.thumb
 1525              		.thumb_func
 1526              		.fpu fpv4-sp-d16
 1527              		.type	sd_lld_stop, %function
 1528              	sd_lld_stop:
 1529              	.LFB354:
 1530              		.loc 1 878 0
 1531              		.cfi_startproc
 1532              		@ args = 0, pretend = 0, frame = 0
 1533              		@ frame_needed = 0, uses_anonymous_args = 0
 1534              		@ link register save eliminated.
 1535              	.LVL117:
 1536              		.loc 1 880 0
 1537 0000 037A     		ldrb	r3, [r0, #8]	@ zero_extendqisi2
 1538 0002 022B     		cmp	r3, #2
 1539 0004 1FD1     		bne	.L119
ARM GAS  /tmp/ccQpZ0ZL.s 			page 28


 1540              		.loc 1 882 0
 1541 0006 436D     		ldr	r3, [r0, #84]
 1542              	.LVL118:
 1543              	.LBB209:
 1544              	.LBB210:
 1545              		.loc 1 291 0
 1546 0008 0022     		movs	r2, #0
 1547 000a 1A60     		str	r2, [r3]
 1548              		.loc 1 292 0
 1549 000c 5A60     		str	r2, [r3, #4]
 1550              		.loc 1 293 0
 1551 000e 9A60     		str	r2, [r3, #8]
 1552              	.LVL119:
 1553              	.LBE210:
 1554              	.LBE209:
 1555              		.loc 1 885 0
 1556 0010 2B4B     		ldr	r3, .L131
 1557 0012 9842     		cmp	r0, r3
 1558 0014 0AD1     		bne	.L122
 1559              		.loc 1 886 0
 1560 0016 2B4B     		ldr	r3, .L131+4
 1561 0018 5A6C     		ldr	r2, [r3, #68]
 1562 001a 22F01002 		bic	r2, r2, #16
 1563 001e 5A64     		str	r2, [r3, #68]
 1564 0020 5A6E     		ldr	r2, [r3, #100]
 1565 0022 22F01002 		bic	r2, r2, #16
 1566              	.L129:
 1567              		.loc 1 916 0
 1568 0026 5A66     		str	r2, [r3, #100]
 1569 0028 5B6E     		ldr	r3, [r3, #100]
 1570              		.loc 1 917 0
 1571 002a 7047     		bx	lr
 1572              	.L122:
 1573              		.loc 1 891 0
 1574 002c 264B     		ldr	r3, .L131+8
 1575 002e 9842     		cmp	r0, r3
 1576 0030 0AD1     		bne	.L123
 1577              		.loc 1 892 0
 1578 0032 244B     		ldr	r3, .L131+4
 1579 0034 1A6C     		ldr	r2, [r3, #64]
 1580 0036 22F40032 		bic	r2, r2, #131072
 1581 003a 1A64     		str	r2, [r3, #64]
 1582 003c 1A6E     		ldr	r2, [r3, #96]
 1583 003e 22F40032 		bic	r2, r2, #131072
 1584              	.L130:
 1585              		.loc 1 928 0
 1586 0042 1A66     		str	r2, [r3, #96]
 1587 0044 1B6E     		ldr	r3, [r3, #96]
 1588              	.L119:
 1589 0046 7047     		bx	lr
 1590              	.L123:
 1591              		.loc 1 897 0
 1592 0048 204B     		ldr	r3, .L131+12
 1593 004a 9842     		cmp	r0, r3
 1594 004c 08D1     		bne	.L124
 1595              		.loc 1 898 0
 1596 004e 1D4B     		ldr	r3, .L131+4
ARM GAS  /tmp/ccQpZ0ZL.s 			page 29


 1597 0050 1A6C     		ldr	r2, [r3, #64]
 1598 0052 22F48022 		bic	r2, r2, #262144
 1599 0056 1A64     		str	r2, [r3, #64]
 1600 0058 1A6E     		ldr	r2, [r3, #96]
 1601 005a 22F48022 		bic	r2, r2, #262144
 1602 005e F0E7     		b	.L130
 1603              	.L124:
 1604              		.loc 1 903 0
 1605 0060 1B4B     		ldr	r3, .L131+16
 1606 0062 9842     		cmp	r0, r3
 1607 0064 08D1     		bne	.L125
 1608              		.loc 1 904 0
 1609 0066 174B     		ldr	r3, .L131+4
 1610 0068 1A6C     		ldr	r2, [r3, #64]
 1611 006a 22F40022 		bic	r2, r2, #524288
 1612 006e 1A64     		str	r2, [r3, #64]
 1613 0070 1A6E     		ldr	r2, [r3, #96]
 1614 0072 22F40022 		bic	r2, r2, #524288
 1615 0076 E4E7     		b	.L130
 1616              	.L125:
 1617              		.loc 1 915 0
 1618 0078 164B     		ldr	r3, .L131+20
 1619 007a 9842     		cmp	r0, r3
 1620 007c 08D1     		bne	.L126
 1621              		.loc 1 916 0
 1622 007e 114B     		ldr	r3, .L131+4
 1623 0080 5A6C     		ldr	r2, [r3, #68]
 1624 0082 22F02002 		bic	r2, r2, #32
 1625 0086 5A64     		str	r2, [r3, #68]
 1626 0088 5A6E     		ldr	r2, [r3, #100]
 1627 008a 22F02002 		bic	r2, r2, #32
 1628 008e CAE7     		b	.L129
 1629              	.L126:
 1630              		.loc 1 921 0
 1631 0090 114B     		ldr	r3, .L131+24
 1632 0092 9842     		cmp	r0, r3
 1633 0094 08D1     		bne	.L127
 1634              		.loc 1 922 0
 1635 0096 0B4B     		ldr	r3, .L131+4
 1636 0098 1A6C     		ldr	r2, [r3, #64]
 1637 009a 22F08042 		bic	r2, r2, #1073741824
 1638 009e 1A64     		str	r2, [r3, #64]
 1639 00a0 1A6E     		ldr	r2, [r3, #96]
 1640 00a2 22F08042 		bic	r2, r2, #1073741824
 1641 00a6 CCE7     		b	.L130
 1642              	.L127:
 1643              		.loc 1 927 0
 1644 00a8 0C4B     		ldr	r3, .L131+28
 1645 00aa 9842     		cmp	r0, r3
 1646 00ac CBD1     		bne	.L119
 1647              		.loc 1 928 0
 1648 00ae 054B     		ldr	r3, .L131+4
 1649 00b0 1A6C     		ldr	r2, [r3, #64]
 1650 00b2 22F00042 		bic	r2, r2, #-2147483648
 1651 00b6 1A64     		str	r2, [r3, #64]
 1652 00b8 1A6E     		ldr	r2, [r3, #96]
 1653 00ba 22F00042 		bic	r2, r2, #-2147483648
ARM GAS  /tmp/ccQpZ0ZL.s 			page 30


 1654 00be C0E7     		b	.L130
 1655              	.L132:
 1656              		.align	2
 1657              	.L131:
 1658 00c0 00000000 		.word	.LANCHOR0
 1659 00c4 00380240 		.word	1073887232
 1660 00c8 00000000 		.word	.LANCHOR1
 1661 00cc 00000000 		.word	.LANCHOR2
 1662 00d0 00000000 		.word	.LANCHOR3
 1663 00d4 00000000 		.word	.LANCHOR4
 1664 00d8 00000000 		.word	.LANCHOR5
 1665 00dc 00000000 		.word	.LANCHOR6
 1666              		.cfi_endproc
 1667              	.LFE354:
 1668              		.size	sd_lld_stop, .-sd_lld_stop
 1669              		.global	SD8
 1670              		.global	SD7
 1671              		.global	SD6
 1672              		.global	SD4
 1673              		.global	SD3
 1674              		.global	SD2
 1675              		.global	SD1
 1676              		.section	.bss.SD1,"aw",%nobits
 1677              		.align	2
 1678              		.set	.LANCHOR0,. + 0
 1679              		.type	SD1, %object
 1680              		.size	SD1, 100
 1681              	SD1:
 1682 0000 00000000 		.space	100
 1682      00000000 
 1682      00000000 
 1682      00000000 
 1682      00000000 
 1683              		.section	.bss.SD2,"aw",%nobits
 1684              		.align	2
 1685              		.set	.LANCHOR1,. + 0
 1686              		.type	SD2, %object
 1687              		.size	SD2, 100
 1688              	SD2:
 1689 0000 00000000 		.space	100
 1689      00000000 
 1689      00000000 
 1689      00000000 
 1689      00000000 
 1690              		.section	.bss.SD3,"aw",%nobits
 1691              		.align	2
 1692              		.set	.LANCHOR2,. + 0
 1693              		.type	SD3, %object
 1694              		.size	SD3, 100
 1695              	SD3:
 1696 0000 00000000 		.space	100
 1696      00000000 
 1696      00000000 
 1696      00000000 
 1696      00000000 
 1697              		.section	.bss.SD4,"aw",%nobits
 1698              		.align	2
ARM GAS  /tmp/ccQpZ0ZL.s 			page 31


 1699              		.set	.LANCHOR3,. + 0
 1700              		.type	SD4, %object
 1701              		.size	SD4, 100
 1702              	SD4:
 1703 0000 00000000 		.space	100
 1703      00000000 
 1703      00000000 
 1703      00000000 
 1703      00000000 
 1704              		.section	.bss.SD6,"aw",%nobits
 1705              		.align	2
 1706              		.set	.LANCHOR4,. + 0
 1707              		.type	SD6, %object
 1708              		.size	SD6, 100
 1709              	SD6:
 1710 0000 00000000 		.space	100
 1710      00000000 
 1710      00000000 
 1710      00000000 
 1710      00000000 
 1711              		.section	.bss.SD7,"aw",%nobits
 1712              		.align	2
 1713              		.set	.LANCHOR5,. + 0
 1714              		.type	SD7, %object
 1715              		.size	SD7, 100
 1716              	SD7:
 1717 0000 00000000 		.space	100
 1717      00000000 
 1717      00000000 
 1717      00000000 
 1717      00000000 
 1718              		.section	.bss.SD8,"aw",%nobits
 1719              		.align	2
 1720              		.set	.LANCHOR6,. + 0
 1721              		.type	SD8, %object
 1722              		.size	SD8, 100
 1723              	SD8:
 1724 0000 00000000 		.space	100
 1724      00000000 
 1724      00000000 
 1724      00000000 
 1724      00000000 
 1725              		.section	.bss.sd_in_buf1,"aw",%nobits
 1726              		.set	.LANCHOR7,. + 0
 1727              		.type	sd_in_buf1, %object
 1728              		.size	sd_in_buf1, 512
 1729              	sd_in_buf1:
 1730 0000 00000000 		.space	512
 1730      00000000 
 1730      00000000 
 1730      00000000 
 1730      00000000 
 1731              		.section	.bss.sd_in_buf2,"aw",%nobits
 1732              		.set	.LANCHOR9,. + 0
 1733              		.type	sd_in_buf2, %object
 1734              		.size	sd_in_buf2, 512
 1735              	sd_in_buf2:
ARM GAS  /tmp/ccQpZ0ZL.s 			page 32


 1736 0000 00000000 		.space	512
 1736      00000000 
 1736      00000000 
 1736      00000000 
 1736      00000000 
 1737              		.section	.bss.sd_in_buf3,"aw",%nobits
 1738              		.set	.LANCHOR11,. + 0
 1739              		.type	sd_in_buf3, %object
 1740              		.size	sd_in_buf3, 512
 1741              	sd_in_buf3:
 1742 0000 00000000 		.space	512
 1742      00000000 
 1742      00000000 
 1742      00000000 
 1742      00000000 
 1743              		.section	.bss.sd_in_buf4,"aw",%nobits
 1744              		.set	.LANCHOR13,. + 0
 1745              		.type	sd_in_buf4, %object
 1746              		.size	sd_in_buf4, 512
 1747              	sd_in_buf4:
 1748 0000 00000000 		.space	512
 1748      00000000 
 1748      00000000 
 1748      00000000 
 1748      00000000 
 1749              		.section	.bss.sd_in_buf6,"aw",%nobits
 1750              		.set	.LANCHOR15,. + 0
 1751              		.type	sd_in_buf6, %object
 1752              		.size	sd_in_buf6, 512
 1753              	sd_in_buf6:
 1754 0000 00000000 		.space	512
 1754      00000000 
 1754      00000000 
 1754      00000000 
 1754      00000000 
 1755              		.section	.bss.sd_in_buf7,"aw",%nobits
 1756              		.set	.LANCHOR17,. + 0
 1757              		.type	sd_in_buf7, %object
 1758              		.size	sd_in_buf7, 512
 1759              	sd_in_buf7:
 1760 0000 00000000 		.space	512
 1760      00000000 
 1760      00000000 
 1760      00000000 
 1760      00000000 
 1761              		.section	.bss.sd_in_buf8,"aw",%nobits
 1762              		.set	.LANCHOR19,. + 0
 1763              		.type	sd_in_buf8, %object
 1764              		.size	sd_in_buf8, 512
 1765              	sd_in_buf8:
 1766 0000 00000000 		.space	512
 1766      00000000 
 1766      00000000 
 1766      00000000 
 1766      00000000 
 1767              		.section	.bss.sd_out_buf1,"aw",%nobits
 1768              		.set	.LANCHOR8,. + 0
ARM GAS  /tmp/ccQpZ0ZL.s 			page 33


 1769              		.type	sd_out_buf1, %object
 1770              		.size	sd_out_buf1, 512
 1771              	sd_out_buf1:
 1772 0000 00000000 		.space	512
 1772      00000000 
 1772      00000000 
 1772      00000000 
 1772      00000000 
 1773              		.section	.bss.sd_out_buf2,"aw",%nobits
 1774              		.set	.LANCHOR10,. + 0
 1775              		.type	sd_out_buf2, %object
 1776              		.size	sd_out_buf2, 512
 1777              	sd_out_buf2:
 1778 0000 00000000 		.space	512
 1778      00000000 
 1778      00000000 
 1778      00000000 
 1778      00000000 
 1779              		.section	.bss.sd_out_buf3,"aw",%nobits
 1780              		.set	.LANCHOR12,. + 0
 1781              		.type	sd_out_buf3, %object
 1782              		.size	sd_out_buf3, 512
 1783              	sd_out_buf3:
 1784 0000 00000000 		.space	512
 1784      00000000 
 1784      00000000 
 1784      00000000 
 1784      00000000 
 1785              		.section	.bss.sd_out_buf4,"aw",%nobits
 1786              		.set	.LANCHOR14,. + 0
 1787              		.type	sd_out_buf4, %object
 1788              		.size	sd_out_buf4, 512
 1789              	sd_out_buf4:
 1790 0000 00000000 		.space	512
 1790      00000000 
 1790      00000000 
 1790      00000000 
 1790      00000000 
 1791              		.section	.bss.sd_out_buf6,"aw",%nobits
 1792              		.set	.LANCHOR16,. + 0
 1793              		.type	sd_out_buf6, %object
 1794              		.size	sd_out_buf6, 512
 1795              	sd_out_buf6:
 1796 0000 00000000 		.space	512
 1796      00000000 
 1796      00000000 
 1796      00000000 
 1796      00000000 
 1797              		.section	.bss.sd_out_buf7,"aw",%nobits
 1798              		.set	.LANCHOR18,. + 0
 1799              		.type	sd_out_buf7, %object
 1800              		.size	sd_out_buf7, 512
 1801              	sd_out_buf7:
 1802 0000 00000000 		.space	512
 1802      00000000 
 1802      00000000 
 1802      00000000 
ARM GAS  /tmp/ccQpZ0ZL.s 			page 34


 1802      00000000 
 1803              		.section	.bss.sd_out_buf8,"aw",%nobits
 1804              		.set	.LANCHOR20,. + 0
 1805              		.type	sd_out_buf8, %object
 1806              		.size	sd_out_buf8, 512
 1807              	sd_out_buf8:
 1808 0000 00000000 		.space	512
 1808      00000000 
 1808      00000000 
 1808      00000000 
 1808      00000000 
 1809              		.section	.rodata.default_config,"a",%progbits
 1810              		.align	2
 1811              		.set	.LANCHOR21,. + 0
 1812              		.type	default_config, %object
 1813              		.size	default_config, 24
 1814              	default_config:
 1815 0000 00960000 		.word	38400
 1816 0004 00000000 		.word	0
 1817 0008 00000000 		.word	0
 1818 000c 00000000 		.word	0
 1819 0010 00000000 		.word	0
 1820 0014 00000000 		.word	0
 1821              		.text
 1822              	.Letext0:
 1823              		.file 5 "/opt/gcc-arm-none-eabi-6-2017-q2-update/lib/gcc/arm-none-eabi/6.3.1/include/stddef.h"
 1824              		.file 6 "/opt/gcc-arm-none-eabi-6-2017-q2-update/arm-none-eabi/include/machine/_default_types.h"
 1825              		.file 7 "/opt/gcc-arm-none-eabi-6-2017-q2-update/arm-none-eabi/include/sys/_stdint.h"
 1826              		.file 8 "/opt/gcc-arm-none-eabi-6-2017-q2-update/arm-none-eabi/include/stdint.h"
 1827              		.file 9 "../../modules/ChibiOS/os/common/ports/ARMCMx/compilers/GCC/chtypes.h"
 1828              		.file 10 "../../modules/ChibiOS/os/rt/include/chsystypes.h"
 1829              		.file 11 "../../modules/ChibiOS/os/rt/include/chschd.h"
 1830              		.file 12 "../../modules/ChibiOS/os/rt/include/chtime.h"
 1831              		.file 13 "../../modules/ChibiOS/os/common/ext/ARM/CMSIS/Core/Include/core_cm7.h"
 1832              		.file 14 "../../modules/ChibiOS/os/common/ext/ST/STM32F7xx/system_stm32f7xx.h"
 1833              		.file 15 "../../modules/ChibiOS/os/common/ext/ST/STM32F7xx/stm32f767xx.h"
 1834              		.file 16 "../../modules/ChibiOS/os/common/ports/ARMCMx/chcore.h"
 1835              		.file 17 "../../modules/ChibiOS/os/common/ports/ARMCMx/chcore_v7m.h"
 1836              		.file 18 "../../modules/ChibiOS/os/hal/ports/STM32/LLD/TIMv1/stm32_tim.h"
 1837              		.file 19 "../../modules/ChibiOS/os/rt/include/chtm.h"
 1838              		.file 20 "../../modules/ChibiOS/os/rt/include/chstats.h"
 1839              		.file 21 "../../modules/ChibiOS/os/rt/include/chsem.h"
 1840              		.file 22 "../../modules/ChibiOS/os/rt/include/chmtx.h"
 1841              		.file 23 "../../modules/ChibiOS/os/rt/include/chregistry.h"
 1842              		.file 24 "../../modules/ChibiOS/os/rt/include/chevents.h"
 1843              		.file 25 "../../modules/ChibiOS/os/oslib/include/chmemcore.h"
 1844              		.file 26 "../../modules/ChibiOS/os/oslib/include/chmempools.h"
 1845              		.file 27 "../../modules/ChibiOS/os/oslib/include/chfactory.h"
 1846              		.file 28 "../../modules/ChibiOS/os/hal/ports/STM32/LLD/DMAv2/stm32_dma.h"
 1847              		.file 29 "../../modules/ChibiOS/os/hal/include/hal_ioblock.h"
 1848              		.file 30 "../../modules/ChibiOS/os/hal/include/hal_queues.h"
 1849              		.file 31 "../../modules/ChibiOS/os/hal/include/hal_pal.h"
 1850              		.file 32 "../../modules/ChibiOS/os/hal/ports/STM32/LLD/GPIOv2/stm32_gpio.h"
 1851              		.file 33 "../../modules/ChibiOS/os/hal/ports/STM32/LLD/GPIOv2/hal_pal_lld.h"
 1852              		.file 34 "../../modules/ChibiOS/os/hal/include/hal_adc.h"
 1853              		.file 35 "../../modules/ChibiOS/os/hal/ports/STM32/LLD/ADCv2/hal_adc_lld.h"
 1854              		.file 36 "../../modules/ChibiOS/os/hal/include/hal_i2c.h"
ARM GAS  /tmp/ccQpZ0ZL.s 			page 35


 1855              		.file 37 "../../modules/ChibiOS/os/hal/ports/STM32/LLD/I2Cv2/hal_i2c_lld.h"
 1856              		.file 38 "../../modules/ChibiOS/os/hal/include/hal_pwm.h"
 1857              		.file 39 "../../modules/ChibiOS/os/hal/ports/STM32/LLD/TIMv1/hal_pwm_lld.h"
 1858              		.file 40 "../../modules/ChibiOS/os/hal/include/hal_serial.h"
 1859              		.file 41 "../../modules/ChibiOS/os/hal/ports/STM32/LLD/USARTv2/hal_serial_lld.h"
 1860              		.file 42 "../../modules/ChibiOS/os/hal/include/hal_sdc.h"
 1861              		.file 43 "../../modules/ChibiOS/os/hal/ports/STM32/LLD/SDMMCv1/hal_sdc_lld.h"
 1862              		.file 44 "../../modules/ChibiOS/os/hal/include/hal_spi.h"
 1863              		.file 45 "../../modules/ChibiOS/os/hal/ports/STM32/LLD/SPIv2/hal_spi_lld.h"
 1864              		.file 46 "../../modules/ChibiOS/os/hal/include/hal_usb.h"
 1865              		.file 47 "../../modules/ChibiOS/os/hal/ports/STM32/LLD/OTGv1/hal_usb_lld.h"
 1866              		.file 48 "../../modules/ChibiOS/os/hal/ports/STM32/LLD/OTGv1/stm32_otg.h"
 1867              		.file 49 "../../modules/ChibiOS/os/hal/ports/common/ARMCMx/nvic.h"