ARM GAS  /tmp/cc305bEL.s 			page 1


   1              		.cpu cortex-m7
   2              		.eabi_attribute 27, 1
   3              		.eabi_attribute 28, 1
   4              		.eabi_attribute 20, 1
   5              		.eabi_attribute 21, 1
   6              		.eabi_attribute 23, 3
   7              		.eabi_attribute 24, 1
   8              		.eabi_attribute 25, 1
   9              		.eabi_attribute 26, 1
  10              		.eabi_attribute 30, 4
  11              		.eabi_attribute 34, 1
  12              		.eabi_attribute 18, 4
  13              		.file	"malloc.c"
  14              		.text
  15              	.Ltext0:
  16              		.cfi_sections	.debug_frame
  17              		.section	.text.malloc_flags,"ax",%progbits
  18              		.align	1
  19              		.syntax unified
  20              		.thumb
  21              		.thumb_func
  22              		.fpu fpv4-sp-d16
  23              		.type	malloc_flags, %function
  24              	malloc_flags:
  25              	.LFB335:
  26              		.file 1 "../../libraries/AP_HAL_ChibiOS/hwdef/common/malloc.c"
  27              		.loc 1 97 0
  28              		.cfi_startproc
  29              		@ args = 0, pretend = 0, frame = 0
  30              		@ frame_needed = 0, uses_anonymous_args = 0
  31              	.LVL0:
  32 0000 2DE9F843 		push	{r3, r4, r5, r6, r7, r8, r9, lr}
  33              		.cfi_def_cfa_offset 32
  34              		.cfi_offset 3, -32
  35              		.cfi_offset 4, -28
  36              		.cfi_offset 5, -24
  37              		.cfi_offset 6, -20
  38              		.cfi_offset 7, -16
  39              		.cfi_offset 8, -12
  40              		.cfi_offset 9, -8
  41              		.cfi_offset 14, -4
  42              		.loc 1 97 0
  43 0004 0E46     		mov	r6, r1
  44              		.loc 1 98 0
  45 0006 0446     		mov	r4, r0
  46 0008 0028     		cmp	r0, #0
  47 000a 58D0     		beq	.L15
  48              	.LVL1:
  49              		.loc 1 106 0
  50 000c 11F00508 		ands	r8, r1, #5
  51 0010 1FD0     		beq	.L3
  52              		.loc 1 108 0
  53 0012 0734     		adds	r4, r4, #7
  54 0014 24F00704 		bic	r4, r4, #7
  55              	.LVL2:
  56              	.L4:
  57              		.loc 1 123 0 discriminator 1
ARM GAS  /tmp/cc305bEL.s 			page 2


  58 0018 06F00107 		and	r7, r6, #1
  59              	.LVL3:
  60              	.L11:
  61              		.loc 1 127 0
  62 001c 16F00409 		ands	r9, r6, #4
  63 0020 08D1     		bne	.L6
  64              		.loc 1 131 0
  65 0022 B307     		lsls	r3, r6, #30
  66 0024 06D4     		bmi	.L6
  67              		.loc 1 135 0
  68 0026 0822     		movs	r2, #8
  69 0028 2146     		mov	r1, r4
  70 002a 2648     		ldr	r0, .L21
  71 002c FFF7FEFF 		bl	chHeapAllocAligned
  72              	.LVL4:
  73              		.loc 1 136 0
  74 0030 0546     		mov	r5, r0
  75 0032 50B9     		cbnz	r0, .L10
  76              	.LVL5:
  77              	.L6:
  78              		.loc 1 123 0
  79 0034 CFB9     		cbnz	r7, .L8
  80              		.loc 1 127 0
  81 0036 B9F1000F 		cmp	r9, #0
  82 003a 16D1     		bne	.L8
  83              		.loc 1 135 0
  84 003c 0822     		movs	r2, #8
  85 003e 2146     		mov	r1, r4
  86 0040 2148     		ldr	r0, .L21+4
  87 0042 FFF7FEFF 		bl	chHeapAllocAligned
  88              	.LVL6:
  89              		.loc 1 136 0
  90 0046 0546     		mov	r5, r0
  91 0048 78B1     		cbz	r0, .L8
  92              	.LVL7:
  93              	.L10:
  94              		.loc 1 169 0
  95 004a 2246     		mov	r2, r4
  96 004c 0021     		movs	r1, #0
  97 004e 2846     		mov	r0, r5
  98 0050 32E0     		b	.L20
  99              	.LVL8:
 100              	.L3:
 101              		.loc 1 113 0
 102 0052 0029     		cmp	r1, #0
 103 0054 E0D1     		bne	.L4
 104              		.loc 1 115 0
 105 0056 0146     		mov	r1, r0
 106              	.LVL9:
 107 0058 0822     		movs	r2, #8
 108 005a 3046     		mov	r0, r6
 109              	.LVL10:
 110 005c FFF7FEFF 		bl	chHeapAllocAligned
 111              	.LVL11:
 112              		.loc 1 116 0
 113 0060 0546     		mov	r5, r0
 114 0062 0028     		cmp	r0, #0
ARM GAS  /tmp/cc305bEL.s 			page 3


 115 0064 F1D1     		bne	.L10
 116              		.loc 1 123 0
 117 0066 3746     		mov	r7, r6
 118 0068 D8E7     		b	.L11
 119              	.LVL12:
 120              	.L8:
 121              		.loc 1 142 0
 122 006a B8F1000F 		cmp	r8, #0
 123 006e 09D0     		beq	.L12
 124              	.L13:
 125              		.loc 1 158 0
 126 0070 0822     		movs	r2, #8
 127 0072 2146     		mov	r1, r4
 128 0074 1548     		ldr	r0, .L21+8
 129 0076 FFF7FEFF 		bl	chHeapAllocAligned
 130              	.LVL13:
 131              		.loc 1 159 0
 132 007a 0546     		mov	r5, r0
 133 007c D0B9     		cbnz	r0, .L14
 134              	.LVL14:
 135              	.L1:
 136              		.loc 1 171 0
 137 007e 2846     		mov	r0, r5
 138 0080 BDE8F883 		pop	{r3, r4, r5, r6, r7, r8, r9, pc}
 139              	.LVL15:
 140              	.L12:
 141              		.loc 1 144 0 discriminator 1
 142 0084 0822     		movs	r2, #8
 143 0086 2146     		mov	r1, r4
 144 0088 0E48     		ldr	r0, .L21
 145 008a FFF7FEFF 		bl	chHeapAllocAligned
 146              	.LVL16:
 147              		.loc 1 145 0 discriminator 1
 148 008e 0546     		mov	r5, r0
 149 0090 0028     		cmp	r0, #0
 150 0092 DAD1     		bne	.L10
 151              	.LVL17:
 152              		.loc 1 144 0
 153 0094 0822     		movs	r2, #8
 154 0096 2146     		mov	r1, r4
 155 0098 0B48     		ldr	r0, .L21+4
 156              	.LVL18:
 157 009a FFF7FEFF 		bl	chHeapAllocAligned
 158              	.LVL19:
 159              		.loc 1 145 0
 160 009e 0546     		mov	r5, r0
 161 00a0 0028     		cmp	r0, #0
 162 00a2 D2D1     		bne	.L10
 163              	.LVL20:
 164              		.loc 1 150 0
 165 00a4 0822     		movs	r2, #8
 166 00a6 2146     		mov	r1, r4
 167 00a8 FFF7FEFF 		bl	chHeapAllocAligned
 168              	.LVL21:
 169              		.loc 1 151 0
 170 00ac 0546     		mov	r5, r0
 171 00ae 0028     		cmp	r0, #0
ARM GAS  /tmp/cc305bEL.s 			page 4


 172 00b0 CBD1     		bne	.L10
 173 00b2 DDE7     		b	.L13
 174              	.L14:
 175              		.loc 1 160 0
 176 00b4 2246     		mov	r2, r4
 177 00b6 0021     		movs	r1, #0
 178              	.LVL22:
 179              	.L20:
 180              		.loc 1 169 0
 181 00b8 FFF7FEFF 		bl	memset
 182              	.LVL23:
 183              		.loc 1 170 0
 184 00bc DFE7     		b	.L1
 185              	.LVL24:
 186              	.L15:
 187              		.loc 1 99 0
 188 00be 0546     		mov	r5, r0
 189 00c0 DDE7     		b	.L1
 190              	.L22:
 191 00c2 00BF     		.align	2
 192              	.L21:
 193 00c4 20000000 		.word	.LANCHOR0+32
 194 00c8 40000000 		.word	.LANCHOR0+64
 195 00cc 00000000 		.word	.LANCHOR1
 196              		.cfi_endproc
 197              	.LFE335:
 198              		.size	malloc_flags, .-malloc_flags
 199              		.section	.text.malloc,"ax",%progbits
 200              		.align	1
 201              		.global	malloc
 202              		.syntax unified
 203              		.thumb
 204              		.thumb_func
 205              		.fpu fpv4-sp-d16
 206              		.type	malloc, %function
 207              	malloc:
 208              	.LFB336:
 209              		.loc 1 176 0
 210              		.cfi_startproc
 211              		@ args = 0, pretend = 0, frame = 0
 212              		@ frame_needed = 0, uses_anonymous_args = 0
 213              		@ link register save eliminated.
 214              	.LVL25:
 215              		.loc 1 177 0
 216 0000 0021     		movs	r1, #0
 217 0002 FFF7FEBF 		b	malloc_flags
 218              	.LVL26:
 219              		.cfi_endproc
 220              	.LFE336:
 221              		.size	malloc, .-malloc
 222              		.section	.text.malloc_sdcard_dma,"ax",%progbits
 223              		.align	1
 224              		.global	malloc_sdcard_dma
 225              		.syntax unified
 226              		.thumb
 227              		.thumb_func
 228              		.fpu fpv4-sp-d16
ARM GAS  /tmp/cc305bEL.s 			page 5


 229              		.type	malloc_sdcard_dma, %function
 230              	malloc_sdcard_dma:
 231              	.LFB338:
 232              		.loc 1 193 0
 233              		.cfi_startproc
 234              		@ args = 0, pretend = 0, frame = 0
 235              		@ frame_needed = 0, uses_anonymous_args = 0
 236              		@ link register save eliminated.
 237              	.LVL27:
 238              		.loc 1 197 0
 239 0000 0121     		movs	r1, #1
 240 0002 FFF7FEBF 		b	malloc_flags
 241              	.LVL28:
 242              		.cfi_endproc
 243              	.LFE338:
 244              		.size	malloc_sdcard_dma, .-malloc_sdcard_dma
 245              		.section	.text.malloc_init,"ax",%progbits
 246              		.align	1
 247              		.global	malloc_init
 248              		.syntax unified
 249              		.thumb
 250              		.thumb_func
 251              		.fpu fpv4-sp-d16
 252              		.type	malloc_init, %function
 253              	malloc_init:
 254              	.LFB334:
 255              		.loc 1 73 0
 256              		.cfi_startproc
 257              		@ args = 0, pretend = 0, frame = 0
 258              		@ frame_needed = 0, uses_anonymous_args = 0
 259              	.LVL29:
 260 0000 38B5     		push	{r3, r4, r5, lr}
 261              		.cfi_def_cfa_offset 16
 262              		.cfi_offset 3, -16
 263              		.cfi_offset 4, -12
 264              		.cfi_offset 5, -8
 265              		.cfi_offset 14, -4
 266              		.loc 1 76 0
 267 0002 4FF48032 		mov	r2, #65536
 268 0006 4FF00051 		mov	r1, #536870912
 269 000a 0F48     		ldr	r0, .L29
 270 000c 3725     		movs	r5, #55
 271 000e 4FF4C054 		mov	r4, #6144
 272 0012 FFF7FEFF 		bl	chHeapObjectInit
 273              	.LVL30:
 274 0016 4FF48032 		mov	r2, #65536
 275 001a 0C49     		ldr	r1, .L29+4
 276 001c 0C48     		ldr	r0, .L29+8
 277 001e FFF7FEFF 		bl	chHeapObjectInit
 278              	.LVL31:
 279              	.L27:
 280              	.LBB2:
 281              		.loc 1 86 0
 282 0022 2046     		mov	r0, r4
 283 0024 FFF7FEFF 		bl	malloc_sdcard_dma
 284              	.LVL32:
 285              		.loc 1 87 0
ARM GAS  /tmp/cc305bEL.s 			page 6


 286 0028 0146     		mov	r1, r0
 287 002a 28B1     		cbz	r0, .L26
 288              		.loc 1 88 0
 289 002c 2246     		mov	r2, r4
 290 002e 0948     		ldr	r0, .L29+12
 291              	.LVL33:
 292              	.LBE2:
 293              		.loc 1 94 0
 294 0030 BDE83840 		pop	{r3, r4, r5, lr}
 295              		.cfi_remember_state
 296              		.cfi_restore 14
 297              		.cfi_restore 5
 298              		.cfi_restore 4
 299              		.cfi_restore 3
 300              		.cfi_def_cfa_offset 0
 301              	.LVL34:
 302              	.LBB3:
 303              		.loc 1 88 0
 304 0034 FFF7FEBF 		b	chHeapObjectInit
 305              	.LVL35:
 306              	.L26:
 307              		.cfi_restore_state
 308              		.loc 1 91 0
 309 0038 C4EBC404 		rsb	r4, r4, r4, lsl #3
 310              	.LVL36:
 311              	.LBE3:
 312              		.loc 1 85 0
 313 003c 013D     		subs	r5, r5, #1
 314              	.LBB4:
 315              		.loc 1 91 0
 316 003e 4FEAD404 		lsr	r4, r4, #3
 317              	.LVL37:
 318              	.LBE4:
 319              		.loc 1 85 0
 320 0042 EED1     		bne	.L27
 321              		.loc 1 94 0
 322 0044 38BD     		pop	{r3, r4, r5, pc}
 323              	.LVL38:
 324              	.L30:
 325 0046 00BF     		.align	2
 326              	.L29:
 327 0048 20000000 		.word	.LANCHOR0+32
 328 004c 00000120 		.word	536936448
 329 0050 40000000 		.word	.LANCHOR0+64
 330 0054 00000000 		.word	.LANCHOR1
 331              		.cfi_endproc
 332              	.LFE334:
 333              		.size	malloc_init, .-malloc_init
 334              		.section	.text.malloc_dma,"ax",%progbits
 335              		.align	1
 336              		.global	malloc_dma
 337              		.syntax unified
 338              		.thumb
 339              		.thumb_func
 340              		.fpu fpv4-sp-d16
 341              		.type	malloc_dma, %function
 342              	malloc_dma:
ARM GAS  /tmp/cc305bEL.s 			page 7


 343              	.LFB347:
 344              		.cfi_startproc
 345              		@ args = 0, pretend = 0, frame = 0
 346              		@ frame_needed = 0, uses_anonymous_args = 0
 347              		@ link register save eliminated.
 348 0000 FFF7FEBF 		b	malloc_sdcard_dma
 349              		.cfi_endproc
 350              	.LFE347:
 351              		.size	malloc_dma, .-malloc_dma
 352              		.section	.text.malloc_fastmem,"ax",%progbits
 353              		.align	1
 354              		.global	malloc_fastmem
 355              		.syntax unified
 356              		.thumb
 357              		.thumb_func
 358              		.fpu fpv4-sp-d16
 359              		.type	malloc_fastmem, %function
 360              	malloc_fastmem:
 361              	.LFB339:
 362              		.loc 1 205 0
 363              		.cfi_startproc
 364              		@ args = 0, pretend = 0, frame = 0
 365              		@ frame_needed = 0, uses_anonymous_args = 0
 366              		@ link register save eliminated.
 367              	.LVL39:
 368              		.loc 1 206 0
 369 0000 0221     		movs	r1, #2
 370 0002 FFF7FEBF 		b	malloc_flags
 371              	.LVL40:
 372              		.cfi_endproc
 373              	.LFE339:
 374              		.size	malloc_fastmem, .-malloc_fastmem
 375              		.section	.text.calloc,"ax",%progbits
 376              		.align	1
 377              		.global	calloc
 378              		.syntax unified
 379              		.thumb
 380              		.thumb_func
 381              		.fpu fpv4-sp-d16
 382              		.type	calloc, %function
 383              	calloc:
 384              	.LFB340:
 385              		.loc 1 210 0
 386              		.cfi_startproc
 387              		@ args = 0, pretend = 0, frame = 0
 388              		@ frame_needed = 0, uses_anonymous_args = 0
 389              		@ link register save eliminated.
 390              	.LVL41:
 391              		.loc 1 211 0
 392 0000 4843     		muls	r0, r1, r0
 393              	.LVL42:
 394 0002 FFF7FEBF 		b	malloc
 395              	.LVL43:
 396              		.cfi_endproc
 397              	.LFE340:
 398              		.size	calloc, .-calloc
 399              		.section	.text.free,"ax",%progbits
ARM GAS  /tmp/cc305bEL.s 			page 8


 400              		.align	1
 401              		.global	free
 402              		.syntax unified
 403              		.thumb
 404              		.thumb_func
 405              		.fpu fpv4-sp-d16
 406              		.type	free, %function
 407              	free:
 408              	.LFB341:
 409              		.loc 1 215 0
 410              		.cfi_startproc
 411              		@ args = 0, pretend = 0, frame = 0
 412              		@ frame_needed = 0, uses_anonymous_args = 0
 413              		@ link register save eliminated.
 414              	.LVL44:
 415              		.loc 1 216 0
 416 0000 08B1     		cbz	r0, .L34
 417              		.loc 1 217 0
 418 0002 FFF7FEBF 		b	chHeapFree
 419              	.LVL45:
 420              	.L34:
 421 0006 7047     		bx	lr
 422              		.cfi_endproc
 423              	.LFE341:
 424              		.size	free, .-free
 425              		.section	.text.mem_available,"ax",%progbits
 426              		.align	1
 427              		.global	mem_available
 428              		.syntax unified
 429              		.thumb
 430              		.thumb_func
 431              		.fpu fpv4-sp-d16
 432              		.type	mem_available, %function
 433              	mem_available:
 434              	.LFB342:
 435              		.loc 1 225 0
 436              		.cfi_startproc
 437              		@ args = 0, pretend = 0, frame = 8
 438              		@ frame_needed = 0, uses_anonymous_args = 0
 439 0000 73B5     		push	{r0, r1, r4, r5, r6, lr}
 440              		.cfi_def_cfa_offset 24
 441              		.cfi_offset 4, -16
 442              		.cfi_offset 5, -12
 443              		.cfi_offset 6, -8
 444              		.cfi_offset 14, -4
 445              		.loc 1 226 0
 446 0002 0024     		movs	r4, #0
 447 0004 02A9     		add	r1, sp, #8
 448              	.LBB5:
 449              		.loc 1 237 0
 450 0006 02AD     		add	r5, sp, #8
 451              		.loc 1 238 0
 452 0008 164E     		ldr	r6, .L37
 453              	.LBE5:
 454              		.loc 1 226 0
 455 000a 41F8084D 		str	r4, [r1, #-8]!
 456              		.loc 1 230 0
ARM GAS  /tmp/cc305bEL.s 			page 9


 457 000e 2246     		mov	r2, r4
 458 0010 2046     		mov	r0, r4
 459 0012 FFF7FEFF 		bl	chHeapStatus
 460              	.LVL46:
 461              		.loc 1 233 0
 462 0016 FFF7FEFF 		bl	chCoreGetStatusX
 463              	.LVL47:
 464 001a 009B     		ldr	r3, [sp]
 465              	.LBB6:
 466              		.loc 1 237 0
 467 001c 45F8044D 		str	r4, [r5, #-4]!
 468              		.loc 1 238 0
 469 0020 2246     		mov	r2, r4
 470              	.LBE6:
 471              		.loc 1 233 0
 472 0022 1844     		add	r0, r0, r3
 473              	.LBB7:
 474              		.loc 1 238 0
 475 0024 2946     		mov	r1, r5
 476              	.LBE7:
 477              		.loc 1 233 0
 478 0026 0090     		str	r0, [sp]
 479              	.LVL48:
 480              	.LBB8:
 481              		.loc 1 238 0
 482 0028 06F12000 		add	r0, r6, #32
 483 002c FFF7FEFF 		bl	chHeapStatus
 484              	.LVL49:
 485 0030 2946     		mov	r1, r5
 486 0032 06F14000 		add	r0, r6, #64
 487              		.loc 1 239 0
 488 0036 9DE80C00 		ldm	sp, {r2, r3}
 489 003a 1344     		add	r3, r3, r2
 490              		.loc 1 238 0
 491 003c 2246     		mov	r2, r4
 492              		.loc 1 237 0
 493 003e 8DE81800 		stm	sp, {r3, r4}
 494              		.loc 1 238 0
 495 0042 FFF7FEFF 		bl	chHeapStatus
 496              	.LVL50:
 497              	.LBE8:
 498              		.loc 1 245 0
 499 0046 2946     		mov	r1, r5
 500 0048 0748     		ldr	r0, .L37+4
 501              	.LBB9:
 502              		.loc 1 239 0
 503 004a 9DE80C00 		ldm	sp, {r2, r3}
 504 004e 1344     		add	r3, r3, r2
 505              	.LBE9:
 506              		.loc 1 245 0
 507 0050 2246     		mov	r2, r4
 508              		.loc 1 244 0
 509 0052 8DE81800 		stm	sp, {r3, r4}
 510              		.loc 1 245 0
 511 0056 FFF7FEFF 		bl	chHeapStatus
 512              	.LVL51:
 513              		.loc 1 250 0
ARM GAS  /tmp/cc305bEL.s 			page 10


 514 005a 9DE80900 		ldm	sp, {r0, r3}
 515 005e 1844     		add	r0, r0, r3
 516 0060 02B0     		add	sp, sp, #8
 517              		.cfi_def_cfa_offset 16
 518              		@ sp needed
 519 0062 70BD     		pop	{r4, r5, r6, pc}
 520              	.L38:
 521              		.align	2
 522              	.L37:
 523 0064 00000000 		.word	.LANCHOR0
 524 0068 00000000 		.word	.LANCHOR1
 525              		.cfi_endproc
 526              	.LFE342:
 527              		.size	mem_available, .-mem_available
 528              		.section	.text.thread_create_alloc,"ax",%progbits
 529              		.align	1
 530              		.global	thread_create_alloc
 531              		.syntax unified
 532              		.thumb
 533              		.thumb_func
 534              		.fpu fpv4-sp-d16
 535              		.type	thread_create_alloc, %function
 536              	thread_create_alloc:
 537              	.LFB343:
 538              		.loc 1 258 0
 539              		.cfi_startproc
 540              		@ args = 4, pretend = 0, frame = 0
 541              		@ frame_needed = 0, uses_anonymous_args = 0
 542              	.LVL52:
 543 0000 2DE9F341 		push	{r0, r1, r4, r5, r6, r7, r8, lr}
 544              		.cfi_def_cfa_offset 32
 545              		.cfi_offset 4, -24
 546              		.cfi_offset 5, -20
 547              		.cfi_offset 6, -16
 548              		.cfi_offset 7, -12
 549              		.cfi_offset 8, -8
 550              		.cfi_offset 14, -4
 551              		.loc 1 258 0
 552 0004 DDF82080 		ldr	r8, [sp, #32]
 553 0008 1F46     		mov	r7, r3
 554 000a 0446     		mov	r4, r0
 555 000c 0D46     		mov	r5, r1
 556 000e 1646     		mov	r6, r2
 557              		.loc 1 261 0
 558 0010 1346     		mov	r3, r2
 559              	.LVL53:
 560 0012 0A46     		mov	r2, r1
 561              	.LVL54:
 562 0014 0146     		mov	r1, r0
 563              	.LVL55:
 564 0016 0020     		movs	r0, #0
 565              	.LVL56:
 566 0018 8DE88001 		stm	sp, {r7, r8}
 567 001c FFF7FEFF 		bl	chThdCreateFromHeap
 568              	.LVL57:
 569              		.loc 1 262 0
 570 0020 80B9     		cbnz	r0, .L39
ARM GAS  /tmp/cc305bEL.s 			page 11


 571              	.LVL58:
 572              		.loc 1 269 0
 573 0022 3346     		mov	r3, r6
 574 0024 2A46     		mov	r2, r5
 575 0026 2146     		mov	r1, r4
 576 0028 0848     		ldr	r0, .L42
 577              	.LVL59:
 578 002a 8DE88001 		stm	sp, {r7, r8}
 579 002e FFF7FEFF 		bl	chThdCreateFromHeap
 580              	.LVL60:
 581              		.loc 1 270 0
 582 0032 38B9     		cbnz	r0, .L39
 583              	.LVL61:
 584              		.loc 1 269 0
 585 0034 3346     		mov	r3, r6
 586 0036 2A46     		mov	r2, r5
 587 0038 2146     		mov	r1, r4
 588 003a 0548     		ldr	r0, .L42+4
 589              	.LVL62:
 590 003c 8DE88001 		stm	sp, {r7, r8}
 591 0040 FFF7FEFF 		bl	chThdCreateFromHeap
 592              	.LVL63:
 593              	.L39:
 594              		.loc 1 275 0
 595 0044 02B0     		add	sp, sp, #8
 596              		.cfi_def_cfa_offset 24
 597              		@ sp needed
 598 0046 BDE8F081 		pop	{r4, r5, r6, r7, r8, pc}
 599              	.LVL64:
 600              	.L43:
 601 004a 00BF     		.align	2
 602              	.L42:
 603 004c 20000000 		.word	.LANCHOR0+32
 604 0050 40000000 		.word	.LANCHOR0+64
 605              		.cfi_endproc
 606              	.LFE343:
 607              		.size	thread_create_alloc, .-thread_create_alloc
 608              		.section	.text.memory_flush_all,"ax",%progbits
 609              		.align	1
 610              		.global	memory_flush_all
 611              		.syntax unified
 612              		.thumb
 613              		.thumb_func
 614              		.fpu fpv4-sp-d16
 615              		.type	memory_flush_all, %function
 616              	memory_flush_all:
 617              	.LFB344:
 618              		.loc 1 284 0
 619              		.cfi_startproc
 620              		@ args = 0, pretend = 0, frame = 0
 621              		@ frame_needed = 0, uses_anonymous_args = 0
 622              	.LVL65:
 623 0000 08B5     		push	{r3, lr}
 624              		.cfi_def_cfa_offset 8
 625              		.cfi_offset 3, -8
 626              		.cfi_offset 14, -4
 627              		.loc 1 287 0
ARM GAS  /tmp/cc305bEL.s 			page 12


 628 0002 4FF4C021 		mov	r1, #393216
 629 0006 0848     		ldr	r0, .L45
 630 0008 FFF7FEFF 		bl	stm32_cacheBufferFlush
 631              	.LVL66:
 632 000c 4FF48031 		mov	r1, #65536
 633 0010 4FF00050 		mov	r0, #536870912
 634 0014 FFF7FEFF 		bl	stm32_cacheBufferFlush
 635              	.LVL67:
 636 0018 4FF48031 		mov	r1, #65536
 637 001c 0348     		ldr	r0, .L45+4
 638              		.loc 1 289 0
 639 001e BDE80840 		pop	{r3, lr}
 640              		.cfi_restore 14
 641              		.cfi_restore 3
 642              		.cfi_def_cfa_offset 0
 643              		.loc 1 287 0
 644 0022 FFF7FEBF 		b	stm32_cacheBufferFlush
 645              	.LVL68:
 646              	.L46:
 647 0026 00BF     		.align	2
 648              	.L45:
 649 0028 00000220 		.word	537001984
 650 002c 00000120 		.word	536936448
 651              		.cfi_endproc
 652              	.LFE344:
 653              		.size	memory_flush_all, .-memory_flush_all
 654              		.section	.text.strdup,"ax",%progbits
 655              		.align	1
 656              		.global	strdup
 657              		.syntax unified
 658              		.thumb
 659              		.thumb_func
 660              		.fpu fpv4-sp-d16
 661              		.type	strdup, %function
 662              	strdup:
 663              	.LFB345:
 664              		.loc 1 295 0
 665              		.cfi_startproc
 666              		@ args = 0, pretend = 0, frame = 0
 667              		@ frame_needed = 0, uses_anonymous_args = 0
 668              	.LVL69:
 669 0000 70B5     		push	{r4, r5, r6, lr}
 670              		.cfi_def_cfa_offset 16
 671              		.cfi_offset 4, -16
 672              		.cfi_offset 5, -12
 673              		.cfi_offset 6, -8
 674              		.cfi_offset 14, -4
 675              		.loc 1 295 0
 676 0002 0646     		mov	r6, r0
 677              		.loc 1 296 0
 678 0004 FFF7FEFF 		bl	strlen
 679              	.LVL70:
 680 0008 0446     		mov	r4, r0
 681              	.LVL71:
 682              		.loc 1 297 0
 683 000a 0130     		adds	r0, r0, #1
 684              	.LVL72:
ARM GAS  /tmp/cc305bEL.s 			page 13


 685 000c FFF7FEFF 		bl	malloc
 686              	.LVL73:
 687              		.loc 1 298 0
 688 0010 0546     		mov	r5, r0
 689 0012 28B1     		cbz	r0, .L47
 690              		.loc 1 301 0
 691 0014 2246     		mov	r2, r4
 692 0016 3146     		mov	r1, r6
 693 0018 FFF7FEFF 		bl	memcpy
 694              	.LVL74:
 695              		.loc 1 302 0
 696 001c 0023     		movs	r3, #0
 697 001e 2B55     		strb	r3, [r5, r4]
 698              	.L47:
 699              		.loc 1 304 0
 700 0020 2846     		mov	r0, r5
 701 0022 70BD     		pop	{r4, r5, r6, pc}
 702              		.cfi_endproc
 703              	.LFE345:
 704              		.size	strdup, .-strdup
 705              		.section	.bss.dma_reserve_heap,"aw",%nobits
 706              		.align	2
 707              		.set	.LANCHOR1,. + 0
 708              		.type	dma_reserve_heap, %object
 709              		.size	dma_reserve_heap, 32
 710              	dma_reserve_heap:
 711 0000 00000000 		.space	32
 711      00000000 
 711      00000000 
 711      00000000 
 711      00000000 
 712              		.section	.bss.heaps,"aw",%nobits
 713              		.align	2
 714              		.set	.LANCHOR0,. + 0
 715              		.type	heaps, %object
 716              		.size	heaps, 96
 717              	heaps:
 718 0000 00000000 		.space	96
 718      00000000 
 718      00000000 
 718      00000000 
 718      00000000 
 719              		.text
 720              	.Letext0:
 721              		.file 2 "/opt/gcc-arm-none-eabi-6-2017-q2-update/lib/gcc/arm-none-eabi/6.3.1/include/stdarg.h"
 722              		.file 3 "/opt/gcc-arm-none-eabi-6-2017-q2-update/arm-none-eabi/include/machine/_default_types.h"
 723              		.file 4 "/opt/gcc-arm-none-eabi-6-2017-q2-update/arm-none-eabi/include/sys/_stdint.h"
 724              		.file 5 "/opt/gcc-arm-none-eabi-6-2017-q2-update/arm-none-eabi/include/stdint.h"
 725              		.file 6 "/opt/gcc-arm-none-eabi-6-2017-q2-update/lib/gcc/arm-none-eabi/6.3.1/include/stddef.h"
 726              		.file 7 "/opt/gcc-arm-none-eabi-6-2017-q2-update/arm-none-eabi/include/sys/lock.h"
 727              		.file 8 "/opt/gcc-arm-none-eabi-6-2017-q2-update/arm-none-eabi/include/sys/_types.h"
 728              		.file 9 "/opt/gcc-arm-none-eabi-6-2017-q2-update/arm-none-eabi/include/sys/reent.h"
 729              		.file 10 "<built-in>"
 730              		.file 11 "../../libraries/AP_HAL_ChibiOS/hwdef/common/stdio.h"
 731              		.file 12 "../../modules/ChibiOS/os/common/ports/ARMCMx/compilers/GCC/chtypes.h"
 732              		.file 13 "../../modules/ChibiOS/os/rt/include/chsystypes.h"
 733              		.file 14 "../../modules/ChibiOS/os/rt/include/chschd.h"
ARM GAS  /tmp/cc305bEL.s 			page 14


 734              		.file 15 "../../modules/ChibiOS/os/rt/include/chtime.h"
 735              		.file 16 "../../modules/ChibiOS/os/common/ext/ARM/CMSIS/Core/Include/core_cm7.h"
 736              		.file 17 "../../modules/ChibiOS/os/common/ext/ST/STM32F7xx/system_stm32f7xx.h"
 737              		.file 18 "../../modules/ChibiOS/os/common/ext/ST/STM32F7xx/stm32f767xx.h"
 738              		.file 19 "../../modules/ChibiOS/os/common/ports/ARMCMx/chcore.h"
 739              		.file 20 "../../modules/ChibiOS/os/common/ports/ARMCMx/chcore_v7m.h"
 740              		.file 21 "../../modules/ChibiOS/os/hal/ports/STM32/LLD/TIMv1/stm32_tim.h"
 741              		.file 22 "../../modules/ChibiOS/os/rt/include/chtm.h"
 742              		.file 23 "../../modules/ChibiOS/os/rt/include/chstats.h"
 743              		.file 24 "../../modules/ChibiOS/os/rt/include/chsem.h"
 744              		.file 25 "../../modules/ChibiOS/os/rt/include/chmtx.h"
 745              		.file 26 "../../modules/ChibiOS/os/rt/include/chsys.h"
 746              		.file 27 "../../modules/ChibiOS/os/rt/include/chthreads.h"
 747              		.file 28 "../../modules/ChibiOS/os/rt/include/chregistry.h"
 748              		.file 29 "../../modules/ChibiOS/os/rt/include/chevents.h"
 749              		.file 30 "../../modules/ChibiOS/os/oslib/include/chmemcore.h"
 750              		.file 31 "../../modules/ChibiOS/os/oslib/include/chmemheaps.h"
 751              		.file 32 "../../modules/ChibiOS/os/oslib/include/chmempools.h"
 752              		.file 33 "../../modules/ChibiOS/os/oslib/include/chfactory.h"
 753              		.file 34 "../../modules/ChibiOS/os/hal/ports/STM32/LLD/DMAv2/stm32_dma.h"
 754              		.file 35 "../../modules/ChibiOS/os/hal/include/hal_ioblock.h"
 755              		.file 36 "../../modules/ChibiOS/os/hal/include/hal_queues.h"
 756              		.file 37 "../../modules/ChibiOS/os/hal/include/hal_pal.h"
 757              		.file 38 "../../modules/ChibiOS/os/hal/ports/STM32/LLD/GPIOv2/stm32_gpio.h"
 758              		.file 39 "../../modules/ChibiOS/os/hal/ports/STM32/LLD/GPIOv2/hal_pal_lld.h"
 759              		.file 40 "../../modules/ChibiOS/os/hal/include/hal_adc.h"
 760              		.file 41 "../../modules/ChibiOS/os/hal/ports/STM32/LLD/ADCv2/hal_adc_lld.h"
 761              		.file 42 "../../modules/ChibiOS/os/hal/include/hal_i2c.h"
 762              		.file 43 "../../modules/ChibiOS/os/hal/ports/STM32/LLD/I2Cv2/hal_i2c_lld.h"
 763              		.file 44 "../../modules/ChibiOS/os/hal/include/hal_pwm.h"
 764              		.file 45 "../../modules/ChibiOS/os/hal/ports/STM32/LLD/TIMv1/hal_pwm_lld.h"
 765              		.file 46 "../../modules/ChibiOS/os/hal/include/hal_serial.h"
 766              		.file 47 "../../modules/ChibiOS/os/hal/ports/STM32/LLD/USARTv2/hal_serial_lld.h"
 767              		.file 48 "../../modules/ChibiOS/os/hal/include/hal_sdc.h"
 768              		.file 49 "../../modules/ChibiOS/os/hal/ports/STM32/LLD/SDMMCv1/hal_sdc_lld.h"
 769              		.file 50 "../../modules/ChibiOS/os/hal/include/hal_spi.h"
 770              		.file 51 "../../modules/ChibiOS/os/hal/ports/STM32/LLD/SPIv2/hal_spi_lld.h"
 771              		.file 52 "../../modules/ChibiOS/os/hal/include/hal_usb.h"
 772              		.file 53 "../../modules/ChibiOS/os/hal/ports/STM32/LLD/OTGv1/hal_usb_lld.h"
 773              		.file 54 "../../modules/ChibiOS/os/hal/ports/STM32/LLD/OTGv1/stm32_otg.h"
 774              		.file 55 "/opt/gcc-arm-none-eabi-6-2017-q2-update/arm-none-eabi/include/string.h"
 775              		.file 56 "../../libraries/AP_HAL_ChibiOS/hwdef/common/stm32_util.h"
 776              		.file 57 "../../modules/ChibiOS/os/rt/include/chdynamic.h"