ARM GAS  /tmp/ccyJgSHh.s 			page 1


   1              		.cpu cortex-m7
   2              		.eabi_attribute 27, 1
   3              		.eabi_attribute 28, 1
   4              		.eabi_attribute 20, 1
   5              		.eabi_attribute 21, 1
   6              		.eabi_attribute 23, 3
   7              		.eabi_attribute 24, 1
   8              		.eabi_attribute 25, 1
   9              		.eabi_attribute 26, 1
  10              		.eabi_attribute 30, 4
  11              		.eabi_attribute 34, 1
  12              		.eabi_attribute 18, 4
  13              		.file	"nvic.c"
  14              		.text
  15              	.Ltext0:
  16              		.cfi_sections	.debug_frame
  17              		.section	.text.nvicEnableVector,"ax",%progbits
  18              		.align	1
  19              		.global	nvicEnableVector
  20              		.syntax unified
  21              		.thumb
  22              		.thumb_func
  23              		.fpu fpv4-sp-d16
  24              		.type	nvicEnableVector, %function
  25              	nvicEnableVector:
  26              	.LFB334:
  27              		.file 1 "../../modules/ChibiOS/os/hal/ports/common/ARMCMx/nvic.c"
  28              		.loc 1 57 0
  29              		.cfi_startproc
  30              		@ args = 0, pretend = 0, frame = 0
  31              		@ frame_needed = 0, uses_anonymous_args = 0
  32              		@ link register save eliminated.
  33              	.LVL0:
  34              		.loc 1 63 0
  35 0000 00F16043 		add	r3, r0, #-536870912
  36              		.loc 1 65 0
  37 0004 00F01F02 		and	r2, r0, #31
  38              		.loc 1 63 0
  39 0008 0901     		lsls	r1, r1, #4
  40              	.LVL1:
  41              		.loc 1 65 0
  42 000a 4009     		lsrs	r0, r0, #5
  43              	.LVL2:
  44              		.loc 1 63 0
  45 000c 03F56143 		add	r3, r3, #57600
  46              	.LVL3:
  47 0010 C9B2     		uxtb	r1, r1
  48 0012 8000     		lsls	r0, r0, #2
  49 0014 83F80013 		strb	r1, [r3, #768]
  50              		.loc 1 65 0
  51 0018 0123     		movs	r3, #1
  52              	.LVL4:
  53 001a 00F16040 		add	r0, r0, #-536870912
  54 001e 9340     		lsls	r3, r3, r2
  55 0020 00F56140 		add	r0, r0, #57600
  56 0024 C0F88031 		str	r3, [r0, #384]
  57              		.loc 1 66 0
ARM GAS  /tmp/ccyJgSHh.s 			page 2


  58 0028 0360     		str	r3, [r0]
  59 002a 7047     		bx	lr
  60              		.cfi_endproc
  61              	.LFE334:
  62              		.size	nvicEnableVector, .-nvicEnableVector
  63              		.section	.text.nvicDisableVector,"ax",%progbits
  64              		.align	1
  65              		.global	nvicDisableVector
  66              		.syntax unified
  67              		.thumb
  68              		.thumb_func
  69              		.fpu fpv4-sp-d16
  70              		.type	nvicDisableVector, %function
  71              	nvicDisableVector:
  72              	.LFB335:
  73              		.loc 1 74 0
  74              		.cfi_startproc
  75              		@ args = 0, pretend = 0, frame = 0
  76              		@ frame_needed = 0, uses_anonymous_args = 0
  77              		@ link register save eliminated.
  78              	.LVL5:
  79              		.loc 1 76 0
  80 0000 00F01F03 		and	r3, r0, #31
  81 0004 4209     		lsrs	r2, r0, #5
  82 0006 0121     		movs	r1, #1
  83 0008 2032     		adds	r2, r2, #32
  84 000a 9940     		lsls	r1, r1, r3
  85 000c 034B     		ldr	r3, .L3
  86 000e 43F82210 		str	r1, [r3, r2, lsl #2]
  87              		.loc 1 80 0
  88 0012 0344     		add	r3, r3, r0
  89 0014 0022     		movs	r2, #0
  90 0016 83F80023 		strb	r2, [r3, #768]
  91 001a 7047     		bx	lr
  92              	.L4:
  93              		.align	2
  94              	.L3:
  95 001c 00E100E0 		.word	-536813312
  96              		.cfi_endproc
  97              	.LFE335:
  98              		.size	nvicDisableVector, .-nvicDisableVector
  99              		.section	.text.nvicSetSystemHandlerPriority,"ax",%progbits
 100              		.align	1
 101              		.global	nvicSetSystemHandlerPriority
 102              		.syntax unified
 103              		.thumb
 104              		.thumb_func
 105              		.fpu fpv4-sp-d16
 106              		.type	nvicSetSystemHandlerPriority, %function
 107              	nvicSetSystemHandlerPriority:
 108              	.LFB336:
 109              		.loc 1 90 0
 110              		.cfi_startproc
 111              		@ args = 0, pretend = 0, frame = 0
 112              		@ frame_needed = 0, uses_anonymous_args = 0
 113              		@ link register save eliminated.
 114              	.LVL6:
ARM GAS  /tmp/ccyJgSHh.s 			page 3


 115              		.loc 1 98 0
 116 0000 0901     		lsls	r1, r1, #4
 117              	.LVL7:
 118 0002 00F16040 		add	r0, r0, #-536870912
 119              	.LVL8:
 120 0006 C9B2     		uxtb	r1, r1
 121 0008 00F56D40 		add	r0, r0, #60672
 122              	.LVL9:
 123 000c 0176     		strb	r1, [r0, #24]
 124 000e 7047     		bx	lr
 125              		.cfi_endproc
 126              	.LFE336:
 127              		.size	nvicSetSystemHandlerPriority, .-nvicSetSystemHandlerPriority
 128              		.section	.text.nvicClearPending,"ax",%progbits
 129              		.align	1
 130              		.global	nvicClearPending
 131              		.syntax unified
 132              		.thumb
 133              		.thumb_func
 134              		.fpu fpv4-sp-d16
 135              		.type	nvicClearPending, %function
 136              	nvicClearPending:
 137              	.LFB337:
 138              		.loc 1 109 0
 139              		.cfi_startproc
 140              		@ args = 0, pretend = 0, frame = 0
 141              		@ frame_needed = 0, uses_anonymous_args = 0
 142              		@ link register save eliminated.
 143              	.LVL10:
 144              		.loc 1 111 0
 145 0000 4309     		lsrs	r3, r0, #5
 146 0002 0122     		movs	r2, #1
 147 0004 00F01F00 		and	r0, r0, #31
 148              	.LVL11:
 149 0008 6033     		adds	r3, r3, #96
 150 000a 02FA00F0 		lsl	r0, r2, r0
 151 000e 024A     		ldr	r2, .L7
 152 0010 42F82300 		str	r0, [r2, r3, lsl #2]
 153 0014 7047     		bx	lr
 154              	.L8:
 155 0016 00BF     		.align	2
 156              	.L7:
 157 0018 00E100E0 		.word	-536813312
 158              		.cfi_endproc
 159              	.LFE337:
 160              		.size	nvicClearPending, .-nvicClearPending
 161              		.text
 162              	.Letext0:
 163              		.file 2 "/opt/gcc-arm-none-eabi-6-2017-q2-update/lib/gcc/arm-none-eabi/6.3.1/include/stddef.h"
 164              		.file 3 "/opt/gcc-arm-none-eabi-6-2017-q2-update/arm-none-eabi/include/machine/_default_types.h"
 165              		.file 4 "/opt/gcc-arm-none-eabi-6-2017-q2-update/arm-none-eabi/include/sys/_stdint.h"
 166              		.file 5 "/opt/gcc-arm-none-eabi-6-2017-q2-update/arm-none-eabi/include/stdint.h"
 167              		.file 6 "../../modules/ChibiOS/os/common/ports/ARMCMx/compilers/GCC/chtypes.h"
 168              		.file 7 "../../modules/ChibiOS/os/rt/include/chsystypes.h"
 169              		.file 8 "../../modules/ChibiOS/os/rt/include/chschd.h"
 170              		.file 9 "../../modules/ChibiOS/os/rt/include/chtime.h"
 171              		.file 10 "../../modules/ChibiOS/os/common/ext/ARM/CMSIS/Core/Include/core_cm7.h"
ARM GAS  /tmp/ccyJgSHh.s 			page 4


 172              		.file 11 "../../modules/ChibiOS/os/common/ext/ST/STM32F7xx/system_stm32f7xx.h"
 173              		.file 12 "../../modules/ChibiOS/os/common/ext/ST/STM32F7xx/stm32f767xx.h"
 174              		.file 13 "../../modules/ChibiOS/os/common/ports/ARMCMx/chcore.h"
 175              		.file 14 "../../modules/ChibiOS/os/common/ports/ARMCMx/chcore_v7m.h"
 176              		.file 15 "../../modules/ChibiOS/os/hal/ports/STM32/LLD/TIMv1/stm32_tim.h"
 177              		.file 16 "../../modules/ChibiOS/os/rt/include/chtm.h"
 178              		.file 17 "../../modules/ChibiOS/os/rt/include/chstats.h"
 179              		.file 18 "../../modules/ChibiOS/os/rt/include/chsem.h"
 180              		.file 19 "../../modules/ChibiOS/os/rt/include/chmtx.h"
 181              		.file 20 "../../modules/ChibiOS/os/rt/include/chsys.h"
 182              		.file 21 "../../modules/ChibiOS/os/rt/include/chregistry.h"
 183              		.file 22 "../../modules/ChibiOS/os/rt/include/chevents.h"
 184              		.file 23 "../../modules/ChibiOS/os/oslib/include/chmemcore.h"
 185              		.file 24 "../../modules/ChibiOS/os/oslib/include/chmempools.h"
 186              		.file 25 "../../modules/ChibiOS/os/oslib/include/chfactory.h"
 187              		.file 26 "../../modules/ChibiOS/os/hal/ports/STM32/LLD/DMAv2/stm32_dma.h"
 188              		.file 27 "../../modules/ChibiOS/os/hal/include/hal_ioblock.h"
 189              		.file 28 "../../modules/ChibiOS/os/hal/include/hal_queues.h"
 190              		.file 29 "../../modules/ChibiOS/os/hal/include/hal_pal.h"
 191              		.file 30 "../../modules/ChibiOS/os/hal/ports/STM32/LLD/GPIOv2/stm32_gpio.h"
 192              		.file 31 "../../modules/ChibiOS/os/hal/ports/STM32/LLD/GPIOv2/hal_pal_lld.h"
 193              		.file 32 "../../modules/ChibiOS/os/hal/include/hal_adc.h"
 194              		.file 33 "../../modules/ChibiOS/os/hal/ports/STM32/LLD/ADCv2/hal_adc_lld.h"
 195              		.file 34 "../../modules/ChibiOS/os/hal/include/hal_i2c.h"
 196              		.file 35 "../../modules/ChibiOS/os/hal/ports/STM32/LLD/I2Cv2/hal_i2c_lld.h"
 197              		.file 36 "../../modules/ChibiOS/os/hal/include/hal_pwm.h"
 198              		.file 37 "../../modules/ChibiOS/os/hal/ports/STM32/LLD/TIMv1/hal_pwm_lld.h"
 199              		.file 38 "../../modules/ChibiOS/os/hal/include/hal_serial.h"
 200              		.file 39 "../../modules/ChibiOS/os/hal/ports/STM32/LLD/USARTv2/hal_serial_lld.h"
 201              		.file 40 "../../modules/ChibiOS/os/hal/include/hal_sdc.h"
 202              		.file 41 "../../modules/ChibiOS/os/hal/ports/STM32/LLD/SDMMCv1/hal_sdc_lld.h"
 203              		.file 42 "../../modules/ChibiOS/os/hal/include/hal_spi.h"
 204              		.file 43 "../../modules/ChibiOS/os/hal/ports/STM32/LLD/SPIv2/hal_spi_lld.h"
 205              		.file 44 "../../modules/ChibiOS/os/hal/include/hal_usb.h"
 206              		.file 45 "../../modules/ChibiOS/os/hal/ports/STM32/LLD/OTGv1/hal_usb_lld.h"
 207              		.file 46 "../../modules/ChibiOS/os/hal/ports/STM32/LLD/OTGv1/stm32_otg.h"