ARM GAS  /tmp/ccCvj4FY.s 			page 1


   1              		.cpu cortex-m7
   2              		.eabi_attribute 27, 1
   3              		.eabi_attribute 28, 1
   4              		.eabi_attribute 20, 1
   5              		.eabi_attribute 21, 1
   6              		.eabi_attribute 23, 3
   7              		.eabi_attribute 24, 1
   8              		.eabi_attribute 25, 1
   9              		.eabi_attribute 26, 1
  10              		.eabi_attribute 30, 4
  11              		.eabi_attribute 34, 1
  12              		.eabi_attribute 18, 4
  13              		.file	"stm32_util.c"
  14              		.text
  15              	.Ltext0:
  16              		.cfi_sections	.debug_frame
  17              		.section	.text.stm32_timer_set_input_filter,"ax",%progbits
  18              		.align	1
  19              		.global	stm32_timer_set_input_filter
  20              		.syntax unified
  21              		.thumb
  22              		.thumb_func
  23              		.fpu fpv4-sp-d16
  24              		.type	stm32_timer_set_input_filter, %function
  25              	stm32_timer_set_input_filter:
  26              	.LFB334:
  27              		.file 1 "../../libraries/AP_HAL_ChibiOS/hwdef/common/stm32_util.c"
  28              		.loc 1 29 0
  29              		.cfi_startproc
  30              		@ args = 0, pretend = 0, frame = 0
  31              		@ frame_needed = 0, uses_anonymous_args = 0
  32              		@ link register save eliminated.
  33              	.LVL0:
  34              		.loc 1 30 0
  35 0000 0329     		cmp	r1, #3
  36 0002 10D8     		bhi	.L1
  37 0004 DFE801F0 		tbb	[pc, r1]
  38              	.L4:
  39 0008 02       		.byte	(.L3-.L4)/2
  40 0009 07       		.byte	(.L5-.L4)/2
  41 000a 0B       		.byte	(.L6-.L4)/2
  42 000b 10       		.byte	(.L7-.L4)/2
  43              		.p2align 1
  44              	.L3:
  45              		.loc 1 32 0
  46 000c 8369     		ldr	r3, [r0, #24]
  47 000e 43EA0212 		orr	r2, r3, r2, lsl #4
  48              	.LVL1:
  49              	.L8:
  50              		.loc 1 35 0
  51 0012 8261     		str	r2, [r0, #24]
  52              		.loc 1 36 0
  53 0014 7047     		bx	lr
  54              	.LVL2:
  55              	.L5:
  56              		.loc 1 35 0
  57 0016 8369     		ldr	r3, [r0, #24]
ARM GAS  /tmp/ccCvj4FY.s 			page 2


  58 0018 43EA0232 		orr	r2, r3, r2, lsl #12
  59              	.LVL3:
  60 001c F9E7     		b	.L8
  61              	.LVL4:
  62              	.L6:
  63              		.loc 1 38 0
  64 001e C369     		ldr	r3, [r0, #28]
  65 0020 43EA0212 		orr	r2, r3, r2, lsl #4
  66              	.LVL5:
  67              	.L9:
  68              		.loc 1 41 0
  69 0024 C261     		str	r2, [r0, #28]
  70              	.L1:
  71 0026 7047     		bx	lr
  72              	.LVL6:
  73              	.L7:
  74 0028 C369     		ldr	r3, [r0, #28]
  75 002a 43EA0232 		orr	r2, r3, r2, lsl #12
  76              	.LVL7:
  77 002e F9E7     		b	.L9
  78              		.cfi_endproc
  79              	.LFE334:
  80              		.size	stm32_timer_set_input_filter, .-stm32_timer_set_input_filter
  81              		.section	.text.stm32_timer_set_channel_input,"ax",%progbits
  82              		.align	1
  83              		.global	stm32_timer_set_channel_input
  84              		.syntax unified
  85              		.thumb
  86              		.thumb_func
  87              		.fpu fpv4-sp-d16
  88              		.type	stm32_timer_set_channel_input, %function
  89              	stm32_timer_set_channel_input:
  90              	.LFB335:
  91              		.loc 1 50 0
  92              		.cfi_startproc
  93              		@ args = 0, pretend = 0, frame = 0
  94              		@ frame_needed = 0, uses_anonymous_args = 0
  95              		@ link register save eliminated.
  96              	.LVL8:
  97              		.loc 1 51 0
  98 0000 0329     		cmp	r1, #3
  99 0002 12D8     		bhi	.L10
 100 0004 DFE801F0 		tbb	[pc, r1]
 101              	.L13:
 102 0008 02       		.byte	(.L12-.L13)/2
 103 0009 12       		.byte	(.L14-.L13)/2
 104 000a 22       		.byte	(.L15-.L13)/2
 105 000b 31       		.byte	(.L16-.L13)/2
 106              		.p2align 1
 107              	.L12:
 108              		.loc 1 53 0
 109 000c 036A     		ldr	r3, [r0, #32]
 110 000e 23F00103 		bic	r3, r3, #1
 111 0012 0362     		str	r3, [r0, #32]
 112              		.loc 1 54 0
 113 0014 8369     		ldr	r3, [r0, #24]
 114 0016 23F00303 		bic	r3, r3, #3
ARM GAS  /tmp/ccCvj4FY.s 			page 3


 115 001a 8361     		str	r3, [r0, #24]
 116              		.loc 1 55 0
 117 001c 8369     		ldr	r3, [r0, #24]
 118 001e 1A43     		orrs	r2, r2, r3
 119              	.LVL9:
 120 0020 8261     		str	r2, [r0, #24]
 121              		.loc 1 56 0
 122 0022 036A     		ldr	r3, [r0, #32]
 123 0024 43F00103 		orr	r3, r3, #1
 124              	.L17:
 125              		.loc 1 74 0
 126 0028 0362     		str	r3, [r0, #32]
 127              	.L10:
 128 002a 7047     		bx	lr
 129              	.LVL10:
 130              	.L14:
 131              		.loc 1 59 0
 132 002c 036A     		ldr	r3, [r0, #32]
 133 002e 23F01003 		bic	r3, r3, #16
 134 0032 0362     		str	r3, [r0, #32]
 135              		.loc 1 60 0
 136 0034 8369     		ldr	r3, [r0, #24]
 137 0036 23F44073 		bic	r3, r3, #768
 138 003a 8361     		str	r3, [r0, #24]
 139              		.loc 1 61 0
 140 003c 8369     		ldr	r3, [r0, #24]
 141 003e 43EA0222 		orr	r2, r3, r2, lsl #8
 142              	.LVL11:
 143 0042 8261     		str	r2, [r0, #24]
 144              		.loc 1 62 0
 145 0044 036A     		ldr	r3, [r0, #32]
 146 0046 43F01003 		orr	r3, r3, #16
 147 004a EDE7     		b	.L17
 148              	.LVL12:
 149              	.L15:
 150              		.loc 1 65 0
 151 004c 036A     		ldr	r3, [r0, #32]
 152 004e 23F48073 		bic	r3, r3, #256
 153 0052 0362     		str	r3, [r0, #32]
 154              		.loc 1 66 0
 155 0054 C369     		ldr	r3, [r0, #28]
 156 0056 23F00303 		bic	r3, r3, #3
 157 005a C361     		str	r3, [r0, #28]
 158              		.loc 1 67 0
 159 005c C369     		ldr	r3, [r0, #28]
 160 005e 1A43     		orrs	r2, r2, r3
 161              	.LVL13:
 162 0060 C261     		str	r2, [r0, #28]
 163              		.loc 1 68 0
 164 0062 036A     		ldr	r3, [r0, #32]
 165 0064 43F48073 		orr	r3, r3, #256
 166 0068 DEE7     		b	.L17
 167              	.LVL14:
 168              	.L16:
 169              		.loc 1 71 0
 170 006a 036A     		ldr	r3, [r0, #32]
 171 006c 23F48053 		bic	r3, r3, #4096
ARM GAS  /tmp/ccCvj4FY.s 			page 4


 172 0070 0362     		str	r3, [r0, #32]
 173              		.loc 1 72 0
 174 0072 C369     		ldr	r3, [r0, #28]
 175 0074 23F44073 		bic	r3, r3, #768
 176 0078 C361     		str	r3, [r0, #28]
 177              		.loc 1 73 0
 178 007a C369     		ldr	r3, [r0, #28]
 179 007c 43EA0222 		orr	r2, r3, r2, lsl #8
 180              	.LVL15:
 181 0080 C261     		str	r2, [r0, #28]
 182              		.loc 1 74 0
 183 0082 036A     		ldr	r3, [r0, #32]
 184 0084 43F48053 		orr	r3, r3, #4096
 185 0088 CEE7     		b	.L17
 186              		.cfi_endproc
 187              	.LFE335:
 188              		.size	stm32_timer_set_channel_input, .-stm32_timer_set_channel_input
 189              		.section	.text.show_stack_usage,"ax",%progbits
 190              		.align	1
 191              		.global	show_stack_usage
 192              		.syntax unified
 193              		.thumb
 194              		.thumb_func
 195              		.fpu fpv4-sp-d16
 196              		.type	show_stack_usage, %function
 197              	show_stack_usage:
 198              	.LFB336:
 199              		.loc 1 81 0
 200              		.cfi_startproc
 201              		@ args = 0, pretend = 0, frame = 0
 202              		@ frame_needed = 0, uses_anonymous_args = 0
 203 0000 38B5     		push	{r3, r4, r5, lr}
 204              		.cfi_def_cfa_offset 16
 205              		.cfi_offset 3, -16
 206              		.cfi_offset 4, -12
 207              		.cfi_offset 5, -8
 208              		.cfi_offset 14, -4
 209              		.loc 1 84 0
 210 0002 FFF7FEFF 		bl	chRegFirstThread
 211              	.LVL16:
 212              	.LBB24:
 213              		.loc 1 92 0
 214 0006 0B4D     		ldr	r5, .L23
 215              	.LBE24:
 216              		.loc 1 84 0
 217 0008 0446     		mov	r4, r0
 218              	.LVL17:
 219              	.L20:
 220              	.LBB25:
 221              		.loc 1 86 0
 222 000a E269     		ldr	r2, [r4, #28]
 223              	.LVL18:
 224              		.loc 1 88 0
 225 000c 1346     		mov	r3, r2
 226              	.LVL19:
 227              	.L19:
 228 000e 1978     		ldrb	r1, [r3]	@ zero_extendqisi2
ARM GAS  /tmp/ccCvj4FY.s 			page 5


 229 0010 581C     		adds	r0, r3, #1
 230 0012 5529     		cmp	r1, #85
 231 0014 0BD0     		beq	.L21
 232              	.LVL20:
 233              		.loc 1 92 0
 234 0016 A169     		ldr	r1, [r4, #24]
 235 0018 9A1A     		subs	r2, r3, r2
 236              	.LVL21:
 237 001a 2846     		mov	r0, r5
 238 001c FFF7FEFF 		bl	printf
 239              	.LVL22:
 240              		.loc 1 93 0
 241 0020 2046     		mov	r0, r4
 242 0022 FFF7FEFF 		bl	chRegNextThread
 243              	.LVL23:
 244              	.LBE25:
 245              		.loc 1 94 0
 246 0026 0446     		mov	r4, r0
 247 0028 0028     		cmp	r0, #0
 248 002a EED1     		bne	.L20
 249              		.loc 1 95 0
 250 002c 38BD     		pop	{r3, r4, r5, pc}
 251              	.LVL24:
 252              	.L21:
 253              	.LBB26:
 254 002e 0346     		mov	r3, r0
 255              	.LVL25:
 256 0030 EDE7     		b	.L19
 257              	.L24:
 258 0032 00BF     		.align	2
 259              	.L23:
 260 0034 00000000 		.word	.LC0
 261              	.LBE26:
 262              		.cfi_endproc
 263              	.LFE336:
 264              		.size	show_stack_usage, .-show_stack_usage
 265              		.section	.text.stm32_set_utc_usec,"ax",%progbits
 266              		.align	1
 267              		.global	stm32_set_utc_usec
 268              		.syntax unified
 269              		.thumb
 270              		.thumb_func
 271              		.fpu fpv4-sp-d16
 272              		.type	stm32_set_utc_usec, %function
 273              	stm32_set_utc_usec:
 274              	.LFB337:
 275              		.loc 1 102 0
 276              		.cfi_startproc
 277              		@ args = 0, pretend = 0, frame = 0
 278              		@ frame_needed = 0, uses_anonymous_args = 0
 279              	.LVL26:
 280 0000 38B5     		push	{r3, r4, r5, lr}
 281              		.cfi_def_cfa_offset 16
 282              		.cfi_offset 3, -16
 283              		.cfi_offset 4, -12
 284              		.cfi_offset 5, -8
 285              		.cfi_offset 14, -4
ARM GAS  /tmp/ccCvj4FY.s 			page 6


 286              		.loc 1 102 0
 287 0002 0D46     		mov	r5, r1
 288 0004 0446     		mov	r4, r0
 289              		.loc 1 103 0
 290 0006 FFF7FEFF 		bl	hrt_micros64
 291              	.LVL27:
 292              		.loc 1 104 0
 293 000a 8D42     		cmp	r5, r1
 294 000c 08BF     		it	eq
 295 000e 8442     		cmpeq	r4, r0
 296 0010 05D3     		bcc	.L25
 297              		.loc 1 105 0
 298 0012 241A     		subs	r4, r4, r0
 299 0014 024B     		ldr	r3, .L27
 300 0016 65EB0105 		sbc	r5, r5, r1
 301 001a C3E90045 		strd	r4, [r3]
 302              	.L25:
 303 001e 38BD     		pop	{r3, r4, r5, pc}
 304              	.L28:
 305              		.align	2
 306              	.L27:
 307 0020 00000000 		.word	.LANCHOR0
 308              		.cfi_endproc
 309              	.LFE337:
 310              		.size	stm32_set_utc_usec, .-stm32_set_utc_usec
 311              		.section	.text.stm32_get_utc_usec,"ax",%progbits
 312              		.align	1
 313              		.global	stm32_get_utc_usec
 314              		.syntax unified
 315              		.thumb
 316              		.thumb_func
 317              		.fpu fpv4-sp-d16
 318              		.type	stm32_get_utc_usec, %function
 319              	stm32_get_utc_usec:
 320              	.LFB338:
 321              		.loc 1 113 0
 322              		.cfi_startproc
 323              		@ args = 0, pretend = 0, frame = 0
 324              		@ frame_needed = 0, uses_anonymous_args = 0
 325 0000 08B5     		push	{r3, lr}
 326              		.cfi_def_cfa_offset 8
 327              		.cfi_offset 3, -8
 328              		.cfi_offset 14, -4
 329              		.loc 1 114 0
 330 0002 FFF7FEFF 		bl	hrt_micros64
 331              	.LVL28:
 332 0006 034B     		ldr	r3, .L30
 333 0008 D3E90023 		ldrd	r2, [r3]
 334              		.loc 1 115 0
 335 000c 8018     		adds	r0, r0, r2
 336 000e 5941     		adcs	r1, r1, r3
 337 0010 08BD     		pop	{r3, pc}
 338              	.L31:
 339 0012 00BF     		.align	2
 340              	.L30:
 341 0014 00000000 		.word	.LANCHOR0
 342              		.cfi_endproc
ARM GAS  /tmp/ccCvj4FY.s 			page 7


 343              	.LFE338:
 344              		.size	stm32_get_utc_usec, .-stm32_get_utc_usec
 345              		.global	__aeabi_uldivmod
 346              		.section	.text.get_fattime,"ax",%progbits
 347              		.align	1
 348              		.global	get_fattime
 349              		.syntax unified
 350              		.thumb
 351              		.thumb_func
 352              		.fpu fpv4-sp-d16
 353              		.type	get_fattime, %function
 354              	get_fattime:
 355              	.LFB341:
 356              		.loc 1 189 0
 357              		.cfi_startproc
 358              		@ args = 0, pretend = 0, frame = 8
 359              		@ frame_needed = 0, uses_anonymous_args = 0
 360              		.loc 1 190 0
 361 0000 494B     		ldr	r3, .L52
 362              		.loc 1 189 0
 363 0002 2DE9F743 		push	{r0, r1, r2, r4, r5, r6, r7, r8, r9, lr}
 364              		.cfi_def_cfa_offset 40
 365              		.cfi_offset 4, -28
 366              		.cfi_offset 5, -24
 367              		.cfi_offset 6, -20
 368              		.cfi_offset 7, -16
 369              		.cfi_offset 8, -12
 370              		.cfi_offset 9, -8
 371              		.cfi_offset 14, -4
 372              		.loc 1 190 0
 373 0006 D3E90023 		ldrd	r2, [r3]
 374 000a 1343     		orrs	r3, r2, r3
 375 000c 00F08880 		beq	.L42
 376              		.loc 1 194 0
 377 0010 FFF7FEFF 		bl	stm32_get_utc_usec
 378              	.LVL29:
 379              		.loc 1 195 0
 380 0014 454A     		ldr	r2, .L52+4
 381              		.loc 1 194 0
 382 0016 0646     		mov	r6, r0
 383 0018 0F46     		mov	r7, r1
 384              	.LVL30:
 385              		.loc 1 195 0
 386 001a 0023     		movs	r3, #0
 387 001c FFF7FEFF 		bl	__aeabi_uldivmod
 388              	.LVL31:
 389              	.LBB33:
 390              	.LBB34:
 391              		.loc 1 146 0
 392 0020 434A     		ldr	r2, .L52+8
 393 0022 0023     		movs	r3, #0
 394 0024 FFF7FEFF 		bl	__aeabi_uldivmod
 395              	.LVL32:
 396              		.loc 1 147 0
 397 0028 1423     		movs	r3, #20
 398              		.loc 1 146 0
 399 002a 1446     		mov	r4, r2
ARM GAS  /tmp/ccCvj4FY.s 			page 8


 400              	.LVL33:
 401              		.loc 1 147 0
 402 002c 3046     		mov	r0, r6
 403 002e 414A     		ldr	r2, .L52+12
 404              	.LVL34:
 405 0030 3946     		mov	r1, r7
 406 0032 FFF7FEFF 		bl	__aeabi_uldivmod
 407              	.LVL35:
 408              		.loc 1 151 0
 409 0036 3C23     		movs	r3, #60
 410              		.loc 1 152 0
 411 0038 4FF46162 		mov	r2, #3600
 412              		.loc 1 149 0
 413 003c 0026     		movs	r6, #0
 414              	.LVL36:
 415              		.loc 1 151 0
 416 003e B4FBF3F1 		udiv	r1, r4, r3
 417              		.loc 1 152 0
 418 0042 B4FBF2F5 		udiv	r5, r4, r2
 419              		.loc 1 151 0
 420 0046 03FB1141 		mls	r1, r3, r1, r4
 421              		.loc 1 152 0
 422 004a 02FB1542 		mls	r2, r2, r5, r4
 423              		.loc 1 156 0
 424 004e 3A4C     		ldr	r4, .L52+16
 425              	.LVL37:
 426              		.loc 1 149 0
 427 0050 0096     		str	r6, [sp]
 428              		.loc 1 151 0
 429 0052 C9B2     		uxtb	r1, r1
 430              		.loc 1 156 0
 431 0054 A042     		cmp	r0, r4
 432              		.loc 1 152 0
 433 0056 B2FBF3F2 		udiv	r2, r2, r3
 434              		.loc 1 154 0
 435 005a 4FF04603 		mov	r3, #70
 436 005e 8DF80030 		strb	r3, [sp]
 437              		.loc 1 156 0
 438 0062 47D8     		bhi	.L34
 439              	.LBB35:
 440              		.loc 1 162 0
 441 0064 40F26D19 		movw	r9, #365
 442              	.LBB36:
 443              	.LBB37:
 444              		.loc 1 133 0
 445 0068 4FF0640C 		mov	ip, #100
 446 006c 4FF4C878 		mov	r8, #400
 447              	.L37:
 448              	.LVL38:
 449              		.loc 1 132 0
 450 0070 03F26C74 		addw	r4, r3, #1900
 451              	.LVL39:
 452              		.loc 1 133 0
 453 0074 A707     		lsls	r7, r4, #30
 454 0076 19D1     		bne	.L43
 455 0078 B4FBFCF7 		udiv	r7, r4, ip
 456 007c 0CFB1747 		mls	r7, ip, r7, r4
ARM GAS  /tmp/ccCvj4FY.s 			page 9


 457 0080 C7B9     		cbnz	r7, .L44
 458 0082 B4FBF8F7 		udiv	r7, r4, r8
 459 0086 08FB1744 		mls	r4, r8, r7, r4
 460              	.LVL40:
 461 008a 002C     		cmp	r4, #0
 462 008c 15BF     		itete	ne
 463 008e 0024     		movne	r4, #0
 464 0090 0124     		moveq	r4, #1
 465 0092 4F46     		movne	r7, r9
 466 0094 4FF4B777 		moveq	r7, #366
 467              	.L35:
 468              	.LVL41:
 469 0098 03F1010E 		add	lr, r3, #1
 470              	.LBE37:
 471              	.LBE36:
 472              		.loc 1 163 0
 473 009c B842     		cmp	r0, r7
 474 009e 5FFA8EFE 		uxtb	lr, lr
 475 00a2 0BD3     		bcc	.L36
 476              		.loc 1 167 0
 477 00a4 C01B     		subs	r0, r0, r7
 478              	.LVL42:
 479 00a6 0126     		movs	r6, #1
 480 00a8 7346     		mov	r3, lr
 481              	.LVL43:
 482 00aa E1E7     		b	.L37
 483              	.LVL44:
 484              	.L43:
 485              	.LBB40:
 486              	.LBB38:
 487              		.loc 1 133 0
 488 00ac 0024     		movs	r4, #0
 489              	.LVL45:
 490              	.LBE38:
 491              	.LBE40:
 492              		.loc 1 162 0
 493 00ae 40F26D17 		movw	r7, #365
 494 00b2 F1E7     		b	.L35
 495              	.LVL46:
 496              	.L44:
 497              	.LBB41:
 498              	.LBB39:
 499              		.loc 1 133 0
 500 00b4 0124     		movs	r4, #1
 501              	.LVL47:
 502              	.LBE39:
 503              	.LBE41:
 504              		.loc 1 162 0
 505 00b6 4FF4B777 		mov	r7, #366
 506 00ba EDE7     		b	.L35
 507              	.LVL48:
 508              	.L36:
 509 00bc 0EB1     		cbz	r6, .L38
 510 00be 8DF80030 		strb	r3, [sp]
 511              	.L38:
 512              	.LBE35:
 513              	.LBB42:
ARM GAS  /tmp/ccCvj4FY.s 			page 10


 514              		.loc 1 172 0
 515 00c2 4FF00C0E 		mov	lr, #12
 516 00c6 1D4E     		ldr	r6, .L52+20
 517 00c8 9DF80130 		ldrb	r3, [sp, #1]	@ zero_extendqisi2
 518              	.LVL49:
 519              	.LBE42:
 520              	.LBB43:
 521              		.loc 1 162 0
 522 00cc 0027     		movs	r7, #0
 523              	.LVL50:
 524              	.LBE43:
 525              	.LBB44:
 526              		.loc 1 172 0
 527 00ce 0EFB0464 		mla	r4, lr, r4, r6
 528              	.L40:
 529 00d2 14F803E0 		ldrb	lr, [r4, r3]	@ zero_extendqisi2
 530              	.LVL51:
 531 00d6 5E1C     		adds	r6, r3, #1
 532              		.loc 1 173 0
 533 00d8 8645     		cmp	lr, r0
 534 00da F6B2     		uxtb	r6, r6
 535 00dc 04D8     		bhi	.L39
 536              		.loc 1 176 0
 537 00de A0EB0E00 		sub	r0, r0, lr
 538              	.LVL52:
 539 00e2 0127     		movs	r7, #1
 540 00e4 3346     		mov	r3, r6
 541 00e6 F4E7     		b	.L40
 542              	.L39:
 543 00e8 0FB1     		cbz	r7, .L41
 544 00ea 8DF80130 		strb	r3, [sp, #1]
 545              	.L41:
 546              	.LBE44:
 547              		.loc 1 179 0
 548 00ee 431C     		adds	r3, r0, #1
 549 00f0 8DF80230 		strb	r3, [sp, #2]
 550              	.LVL53:
 551              	.L34:
 552              	.LBE34:
 553              	.LBE33:
 554              		.loc 1 206 0
 555 00f4 9DF80100 		ldrb	r0, [sp, #1]	@ zero_extendqisi2
 556 00f8 431C     		adds	r3, r0, #1
 557              		.loc 1 207 0
 558 00fa 9DF80000 		ldrb	r0, [sp]	@ zero_extendqisi2
 559 00fe 5038     		subs	r0, r0, #80
 560 0100 4006     		lsls	r0, r0, #25
 561 0102 40EA4350 		orr	r0, r0, r3, lsl #21
 562              		.loc 1 205 0
 563 0106 9DF80230 		ldrb	r3, [sp, #2]	@ zero_extendqisi2
 564 010a 40EA0340 		orr	r0, r0, r3, lsl #16
 565 010e 40EA5100 		orr	r0, r0, r1, lsr #1
 566 0112 40EAC520 		orr	r0, r0, r5, lsl #11
 567              		.loc 1 207 0
 568 0116 40EA4210 		orr	r0, r0, r2, lsl #5
 569              	.LVL54:
 570              	.L32:
ARM GAS  /tmp/ccCvj4FY.s 			page 11


 571              		.loc 1 210 0
 572 011a 03B0     		add	sp, sp, #12
 573              		.cfi_remember_state
 574              		.cfi_def_cfa_offset 28
 575              		@ sp needed
 576 011c BDE8F083 		pop	{r4, r5, r6, r7, r8, r9, pc}
 577              	.L42:
 578              		.cfi_restore_state
 579              		.loc 1 192 0
 580 0120 4FF40410 		mov	r0, #2162688
 581 0124 F9E7     		b	.L32
 582              	.L53:
 583 0126 00BF     		.align	2
 584              	.L52:
 585 0128 00000000 		.word	.LANCHOR0
 586 012c 40420F00 		.word	1000000
 587 0130 80510100 		.word	86400
 588 0134 0060D71D 		.word	500654080
 589 0138 90230B00 		.word	730000
 590 013c 00000000 		.word	.LANCHOR1
 591              		.cfi_endproc
 592              	.LFE341:
 593              		.size	get_fattime, .-get_fattime
 594              		.section	.text.get_rtc_backup,"ax",%progbits
 595              		.align	1
 596              		.global	get_rtc_backup
 597              		.syntax unified
 598              		.thumb
 599              		.thumb_func
 600              		.fpu fpv4-sp-d16
 601              		.type	get_rtc_backup, %function
 602              	get_rtc_backup:
 603              	.LFB342:
 604              		.loc 1 216 0
 605              		.cfi_startproc
 606              		@ args = 0, pretend = 0, frame = 0
 607              		@ frame_needed = 0, uses_anonymous_args = 0
 608              	.LVL55:
 609 0000 0244     		add	r2, r2, r0
 610              	.LVL56:
 611 0002 0439     		subs	r1, r1, #4
 612              	.LVL57:
 613              		.loc 1 222 0
 614 0004 064B     		ldr	r3, .L57
 615 0006 D2B2     		uxtb	r2, r2
 616              		.loc 1 216 0
 617 0008 10B5     		push	{r4, lr}
 618              		.cfi_def_cfa_offset 8
 619              		.cfi_offset 4, -8
 620              		.cfi_offset 14, -4
 621              	.LVL58:
 622              	.L55:
 623              		.loc 1 217 0
 624 000a 9042     		cmp	r0, r2
 625 000c 00D1     		bne	.L56
 626              		.loc 1 225 0
 627 000e 10BD     		pop	{r4, pc}
ARM GAS  /tmp/ccCvj4FY.s 			page 12


 628              	.L56:
 629              	.LVL59:
 630              		.loc 1 222 0
 631 0010 441C     		adds	r4, r0, #1
 632              	.LVL60:
 633 0012 00B2     		sxth	r0, r0
 634 0014 53F82000 		ldr	r0, [r3, r0, lsl #2]
 635 0018 41F8040F 		str	r0, [r1, #4]!
 636              	.LVL61:
 637 001c E0B2     		uxtb	r0, r4
 638 001e F4E7     		b	.L55
 639              	.L58:
 640              		.align	2
 641              	.L57:
 642 0020 50280040 		.word	1073752144
 643              		.cfi_endproc
 644              	.LFE342:
 645              		.size	get_rtc_backup, .-get_rtc_backup
 646              		.section	.text.set_rtc_backup,"ax",%progbits
 647              		.align	1
 648              		.global	set_rtc_backup
 649              		.syntax unified
 650              		.thumb
 651              		.thumb_func
 652              		.fpu fpv4-sp-d16
 653              		.type	set_rtc_backup, %function
 654              	set_rtc_backup:
 655              	.LFB343:
 656              		.loc 1 229 0
 657              		.cfi_startproc
 658              		@ args = 0, pretend = 0, frame = 0
 659              		@ frame_needed = 0, uses_anonymous_args = 0
 660              	.LVL62:
 661              		.loc 1 231 0
 662 0000 104B     		ldr	r3, .L63
 663              		.loc 1 229 0
 664 0002 30B5     		push	{r4, r5, lr}
 665              		.cfi_def_cfa_offset 12
 666              		.cfi_offset 4, -12
 667              		.cfi_offset 5, -8
 668              		.cfi_offset 14, -4
 669              		.loc 1 231 0
 670 0004 1C6F     		ldr	r4, [r3, #112]
 671 0006 2404     		lsls	r4, r4, #16
 672 0008 07D4     		bmi	.L60
 673              		.loc 1 232 0
 674 000a 1C6F     		ldr	r4, [r3, #112]
 675 000c 44F40074 		orr	r4, r4, #512
 676 0010 1C67     		str	r4, [r3, #112]
 677              		.loc 1 233 0
 678 0012 1C6F     		ldr	r4, [r3, #112]
 679 0014 44F40044 		orr	r4, r4, #32768
 680 0018 1C67     		str	r4, [r3, #112]
 681              	.L60:
 682              		.loc 1 238 0
 683 001a 0B4C     		ldr	r4, .L63+4
 684 001c 0244     		add	r2, r2, r0
ARM GAS  /tmp/ccCvj4FY.s 			page 13


 685              	.LVL63:
 686 001e 0439     		subs	r1, r1, #4
 687              	.LVL64:
 688 0020 2368     		ldr	r3, [r4]
 689 0022 D2B2     		uxtb	r2, r2
 690 0024 43F48073 		orr	r3, r3, #256
 691 0028 2360     		str	r3, [r4]
 692              		.loc 1 247 0
 693 002a 084B     		ldr	r3, .L63+8
 694              	.LVL65:
 695              	.L61:
 696              		.loc 1 241 0
 697 002c 9042     		cmp	r0, r2
 698 002e 00D1     		bne	.L62
 699              		.loc 1 250 0
 700 0030 30BD     		pop	{r4, r5, pc}
 701              	.L62:
 702              		.loc 1 247 0
 703 0032 441C     		adds	r4, r0, #1
 704              	.LVL66:
 705 0034 51F8045F 		ldr	r5, [r1, #4]!
 706              	.LVL67:
 707 0038 00B2     		sxth	r0, r0
 708              	.LVL68:
 709 003a 43F82050 		str	r5, [r3, r0, lsl #2]
 710 003e E0B2     		uxtb	r0, r4
 711 0040 F4E7     		b	.L61
 712              	.L64:
 713 0042 00BF     		.align	2
 714              	.L63:
 715 0044 00380240 		.word	1073887232
 716 0048 00700040 		.word	1073770496
 717 004c 50280040 		.word	1073752144
 718              		.cfi_endproc
 719              	.LFE343:
 720              		.size	set_rtc_backup, .-set_rtc_backup
 721              		.section	.text.check_fast_reboot,"ax",%progbits
 722              		.align	1
 723              		.global	check_fast_reboot
 724              		.syntax unified
 725              		.thumb
 726              		.thumb_func
 727              		.fpu fpv4-sp-d16
 728              		.type	check_fast_reboot, %function
 729              	check_fast_reboot:
 730              	.LFB344:
 731              		.loc 1 254 0
 732              		.cfi_startproc
 733              		@ args = 0, pretend = 0, frame = 8
 734              		@ frame_needed = 0, uses_anonymous_args = 0
 735 0000 07B5     		push	{r0, r1, r2, lr}
 736              		.cfi_def_cfa_offset 16
 737              		.cfi_offset 14, -4
 738              		.loc 1 256 0
 739 0002 0122     		movs	r2, #1
 740 0004 01A9     		add	r1, sp, #4
 741 0006 0020     		movs	r0, #0
ARM GAS  /tmp/ccCvj4FY.s 			page 14


 742 0008 FFF7FEFF 		bl	get_rtc_backup
 743              	.LVL69:
 744              		.loc 1 258 0
 745 000c 0198     		ldr	r0, [sp, #4]
 746 000e 03B0     		add	sp, sp, #12
 747              		.cfi_def_cfa_offset 4
 748              		@ sp needed
 749 0010 5DF804FB 		ldr	pc, [sp], #4
 750              		.cfi_endproc
 751              	.LFE344:
 752              		.size	check_fast_reboot, .-check_fast_reboot
 753              		.section	.text.set_fast_reboot,"ax",%progbits
 754              		.align	1
 755              		.global	set_fast_reboot
 756              		.syntax unified
 757              		.thumb
 758              		.thumb_func
 759              		.fpu fpv4-sp-d16
 760              		.type	set_fast_reboot, %function
 761              	set_fast_reboot:
 762              	.LFB345:
 763              		.loc 1 262 0
 764              		.cfi_startproc
 765              		@ args = 0, pretend = 0, frame = 8
 766              		@ frame_needed = 0, uses_anonymous_args = 0
 767              	.LVL70:
 768 0000 13B5     		push	{r0, r1, r4, lr}
 769              		.cfi_def_cfa_offset 16
 770              		.cfi_offset 4, -8
 771              		.cfi_offset 14, -4
 772              		.loc 1 262 0
 773 0002 0446     		mov	r4, r0
 774              		.loc 1 263 0
 775 0004 FFF7FEFF 		bl	check_fast_reboot
 776              	.LVL71:
 777 0008 A042     		cmp	r0, r4
 778 000a 06D0     		beq	.L66
 779              	.LBB45:
 780              		.loc 1 264 0
 781 000c 02A9     		add	r1, sp, #8
 782              		.loc 1 265 0
 783 000e 0122     		movs	r2, #1
 784 0010 0020     		movs	r0, #0
 785              		.loc 1 264 0
 786 0012 41F8044D 		str	r4, [r1, #-4]!
 787              		.loc 1 265 0
 788 0016 FFF7FEFF 		bl	set_rtc_backup
 789              	.LVL72:
 790              	.L66:
 791              	.LBE45:
 792              		.loc 1 267 0
 793 001a 02B0     		add	sp, sp, #8
 794              		.cfi_def_cfa_offset 8
 795              		@ sp needed
 796 001c 10BD     		pop	{r4, pc}
 797              		.cfi_endproc
 798              	.LFE345:
ARM GAS  /tmp/ccCvj4FY.s 			page 15


 799              		.size	set_fast_reboot, .-set_fast_reboot
 800              		.section	.text.peripheral_power_enable,"ax",%progbits
 801              		.align	1
 802              		.global	peripheral_power_enable
 803              		.syntax unified
 804              		.thumb
 805              		.thumb_func
 806              		.fpu fpv4-sp-d16
 807              		.type	peripheral_power_enable, %function
 808              	peripheral_power_enable:
 809              	.LFB346:
 810              		.loc 1 289 0
 811              		.cfi_startproc
 812              		@ args = 0, pretend = 0, frame = 0
 813              		@ frame_needed = 0, uses_anonymous_args = 0
 814              	.LVL73:
 815 0000 10B5     		push	{r4, lr}
 816              		.cfi_def_cfa_offset 8
 817              		.cfi_offset 4, -8
 818              		.cfi_offset 14, -4
 819              		.loc 1 289 0
 820 0002 6424     		movs	r4, #100
 821              	.LVL74:
 822              	.L69:
 823 0004 013C     		subs	r4, r4, #1
 824              	.LVL75:
 825              		.loc 1 297 0
 826 0006 4FF47A70 		mov	r0, #1000
 827 000a FFF7FEFF 		bl	chThdSleep
 828              	.LVL76:
 829              		.loc 1 295 0
 830 000e 14F0FF04 		ands	r4, r4, #255
 831 0012 F7D1     		bne	.L69
 832              	.LVL77:
 833              	.LBB46:
 834              		.loc 1 300 0
 835 0014 0B4B     		ldr	r3, .L73
 836 0016 4FF48012 		mov	r2, #1048576
 837              	.LBE46:
 838              	.LBB47:
 839              		.loc 1 303 0
 840 001a 4FF08051 		mov	r1, #268435456
 841              	.LBE47:
 842              	.LBB48:
 843              		.loc 1 315 0
 844 001e 1424     		movs	r4, #20
 845              	.LBE48:
 846              	.LBB49:
 847              		.loc 1 300 0
 848 0020 9A61     		str	r2, [r3, #24]
 849              	.LVL78:
 850              	.LBE49:
 851              	.LBB50:
 852              		.loc 1 303 0
 853 0022 094A     		ldr	r2, .L73+4
 854 0024 9161     		str	r1, [r2, #24]
 855              	.LVL79:
ARM GAS  /tmp/ccCvj4FY.s 			page 16


 856              	.LBE50:
 857              	.LBB51:
 858              		.loc 1 307 0
 859 0026 A2F58062 		sub	r2, r2, #1024
 860 002a 0821     		movs	r1, #8
 861 002c 9161     		str	r1, [r2, #24]
 862              	.LVL80:
 863              	.LBE51:
 864              	.LBB52:
 865              		.loc 1 315 0
 866 002e 8022     		movs	r2, #128
 867 0030 9A61     		str	r2, [r3, #24]
 868              	.LVL81:
 869              	.L70:
 870 0032 013C     		subs	r4, r4, #1
 871              	.LVL82:
 872              	.LBE52:
 873              		.loc 1 319 0
 874 0034 4FF47A70 		mov	r0, #1000
 875 0038 FFF7FEFF 		bl	chThdSleep
 876              	.LVL83:
 877              		.loc 1 317 0
 878 003c 14F0FF04 		ands	r4, r4, #255
 879 0040 F7D1     		bne	.L70
 880              		.loc 1 322 0
 881 0042 10BD     		pop	{r4, pc}
 882              	.L74:
 883              		.align	2
 884              	.L73:
 885 0044 00180240 		.word	1073879040
 886 0048 00140240 		.word	1073878016
 887              		.cfi_endproc
 888              	.LFE346:
 889              		.size	peripheral_power_enable, .-peripheral_power_enable
 890              		.section	.text.palReadLineMode,"ax",%progbits
 891              		.align	1
 892              		.global	palReadLineMode
 893              		.syntax unified
 894              		.thumb
 895              		.thumb_func
 896              		.fpu fpv4-sp-d16
 897              		.type	palReadLineMode, %function
 898              	palReadLineMode:
 899              	.LFB347:
 900              		.loc 1 330 0
 901              		.cfi_startproc
 902              		@ args = 0, pretend = 0, frame = 0
 903              		@ frame_needed = 0, uses_anonymous_args = 0
 904              	.LVL84:
 905 0000 F0B5     		push	{r4, r5, r6, r7, lr}
 906              		.cfi_def_cfa_offset 20
 907              		.cfi_offset 4, -20
 908              		.cfi_offset 5, -16
 909              		.cfi_offset 6, -12
 910              		.cfi_offset 7, -8
 911              		.cfi_offset 14, -4
 912              		.loc 1 331 0
ARM GAS  /tmp/ccCvj4FY.s 			page 17


 913 0002 20F00F07 		bic	r7, r0, #15
 914              	.LVL85:
 915              		.loc 1 332 0
 916 0006 00F00F05 		and	r5, r0, #15
 917              	.LVL86:
 918              		.loc 1 334 0
 919 000a 3A68     		ldr	r2, [r7]
 920 000c 2EB2     		sxth	r6, r5
 921              		.loc 1 335 0
 922 000e 7B68     		ldr	r3, [r7, #4]
 923              		.loc 1 338 0
 924 0010 072D     		cmp	r5, #7
 925              		.loc 1 334 0
 926 0012 4FEA4601 		lsl	r1, r6, #1
 927              	.LVL87:
 928              		.loc 1 335 0
 929 0016 23FA05F3 		lsr	r3, r3, r5
 930              		.loc 1 334 0
 931 001a 22FA01F2 		lsr	r2, r2, r1
 932              	.LVL88:
 933              		.loc 1 335 0
 934 001e 4FEA8303 		lsl	r3, r3, #2
 935              		.loc 1 334 0
 936 0022 02F00302 		and	r2, r2, #3
 937              	.LVL89:
 938              		.loc 1 335 0
 939 0026 03F00403 		and	r3, r3, #4
 940 002a 42EA0302 		orr	r2, r2, r3
 941              	.LVL90:
 942              		.loc 1 336 0
 943 002e BB68     		ldr	r3, [r7, #8]
 944              		.loc 1 337 0
 945 0030 FC68     		ldr	r4, [r7, #12]
 946              		.loc 1 336 0
 947 0032 23FA01F3 		lsr	r3, r3, r1
 948              		.loc 1 337 0
 949 0036 24FA01F4 		lsr	r4, r4, r1
 950              		.loc 1 336 0
 951 003a 4FEAC303 		lsl	r3, r3, #3
 952              		.loc 1 337 0
 953 003e 4FEA4414 		lsl	r4, r4, #5
 954              		.loc 1 336 0
 955 0042 03F01803 		and	r3, r3, #24
 956              		.loc 1 337 0
 957 0046 04F06004 		and	r4, r4, #96
 958              		.loc 1 336 0
 959 004a 43EA0203 		orr	r3, r3, r2
 960              	.LVL91:
 961              		.loc 1 337 0
 962 004e 44EA0300 		orr	r0, r4, r3
 963              	.LVL92:
 964              		.loc 1 338 0
 965 0052 07D8     		bhi	.L76
 966              		.loc 1 339 0
 967 0054 396A     		ldr	r1, [r7, #32]
 968 0056 B600     		lsls	r6, r6, #2
 969 0058 F140     		lsrs	r1, r1, r6
ARM GAS  /tmp/ccCvj4FY.s 			page 18


 970 005a C901     		lsls	r1, r1, #7
 971 005c 01F4F061 		and	r1, r1, #1920
 972 0060 0843     		orrs	r0, r0, r1
 973              	.LVL93:
 974 0062 F0BD     		pop	{r4, r5, r6, r7, pc}
 975              	.LVL94:
 976              	.L76:
 977              		.loc 1 341 0
 978 0064 A5F10802 		sub	r2, r5, #8
 979 0068 796A     		ldr	r1, [r7, #36]
 980 006a 9200     		lsls	r2, r2, #2
 981 006c 21FA02F2 		lsr	r2, r1, r2
 982 0070 D201     		lsls	r2, r2, #7
 983 0072 02F4F062 		and	r2, r2, #1920
 984 0076 1043     		orrs	r0, r0, r2
 985              	.LVL95:
 986              		.loc 1 344 0
 987 0078 F0BD     		pop	{r4, r5, r6, r7, pc}
 988              		.cfi_endproc
 989              	.LFE347:
 990              		.size	palReadLineMode, .-palReadLineMode
 991              		.section	.text.palLineSetPushPull,"ax",%progbits
 992              		.align	1
 993              		.global	palLineSetPushPull
 994              		.syntax unified
 995              		.thumb
 996              		.thumb_func
 997              		.fpu fpv4-sp-d16
 998              		.type	palLineSetPushPull, %function
 999              	palLineSetPushPull:
 1000              	.LFB348:
 1001              		.loc 1 350 0
 1002              		.cfi_startproc
 1003              		@ args = 0, pretend = 0, frame = 0
 1004              		@ frame_needed = 0, uses_anonymous_args = 0
 1005              	.LVL96:
 1006 0000 10B5     		push	{r4, lr}
 1007              		.cfi_def_cfa_offset 8
 1008              		.cfi_offset 4, -8
 1009              		.cfi_offset 14, -4
 1010              		.loc 1 351 0
 1011 0002 20F00F04 		bic	r4, r0, #15
 1012              	.LVL97:
 1013              		.loc 1 353 0
 1014 0006 00F00F00 		and	r0, r0, #15
 1015              	.LVL98:
 1016 000a 0322     		movs	r2, #3
 1017 000c 4000     		lsls	r0, r0, #1
 1018 000e E368     		ldr	r3, [r4, #12]
 1019 0010 8240     		lsls	r2, r2, r0
 1020 0012 8140     		lsls	r1, r1, r0
 1021              	.LVL99:
 1022 0014 23EA0203 		bic	r3, r3, r2
 1023 0018 1943     		orrs	r1, r1, r3
 1024 001a E160     		str	r1, [r4, #12]
 1025 001c 10BD     		pop	{r4, pc}
 1026              		.cfi_endproc
ARM GAS  /tmp/ccCvj4FY.s 			page 19


 1027              	.LFE348:
 1028              		.size	palLineSetPushPull, .-palLineSetPushPull
 1029              		.section	.text.stm32_cacheBufferInvalidate,"ax",%progbits
 1030              		.align	1
 1031              		.global	stm32_cacheBufferInvalidate
 1032              		.syntax unified
 1033              		.thumb
 1034              		.thumb_func
 1035              		.fpu fpv4-sp-d16
 1036              		.type	stm32_cacheBufferInvalidate, %function
 1037              	stm32_cacheBufferInvalidate:
 1038              	.LFB349:
 1039              		.loc 1 359 0
 1040              		.cfi_startproc
 1041              		@ args = 0, pretend = 0, frame = 0
 1042              		@ frame_needed = 0, uses_anonymous_args = 0
 1043              		@ link register save eliminated.
 1044              	.LVL100:
 1045              	.LBB53:
 1046              		.loc 1 360 0
 1047 0000 0144     		add	r1, r1, r0
 1048              	.LVL101:
 1049              	.LBB54:
 1050              	.LBB55:
 1051              		.file 2 "../../modules/ChibiOS/os/common/ext/ARM/CMSIS/Core/Include/cmsis_gcc.h"
 1052              		.loc 2 879 0
 1053              		.syntax unified
 1054              	@ 879 "../../modules/ChibiOS/os/common/ext/ARM/CMSIS/Core/Include/cmsis_gcc.h" 1
 1055 0002 BFF34F8F 		dsb 0xF
 1056              	@ 0 "" 2
 1057              		.thumb
 1058              		.syntax unified
 1059              	.LBE55:
 1060              	.LBE54:
 1061              		.loc 1 360 0
 1062 0006 064B     		ldr	r3, .L82
 1063              	.LVL102:
 1064              	.L80:
 1065              		.loc 1 360 0 is_stmt 0 discriminator 1
 1066 0008 8842     		cmp	r0, r1
 1067 000a 04D3     		bcc	.L81
 1068              	.LBB56:
 1069              	.LBB57:
 1070              		.loc 2 879 0 is_stmt 1
 1071              		.syntax unified
 1072              	@ 879 "../../modules/ChibiOS/os/common/ext/ARM/CMSIS/Core/Include/cmsis_gcc.h" 1
 1073 000c BFF34F8F 		dsb 0xF
 1074              	@ 0 "" 2
 1075              		.thumb
 1076              		.syntax unified
 1077              	.LBE57:
 1078              	.LBE56:
 1079              	.LBB58:
 1080              	.LBB59:
 1081              		.loc 2 868 0
 1082              		.syntax unified
 1083              	@ 868 "../../modules/ChibiOS/os/common/ext/ARM/CMSIS/Core/Include/cmsis_gcc.h" 1
ARM GAS  /tmp/ccCvj4FY.s 			page 20


 1084 0010 BFF36F8F 		isb 0xF
 1085              	@ 0 "" 2
 1086              		.thumb
 1087              		.syntax unified
 1088 0014 7047     		bx	lr
 1089              	.L81:
 1090              	.LBE59:
 1091              	.LBE58:
 1092              		.loc 1 360 0 discriminator 3
 1093 0016 C3F85C02 		str	r0, [r3, #604]
 1094 001a 2030     		adds	r0, r0, #32
 1095              	.LVL103:
 1096 001c F4E7     		b	.L80
 1097              	.L83:
 1098 001e 00BF     		.align	2
 1099              	.L82:
 1100 0020 00ED00E0 		.word	-536810240
 1101              	.LBE53:
 1102              		.cfi_endproc
 1103              	.LFE349:
 1104              		.size	stm32_cacheBufferInvalidate, .-stm32_cacheBufferInvalidate
 1105              		.section	.text.stm32_cacheBufferFlush,"ax",%progbits
 1106              		.align	1
 1107              		.global	stm32_cacheBufferFlush
 1108              		.syntax unified
 1109              		.thumb
 1110              		.thumb_func
 1111              		.fpu fpv4-sp-d16
 1112              		.type	stm32_cacheBufferFlush, %function
 1113              	stm32_cacheBufferFlush:
 1114              	.LFB350:
 1115              		.loc 1 364 0
 1116              		.cfi_startproc
 1117              		@ args = 0, pretend = 0, frame = 0
 1118              		@ frame_needed = 0, uses_anonymous_args = 0
 1119              		@ link register save eliminated.
 1120              	.LVL104:
 1121              	.LBB60:
 1122              		.loc 1 365 0
 1123 0000 0144     		add	r1, r1, r0
 1124              	.LVL105:
 1125              	.LBB61:
 1126              	.LBB62:
 1127              		.loc 2 879 0
 1128              		.syntax unified
 1129              	@ 879 "../../modules/ChibiOS/os/common/ext/ARM/CMSIS/Core/Include/cmsis_gcc.h" 1
 1130 0002 BFF34F8F 		dsb 0xF
 1131              	@ 0 "" 2
 1132              		.thumb
 1133              		.syntax unified
 1134              	.LBE62:
 1135              	.LBE61:
 1136              		.loc 1 365 0
 1137 0006 064B     		ldr	r3, .L87
 1138              	.LVL106:
 1139              	.L85:
 1140              		.loc 1 365 0 is_stmt 0 discriminator 1
ARM GAS  /tmp/ccCvj4FY.s 			page 21


 1141 0008 8842     		cmp	r0, r1
 1142 000a 04D3     		bcc	.L86
 1143              	.LBB63:
 1144              	.LBB64:
 1145              		.loc 2 879 0 is_stmt 1
 1146              		.syntax unified
 1147              	@ 879 "../../modules/ChibiOS/os/common/ext/ARM/CMSIS/Core/Include/cmsis_gcc.h" 1
 1148 000c BFF34F8F 		dsb 0xF
 1149              	@ 0 "" 2
 1150              		.thumb
 1151              		.syntax unified
 1152              	.LBE64:
 1153              	.LBE63:
 1154              	.LBB65:
 1155              	.LBB66:
 1156              		.loc 2 868 0
 1157              		.syntax unified
 1158              	@ 868 "../../modules/ChibiOS/os/common/ext/ARM/CMSIS/Core/Include/cmsis_gcc.h" 1
 1159 0010 BFF36F8F 		isb 0xF
 1160              	@ 0 "" 2
 1161              		.thumb
 1162              		.syntax unified
 1163 0014 7047     		bx	lr
 1164              	.L86:
 1165              	.LBE66:
 1166              	.LBE65:
 1167              		.loc 1 365 0 discriminator 3
 1168 0016 C3F87002 		str	r0, [r3, #624]
 1169 001a 2030     		adds	r0, r0, #32
 1170              	.LVL107:
 1171 001c F4E7     		b	.L85
 1172              	.L88:
 1173 001e 00BF     		.align	2
 1174              	.L87:
 1175 0020 00ED00E0 		.word	-536810240
 1176              	.LBE60:
 1177              		.cfi_endproc
 1178              	.LFE350:
 1179              		.size	stm32_cacheBufferFlush, .-stm32_cacheBufferFlush
 1180              		.section	.text.system_halt_hook,"ax",%progbits
 1181              		.align	1
 1182              		.global	system_halt_hook
 1183              		.syntax unified
 1184              		.thumb
 1185              		.thumb_func
 1186              		.fpu fpv4-sp-d16
 1187              		.type	system_halt_hook, %function
 1188              	system_halt_hook:
 1189              	.LFB351:
 1190              		.loc 1 428 0
 1191              		.cfi_startproc
 1192              		@ args = 0, pretend = 0, frame = 0
 1193              		@ frame_needed = 0, uses_anonymous_args = 0
 1194              		@ link register save eliminated.
 1195 0000 7047     		bx	lr
 1196              		.cfi_endproc
 1197              	.LFE351:
ARM GAS  /tmp/ccCvj4FY.s 			page 22


 1198              		.size	system_halt_hook, .-system_halt_hook
 1199              		.section	.text.stack_overflow,"ax",%progbits
 1200              		.align	1
 1201              		.global	stack_overflow
 1202              		.syntax unified
 1203              		.thumb
 1204              		.thumb_func
 1205              		.fpu fpv4-sp-d16
 1206              		.type	stack_overflow, %function
 1207              	stack_overflow:
 1208              	.LFB352:
 1209              		.loc 1 440 0
 1210              		.cfi_startproc
 1211              		@ args = 0, pretend = 0, frame = 0
 1212              		@ frame_needed = 0, uses_anonymous_args = 0
 1213              		@ link register save eliminated.
 1214              	.LVL108:
 1215              		.loc 1 443 0
 1216 0000 8069     		ldr	r0, [r0, #24]
 1217              	.LVL109:
 1218 0002 FFF7FEBF 		b	AP_stack_overflow
 1219              	.LVL110:
 1220              		.cfi_endproc
 1221              	.LFE352:
 1222              		.size	stack_overflow, .-stack_overflow
 1223              		.section	.bss.utc_time_offset,"aw",%nobits
 1224              		.align	3
 1225              		.set	.LANCHOR0,. + 0
 1226              		.type	utc_time_offset, %object
 1227              		.size	utc_time_offset, 8
 1228              	utc_time_offset:
 1229 0000 00000000 		.space	8
 1229      00000000 
 1230              		.section	.rodata.ndays,"a",%progbits
 1231              		.set	.LANCHOR1,. + 0
 1232              		.type	ndays, %object
 1233              		.size	ndays, 24
 1234              	ndays:
 1235 0000 1F       		.byte	31
 1236 0001 1C       		.byte	28
 1237 0002 1F       		.byte	31
 1238 0003 1E       		.byte	30
 1239 0004 1F       		.byte	31
 1240 0005 1E       		.byte	30
 1241 0006 1F       		.byte	31
 1242 0007 1F       		.byte	31
 1243 0008 1E       		.byte	30
 1244 0009 1F       		.byte	31
 1245 000a 1E       		.byte	30
 1246 000b 1F       		.byte	31
 1247 000c 1F       		.byte	31
 1248 000d 1D       		.byte	29
 1249 000e 1F       		.byte	31
 1250 000f 1E       		.byte	30
 1251 0010 1F       		.byte	31
 1252 0011 1E       		.byte	30
 1253 0012 1F       		.byte	31
ARM GAS  /tmp/ccCvj4FY.s 			page 23


 1254 0013 1F       		.byte	31
 1255 0014 1E       		.byte	30
 1256 0015 1F       		.byte	31
 1257 0016 1E       		.byte	30
 1258 0017 1F       		.byte	31
 1259              		.section	.rodata.show_stack_usage.str1.1,"aMS",%progbits,1
 1260              	.LC0:
 1261 0000 25732025 		.ascii	"%s %u\012\000"
 1261      750A00
 1262              		.text
 1263              	.Letext0:
 1264              		.file 3 "/opt/gcc-arm-none-eabi-6-2017-q2-update/lib/gcc/arm-none-eabi/6.3.1/include/stddef.h"
 1265              		.file 4 "/opt/gcc-arm-none-eabi-6-2017-q2-update/arm-none-eabi/include/machine/_default_types.h"
 1266              		.file 5 "/opt/gcc-arm-none-eabi-6-2017-q2-update/arm-none-eabi/include/sys/_stdint.h"
 1267              		.file 6 "/opt/gcc-arm-none-eabi-6-2017-q2-update/arm-none-eabi/include/stdint.h"
 1268              		.file 7 "../../modules/ChibiOS/os/common/ports/ARMCMx/compilers/GCC/chtypes.h"
 1269              		.file 8 "../../modules/ChibiOS/os/rt/include/chsystypes.h"
 1270              		.file 9 "../../modules/ChibiOS/os/rt/include/chschd.h"
 1271              		.file 10 "../../modules/ChibiOS/os/rt/include/chtime.h"
 1272              		.file 11 "../../modules/ChibiOS/os/common/ext/ARM/CMSIS/Core/Include/core_cm7.h"
 1273              		.file 12 "../../modules/ChibiOS/os/common/ext/ST/STM32F7xx/system_stm32f7xx.h"
 1274              		.file 13 "../../modules/ChibiOS/os/common/ext/ST/STM32F7xx/stm32f767xx.h"
 1275              		.file 14 "../../modules/ChibiOS/os/common/ports/ARMCMx/chcore.h"
 1276              		.file 15 "../../modules/ChibiOS/os/common/ports/ARMCMx/chcore_v7m.h"
 1277              		.file 16 "../../modules/ChibiOS/os/hal/ports/STM32/LLD/TIMv1/stm32_tim.h"
 1278              		.file 17 "../../modules/ChibiOS/os/rt/include/chtm.h"
 1279              		.file 18 "../../modules/ChibiOS/os/rt/include/chstats.h"
 1280              		.file 19 "../../modules/ChibiOS/os/rt/include/chsem.h"
 1281              		.file 20 "../../modules/ChibiOS/os/rt/include/chmtx.h"
 1282              		.file 21 "../../modules/ChibiOS/os/rt/include/chsys.h"
 1283              		.file 22 "../../modules/ChibiOS/os/rt/include/chregistry.h"
 1284              		.file 23 "../../modules/ChibiOS/os/rt/include/chevents.h"
 1285              		.file 24 "../../modules/ChibiOS/os/oslib/include/chmemcore.h"
 1286              		.file 25 "../../modules/ChibiOS/os/oslib/include/chmempools.h"
 1287              		.file 26 "../../modules/ChibiOS/os/oslib/include/chfactory.h"
 1288              		.file 27 "../../modules/ChibiOS/os/hal/ports/STM32/LLD/DMAv2/stm32_dma.h"
 1289              		.file 28 "../../modules/ChibiOS/os/hal/include/hal_ioblock.h"
 1290              		.file 29 "../../modules/ChibiOS/os/hal/include/hal_queues.h"
 1291              		.file 30 "../../modules/ChibiOS/os/hal/include/hal_pal.h"
 1292              		.file 31 "../../modules/ChibiOS/os/hal/ports/STM32/LLD/GPIOv2/stm32_gpio.h"
 1293              		.file 32 "../../modules/ChibiOS/os/hal/ports/STM32/LLD/GPIOv2/hal_pal_lld.h"
 1294              		.file 33 "../../modules/ChibiOS/os/hal/include/hal_adc.h"
 1295              		.file 34 "../../modules/ChibiOS/os/hal/ports/STM32/LLD/ADCv2/hal_adc_lld.h"
 1296              		.file 35 "../../modules/ChibiOS/os/hal/include/hal_i2c.h"
 1297              		.file 36 "../../modules/ChibiOS/os/hal/ports/STM32/LLD/I2Cv2/hal_i2c_lld.h"
 1298              		.file 37 "../../modules/ChibiOS/os/hal/include/hal_pwm.h"
 1299              		.file 38 "../../modules/ChibiOS/os/hal/ports/STM32/LLD/TIMv1/hal_pwm_lld.h"
 1300              		.file 39 "../../modules/ChibiOS/os/hal/include/hal_serial.h"
 1301              		.file 40 "../../modules/ChibiOS/os/hal/ports/STM32/LLD/USARTv2/hal_serial_lld.h"
 1302              		.file 41 "../../modules/ChibiOS/os/hal/include/hal_sdc.h"
 1303              		.file 42 "../../modules/ChibiOS/os/hal/ports/STM32/LLD/SDMMCv1/hal_sdc_lld.h"
 1304              		.file 43 "../../modules/ChibiOS/os/hal/include/hal_spi.h"
 1305              		.file 44 "../../modules/ChibiOS/os/hal/ports/STM32/LLD/SPIv2/hal_spi_lld.h"
 1306              		.file 45 "../../modules/ChibiOS/os/hal/include/hal_usb.h"
 1307              		.file 46 "../../modules/ChibiOS/os/hal/ports/STM32/LLD/OTGv1/hal_usb_lld.h"
 1308              		.file 47 "../../modules/ChibiOS/os/hal/ports/STM32/LLD/OTGv1/stm32_otg.h"
 1309              		.file 48 "../../libraries/AP_HAL_ChibiOS/hwdef/common/stm32_util.h"
ARM GAS  /tmp/ccCvj4FY.s 			page 24


 1310              		.file 49 "/opt/gcc-arm-none-eabi-6-2017-q2-update/lib/gcc/arm-none-eabi/6.3.1/include/stdarg.h"
 1311              		.file 50 "<built-in>"
 1312              		.file 51 "../../libraries/AP_HAL_ChibiOS/hwdef/common/stdio.h"
 1313              		.file 52 "/opt/gcc-arm-none-eabi-6-2017-q2-update/arm-none-eabi/include/sys/lock.h"
 1314              		.file 53 "/opt/gcc-arm-none-eabi-6-2017-q2-update/arm-none-eabi/include/sys/_types.h"
 1315              		.file 54 "/opt/gcc-arm-none-eabi-6-2017-q2-update/arm-none-eabi/include/sys/reent.h"
 1316              		.file 55 "../../modules/ChibiOS/os/rt/include/chthreads.h"
 1317              		.file 56 "../../libraries/AP_HAL_ChibiOS/hwdef/common/hrt.h"