ARM GAS  /tmp/cc248mnq.s 			page 1


   1              		.cpu cortex-m7
   2              		.eabi_attribute 27, 1
   3              		.eabi_attribute 28, 1
   4              		.eabi_attribute 20, 1
   5              		.eabi_attribute 21, 1
   6              		.eabi_attribute 23, 3
   7              		.eabi_attribute 24, 1
   8              		.eabi_attribute 25, 1
   9              		.eabi_attribute 26, 1
  10              		.eabi_attribute 30, 4
  11              		.eabi_attribute 34, 1
  12              		.eabi_attribute 18, 4
  13              		.file	"stubs.c"
  14              		.text
  15              	.Ltext0:
  16              		.cfi_sections	.debug_frame
  17              		.section	.text._read,"ax",%progbits
  18              		.align	1
  19              		.global	_read
  20              		.syntax unified
  21              		.thumb
  22              		.thumb_func
  23              		.fpu fpv4-sp-d16
  24              		.type	_read, %function
  25              	_read:
  26              	.LFB313:
  27              		.cfi_startproc
  28              		@ args = 0, pretend = 0, frame = 0
  29              		@ frame_needed = 0, uses_anonymous_args = 0
  30              		@ link register save eliminated.
  31 0000 4FF0FF30 		mov	r0, #-1
  32 0004 7047     		bx	lr
  33              		.cfi_endproc
  34              	.LFE313:
  35              		.size	_read, .-_read
  36              		.section	.text._lseek,"ax",%progbits
  37              		.align	1
  38              		.global	_lseek
  39              		.syntax unified
  40              		.thumb
  41              		.thumb_func
  42              		.fpu fpv4-sp-d16
  43              		.type	_lseek, %function
  44              	_lseek:
  45              	.LFB302:
  46              		.file 1 "../../libraries/AP_HAL_ChibiOS/hwdef/common/stubs.c"
  47              		.loc 1 103 0
  48              		.cfi_startproc
  49              		@ args = 0, pretend = 0, frame = 0
  50              		@ frame_needed = 0, uses_anonymous_args = 0
  51              		@ link register save eliminated.
  52              	.LVL0:
  53              		.loc 1 110 0
  54 0000 0020     		movs	r0, #0
  55              	.LVL1:
  56 0002 7047     		bx	lr
  57              		.cfi_endproc
ARM GAS  /tmp/cc248mnq.s 			page 2


  58              	.LFE302:
  59              		.size	_lseek, .-_lseek
  60              		.section	.text._write,"ax",%progbits
  61              		.align	1
  62              		.global	_write
  63              		.syntax unified
  64              		.thumb
  65              		.thumb_func
  66              		.fpu fpv4-sp-d16
  67              		.type	_write, %function
  68              	_write:
  69              	.LFB303:
  70              		.loc 1 116 0
  71              		.cfi_startproc
  72              		@ args = 0, pretend = 0, frame = 0
  73              		@ frame_needed = 0, uses_anonymous_args = 0
  74              		@ link register save eliminated.
  75              	.LVL2:
  76              		.loc 1 122 0
  77 0000 4FF0FF30 		mov	r0, #-1
  78              	.LVL3:
  79 0004 7047     		bx	lr
  80              		.cfi_endproc
  81              	.LFE303:
  82              		.size	_write, .-_write
  83              		.section	.text._close,"ax",%progbits
  84              		.align	1
  85              		.global	_close
  86              		.syntax unified
  87              		.thumb
  88              		.thumb_func
  89              		.fpu fpv4-sp-d16
  90              		.type	_close, %function
  91              	_close:
  92              	.LFB304:
  93              		.loc 1 128 0
  94              		.cfi_startproc
  95              		@ args = 0, pretend = 0, frame = 0
  96              		@ frame_needed = 0, uses_anonymous_args = 0
  97              		@ link register save eliminated.
  98              	.LVL4:
  99              		.loc 1 132 0
 100 0000 0020     		movs	r0, #0
 101              	.LVL5:
 102 0002 7047     		bx	lr
 103              		.cfi_endproc
 104              	.LFE304:
 105              		.size	_close, .-_close
 106              		.section	.text._sbrk,"ax",%progbits
 107              		.align	1
 108              		.global	_sbrk
 109              		.syntax unified
 110              		.thumb
 111              		.thumb_func
 112              		.fpu fpv4-sp-d16
 113              		.type	_sbrk, %function
 114              	_sbrk:
ARM GAS  /tmp/cc248mnq.s 			page 3


 115              	.LFB305:
 116              		.loc 1 138 0
 117              		.cfi_startproc
 118              		@ args = 0, pretend = 0, frame = 0
 119              		@ frame_needed = 0, uses_anonymous_args = 0
 120              	.LVL6:
 121 0000 10B5     		push	{r4, lr}
 122              		.cfi_def_cfa_offset 8
 123              		.cfi_offset 4, -8
 124              		.cfi_offset 14, -4
 125              	.LBB4:
 126              	.LBB5:
 127              		.file 2 "../../modules/ChibiOS/os/oslib/include/chmemheaps.h"
 128              		.loc 2 156 0
 129 0002 0822     		movs	r2, #8
 130              	.LBE5:
 131              	.LBE4:
 132              		.loc 1 138 0
 133 0004 0446     		mov	r4, r0
 134              	.LVL7:
 135              	.LBB7:
 136              	.LBB6:
 137              		.loc 2 156 0
 138 0006 0020     		movs	r0, #0
 139              	.LVL8:
 140 0008 FFF7FEFF 		bl	chHeapAllocAligned
 141              	.LVL9:
 142              	.LBE6:
 143              	.LBE7:
 144              		.loc 1 144 0
 145 000c 18B9     		cbnz	r0, .L5
 146              		.loc 1 145 0
 147 000e 0C23     		movs	r3, #12
 148              		.loc 1 146 0
 149 0010 4FF0FF30 		mov	r0, #-1
 150              		.loc 1 145 0
 151 0014 2360     		str	r3, [r4]
 152              	.L5:
 153              		.loc 1 154 0
 154 0016 10BD     		pop	{r4, pc}
 155              		.cfi_endproc
 156              	.LFE305:
 157              		.size	_sbrk, .-_sbrk
 158              		.section	.text._fstat,"ax",%progbits
 159              		.align	1
 160              		.global	_fstat
 161              		.syntax unified
 162              		.thumb
 163              		.thumb_func
 164              		.fpu fpv4-sp-d16
 165              		.type	_fstat, %function
 166              	_fstat:
 167              	.LFB306:
 168              		.loc 1 161 0
 169              		.cfi_startproc
 170              		@ args = 0, pretend = 0, frame = 0
 171              		@ frame_needed = 0, uses_anonymous_args = 0
ARM GAS  /tmp/cc248mnq.s 			page 4


 172              		@ link register save eliminated.
 173              	.LVL10:
 174              		.loc 1 166 0
 175 0000 4FF0FF30 		mov	r0, #-1
 176              	.LVL11:
 177 0004 7047     		bx	lr
 178              		.cfi_endproc
 179              	.LFE306:
 180              		.size	_fstat, .-_fstat
 181              		.section	.text._isatty,"ax",%progbits
 182              		.align	1
 183              		.global	_isatty
 184              		.syntax unified
 185              		.thumb
 186              		.thumb_func
 187              		.fpu fpv4-sp-d16
 188              		.type	_isatty, %function
 189              	_isatty:
 190              	.LFB307:
 191              		.loc 1 172 0
 192              		.cfi_startproc
 193              		@ args = 0, pretend = 0, frame = 0
 194              		@ frame_needed = 0, uses_anonymous_args = 0
 195              		@ link register save eliminated.
 196              	.LVL12:
 197              		.loc 1 176 0
 198 0000 0120     		movs	r0, #1
 199              	.LVL13:
 200 0002 7047     		bx	lr
 201              		.cfi_endproc
 202              	.LFE307:
 203              		.size	_isatty, .-_isatty
 204              		.section	.text._getpid,"ax",%progbits
 205              		.align	1
 206              		.global	_getpid
 207              		.syntax unified
 208              		.thumb
 209              		.thumb_func
 210              		.fpu fpv4-sp-d16
 211              		.type	_getpid, %function
 212              	_getpid:
 213              	.LFB308:
 214              		.loc 1 180 0
 215              		.cfi_startproc
 216              		@ args = 0, pretend = 0, frame = 0
 217              		@ frame_needed = 0, uses_anonymous_args = 0
 218              		@ link register save eliminated.
 219              		.loc 1 182 0
 220 0000 0020     		movs	r0, #0
 221 0002 7047     		bx	lr
 222              		.cfi_endproc
 223              	.LFE308:
 224              		.size	_getpid, .-_getpid
 225              		.section	.text._exit,"ax",%progbits
 226              		.align	1
 227              		.global	_exit
 228              		.syntax unified
ARM GAS  /tmp/cc248mnq.s 			page 5


 229              		.thumb
 230              		.thumb_func
 231              		.fpu fpv4-sp-d16
 232              		.type	_exit, %function
 233              	_exit:
 234              	.LFB309:
 235              		.loc 1 186 0
 236              		.cfi_startproc
 237              		@ Volatile: function does not return.
 238              		@ args = 0, pretend = 0, frame = 0
 239              		@ frame_needed = 0, uses_anonymous_args = 0
 240              		@ link register save eliminated.
 241              	.LVL14:
 242              	.L12:
 243 0000 FEE7     		b	.L12
 244              		.cfi_endproc
 245              	.LFE309:
 246              		.size	_exit, .-_exit
 247              		.section	.text._fini,"ax",%progbits
 248              		.align	1
 249              		.global	_fini
 250              		.syntax unified
 251              		.thumb
 252              		.thumb_func
 253              		.fpu fpv4-sp-d16
 254              		.type	_fini, %function
 255              	_fini:
 256              	.LFB310:
 257              		.loc 1 193 0
 258              		.cfi_startproc
 259              		@ args = 0, pretend = 0, frame = 0
 260              		@ frame_needed = 0, uses_anonymous_args = 0
 261              		@ link register save eliminated.
 262 0000 7047     		bx	lr
 263              		.cfi_endproc
 264              	.LFE310:
 265              		.size	_fini, .-_fini
 266              		.section	.text._kill,"ax",%progbits
 267              		.align	1
 268              		.global	_kill
 269              		.syntax unified
 270              		.thumb
 271              		.thumb_func
 272              		.fpu fpv4-sp-d16
 273              		.type	_kill, %function
 274              	_kill:
 275              	.LFB311:
 276              		.loc 1 198 0
 277              		.cfi_startproc
 278              		@ args = 0, pretend = 0, frame = 0
 279              		@ frame_needed = 0, uses_anonymous_args = 0
 280              		@ link register save eliminated.
 281              	.LVL15:
 282              		.loc 1 202 0
 283 0000 4FF0FF30 		mov	r0, #-1
 284              	.LVL16:
 285 0004 7047     		bx	lr
ARM GAS  /tmp/cc248mnq.s 			page 6


 286              		.cfi_endproc
 287              	.LFE311:
 288              		.size	_kill, .-_kill
 289              		.global	_before_main
 290              		.section	.data._before_main,"aw",%progbits
 291              		.type	_before_main, %object
 292              		.size	_before_main, 1
 293              	_before_main:
 294 0000 01       		.byte	1
 295              		.text
 296              	.Letext0:
 297              		.file 3 "/opt/gcc-arm-none-eabi-6-2017-q2-update/arm-none-eabi/include/machine/_default_types.h"
 298              		.file 4 "/opt/gcc-arm-none-eabi-6-2017-q2-update/lib/gcc/arm-none-eabi/6.3.1/include/stddef.h"
 299              		.file 5 "/opt/gcc-arm-none-eabi-6-2017-q2-update/arm-none-eabi/include/sys/lock.h"
 300              		.file 6 "/opt/gcc-arm-none-eabi-6-2017-q2-update/arm-none-eabi/include/sys/_types.h"
 301              		.file 7 "/opt/gcc-arm-none-eabi-6-2017-q2-update/arm-none-eabi/include/sys/_stdint.h"
 302              		.file 8 "/opt/gcc-arm-none-eabi-6-2017-q2-update/arm-none-eabi/include/sys/_timeval.h"
 303              		.file 9 "/opt/gcc-arm-none-eabi-6-2017-q2-update/arm-none-eabi/include/sys/types.h"
 304              		.file 10 "/opt/gcc-arm-none-eabi-6-2017-q2-update/arm-none-eabi/include/sys/unistd.h"
 305              		.file 11 "/opt/gcc-arm-none-eabi-6-2017-q2-update/arm-none-eabi/include/sys/reent.h"
 306              		.file 12 "/opt/gcc-arm-none-eabi-6-2017-q2-update/arm-none-eabi/include/sys/errno.h"
 307              		.file 13 "/opt/gcc-arm-none-eabi-6-2017-q2-update/arm-none-eabi/include/time.h"
 308              		.file 14 "/opt/gcc-arm-none-eabi-6-2017-q2-update/arm-none-eabi/include/sys/stat.h"
 309              		.file 15 "../../modules/ChibiOS/os/common/ports/ARMCMx/compilers/GCC/chtypes.h"
 310              		.file 16 "../../modules/ChibiOS/os/rt/include/chsystypes.h"
 311              		.file 17 "../../modules/ChibiOS/os/rt/include/chschd.h"
 312              		.file 18 "../../modules/ChibiOS/os/rt/include/chtime.h"
 313              		.file 19 "../../modules/ChibiOS/os/common/ext/ARM/CMSIS/Core/Include/core_cm7.h"
 314              		.file 20 "../../modules/ChibiOS/os/common/ext/ST/STM32F7xx/system_stm32f7xx.h"
 315              		.file 21 "../../modules/ChibiOS/os/common/ports/ARMCMx/chcore.h"
 316              		.file 22 "../../modules/ChibiOS/os/common/ports/ARMCMx/chcore_v7m.h"
 317              		.file 23 "../../modules/ChibiOS/os/rt/include/chtm.h"
 318              		.file 24 "../../modules/ChibiOS/os/rt/include/chstats.h"
 319              		.file 25 "../../modules/ChibiOS/os/rt/include/chsem.h"
 320              		.file 26 "../../modules/ChibiOS/os/rt/include/chmtx.h"
 321              		.file 27 "../../modules/ChibiOS/os/rt/include/chsys.h"
 322              		.file 28 "../../modules/ChibiOS/os/rt/include/chregistry.h"
 323              		.file 29 "../../modules/ChibiOS/os/oslib/include/chmemcore.h"
 324              		.file 30 "../../modules/ChibiOS/os/oslib/include/chmempools.h"
 325              		.file 31 "../../modules/ChibiOS/os/oslib/include/chfactory.h"
 326              		.section	.debug_info,"",%progbits
 327              	.Ldebug_info0:
 328 0000 84190000 		.4byte	0x1984
 329 0004 0400     		.2byte	0x4
 330 0006 00000000 		.4byte	.Ldebug_abbrev0
 331 000a 04       		.byte	0x4
 332 000b 01       		.uleb128 0x1
 333 000c 1A030000 		.4byte	.LASF339
 334 0010 0C       		.byte	0xc
 335 0011 87080000 		.4byte	.LASF340
 336 0015 88020000 		.4byte	.LASF341
 337 0019 18000000 		.4byte	.Ldebug_ranges0+0x18
 338 001d 00000000 		.4byte	0
 339 0021 00000000 		.4byte	.Ldebug_line0
 340 0025 02       		.uleb128 0x2
 341 0026 01       		.byte	0x1
 342 0027 06       		.byte	0x6
ARM GAS  /tmp/cc248mnq.s 			page 7


 343 0028 C2020000 		.4byte	.LASF0
 344 002c 03       		.uleb128 0x3
 345 002d 97010000 		.4byte	.LASF3
 346 0031 03       		.byte	0x3
 347 0032 2B       		.byte	0x2b
 348 0033 37000000 		.4byte	0x37
 349 0037 02       		.uleb128 0x2
 350 0038 01       		.byte	0x1
 351 0039 08       		.byte	0x8
 352 003a 3E040000 		.4byte	.LASF1
 353 003e 02       		.uleb128 0x2
 354 003f 02       		.byte	0x2
 355 0040 05       		.byte	0x5
 356 0041 E90B0000 		.4byte	.LASF2
 357 0045 03       		.uleb128 0x3
 358 0046 D8040000 		.4byte	.LASF4
 359 004a 03       		.byte	0x3
 360 004b 39       		.byte	0x39
 361 004c 50000000 		.4byte	0x50
 362 0050 02       		.uleb128 0x2
 363 0051 02       		.byte	0x2
 364 0052 07       		.byte	0x7
 365 0053 370D0000 		.4byte	.LASF5
 366 0057 03       		.uleb128 0x3
 367 0058 900D0000 		.4byte	.LASF6
 368 005c 03       		.byte	0x3
 369 005d 4D       		.byte	0x4d
 370 005e 62000000 		.4byte	0x62
 371 0062 02       		.uleb128 0x2
 372 0063 04       		.byte	0x4
 373 0064 05       		.byte	0x5
 374 0065 E2010000 		.4byte	.LASF7
 375 0069 03       		.uleb128 0x3
 376 006a 84070000 		.4byte	.LASF8
 377 006e 03       		.byte	0x3
 378 006f 4F       		.byte	0x4f
 379 0070 74000000 		.4byte	0x74
 380 0074 02       		.uleb128 0x2
 381 0075 04       		.byte	0x4
 382 0076 07       		.byte	0x7
 383 0077 1C060000 		.4byte	.LASF9
 384 007b 02       		.uleb128 0x2
 385 007c 08       		.byte	0x8
 386 007d 05       		.byte	0x5
 387 007e A2070000 		.4byte	.LASF10
 388 0082 03       		.uleb128 0x3
 389 0083 FC050000 		.4byte	.LASF11
 390 0087 03       		.byte	0x3
 391 0088 69       		.byte	0x69
 392 0089 8D000000 		.4byte	0x8d
 393 008d 02       		.uleb128 0x2
 394 008e 08       		.byte	0x8
 395 008f 07       		.byte	0x7
 396 0090 620A0000 		.4byte	.LASF12
 397 0094 04       		.uleb128 0x4
 398 0095 04       		.byte	0x4
 399 0096 05       		.byte	0x5
ARM GAS  /tmp/cc248mnq.s 			page 8


 400 0097 696E7400 		.ascii	"int\000"
 401 009b 02       		.uleb128 0x2
 402 009c 04       		.byte	0x4
 403 009d 07       		.byte	0x7
 404 009e 4E080000 		.4byte	.LASF13
 405 00a2 03       		.uleb128 0x3
 406 00a3 14000000 		.4byte	.LASF14
 407 00a7 04       		.byte	0x4
 408 00a8 D8       		.byte	0xd8
 409 00a9 9B000000 		.4byte	0x9b
 410 00ad 02       		.uleb128 0x2
 411 00ae 08       		.byte	0x8
 412 00af 04       		.byte	0x4
 413 00b0 A7090000 		.4byte	.LASF15
 414 00b4 03       		.uleb128 0x3
 415 00b5 990C0000 		.4byte	.LASF16
 416 00b9 05       		.byte	0x5
 417 00ba 22       		.byte	0x22
 418 00bb BF000000 		.4byte	0xbf
 419 00bf 05       		.uleb128 0x5
 420 00c0 04       		.byte	0x4
 421 00c1 C5000000 		.4byte	0xc5
 422 00c5 06       		.uleb128 0x6
 423 00c6 A6050000 		.4byte	.LASF157
 424 00ca 03       		.uleb128 0x3
 425 00cb 44070000 		.4byte	.LASF17
 426 00cf 06       		.byte	0x6
 427 00d0 1C       		.byte	0x1c
 428 00d1 62000000 		.4byte	0x62
 429 00d5 03       		.uleb128 0x3
 430 00d6 D5020000 		.4byte	.LASF18
 431 00da 06       		.byte	0x6
 432 00db 20       		.byte	0x20
 433 00dc 62000000 		.4byte	0x62
 434 00e0 03       		.uleb128 0x3
 435 00e1 1F0D0000 		.4byte	.LASF19
 436 00e5 06       		.byte	0x6
 437 00e6 2C       		.byte	0x2c
 438 00e7 62000000 		.4byte	0x62
 439 00eb 03       		.uleb128 0x3
 440 00ec E3090000 		.4byte	.LASF20
 441 00f0 06       		.byte	0x6
 442 00f1 32       		.byte	0x32
 443 00f2 94000000 		.4byte	0x94
 444 00f6 03       		.uleb128 0x3
 445 00f7 A1010000 		.4byte	.LASF21
 446 00fb 06       		.byte	0x6
 447 00fc 36       		.byte	0x36
 448 00fd 3E000000 		.4byte	0x3e
 449 0101 03       		.uleb128 0x3
 450 0102 B10C0000 		.4byte	.LASF22
 451 0106 06       		.byte	0x6
 452 0107 3A       		.byte	0x3a
 453 0108 50000000 		.4byte	0x50
 454 010c 03       		.uleb128 0x3
 455 010d F0000000 		.4byte	.LASF23
 456 0111 06       		.byte	0x6
ARM GAS  /tmp/cc248mnq.s 			page 9


 457 0112 3D       		.byte	0x3d
 458 0113 50000000 		.4byte	0x50
 459 0117 03       		.uleb128 0x3
 460 0118 6E070000 		.4byte	.LASF24
 461 011c 06       		.byte	0x6
 462 011d 49       		.byte	0x49
 463 011e 50000000 		.4byte	0x50
 464 0122 03       		.uleb128 0x3
 465 0123 FA040000 		.4byte	.LASF25
 466 0127 06       		.byte	0x6
 467 0128 58       		.byte	0x58
 468 0129 69000000 		.4byte	0x69
 469 012d 03       		.uleb128 0x3
 470 012e 820A0000 		.4byte	.LASF26
 471 0132 06       		.byte	0x6
 472 0133 64       		.byte	0x64
 473 0134 E0000000 		.4byte	0xe0
 474 0138 03       		.uleb128 0x3
 475 0139 0D0A0000 		.4byte	.LASF27
 476 013d 06       		.byte	0x6
 477 013e 72       		.byte	0x72
 478 013f 62000000 		.4byte	0x62
 479 0143 07       		.uleb128 0x7
 480 0144 660B0000 		.4byte	.LASF28
 481 0148 04       		.byte	0x4
 482 0149 6501     		.2byte	0x165
 483 014b 9B000000 		.4byte	0x9b
 484 014f 08       		.uleb128 0x8
 485 0150 04       		.byte	0x4
 486 0151 06       		.byte	0x6
 487 0152 A6       		.byte	0xa6
 488 0153 6E010000 		.4byte	0x16e
 489 0157 09       		.uleb128 0x9
 490 0158 88010000 		.4byte	.LASF29
 491 015c 06       		.byte	0x6
 492 015d A8       		.byte	0xa8
 493 015e 43010000 		.4byte	0x143
 494 0162 09       		.uleb128 0x9
 495 0163 150A0000 		.4byte	.LASF30
 496 0167 06       		.byte	0x6
 497 0168 A9       		.byte	0xa9
 498 0169 6E010000 		.4byte	0x16e
 499 016d 00       		.byte	0
 500 016e 0A       		.uleb128 0xa
 501 016f 37000000 		.4byte	0x37
 502 0173 7E010000 		.4byte	0x17e
 503 0177 0B       		.uleb128 0xb
 504 0178 7E010000 		.4byte	0x17e
 505 017c 03       		.byte	0x3
 506 017d 00       		.byte	0
 507 017e 02       		.uleb128 0x2
 508 017f 04       		.byte	0x4
 509 0180 07       		.byte	0x7
 510 0181 24000000 		.4byte	.LASF31
 511 0185 0C       		.uleb128 0xc
 512 0186 08       		.byte	0x8
 513 0187 06       		.byte	0x6
ARM GAS  /tmp/cc248mnq.s 			page 10


 514 0188 A3       		.byte	0xa3
 515 0189 A6010000 		.4byte	0x1a6
 516 018d 0D       		.uleb128 0xd
 517 018e 40090000 		.4byte	.LASF32
 518 0192 06       		.byte	0x6
 519 0193 A5       		.byte	0xa5
 520 0194 94000000 		.4byte	0x94
 521 0198 00       		.byte	0
 522 0199 0D       		.uleb128 0xd
 523 019a 38000000 		.4byte	.LASF33
 524 019e 06       		.byte	0x6
 525 019f AA       		.byte	0xaa
 526 01a0 4F010000 		.4byte	0x14f
 527 01a4 04       		.byte	0x4
 528 01a5 00       		.byte	0
 529 01a6 03       		.uleb128 0x3
 530 01a7 490B0000 		.4byte	.LASF34
 531 01ab 06       		.byte	0x6
 532 01ac AB       		.byte	0xab
 533 01ad 85010000 		.4byte	0x185
 534 01b1 03       		.uleb128 0x3
 535 01b2 2C0B0000 		.4byte	.LASF35
 536 01b6 06       		.byte	0x6
 537 01b7 AF       		.byte	0xaf
 538 01b8 B4000000 		.4byte	0xb4
 539 01bc 0E       		.uleb128 0xe
 540 01bd 04       		.byte	0x4
 541 01be 03       		.uleb128 0x3
 542 01bf B60D0000 		.4byte	.LASF36
 543 01c3 06       		.byte	0x6
 544 01c4 CB       		.byte	0xcb
 545 01c5 50000000 		.4byte	0x50
 546 01c9 03       		.uleb128 0x3
 547 01ca E1020000 		.4byte	.LASF37
 548 01ce 07       		.byte	0x7
 549 01cf 18       		.byte	0x18
 550 01d0 2C000000 		.4byte	0x2c
 551 01d4 0F       		.uleb128 0xf
 552 01d5 C9010000 		.4byte	0x1c9
 553 01d9 03       		.uleb128 0x3
 554 01da 790A0000 		.4byte	.LASF38
 555 01de 07       		.byte	0x7
 556 01df 24       		.byte	0x24
 557 01e0 45000000 		.4byte	0x45
 558 01e4 03       		.uleb128 0x3
 559 01e5 9C000000 		.4byte	.LASF39
 560 01e9 07       		.byte	0x7
 561 01ea 2C       		.byte	0x2c
 562 01eb 57000000 		.4byte	0x57
 563 01ef 10       		.uleb128 0x10
 564 01f0 E4010000 		.4byte	0x1e4
 565 01f4 03       		.uleb128 0x3
 566 01f5 FE0C0000 		.4byte	.LASF40
 567 01f9 07       		.byte	0x7
 568 01fa 30       		.byte	0x30
 569 01fb 69000000 		.4byte	0x69
 570 01ff 03       		.uleb128 0x3
ARM GAS  /tmp/cc248mnq.s 			page 11


 571 0200 F30B0000 		.4byte	.LASF41
 572 0204 07       		.byte	0x7
 573 0205 3C       		.byte	0x3c
 574 0206 82000000 		.4byte	0x82
 575 020a 03       		.uleb128 0x3
 576 020b 2F010000 		.4byte	.LASF42
 577 020f 08       		.byte	0x8
 578 0210 28       		.byte	0x28
 579 0211 62000000 		.4byte	0x62
 580 0215 03       		.uleb128 0x3
 581 0216 5B080000 		.4byte	.LASF43
 582 021a 09       		.byte	0x9
 583 021b 71       		.byte	0x71
 584 021c CA000000 		.4byte	0xca
 585 0220 03       		.uleb128 0x3
 586 0221 CD0C0000 		.4byte	.LASF44
 587 0225 09       		.byte	0x9
 588 0226 76       		.byte	0x76
 589 0227 D5000000 		.4byte	0xd5
 590 022b 03       		.uleb128 0x3
 591 022c 64080000 		.4byte	.LASF45
 592 0230 09       		.byte	0x9
 593 0231 8B       		.byte	0x8b
 594 0232 36020000 		.4byte	0x236
 595 0236 05       		.uleb128 0x5
 596 0237 04       		.byte	0x4
 597 0238 3C020000 		.4byte	0x23c
 598 023c 02       		.uleb128 0x2
 599 023d 01       		.byte	0x1
 600 023e 08       		.byte	0x8
 601 023f BE040000 		.4byte	.LASF46
 602 0243 0F       		.uleb128 0xf
 603 0244 3C020000 		.4byte	0x23c
 604 0248 03       		.uleb128 0x3
 605 0249 07060000 		.4byte	.LASF47
 606 024d 09       		.byte	0x9
 607 024e 9B       		.byte	0x9b
 608 024f 17010000 		.4byte	0x117
 609 0253 03       		.uleb128 0x3
 610 0254 51090000 		.4byte	.LASF48
 611 0258 09       		.byte	0x9
 612 0259 AD       		.byte	0xad
 613 025a 2D010000 		.4byte	0x12d
 614 025e 03       		.uleb128 0x3
 615 025f E2000000 		.4byte	.LASF49
 616 0263 09       		.byte	0x9
 617 0264 B1       		.byte	0xb1
 618 0265 F6000000 		.4byte	0xf6
 619 0269 03       		.uleb128 0x3
 620 026a A9010000 		.4byte	.LASF50
 621 026e 09       		.byte	0x9
 622 026f B5       		.byte	0xb5
 623 0270 01010000 		.4byte	0x101
 624 0274 03       		.uleb128 0x3
 625 0275 E70D0000 		.4byte	.LASF51
 626 0279 09       		.byte	0x9
 627 027a B9       		.byte	0xb9
ARM GAS  /tmp/cc248mnq.s 			page 12


 628 027b 0C010000 		.4byte	0x10c
 629 027f 03       		.uleb128 0x3
 630 0280 BB080000 		.4byte	.LASF52
 631 0284 09       		.byte	0x9
 632 0285 BE       		.byte	0xbe
 633 0286 EB000000 		.4byte	0xeb
 634 028a 03       		.uleb128 0x3
 635 028b 65090000 		.4byte	.LASF53
 636 028f 09       		.byte	0x9
 637 0290 CD       		.byte	0xcd
 638 0291 22010000 		.4byte	0x122
 639 0295 03       		.uleb128 0x3
 640 0296 E8000000 		.4byte	.LASF54
 641 029a 09       		.byte	0x9
 642 029b D2       		.byte	0xd2
 643 029c BE010000 		.4byte	0x1be
 644 02a0 11       		.uleb128 0x11
 645 02a1 36040000 		.4byte	.LASF55
 646 02a5 0A       		.byte	0xa
 647 02a6 10       		.byte	0x10
 648 02a7 AB020000 		.4byte	0x2ab
 649 02ab 05       		.uleb128 0x5
 650 02ac 04       		.byte	0x4
 651 02ad 36020000 		.4byte	0x236
 652 02b1 11       		.uleb128 0x11
 653 02b2 0F0D0000 		.4byte	.LASF56
 654 02b6 0A       		.byte	0xa
 655 02b7 E2       		.byte	0xe2
 656 02b8 36020000 		.4byte	0x236
 657 02bc 11       		.uleb128 0x11
 658 02bd EA050000 		.4byte	.LASF57
 659 02c1 0A       		.byte	0xa
 660 02c2 E3       		.byte	0xe3
 661 02c3 94000000 		.4byte	0x94
 662 02c7 11       		.uleb128 0x11
 663 02c8 EA0A0000 		.4byte	.LASF58
 664 02cc 0A       		.byte	0xa
 665 02cd E3       		.byte	0xe3
 666 02ce 94000000 		.4byte	0x94
 667 02d2 11       		.uleb128 0x11
 668 02d3 490A0000 		.4byte	.LASF59
 669 02d7 0A       		.byte	0xa
 670 02d8 E3       		.byte	0xe3
 671 02d9 94000000 		.4byte	0x94
 672 02dd 11       		.uleb128 0x11
 673 02de 28050000 		.4byte	.LASF60
 674 02e2 0A       		.byte	0xa
 675 02e3 E5       		.byte	0xe5
 676 02e4 94000000 		.4byte	0x94
 677 02e8 03       		.uleb128 0x3
 678 02e9 F00C0000 		.4byte	.LASF61
 679 02ed 0B       		.byte	0xb
 680 02ee 16       		.byte	0x16
 681 02ef 74000000 		.4byte	0x74
 682 02f3 12       		.uleb128 0x12
 683 02f4 1E070000 		.4byte	.LASF66
 684 02f8 18       		.byte	0x18
ARM GAS  /tmp/cc248mnq.s 			page 13


 685 02f9 0B       		.byte	0xb
 686 02fa 2F       		.byte	0x2f
 687 02fb 46030000 		.4byte	0x346
 688 02ff 0D       		.uleb128 0xd
 689 0300 7B0B0000 		.4byte	.LASF62
 690 0304 0B       		.byte	0xb
 691 0305 31       		.byte	0x31
 692 0306 46030000 		.4byte	0x346
 693 030a 00       		.byte	0
 694 030b 13       		.uleb128 0x13
 695 030c 5F6B00   		.ascii	"_k\000"
 696 030f 0B       		.byte	0xb
 697 0310 32       		.byte	0x32
 698 0311 94000000 		.4byte	0x94
 699 0315 04       		.byte	0x4
 700 0316 0D       		.uleb128 0xd
 701 0317 36070000 		.4byte	.LASF63
 702 031b 0B       		.byte	0xb
 703 031c 32       		.byte	0x32
 704 031d 94000000 		.4byte	0x94
 705 0321 08       		.byte	0x8
 706 0322 0D       		.uleb128 0xd
 707 0323 21080000 		.4byte	.LASF64
 708 0327 0B       		.byte	0xb
 709 0328 32       		.byte	0x32
 710 0329 94000000 		.4byte	0x94
 711 032d 0C       		.byte	0xc
 712 032e 0D       		.uleb128 0xd
 713 032f 93050000 		.4byte	.LASF65
 714 0333 0B       		.byte	0xb
 715 0334 32       		.byte	0x32
 716 0335 94000000 		.4byte	0x94
 717 0339 10       		.byte	0x10
 718 033a 13       		.uleb128 0x13
 719 033b 5F7800   		.ascii	"_x\000"
 720 033e 0B       		.byte	0xb
 721 033f 33       		.byte	0x33
 722 0340 4C030000 		.4byte	0x34c
 723 0344 14       		.byte	0x14
 724 0345 00       		.byte	0
 725 0346 05       		.uleb128 0x5
 726 0347 04       		.byte	0x4
 727 0348 F3020000 		.4byte	0x2f3
 728 034c 0A       		.uleb128 0xa
 729 034d E8020000 		.4byte	0x2e8
 730 0351 5C030000 		.4byte	0x35c
 731 0355 0B       		.uleb128 0xb
 732 0356 7E010000 		.4byte	0x17e
 733 035a 00       		.byte	0
 734 035b 00       		.byte	0
 735 035c 12       		.uleb128 0x12
 736 035d 00010000 		.4byte	.LASF67
 737 0361 24       		.byte	0x24
 738 0362 0B       		.byte	0xb
 739 0363 37       		.byte	0x37
 740 0364 D5030000 		.4byte	0x3d5
 741 0368 0D       		.uleb128 0xd
ARM GAS  /tmp/cc248mnq.s 			page 14


 742 0369 1C010000 		.4byte	.LASF68
 743 036d 0B       		.byte	0xb
 744 036e 39       		.byte	0x39
 745 036f 94000000 		.4byte	0x94
 746 0373 00       		.byte	0
 747 0374 0D       		.uleb128 0xd
 748 0375 ED0D0000 		.4byte	.LASF69
 749 0379 0B       		.byte	0xb
 750 037a 3A       		.byte	0x3a
 751 037b 94000000 		.4byte	0x94
 752 037f 04       		.byte	0x4
 753 0380 0D       		.uleb128 0xd
 754 0381 4A0D0000 		.4byte	.LASF70
 755 0385 0B       		.byte	0xb
 756 0386 3B       		.byte	0x3b
 757 0387 94000000 		.4byte	0x94
 758 038b 08       		.byte	0x8
 759 038c 0D       		.uleb128 0xd
 760 038d C1080000 		.4byte	.LASF71
 761 0391 0B       		.byte	0xb
 762 0392 3C       		.byte	0x3c
 763 0393 94000000 		.4byte	0x94
 764 0397 0C       		.byte	0xc
 765 0398 0D       		.uleb128 0xd
 766 0399 63020000 		.4byte	.LASF72
 767 039d 0B       		.byte	0xb
 768 039e 3D       		.byte	0x3d
 769 039f 94000000 		.4byte	0x94
 770 03a3 10       		.byte	0x10
 771 03a4 0D       		.uleb128 0xd
 772 03a5 440C0000 		.4byte	.LASF73
 773 03a9 0B       		.byte	0xb
 774 03aa 3E       		.byte	0x3e
 775 03ab 94000000 		.4byte	0x94
 776 03af 14       		.byte	0x14
 777 03b0 0D       		.uleb128 0xd
 778 03b1 8B090000 		.4byte	.LASF74
 779 03b5 0B       		.byte	0xb
 780 03b6 3F       		.byte	0x3f
 781 03b7 94000000 		.4byte	0x94
 782 03bb 18       		.byte	0x18
 783 03bc 0D       		.uleb128 0xd
 784 03bd B3090000 		.4byte	.LASF75
 785 03c1 0B       		.byte	0xb
 786 03c2 40       		.byte	0x40
 787 03c3 94000000 		.4byte	0x94
 788 03c7 1C       		.byte	0x1c
 789 03c8 0D       		.uleb128 0xd
 790 03c9 D70D0000 		.4byte	.LASF76
 791 03cd 0B       		.byte	0xb
 792 03ce 41       		.byte	0x41
 793 03cf 94000000 		.4byte	0x94
 794 03d3 20       		.byte	0x20
 795 03d4 00       		.byte	0
 796 03d5 14       		.uleb128 0x14
 797 03d6 B5010000 		.4byte	.LASF77
 798 03da 0801     		.2byte	0x108
ARM GAS  /tmp/cc248mnq.s 			page 15


 799 03dc 0B       		.byte	0xb
 800 03dd 4A       		.byte	0x4a
 801 03de 15040000 		.4byte	0x415
 802 03e2 0D       		.uleb128 0xd
 803 03e3 C00D0000 		.4byte	.LASF78
 804 03e7 0B       		.byte	0xb
 805 03e8 4B       		.byte	0x4b
 806 03e9 15040000 		.4byte	0x415
 807 03ed 00       		.byte	0
 808 03ee 0D       		.uleb128 0xd
 809 03ef 930A0000 		.4byte	.LASF79
 810 03f3 0B       		.byte	0xb
 811 03f4 4C       		.byte	0x4c
 812 03f5 15040000 		.4byte	0x415
 813 03f9 80       		.byte	0x80
 814 03fa 15       		.uleb128 0x15
 815 03fb 130C0000 		.4byte	.LASF80
 816 03ff 0B       		.byte	0xb
 817 0400 4E       		.byte	0x4e
 818 0401 E8020000 		.4byte	0x2e8
 819 0405 0001     		.2byte	0x100
 820 0407 15       		.uleb128 0x15
 821 0408 910C0000 		.4byte	.LASF81
 822 040c 0B       		.byte	0xb
 823 040d 51       		.byte	0x51
 824 040e E8020000 		.4byte	0x2e8
 825 0412 0401     		.2byte	0x104
 826 0414 00       		.byte	0
 827 0415 0A       		.uleb128 0xa
 828 0416 BC010000 		.4byte	0x1bc
 829 041a 25040000 		.4byte	0x425
 830 041e 0B       		.uleb128 0xb
 831 041f 7E010000 		.4byte	0x17e
 832 0423 1F       		.byte	0x1f
 833 0424 00       		.byte	0
 834 0425 14       		.uleb128 0x14
 835 0426 38090000 		.4byte	.LASF82
 836 042a 9001     		.2byte	0x190
 837 042c 0B       		.byte	0xb
 838 042d 5D       		.byte	0x5d
 839 042e 63040000 		.4byte	0x463
 840 0432 0D       		.uleb128 0xd
 841 0433 7B0B0000 		.4byte	.LASF62
 842 0437 0B       		.byte	0xb
 843 0438 5E       		.byte	0x5e
 844 0439 63040000 		.4byte	0x463
 845 043d 00       		.byte	0
 846 043e 0D       		.uleb128 0xd
 847 043f 6F0C0000 		.4byte	.LASF83
 848 0443 0B       		.byte	0xb
 849 0444 5F       		.byte	0x5f
 850 0445 94000000 		.4byte	0x94
 851 0449 04       		.byte	0x4
 852 044a 0D       		.uleb128 0xd
 853 044b C3040000 		.4byte	.LASF84
 854 044f 0B       		.byte	0xb
 855 0450 61       		.byte	0x61
ARM GAS  /tmp/cc248mnq.s 			page 16


 856 0451 69040000 		.4byte	0x469
 857 0455 08       		.byte	0x8
 858 0456 0D       		.uleb128 0xd
 859 0457 B5010000 		.4byte	.LASF77
 860 045b 0B       		.byte	0xb
 861 045c 62       		.byte	0x62
 862 045d D5030000 		.4byte	0x3d5
 863 0461 88       		.byte	0x88
 864 0462 00       		.byte	0
 865 0463 05       		.uleb128 0x5
 866 0464 04       		.byte	0x4
 867 0465 25040000 		.4byte	0x425
 868 0469 0A       		.uleb128 0xa
 869 046a 79040000 		.4byte	0x479
 870 046e 79040000 		.4byte	0x479
 871 0472 0B       		.uleb128 0xb
 872 0473 7E010000 		.4byte	0x17e
 873 0477 1F       		.byte	0x1f
 874 0478 00       		.byte	0
 875 0479 05       		.uleb128 0x5
 876 047a 04       		.byte	0x4
 877 047b 7F040000 		.4byte	0x47f
 878 047f 16       		.uleb128 0x16
 879 0480 12       		.uleb128 0x12
 880 0481 7C0C0000 		.4byte	.LASF85
 881 0485 08       		.byte	0x8
 882 0486 0B       		.byte	0xb
 883 0487 75       		.byte	0x75
 884 0488 A5040000 		.4byte	0x4a5
 885 048c 0D       		.uleb128 0xd
 886 048d D50A0000 		.4byte	.LASF86
 887 0491 0B       		.byte	0xb
 888 0492 76       		.byte	0x76
 889 0493 A5040000 		.4byte	0x4a5
 890 0497 00       		.byte	0
 891 0498 0D       		.uleb128 0xd
 892 0499 0F020000 		.4byte	.LASF87
 893 049d 0B       		.byte	0xb
 894 049e 77       		.byte	0x77
 895 049f 94000000 		.4byte	0x94
 896 04a3 04       		.byte	0x4
 897 04a4 00       		.byte	0
 898 04a5 05       		.uleb128 0x5
 899 04a6 04       		.byte	0x4
 900 04a7 37000000 		.4byte	0x37
 901 04ab 12       		.uleb128 0x12
 902 04ac 39060000 		.4byte	.LASF88
 903 04b0 68       		.byte	0x68
 904 04b1 0B       		.byte	0xb
 905 04b2 B5       		.byte	0xb5
 906 04b3 D5050000 		.4byte	0x5d5
 907 04b7 13       		.uleb128 0x13
 908 04b8 5F7000   		.ascii	"_p\000"
 909 04bb 0B       		.byte	0xb
 910 04bc B6       		.byte	0xb6
 911 04bd A5040000 		.4byte	0x4a5
 912 04c1 00       		.byte	0
ARM GAS  /tmp/cc248mnq.s 			page 17


 913 04c2 13       		.uleb128 0x13
 914 04c3 5F7200   		.ascii	"_r\000"
 915 04c6 0B       		.byte	0xb
 916 04c7 B7       		.byte	0xb7
 917 04c8 94000000 		.4byte	0x94
 918 04cc 04       		.byte	0x4
 919 04cd 13       		.uleb128 0x13
 920 04ce 5F7700   		.ascii	"_w\000"
 921 04d1 0B       		.byte	0xb
 922 04d2 B8       		.byte	0xb8
 923 04d3 94000000 		.4byte	0x94
 924 04d7 08       		.byte	0x8
 925 04d8 0D       		.uleb128 0xd
 926 04d9 17090000 		.4byte	.LASF89
 927 04dd 0B       		.byte	0xb
 928 04de B9       		.byte	0xb9
 929 04df 3E000000 		.4byte	0x3e
 930 04e3 0C       		.byte	0xc
 931 04e4 0D       		.uleb128 0xd
 932 04e5 AF010000 		.4byte	.LASF90
 933 04e9 0B       		.byte	0xb
 934 04ea BA       		.byte	0xba
 935 04eb 3E000000 		.4byte	0x3e
 936 04ef 0E       		.byte	0xe
 937 04f0 13       		.uleb128 0x13
 938 04f1 5F626600 		.ascii	"_bf\000"
 939 04f5 0B       		.byte	0xb
 940 04f6 BB       		.byte	0xbb
 941 04f7 80040000 		.4byte	0x480
 942 04fb 10       		.byte	0x10
 943 04fc 0D       		.uleb128 0xd
 944 04fd 5A0C0000 		.4byte	.LASF91
 945 0501 0B       		.byte	0xb
 946 0502 BC       		.byte	0xbc
 947 0503 94000000 		.4byte	0x94
 948 0507 18       		.byte	0x18
 949 0508 0D       		.uleb128 0xd
 950 0509 84050000 		.4byte	.LASF92
 951 050d 0B       		.byte	0xb
 952 050e C3       		.byte	0xc3
 953 050f BC010000 		.4byte	0x1bc
 954 0513 1C       		.byte	0x1c
 955 0514 0D       		.uleb128 0xd
 956 0515 61000000 		.4byte	.LASF93
 957 0519 0B       		.byte	0xb
 958 051a C5       		.byte	0xc5
 959 051b 30070000 		.4byte	0x730
 960 051f 20       		.byte	0x20
 961 0520 0D       		.uleb128 0xd
 962 0521 95000000 		.4byte	.LASF94
 963 0525 0B       		.byte	0xb
 964 0526 C7       		.byte	0xc7
 965 0527 64070000 		.4byte	0x764
 966 052b 24       		.byte	0x24
 967 052c 0D       		.uleb128 0xd
 968 052d 000A0000 		.4byte	.LASF95
 969 0531 0B       		.byte	0xb
ARM GAS  /tmp/cc248mnq.s 			page 18


 970 0532 CA       		.byte	0xca
 971 0533 88070000 		.4byte	0x788
 972 0537 28       		.byte	0x28
 973 0538 0D       		.uleb128 0xd
 974 0539 C8040000 		.4byte	.LASF96
 975 053d 0B       		.byte	0xb
 976 053e CB       		.byte	0xcb
 977 053f A2070000 		.4byte	0x7a2
 978 0543 2C       		.byte	0x2c
 979 0544 13       		.uleb128 0x13
 980 0545 5F756200 		.ascii	"_ub\000"
 981 0549 0B       		.byte	0xb
 982 054a CE       		.byte	0xce
 983 054b 80040000 		.4byte	0x480
 984 054f 30       		.byte	0x30
 985 0550 13       		.uleb128 0x13
 986 0551 5F757000 		.ascii	"_up\000"
 987 0555 0B       		.byte	0xb
 988 0556 CF       		.byte	0xcf
 989 0557 A5040000 		.4byte	0x4a5
 990 055b 38       		.byte	0x38
 991 055c 13       		.uleb128 0x13
 992 055d 5F757200 		.ascii	"_ur\000"
 993 0561 0B       		.byte	0xb
 994 0562 D0       		.byte	0xd0
 995 0563 94000000 		.4byte	0x94
 996 0567 3C       		.byte	0x3c
 997 0568 0D       		.uleb128 0xd
 998 0569 DF080000 		.4byte	.LASF97
 999 056d 0B       		.byte	0xb
 1000 056e D3       		.byte	0xd3
 1001 056f A8070000 		.4byte	0x7a8
 1002 0573 40       		.byte	0x40
 1003 0574 0D       		.uleb128 0xd
 1004 0575 16010000 		.4byte	.LASF98
 1005 0579 0B       		.byte	0xb
 1006 057a D4       		.byte	0xd4
 1007 057b B8070000 		.4byte	0x7b8
 1008 057f 43       		.byte	0x43
 1009 0580 13       		.uleb128 0x13
 1010 0581 5F6C6200 		.ascii	"_lb\000"
 1011 0585 0B       		.byte	0xb
 1012 0586 D7       		.byte	0xd7
 1013 0587 80040000 		.4byte	0x480
 1014 058b 44       		.byte	0x44
 1015 058c 0D       		.uleb128 0xd
 1016 058d CC0A0000 		.4byte	.LASF99
 1017 0591 0B       		.byte	0xb
 1018 0592 DA       		.byte	0xda
 1019 0593 94000000 		.4byte	0x94
 1020 0597 4C       		.byte	0x4c
 1021 0598 0D       		.uleb128 0xd
 1022 0599 C0050000 		.4byte	.LASF100
 1023 059d 0B       		.byte	0xb
 1024 059e DB       		.byte	0xdb
 1025 059f E0000000 		.4byte	0xe0
 1026 05a3 50       		.byte	0x50
ARM GAS  /tmp/cc248mnq.s 			page 19


 1027 05a4 0D       		.uleb128 0xd
 1028 05a5 810B0000 		.4byte	.LASF101
 1029 05a9 0B       		.byte	0xb
 1030 05aa DE       		.byte	0xde
 1031 05ab F3050000 		.4byte	0x5f3
 1032 05af 54       		.byte	0x54
 1033 05b0 0D       		.uleb128 0xd
 1034 05b1 4B010000 		.4byte	.LASF102
 1035 05b5 0B       		.byte	0xb
 1036 05b6 E2       		.byte	0xe2
 1037 05b7 B1010000 		.4byte	0x1b1
 1038 05bb 58       		.byte	0x58
 1039 05bc 0D       		.uleb128 0xd
 1040 05bd FB080000 		.4byte	.LASF103
 1041 05c1 0B       		.byte	0xb
 1042 05c2 E4       		.byte	0xe4
 1043 05c3 A6010000 		.4byte	0x1a6
 1044 05c7 5C       		.byte	0x5c
 1045 05c8 0D       		.uleb128 0xd
 1046 05c9 4C060000 		.4byte	.LASF104
 1047 05cd 0B       		.byte	0xb
 1048 05ce E5       		.byte	0xe5
 1049 05cf 94000000 		.4byte	0x94
 1050 05d3 64       		.byte	0x64
 1051 05d4 00       		.byte	0
 1052 05d5 17       		.uleb128 0x17
 1053 05d6 94000000 		.4byte	0x94
 1054 05da F3050000 		.4byte	0x5f3
 1055 05de 18       		.uleb128 0x18
 1056 05df F3050000 		.4byte	0x5f3
 1057 05e3 18       		.uleb128 0x18
 1058 05e4 BC010000 		.4byte	0x1bc
 1059 05e8 18       		.uleb128 0x18
 1060 05e9 36020000 		.4byte	0x236
 1061 05ed 18       		.uleb128 0x18
 1062 05ee 94000000 		.4byte	0x94
 1063 05f2 00       		.byte	0
 1064 05f3 05       		.uleb128 0x5
 1065 05f4 04       		.byte	0x4
 1066 05f5 FE050000 		.4byte	0x5fe
 1067 05f9 0F       		.uleb128 0xf
 1068 05fa F3050000 		.4byte	0x5f3
 1069 05fe 19       		.uleb128 0x19
 1070 05ff 88040000 		.4byte	.LASF105
 1071 0603 2804     		.2byte	0x428
 1072 0605 0B       		.byte	0xb
 1073 0606 3902     		.2byte	0x239
 1074 0608 30070000 		.4byte	0x730
 1075 060c 1A       		.uleb128 0x1a
 1076 060d AB060000 		.4byte	.LASF106
 1077 0611 0B       		.byte	0xb
 1078 0612 3B02     		.2byte	0x23b
 1079 0614 94000000 		.4byte	0x94
 1080 0618 00       		.byte	0
 1081 0619 1A       		.uleb128 0x1a
 1082 061a F3040000 		.4byte	.LASF107
 1083 061e 0B       		.byte	0xb
ARM GAS  /tmp/cc248mnq.s 			page 20


 1084 061f 4002     		.2byte	0x240
 1085 0621 0F080000 		.4byte	0x80f
 1086 0625 04       		.byte	0x4
 1087 0626 1A       		.uleb128 0x1a
 1088 0627 BE0A0000 		.4byte	.LASF108
 1089 062b 0B       		.byte	0xb
 1090 062c 4002     		.2byte	0x240
 1091 062e 0F080000 		.4byte	0x80f
 1092 0632 08       		.byte	0x8
 1093 0633 1A       		.uleb128 0x1a
 1094 0634 E5080000 		.4byte	.LASF109
 1095 0638 0B       		.byte	0xb
 1096 0639 4002     		.2byte	0x240
 1097 063b 0F080000 		.4byte	0x80f
 1098 063f 0C       		.byte	0xc
 1099 0640 1A       		.uleb128 0x1a
 1100 0641 6A0C0000 		.4byte	.LASF110
 1101 0645 0B       		.byte	0xb
 1102 0646 4202     		.2byte	0x242
 1103 0648 94000000 		.4byte	0x94
 1104 064c 10       		.byte	0x10
 1105 064d 1A       		.uleb128 0x1a
 1106 064e 8F070000 		.4byte	.LASF111
 1107 0652 0B       		.byte	0xb
 1108 0653 4302     		.2byte	0x243
 1109 0655 F1090000 		.4byte	0x9f1
 1110 0659 14       		.byte	0x14
 1111 065a 1A       		.uleb128 0x1a
 1112 065b 6F040000 		.4byte	.LASF112
 1113 065f 0B       		.byte	0xb
 1114 0660 4602     		.2byte	0x246
 1115 0662 94000000 		.4byte	0x94
 1116 0666 30       		.byte	0x30
 1117 0667 1A       		.uleb128 0x1a
 1118 0668 E80C0000 		.4byte	.LASF113
 1119 066c 0B       		.byte	0xb
 1120 066d 4702     		.2byte	0x247
 1121 066f 060A0000 		.4byte	0xa06
 1122 0673 34       		.byte	0x34
 1123 0674 1A       		.uleb128 0x1a
 1124 0675 41060000 		.4byte	.LASF114
 1125 0679 0B       		.byte	0xb
 1126 067a 4902     		.2byte	0x249
 1127 067c 94000000 		.4byte	0x94
 1128 0680 38       		.byte	0x38
 1129 0681 1A       		.uleb128 0x1a
 1130 0682 82000000 		.4byte	.LASF115
 1131 0686 0B       		.byte	0xb
 1132 0687 4B02     		.2byte	0x24b
 1133 0689 170A0000 		.4byte	0xa17
 1134 068d 3C       		.byte	0x3c
 1135 068e 1A       		.uleb128 0x1a
 1136 068f 070D0000 		.4byte	.LASF116
 1137 0693 0B       		.byte	0xb
 1138 0694 4E02     		.2byte	0x24e
 1139 0696 46030000 		.4byte	0x346
 1140 069a 40       		.byte	0x40
ARM GAS  /tmp/cc248mnq.s 			page 21


 1141 069b 1A       		.uleb128 0x1a
 1142 069c 05020000 		.4byte	.LASF117
 1143 06a0 0B       		.byte	0xb
 1144 06a1 4F02     		.2byte	0x24f
 1145 06a3 94000000 		.4byte	0x94
 1146 06a7 44       		.byte	0x44
 1147 06a8 1A       		.uleb128 0x1a
 1148 06a9 17060000 		.4byte	.LASF118
 1149 06ad 0B       		.byte	0xb
 1150 06ae 5002     		.2byte	0x250
 1151 06b0 46030000 		.4byte	0x346
 1152 06b4 48       		.byte	0x48
 1153 06b5 1A       		.uleb128 0x1a
 1154 06b6 F8070000 		.4byte	.LASF119
 1155 06ba 0B       		.byte	0xb
 1156 06bb 5102     		.2byte	0x251
 1157 06bd 1D0A0000 		.4byte	0xa1d
 1158 06c1 4C       		.byte	0x4c
 1159 06c2 1A       		.uleb128 0x1a
 1160 06c3 B1000000 		.4byte	.LASF120
 1161 06c7 0B       		.byte	0xb
 1162 06c8 5402     		.2byte	0x254
 1163 06ca 94000000 		.4byte	0x94
 1164 06ce 50       		.byte	0x50
 1165 06cf 1A       		.uleb128 0x1a
 1166 06d0 C8050000 		.4byte	.LASF121
 1167 06d4 0B       		.byte	0xb
 1168 06d5 5502     		.2byte	0x255
 1169 06d7 36020000 		.4byte	0x236
 1170 06db 54       		.byte	0x54
 1171 06dc 1A       		.uleb128 0x1a
 1172 06dd DA080000 		.4byte	.LASF122
 1173 06e1 0B       		.byte	0xb
 1174 06e2 7802     		.2byte	0x278
 1175 06e4 CF090000 		.4byte	0x9cf
 1176 06e8 58       		.byte	0x58
 1177 06e9 1B       		.uleb128 0x1b
 1178 06ea 38090000 		.4byte	.LASF82
 1179 06ee 0B       		.byte	0xb
 1180 06ef 7C02     		.2byte	0x27c
 1181 06f1 63040000 		.4byte	0x463
 1182 06f5 4801     		.2byte	0x148
 1183 06f7 1B       		.uleb128 0x1b
 1184 06f8 4F070000 		.4byte	.LASF123
 1185 06fc 0B       		.byte	0xb
 1186 06fd 7D02     		.2byte	0x27d
 1187 06ff 25040000 		.4byte	0x425
 1188 0703 4C01     		.2byte	0x14c
 1189 0705 1B       		.uleb128 0x1b
 1190 0706 AD050000 		.4byte	.LASF124
 1191 070a 0B       		.byte	0xb
 1192 070b 8102     		.2byte	0x281
 1193 070d 2E0A0000 		.4byte	0xa2e
 1194 0711 DC02     		.2byte	0x2dc
 1195 0713 1B       		.uleb128 0x1b
 1196 0714 D8070000 		.4byte	.LASF125
 1197 0718 0B       		.byte	0xb
ARM GAS  /tmp/cc248mnq.s 			page 22


 1198 0719 8602     		.2byte	0x286
 1199 071b D4070000 		.4byte	0x7d4
 1200 071f E002     		.2byte	0x2e0
 1201 0721 1B       		.uleb128 0x1b
 1202 0722 56000000 		.4byte	.LASF126
 1203 0726 0B       		.byte	0xb
 1204 0727 8702     		.2byte	0x287
 1205 0729 3A0A0000 		.4byte	0xa3a
 1206 072d EC02     		.2byte	0x2ec
 1207 072f 00       		.byte	0
 1208 0730 05       		.uleb128 0x5
 1209 0731 04       		.byte	0x4
 1210 0732 D5050000 		.4byte	0x5d5
 1211 0736 17       		.uleb128 0x17
 1212 0737 94000000 		.4byte	0x94
 1213 073b 54070000 		.4byte	0x754
 1214 073f 18       		.uleb128 0x18
 1215 0740 F3050000 		.4byte	0x5f3
 1216 0744 18       		.uleb128 0x18
 1217 0745 BC010000 		.4byte	0x1bc
 1218 0749 18       		.uleb128 0x18
 1219 074a 54070000 		.4byte	0x754
 1220 074e 18       		.uleb128 0x18
 1221 074f 94000000 		.4byte	0x94
 1222 0753 00       		.byte	0
 1223 0754 05       		.uleb128 0x5
 1224 0755 04       		.byte	0x4
 1225 0756 43020000 		.4byte	0x243
 1226 075a 0F       		.uleb128 0xf
 1227 075b 54070000 		.4byte	0x754
 1228 075f 10       		.uleb128 0x10
 1229 0760 54070000 		.4byte	0x754
 1230 0764 05       		.uleb128 0x5
 1231 0765 04       		.byte	0x4
 1232 0766 36070000 		.4byte	0x736
 1233 076a 17       		.uleb128 0x17
 1234 076b 38010000 		.4byte	0x138
 1235 076f 88070000 		.4byte	0x788
 1236 0773 18       		.uleb128 0x18
 1237 0774 F3050000 		.4byte	0x5f3
 1238 0778 18       		.uleb128 0x18
 1239 0779 BC010000 		.4byte	0x1bc
 1240 077d 18       		.uleb128 0x18
 1241 077e 38010000 		.4byte	0x138
 1242 0782 18       		.uleb128 0x18
 1243 0783 94000000 		.4byte	0x94
 1244 0787 00       		.byte	0
 1245 0788 05       		.uleb128 0x5
 1246 0789 04       		.byte	0x4
 1247 078a 6A070000 		.4byte	0x76a
 1248 078e 17       		.uleb128 0x17
 1249 078f 94000000 		.4byte	0x94
 1250 0793 A2070000 		.4byte	0x7a2
 1251 0797 18       		.uleb128 0x18
 1252 0798 F3050000 		.4byte	0x5f3
 1253 079c 18       		.uleb128 0x18
 1254 079d BC010000 		.4byte	0x1bc
ARM GAS  /tmp/cc248mnq.s 			page 23


 1255 07a1 00       		.byte	0
 1256 07a2 05       		.uleb128 0x5
 1257 07a3 04       		.byte	0x4
 1258 07a4 8E070000 		.4byte	0x78e
 1259 07a8 0A       		.uleb128 0xa
 1260 07a9 37000000 		.4byte	0x37
 1261 07ad B8070000 		.4byte	0x7b8
 1262 07b1 0B       		.uleb128 0xb
 1263 07b2 7E010000 		.4byte	0x17e
 1264 07b6 02       		.byte	0x2
 1265 07b7 00       		.byte	0
 1266 07b8 0A       		.uleb128 0xa
 1267 07b9 37000000 		.4byte	0x37
 1268 07bd C8070000 		.4byte	0x7c8
 1269 07c1 0B       		.uleb128 0xb
 1270 07c2 7E010000 		.4byte	0x17e
 1271 07c6 00       		.byte	0
 1272 07c7 00       		.byte	0
 1273 07c8 07       		.uleb128 0x7
 1274 07c9 3D0B0000 		.4byte	.LASF127
 1275 07cd 0B       		.byte	0xb
 1276 07ce 1F01     		.2byte	0x11f
 1277 07d0 AB040000 		.4byte	0x4ab
 1278 07d4 1C       		.uleb128 0x1c
 1279 07d5 0E080000 		.4byte	.LASF128
 1280 07d9 0C       		.byte	0xc
 1281 07da 0B       		.byte	0xb
 1282 07db 2301     		.2byte	0x123
 1283 07dd 09080000 		.4byte	0x809
 1284 07e1 1A       		.uleb128 0x1a
 1285 07e2 7B0B0000 		.4byte	.LASF62
 1286 07e6 0B       		.byte	0xb
 1287 07e7 2501     		.2byte	0x125
 1288 07e9 09080000 		.4byte	0x809
 1289 07ed 00       		.byte	0
 1290 07ee 1A       		.uleb128 0x1a
 1291 07ef BE070000 		.4byte	.LASF129
 1292 07f3 0B       		.byte	0xb
 1293 07f4 2601     		.2byte	0x126
 1294 07f6 94000000 		.4byte	0x94
 1295 07fa 04       		.byte	0x4
 1296 07fb 1A       		.uleb128 0x1a
 1297 07fc 02080000 		.4byte	.LASF130
 1298 0800 0B       		.byte	0xb
 1299 0801 2701     		.2byte	0x127
 1300 0803 0F080000 		.4byte	0x80f
 1301 0807 08       		.byte	0x8
 1302 0808 00       		.byte	0
 1303 0809 05       		.uleb128 0x5
 1304 080a 04       		.byte	0x4
 1305 080b D4070000 		.4byte	0x7d4
 1306 080f 05       		.uleb128 0x5
 1307 0810 04       		.byte	0x4
 1308 0811 C8070000 		.4byte	0x7c8
 1309 0815 1C       		.uleb128 0x1c
 1310 0816 B60A0000 		.4byte	.LASF131
 1311 081a 0E       		.byte	0xe
ARM GAS  /tmp/cc248mnq.s 			page 24


 1312 081b 0B       		.byte	0xb
 1313 081c 3F01     		.2byte	0x13f
 1314 081e 4A080000 		.4byte	0x84a
 1315 0822 1A       		.uleb128 0x1a
 1316 0823 F1090000 		.4byte	.LASF132
 1317 0827 0B       		.byte	0xb
 1318 0828 4001     		.2byte	0x140
 1319 082a 4A080000 		.4byte	0x84a
 1320 082e 00       		.byte	0
 1321 082f 1A       		.uleb128 0x1a
 1322 0830 57010000 		.4byte	.LASF133
 1323 0834 0B       		.byte	0xb
 1324 0835 4101     		.2byte	0x141
 1325 0837 4A080000 		.4byte	0x84a
 1326 083b 06       		.byte	0x6
 1327 083c 1A       		.uleb128 0x1a
 1328 083d 320D0000 		.4byte	.LASF134
 1329 0841 0B       		.byte	0xb
 1330 0842 4201     		.2byte	0x142
 1331 0844 50000000 		.4byte	0x50
 1332 0848 0C       		.byte	0xc
 1333 0849 00       		.byte	0
 1334 084a 0A       		.uleb128 0xa
 1335 084b 50000000 		.4byte	0x50
 1336 084f 5A080000 		.4byte	0x85a
 1337 0853 0B       		.uleb128 0xb
 1338 0854 7E010000 		.4byte	0x17e
 1339 0858 02       		.byte	0x2
 1340 0859 00       		.byte	0
 1341 085a 1D       		.uleb128 0x1d
 1342 085b D0       		.byte	0xd0
 1343 085c 0B       		.byte	0xb
 1344 085d 5902     		.2byte	0x259
 1345 085f 5B090000 		.4byte	0x95b
 1346 0863 1A       		.uleb128 0x1a
 1347 0864 AB020000 		.4byte	.LASF135
 1348 0868 0B       		.byte	0xb
 1349 0869 5B02     		.2byte	0x25b
 1350 086b 9B000000 		.4byte	0x9b
 1351 086f 00       		.byte	0
 1352 0870 1A       		.uleb128 0x1a
 1353 0871 F10A0000 		.4byte	.LASF136
 1354 0875 0B       		.byte	0xb
 1355 0876 5C02     		.2byte	0x25c
 1356 0878 36020000 		.4byte	0x236
 1357 087c 04       		.byte	0x4
 1358 087d 1A       		.uleb128 0x1a
 1359 087e A4000000 		.4byte	.LASF137
 1360 0882 0B       		.byte	0xb
 1361 0883 5D02     		.2byte	0x25d
 1362 0885 5B090000 		.4byte	0x95b
 1363 0889 08       		.byte	0x8
 1364 088a 1A       		.uleb128 0x1a
 1365 088b 1A020000 		.4byte	.LASF138
 1366 088f 0B       		.byte	0xb
 1367 0890 5E02     		.2byte	0x25e
 1368 0892 5C030000 		.4byte	0x35c
ARM GAS  /tmp/cc248mnq.s 			page 25


 1369 0896 24       		.byte	0x24
 1370 0897 1A       		.uleb128 0x1a
 1371 0898 E9070000 		.4byte	.LASF139
 1372 089c 0B       		.byte	0xb
 1373 089d 5F02     		.2byte	0x25f
 1374 089f 94000000 		.4byte	0x94
 1375 08a3 48       		.byte	0x48
 1376 08a4 1A       		.uleb128 0x1a
 1377 08a5 0C090000 		.4byte	.LASF140
 1378 08a9 0B       		.byte	0xb
 1379 08aa 6002     		.2byte	0x260
 1380 08ac 8D000000 		.4byte	0x8d
 1381 08b0 50       		.byte	0x50
 1382 08b1 1A       		.uleb128 0x1a
 1383 08b2 5A0B0000 		.4byte	.LASF141
 1384 08b6 0B       		.byte	0xb
 1385 08b7 6102     		.2byte	0x261
 1386 08b9 15080000 		.4byte	0x815
 1387 08bd 58       		.byte	0x58
 1388 08be 1A       		.uleb128 0x1a
 1389 08bf DC0B0000 		.4byte	.LASF142
 1390 08c3 0B       		.byte	0xb
 1391 08c4 6202     		.2byte	0x262
 1392 08c6 A6010000 		.4byte	0x1a6
 1393 08ca 68       		.byte	0x68
 1394 08cb 1A       		.uleb128 0x1a
 1395 08cc 3B0A0000 		.4byte	.LASF143
 1396 08d0 0B       		.byte	0xb
 1397 08d1 6302     		.2byte	0x263
 1398 08d3 A6010000 		.4byte	0x1a6
 1399 08d7 70       		.byte	0x70
 1400 08d8 1A       		.uleb128 0x1a
 1401 08d9 ED080000 		.4byte	.LASF144
 1402 08dd 0B       		.byte	0xb
 1403 08de 6402     		.2byte	0x264
 1404 08e0 A6010000 		.4byte	0x1a6
 1405 08e4 78       		.byte	0x78
 1406 08e5 1A       		.uleb128 0x1a
 1407 08e6 25010000 		.4byte	.LASF145
 1408 08ea 0B       		.byte	0xb
 1409 08eb 6502     		.2byte	0x265
 1410 08ed 6B090000 		.4byte	0x96b
 1411 08f1 80       		.byte	0x80
 1412 08f2 1A       		.uleb128 0x1a
 1413 08f3 E9060000 		.4byte	.LASF146
 1414 08f7 0B       		.byte	0xb
 1415 08f8 6602     		.2byte	0x266
 1416 08fa 7B090000 		.4byte	0x97b
 1417 08fe 88       		.byte	0x88
 1418 08ff 1A       		.uleb128 0x1a
 1419 0900 0D0E0000 		.4byte	.LASF147
 1420 0904 0B       		.byte	0xb
 1421 0905 6702     		.2byte	0x267
 1422 0907 94000000 		.4byte	0x94
 1423 090b A0       		.byte	0xa0
 1424 090c 1A       		.uleb128 0x1a
 1425 090d D4010000 		.4byte	.LASF148
ARM GAS  /tmp/cc248mnq.s 			page 26


 1426 0911 0B       		.byte	0xb
 1427 0912 6802     		.2byte	0x268
 1428 0914 A6010000 		.4byte	0x1a6
 1429 0918 A4       		.byte	0xa4
 1430 0919 1A       		.uleb128 0x1a
 1431 091a 090B0000 		.4byte	.LASF149
 1432 091e 0B       		.byte	0xb
 1433 091f 6902     		.2byte	0x269
 1434 0921 A6010000 		.4byte	0x1a6
 1435 0925 AC       		.byte	0xac
 1436 0926 1A       		.uleb128 0x1a
 1437 0927 6A0D0000 		.4byte	.LASF150
 1438 092b 0B       		.byte	0xb
 1439 092c 6A02     		.2byte	0x26a
 1440 092e A6010000 		.4byte	0x1a6
 1441 0932 B4       		.byte	0xb4
 1442 0933 1A       		.uleb128 0x1a
 1443 0934 C80D0000 		.4byte	.LASF151
 1444 0938 0B       		.byte	0xb
 1445 0939 6B02     		.2byte	0x26b
 1446 093b A6010000 		.4byte	0x1a6
 1447 093f BC       		.byte	0xbc
 1448 0940 1A       		.uleb128 0x1a
 1449 0941 05010000 		.4byte	.LASF152
 1450 0945 0B       		.byte	0xb
 1451 0946 6C02     		.2byte	0x26c
 1452 0948 A6010000 		.4byte	0x1a6
 1453 094c C4       		.byte	0xc4
 1454 094d 1A       		.uleb128 0x1a
 1455 094e 79080000 		.4byte	.LASF153
 1456 0952 0B       		.byte	0xb
 1457 0953 6D02     		.2byte	0x26d
 1458 0955 94000000 		.4byte	0x94
 1459 0959 CC       		.byte	0xcc
 1460 095a 00       		.byte	0
 1461 095b 0A       		.uleb128 0xa
 1462 095c 3C020000 		.4byte	0x23c
 1463 0960 6B090000 		.4byte	0x96b
 1464 0964 0B       		.uleb128 0xb
 1465 0965 7E010000 		.4byte	0x17e
 1466 0969 19       		.byte	0x19
 1467 096a 00       		.byte	0
 1468 096b 0A       		.uleb128 0xa
 1469 096c 3C020000 		.4byte	0x23c
 1470 0970 7B090000 		.4byte	0x97b
 1471 0974 0B       		.uleb128 0xb
 1472 0975 7E010000 		.4byte	0x17e
 1473 0979 07       		.byte	0x7
 1474 097a 00       		.byte	0
 1475 097b 0A       		.uleb128 0xa
 1476 097c 3C020000 		.4byte	0x23c
 1477 0980 8B090000 		.4byte	0x98b
 1478 0984 0B       		.uleb128 0xb
 1479 0985 7E010000 		.4byte	0x17e
 1480 0989 17       		.byte	0x17
 1481 098a 00       		.byte	0
 1482 098b 1D       		.uleb128 0x1d
ARM GAS  /tmp/cc248mnq.s 			page 27


 1483 098c F0       		.byte	0xf0
 1484 098d 0B       		.byte	0xb
 1485 098e 7202     		.2byte	0x272
 1486 0990 AF090000 		.4byte	0x9af
 1487 0994 1A       		.uleb128 0x1a
 1488 0995 B90C0000 		.4byte	.LASF154
 1489 0999 0B       		.byte	0xb
 1490 099a 7502     		.2byte	0x275
 1491 099c AF090000 		.4byte	0x9af
 1492 09a0 00       		.byte	0
 1493 09a1 1A       		.uleb128 0x1a
 1494 09a2 E0070000 		.4byte	.LASF155
 1495 09a6 0B       		.byte	0xb
 1496 09a7 7602     		.2byte	0x276
 1497 09a9 BF090000 		.4byte	0x9bf
 1498 09ad 78       		.byte	0x78
 1499 09ae 00       		.byte	0
 1500 09af 0A       		.uleb128 0xa
 1501 09b0 A5040000 		.4byte	0x4a5
 1502 09b4 BF090000 		.4byte	0x9bf
 1503 09b8 0B       		.uleb128 0xb
 1504 09b9 7E010000 		.4byte	0x17e
 1505 09bd 1D       		.byte	0x1d
 1506 09be 00       		.byte	0
 1507 09bf 0A       		.uleb128 0xa
 1508 09c0 9B000000 		.4byte	0x9b
 1509 09c4 CF090000 		.4byte	0x9cf
 1510 09c8 0B       		.uleb128 0xb
 1511 09c9 7E010000 		.4byte	0x17e
 1512 09cd 1D       		.byte	0x1d
 1513 09ce 00       		.byte	0
 1514 09cf 1E       		.uleb128 0x1e
 1515 09d0 F0       		.byte	0xf0
 1516 09d1 0B       		.byte	0xb
 1517 09d2 5702     		.2byte	0x257
 1518 09d4 F1090000 		.4byte	0x9f1
 1519 09d8 1F       		.uleb128 0x1f
 1520 09d9 88040000 		.4byte	.LASF105
 1521 09dd 0B       		.byte	0xb
 1522 09de 6E02     		.2byte	0x26e
 1523 09e0 5A080000 		.4byte	0x85a
 1524 09e4 1F       		.uleb128 0x1f
 1525 09e5 F8000000 		.4byte	.LASF156
 1526 09e9 0B       		.byte	0xb
 1527 09ea 7702     		.2byte	0x277
 1528 09ec 8B090000 		.4byte	0x98b
 1529 09f0 00       		.byte	0
 1530 09f1 0A       		.uleb128 0xa
 1531 09f2 3C020000 		.4byte	0x23c
 1532 09f6 010A0000 		.4byte	0xa01
 1533 09fa 0B       		.uleb128 0xb
 1534 09fb 7E010000 		.4byte	0x17e
 1535 09ff 18       		.byte	0x18
 1536 0a00 00       		.byte	0
 1537 0a01 06       		.uleb128 0x6
 1538 0a02 2D000000 		.4byte	.LASF158
 1539 0a06 05       		.uleb128 0x5
ARM GAS  /tmp/cc248mnq.s 			page 28


 1540 0a07 04       		.byte	0x4
 1541 0a08 010A0000 		.4byte	0xa01
 1542 0a0c 20       		.uleb128 0x20
 1543 0a0d 170A0000 		.4byte	0xa17
 1544 0a11 18       		.uleb128 0x18
 1545 0a12 F3050000 		.4byte	0x5f3
 1546 0a16 00       		.byte	0
 1547 0a17 05       		.uleb128 0x5
 1548 0a18 04       		.byte	0x4
 1549 0a19 0C0A0000 		.4byte	0xa0c
 1550 0a1d 05       		.uleb128 0x5
 1551 0a1e 04       		.byte	0x4
 1552 0a1f 46030000 		.4byte	0x346
 1553 0a23 20       		.uleb128 0x20
 1554 0a24 2E0A0000 		.4byte	0xa2e
 1555 0a28 18       		.uleb128 0x18
 1556 0a29 94000000 		.4byte	0x94
 1557 0a2d 00       		.byte	0
 1558 0a2e 05       		.uleb128 0x5
 1559 0a2f 04       		.byte	0x4
 1560 0a30 340A0000 		.4byte	0xa34
 1561 0a34 05       		.uleb128 0x5
 1562 0a35 04       		.byte	0x4
 1563 0a36 230A0000 		.4byte	0xa23
 1564 0a3a 0A       		.uleb128 0xa
 1565 0a3b C8070000 		.4byte	0x7c8
 1566 0a3f 4A0A0000 		.4byte	0xa4a
 1567 0a43 0B       		.uleb128 0xb
 1568 0a44 7E010000 		.4byte	0x17e
 1569 0a48 02       		.byte	0x2
 1570 0a49 00       		.byte	0
 1571 0a4a 21       		.uleb128 0x21
 1572 0a4b EB010000 		.4byte	.LASF159
 1573 0a4f 0B       		.byte	0xb
 1574 0a50 FE02     		.2byte	0x2fe
 1575 0a52 F3050000 		.4byte	0x5f3
 1576 0a56 21       		.uleb128 0x21
 1577 0a57 8F040000 		.4byte	.LASF160
 1578 0a5b 0B       		.byte	0xb
 1579 0a5c FF02     		.2byte	0x2ff
 1580 0a5e F9050000 		.4byte	0x5f9
 1581 0a62 0A       		.uleb128 0xa
 1582 0a63 5A070000 		.4byte	0x75a
 1583 0a67 6D0A0000 		.4byte	0xa6d
 1584 0a6b 22       		.uleb128 0x22
 1585 0a6c 00       		.byte	0
 1586 0a6d 0F       		.uleb128 0xf
 1587 0a6e 620A0000 		.4byte	0xa62
 1588 0a72 11       		.uleb128 0x11
 1589 0a73 2C0C0000 		.4byte	.LASF161
 1590 0a77 0C       		.byte	0xc
 1591 0a78 14       		.byte	0x14
 1592 0a79 6D0A0000 		.4byte	0xa6d
 1593 0a7d 11       		.uleb128 0x11
 1594 0a7e C3010000 		.4byte	.LASF162
 1595 0a82 0C       		.byte	0xc
 1596 0a83 15       		.byte	0x15
ARM GAS  /tmp/cc248mnq.s 			page 29


 1597 0a84 94000000 		.4byte	0x94
 1598 0a88 11       		.uleb128 0x11
 1599 0a89 1E050000 		.4byte	.LASF163
 1600 0a8d 0D       		.byte	0xd
 1601 0a8e 9A       		.byte	0x9a
 1602 0a8f 62000000 		.4byte	0x62
 1603 0a93 11       		.uleb128 0x11
 1604 0a94 14050000 		.4byte	.LASF164
 1605 0a98 0D       		.byte	0xd
 1606 0a99 9B       		.byte	0x9b
 1607 0a9a 94000000 		.4byte	0x94
 1608 0a9e 0A       		.uleb128 0xa
 1609 0a9f 36020000 		.4byte	0x236
 1610 0aa3 AE0A0000 		.4byte	0xaae
 1611 0aa7 0B       		.uleb128 0xb
 1612 0aa8 7E010000 		.4byte	0x17e
 1613 0aac 01       		.byte	0x1
 1614 0aad 00       		.byte	0
 1615 0aae 11       		.uleb128 0x11
 1616 0aaf 70050000 		.4byte	.LASF165
 1617 0ab3 0D       		.byte	0xd
 1618 0ab4 9E       		.byte	0x9e
 1619 0ab5 9E0A0000 		.4byte	0xa9e
 1620 0ab9 12       		.uleb128 0x12
 1621 0aba 58070000 		.4byte	.LASF166
 1622 0abe 3C       		.byte	0x3c
 1623 0abf 0E       		.byte	0xe
 1624 0ac0 1B       		.byte	0x1b
 1625 0ac1 920B0000 		.4byte	0xb92
 1626 0ac5 0D       		.uleb128 0xd
 1627 0ac6 060A0000 		.4byte	.LASF167
 1628 0aca 0E       		.byte	0xe
 1629 0acb 1D       		.byte	0x1d
 1630 0acc 5E020000 		.4byte	0x25e
 1631 0ad0 00       		.byte	0
 1632 0ad1 0D       		.uleb128 0xd
 1633 0ad2 9A0D0000 		.4byte	.LASF168
 1634 0ad6 0E       		.byte	0xe
 1635 0ad7 1E       		.byte	0x1e
 1636 0ad8 48020000 		.4byte	0x248
 1637 0adc 02       		.byte	0x2
 1638 0add 0D       		.uleb128 0xd
 1639 0ade A90C0000 		.4byte	.LASF169
 1640 0ae2 0E       		.byte	0xe
 1641 0ae3 1F       		.byte	0x1f
 1642 0ae4 8A020000 		.4byte	0x28a
 1643 0ae8 04       		.byte	0x4
 1644 0ae9 0D       		.uleb128 0xd
 1645 0aea 48090000 		.4byte	.LASF170
 1646 0aee 0E       		.byte	0xe
 1647 0aef 20       		.byte	0x20
 1648 0af0 95020000 		.4byte	0x295
 1649 0af4 08       		.byte	0x8
 1650 0af5 0D       		.uleb128 0xd
 1651 0af6 F3020000 		.4byte	.LASF171
 1652 0afa 0E       		.byte	0xe
 1653 0afb 21       		.byte	0x21
ARM GAS  /tmp/cc248mnq.s 			page 30


 1654 0afc 69020000 		.4byte	0x269
 1655 0b00 0A       		.byte	0xa
 1656 0b01 0D       		.uleb128 0xd
 1657 0b02 D0050000 		.4byte	.LASF172
 1658 0b06 0E       		.byte	0xe
 1659 0b07 22       		.byte	0x22
 1660 0b08 74020000 		.4byte	0x274
 1661 0b0c 0C       		.byte	0xc
 1662 0b0d 0D       		.uleb128 0xd
 1663 0b0e 55040000 		.4byte	.LASF173
 1664 0b12 0E       		.byte	0xe
 1665 0b13 23       		.byte	0x23
 1666 0b14 5E020000 		.4byte	0x25e
 1667 0b18 0E       		.byte	0xe
 1668 0b19 0D       		.uleb128 0xd
 1669 0b1a 54060000 		.4byte	.LASF174
 1670 0b1e 0E       		.byte	0xe
 1671 0b1f 24       		.byte	0x24
 1672 0b20 53020000 		.4byte	0x253
 1673 0b24 10       		.byte	0x10
 1674 0b25 0D       		.uleb128 0xd
 1675 0b26 9E090000 		.4byte	.LASF175
 1676 0b2a 0E       		.byte	0xe
 1677 0b2b 32       		.byte	0x32
 1678 0b2c 0A020000 		.4byte	0x20a
 1679 0b30 14       		.byte	0x14
 1680 0b31 0D       		.uleb128 0xd
 1681 0b32 E9020000 		.4byte	.LASF176
 1682 0b36 0E       		.byte	0xe
 1683 0b37 33       		.byte	0x33
 1684 0b38 62000000 		.4byte	0x62
 1685 0b3c 18       		.byte	0x18
 1686 0b3d 0D       		.uleb128 0xd
 1687 0b3e 9C0B0000 		.4byte	.LASF177
 1688 0b42 0E       		.byte	0xe
 1689 0b43 34       		.byte	0x34
 1690 0b44 0A020000 		.4byte	0x20a
 1691 0b48 1C       		.byte	0x1c
 1692 0b49 0D       		.uleb128 0xd
 1693 0b4a DF060000 		.4byte	.LASF178
 1694 0b4e 0E       		.byte	0xe
 1695 0b4f 35       		.byte	0x35
 1696 0b50 62000000 		.4byte	0x62
 1697 0b54 20       		.byte	0x20
 1698 0b55 0D       		.uleb128 0xd
 1699 0b56 4D050000 		.4byte	.LASF179
 1700 0b5a 0E       		.byte	0xe
 1701 0b5b 36       		.byte	0x36
 1702 0b5c 0A020000 		.4byte	0x20a
 1703 0b60 24       		.byte	0x24
 1704 0b61 0D       		.uleb128 0xd
 1705 0b62 FA020000 		.4byte	.LASF180
 1706 0b66 0E       		.byte	0xe
 1707 0b67 37       		.byte	0x37
 1708 0b68 62000000 		.4byte	0x62
 1709 0b6c 28       		.byte	0x28
 1710 0b6d 0D       		.uleb128 0xd
ARM GAS  /tmp/cc248mnq.s 			page 31


 1711 0b6e 5D070000 		.4byte	.LASF181
 1712 0b72 0E       		.byte	0xe
 1713 0b73 38       		.byte	0x38
 1714 0b74 20020000 		.4byte	0x220
 1715 0b78 2C       		.byte	0x2c
 1716 0b79 0D       		.uleb128 0xd
 1717 0b7a 6F000000 		.4byte	.LASF182
 1718 0b7e 0E       		.byte	0xe
 1719 0b7f 39       		.byte	0x39
 1720 0b80 15020000 		.4byte	0x215
 1721 0b84 30       		.byte	0x30
 1722 0b85 0D       		.uleb128 0xd
 1723 0b86 04030000 		.4byte	.LASF183
 1724 0b8a 0E       		.byte	0xe
 1725 0b8b 3A       		.byte	0x3a
 1726 0b8c 920B0000 		.4byte	0xb92
 1727 0b90 34       		.byte	0x34
 1728 0b91 00       		.byte	0
 1729 0b92 0A       		.uleb128 0xa
 1730 0b93 62000000 		.4byte	0x62
 1731 0b97 A20B0000 		.4byte	0xba2
 1732 0b9b 0B       		.uleb128 0xb
 1733 0b9c 7E010000 		.4byte	0x17e
 1734 0ba0 01       		.byte	0x1
 1735 0ba1 00       		.byte	0
 1736 0ba2 03       		.uleb128 0x3
 1737 0ba3 6C080000 		.4byte	.LASF184
 1738 0ba7 0F       		.byte	0xf
 1739 0ba8 27       		.byte	0x27
 1740 0ba9 F4010000 		.4byte	0x1f4
 1741 0bad 03       		.uleb128 0x3
 1742 0bae 32020000 		.4byte	.LASF185
 1743 0bb2 0F       		.byte	0xf
 1744 0bb3 28       		.byte	0x28
 1745 0bb4 FF010000 		.4byte	0x1ff
 1746 0bb8 03       		.uleb128 0x3
 1747 0bb9 940B0000 		.4byte	.LASF186
 1748 0bbd 0F       		.byte	0xf
 1749 0bbe 2A       		.byte	0x2a
 1750 0bbf C9010000 		.4byte	0x1c9
 1751 0bc3 03       		.uleb128 0x3
 1752 0bc4 29020000 		.4byte	.LASF187
 1753 0bc8 0F       		.byte	0xf
 1754 0bc9 2B       		.byte	0x2b
 1755 0bca C9010000 		.4byte	0x1c9
 1756 0bce 03       		.uleb128 0x3
 1757 0bcf 3D050000 		.4byte	.LASF188
 1758 0bd3 0F       		.byte	0xf
 1759 0bd4 2C       		.byte	0x2c
 1760 0bd5 C9010000 		.4byte	0x1c9
 1761 0bd9 03       		.uleb128 0x3
 1762 0bda 67000000 		.4byte	.LASF189
 1763 0bde 0F       		.byte	0xf
 1764 0bdf 2E       		.byte	0x2e
 1765 0be0 F4010000 		.4byte	0x1f4
 1766 0be4 03       		.uleb128 0x3
 1767 0be5 9F0A0000 		.4byte	.LASF190
ARM GAS  /tmp/cc248mnq.s 			page 32


 1768 0be9 0F       		.byte	0xf
 1769 0bea 2F       		.byte	0x2f
 1770 0beb E4010000 		.4byte	0x1e4
 1771 0bef 03       		.uleb128 0x3
 1772 0bf0 0E030000 		.4byte	.LASF191
 1773 0bf4 0F       		.byte	0xf
 1774 0bf5 31       		.byte	0x31
 1775 0bf6 F4010000 		.4byte	0x1f4
 1776 0bfa 03       		.uleb128 0x3
 1777 0bfb 6A050000 		.4byte	.LASF192
 1778 0bff 0F       		.byte	0xf
 1779 0c00 33       		.byte	0x33
 1780 0c01 E4010000 		.4byte	0x1e4
 1781 0c05 03       		.uleb128 0x3
 1782 0c06 FE060000 		.4byte	.LASF193
 1783 0c0a 0F       		.byte	0xf
 1784 0c0b 34       		.byte	0x34
 1785 0c0c F4010000 		.4byte	0x1f4
 1786 0c10 03       		.uleb128 0x3
 1787 0c11 95090000 		.4byte	.LASF194
 1788 0c15 10       		.byte	0x10
 1789 0c16 34       		.byte	0x34
 1790 0c17 1B0C0000 		.4byte	0xc1b
 1791 0c1b 12       		.uleb128 0x12
 1792 0c1c 79060000 		.4byte	.LASF195
 1793 0c20 60       		.byte	0x60
 1794 0c21 11       		.byte	0x11
 1795 0c22 8E       		.byte	0x8e
 1796 0c23 060D0000 		.4byte	0xd06
 1797 0c27 0D       		.uleb128 0xd
 1798 0c28 DB0A0000 		.4byte	.LASF196
 1799 0c2c 11       		.byte	0x11
 1800 0c2d 8F       		.byte	0x8f
 1801 0c2e 3B0D0000 		.4byte	0xd3b
 1802 0c32 00       		.byte	0
 1803 0c33 0D       		.uleb128 0xd
 1804 0c34 83010000 		.4byte	.LASF197
 1805 0c38 11       		.byte	0x11
 1806 0c39 90       		.byte	0x90
 1807 0c3a D90B0000 		.4byte	0xbd9
 1808 0c3e 08       		.byte	0x8
 1809 0c3f 13       		.uleb128 0x13
 1810 0c40 63747800 		.ascii	"ctx\000"
 1811 0c44 11       		.byte	0x11
 1812 0c45 91       		.byte	0x91
 1813 0c46 A40F0000 		.4byte	0xfa4
 1814 0c4a 0C       		.byte	0xc
 1815 0c4b 0D       		.uleb128 0xd
 1816 0c4c F80C0000 		.4byte	.LASF198
 1817 0c50 11       		.byte	0x11
 1818 0c51 93       		.byte	0x93
 1819 0c52 110D0000 		.4byte	0xd11
 1820 0c56 10       		.byte	0x10
 1821 0c57 0D       		.uleb128 0xd
 1822 0c58 D9060000 		.4byte	.LASF199
 1823 0c5c 11       		.byte	0x11
 1824 0c5d 94       		.byte	0x94
ARM GAS  /tmp/cc248mnq.s 			page 33


 1825 0c5e 110D0000 		.4byte	0xd11
 1826 0c62 14       		.byte	0x14
 1827 0c63 0D       		.uleb128 0xd
 1828 0c64 B60B0000 		.4byte	.LASF200
 1829 0c68 11       		.byte	0x11
 1830 0c69 9B       		.byte	0x9b
 1831 0c6a 54070000 		.4byte	0x754
 1832 0c6e 18       		.byte	0x18
 1833 0c6f 0D       		.uleb128 0xd
 1834 0c70 5F0B0000 		.4byte	.LASF201
 1835 0c74 11       		.byte	0x11
 1836 0c75 A4       		.byte	0xa4
 1837 0c76 96120000 		.4byte	0x1296
 1838 0c7a 1C       		.byte	0x1c
 1839 0c7b 0D       		.uleb128 0xd
 1840 0c7c 45010000 		.4byte	.LASF202
 1841 0c80 11       		.byte	0x11
 1842 0c81 A9       		.byte	0xa9
 1843 0c82 C30B0000 		.4byte	0xbc3
 1844 0c86 20       		.byte	0x20
 1845 0c87 0D       		.uleb128 0xd
 1846 0c88 03050000 		.4byte	.LASF203
 1847 0c8c 11       		.byte	0x11
 1848 0c8d AD       		.byte	0xad
 1849 0c8e B80B0000 		.4byte	0xbb8
 1850 0c92 21       		.byte	0x21
 1851 0c93 0D       		.uleb128 0xd
 1852 0c94 74080000 		.4byte	.LASF204
 1853 0c98 11       		.byte	0x11
 1854 0c99 B2       		.byte	0xb2
 1855 0c9a CE0B0000 		.4byte	0xbce
 1856 0c9e 22       		.byte	0x22
 1857 0c9f 23       		.uleb128 0x23
 1858 0ca0 7500     		.ascii	"u\000"
 1859 0ca2 11       		.byte	0x11
 1860 0ca3 0301     		.2byte	0x103
 1861 0ca5 C0110000 		.4byte	0x11c0
 1862 0ca9 24       		.byte	0x24
 1863 0caa 1A       		.uleb128 0x1a
 1864 0cab 740C0000 		.4byte	.LASF205
 1865 0caf 11       		.byte	0x11
 1866 0cb0 0801     		.2byte	0x108
 1867 0cb2 170D0000 		.4byte	0xd17
 1868 0cb6 28       		.byte	0x28
 1869 0cb7 1A       		.uleb128 0x1a
 1870 0cb8 0A0C0000 		.4byte	.LASF206
 1871 0cbc 11       		.byte	0x11
 1872 0cbd 0E01     		.2byte	0x10e
 1873 0cbf 3B0D0000 		.4byte	0xd3b
 1874 0cc3 2C       		.byte	0x2c
 1875 0cc4 1A       		.uleb128 0x1a
 1876 0cc5 E10A0000 		.4byte	.LASF207
 1877 0cc9 11       		.byte	0x11
 1878 0cca 1401     		.2byte	0x114
 1879 0ccc EF0B0000 		.4byte	0xbef
 1880 0cd0 34       		.byte	0x34
 1881 0cd1 1A       		.uleb128 0x1a
ARM GAS  /tmp/cc248mnq.s 			page 34


 1882 0cd2 9A070000 		.4byte	.LASF208
 1883 0cd6 11       		.byte	0x11
 1884 0cd7 1B01     		.2byte	0x11b
 1885 0cd9 90120000 		.4byte	0x1290
 1886 0cdd 38       		.byte	0x38
 1887 0cde 1A       		.uleb128 0x1a
 1888 0cdf F5060000 		.4byte	.LASF209
 1889 0ce3 11       		.byte	0x11
 1890 0ce4 1F01     		.2byte	0x11f
 1891 0ce6 D90B0000 		.4byte	0xbd9
 1892 0cea 3C       		.byte	0x3c
 1893 0ceb 1A       		.uleb128 0x1a
 1894 0cec 31050000 		.4byte	.LASF210
 1895 0cf0 11       		.byte	0x11
 1896 0cf1 2601     		.2byte	0x126
 1897 0cf3 BC010000 		.4byte	0x1bc
 1898 0cf7 40       		.byte	0x40
 1899 0cf8 1A       		.uleb128 0x1a
 1900 0cf9 51010000 		.4byte	.LASF211
 1901 0cfd 11       		.byte	0x11
 1902 0cfe 2C01     		.2byte	0x12c
 1903 0d00 71110000 		.4byte	0x1171
 1904 0d04 48       		.byte	0x48
 1905 0d05 00       		.byte	0
 1906 0d06 03       		.uleb128 0x3
 1907 0d07 25090000 		.4byte	.LASF212
 1908 0d0b 10       		.byte	0x10
 1909 0d0c 39       		.byte	0x39
 1910 0d0d 110D0000 		.4byte	0xd11
 1911 0d11 05       		.uleb128 0x5
 1912 0d12 04       		.byte	0x4
 1913 0d13 100C0000 		.4byte	0xc10
 1914 0d17 03       		.uleb128 0x3
 1915 0d18 4B020000 		.4byte	.LASF213
 1916 0d1c 10       		.byte	0x10
 1917 0d1d 3E       		.byte	0x3e
 1918 0d1e 220D0000 		.4byte	0xd22
 1919 0d22 12       		.uleb128 0x12
 1920 0d23 26070000 		.4byte	.LASF214
 1921 0d27 04       		.byte	0x4
 1922 0d28 11       		.byte	0x11
 1923 0d29 7C       		.byte	0x7c
 1924 0d2a 3B0D0000 		.4byte	0xd3b
 1925 0d2e 0D       		.uleb128 0xd
 1926 0d2f E20D0000 		.4byte	.LASF215
 1927 0d33 11       		.byte	0x11
 1928 0d34 7D       		.byte	0x7d
 1929 0d35 110D0000 		.4byte	0xd11
 1930 0d39 00       		.byte	0
 1931 0d3a 00       		.byte	0
 1932 0d3b 03       		.uleb128 0x3
 1933 0d3c 3B020000 		.4byte	.LASF216
 1934 0d40 10       		.byte	0x10
 1935 0d41 45       		.byte	0x45
 1936 0d42 460D0000 		.4byte	0xd46
 1937 0d46 12       		.uleb128 0x12
 1938 0d47 A50A0000 		.4byte	.LASF217
ARM GAS  /tmp/cc248mnq.s 			page 35


 1939 0d4b 08       		.byte	0x8
 1940 0d4c 11       		.byte	0x11
 1941 0d4d 83       		.byte	0x83
 1942 0d4e 6B0D0000 		.4byte	0xd6b
 1943 0d52 0D       		.uleb128 0xd
 1944 0d53 E20D0000 		.4byte	.LASF215
 1945 0d57 11       		.byte	0x11
 1946 0d58 84       		.byte	0x84
 1947 0d59 110D0000 		.4byte	0xd11
 1948 0d5d 00       		.byte	0
 1949 0d5e 0D       		.uleb128 0xd
 1950 0d5f 820D0000 		.4byte	.LASF218
 1951 0d63 11       		.byte	0x11
 1952 0d64 85       		.byte	0x85
 1953 0d65 110D0000 		.4byte	0xd11
 1954 0d69 04       		.byte	0x4
 1955 0d6a 00       		.byte	0
 1956 0d6b 03       		.uleb128 0x3
 1957 0d6c CC060000 		.4byte	.LASF219
 1958 0d70 10       		.byte	0x10
 1959 0d71 4C       		.byte	0x4c
 1960 0d72 760D0000 		.4byte	0xd76
 1961 0d76 1C       		.uleb128 0x1c
 1962 0d77 98050000 		.4byte	.LASF220
 1963 0d7b 1C       		.byte	0x1c
 1964 0d7c 11       		.byte	0x11
 1965 0d7d 5E01     		.2byte	0x15e
 1966 0d7f D20D0000 		.4byte	0xdd2
 1967 0d83 1A       		.uleb128 0x1a
 1968 0d84 DB0A0000 		.4byte	.LASF196
 1969 0d88 11       		.byte	0x11
 1970 0d89 5F01     		.2byte	0x15f
 1971 0d8b 3B0D0000 		.4byte	0xd3b
 1972 0d8f 00       		.byte	0
 1973 0d90 1A       		.uleb128 0x1a
 1974 0d91 83010000 		.4byte	.LASF197
 1975 0d95 11       		.byte	0x11
 1976 0d96 6001     		.2byte	0x160
 1977 0d98 D90B0000 		.4byte	0xbd9
 1978 0d9c 08       		.byte	0x8
 1979 0d9d 23       		.uleb128 0x23
 1980 0d9e 63747800 		.ascii	"ctx\000"
 1981 0da2 11       		.byte	0x11
 1982 0da3 6201     		.2byte	0x162
 1983 0da5 A40F0000 		.4byte	0xfa4
 1984 0da9 0C       		.byte	0xc
 1985 0daa 1A       		.uleb128 0x1a
 1986 0dab F80C0000 		.4byte	.LASF198
 1987 0daf 11       		.byte	0x11
 1988 0db0 6501     		.2byte	0x165
 1989 0db2 110D0000 		.4byte	0xd11
 1990 0db6 10       		.byte	0x10
 1991 0db7 1A       		.uleb128 0x1a
 1992 0db8 D9060000 		.4byte	.LASF199
 1993 0dbc 11       		.byte	0x11
 1994 0dbd 6601     		.2byte	0x166
 1995 0dbf 110D0000 		.4byte	0xd11
ARM GAS  /tmp/cc248mnq.s 			page 36


 1996 0dc3 14       		.byte	0x14
 1997 0dc4 1A       		.uleb128 0x1a
 1998 0dc5 04090000 		.4byte	.LASF221
 1999 0dc9 11       		.byte	0x11
 2000 0dca 6901     		.2byte	0x169
 2001 0dcc 110D0000 		.4byte	0xd11
 2002 0dd0 18       		.byte	0x18
 2003 0dd1 00       		.byte	0
 2004 0dd2 03       		.uleb128 0x3
 2005 0dd3 B9000000 		.4byte	.LASF222
 2006 0dd7 10       		.byte	0x10
 2007 0dd8 51       		.byte	0x51
 2008 0dd9 DD0D0000 		.4byte	0xddd
 2009 0ddd 05       		.uleb128 0x5
 2010 0dde 04       		.byte	0x4
 2011 0ddf E30D0000 		.4byte	0xde3
 2012 0de3 20       		.uleb128 0x20
 2013 0de4 EE0D0000 		.4byte	0xdee
 2014 0de8 18       		.uleb128 0x18
 2015 0de9 BC010000 		.4byte	0x1bc
 2016 0ded 00       		.byte	0
 2017 0dee 03       		.uleb128 0x3
 2018 0def BC060000 		.4byte	.LASF223
 2019 0df3 10       		.byte	0x10
 2020 0df4 56       		.byte	0x56
 2021 0df5 F90D0000 		.4byte	0xdf9
 2022 0df9 1C       		.uleb128 0x1c
 2023 0dfa 2A0A0000 		.4byte	.LASF224
 2024 0dfe 14       		.byte	0x14
 2025 0dff 11       		.byte	0x11
 2026 0e00 3901     		.2byte	0x139
 2027 0e02 480E0000 		.4byte	0xe48
 2028 0e06 1A       		.uleb128 0x1a
 2029 0e07 E20D0000 		.4byte	.LASF215
 2030 0e0b 11       		.byte	0x11
 2031 0e0c 3A01     		.2byte	0x13a
 2032 0e0e 9C120000 		.4byte	0x129c
 2033 0e12 00       		.byte	0
 2034 0e13 1A       		.uleb128 0x1a
 2035 0e14 820D0000 		.4byte	.LASF218
 2036 0e18 11       		.byte	0x11
 2037 0e19 3B01     		.2byte	0x13b
 2038 0e1b 9C120000 		.4byte	0x129c
 2039 0e1f 04       		.byte	0x4
 2040 0e20 1A       		.uleb128 0x1a
 2041 0e21 C60A0000 		.4byte	.LASF225
 2042 0e25 11       		.byte	0x11
 2043 0e26 3C01     		.2byte	0x13c
 2044 0e28 2C0F0000 		.4byte	0xf2c
 2045 0e2c 08       		.byte	0x8
 2046 0e2d 1A       		.uleb128 0x1a
 2047 0e2e FC0B0000 		.4byte	.LASF226
 2048 0e32 11       		.byte	0x11
 2049 0e33 3D01     		.2byte	0x13d
 2050 0e35 D20D0000 		.4byte	0xdd2
 2051 0e39 0C       		.byte	0xc
 2052 0e3a 23       		.uleb128 0x23
ARM GAS  /tmp/cc248mnq.s 			page 37


 2053 0e3b 70617200 		.ascii	"par\000"
 2054 0e3f 11       		.byte	0x11
 2055 0e40 3F01     		.2byte	0x13f
 2056 0e42 BC010000 		.4byte	0x1bc
 2057 0e46 10       		.byte	0x10
 2058 0e47 00       		.byte	0
 2059 0e48 03       		.uleb128 0x3
 2060 0e49 83060000 		.4byte	.LASF227
 2061 0e4d 10       		.byte	0x10
 2062 0e4e 5B       		.byte	0x5b
 2063 0e4f 530E0000 		.4byte	0xe53
 2064 0e53 1C       		.uleb128 0x1c
 2065 0e54 CB000000 		.4byte	.LASF228
 2066 0e58 10       		.byte	0x10
 2067 0e59 11       		.byte	0x11
 2068 0e5a 4901     		.2byte	0x149
 2069 0e5c 950E0000 		.4byte	0xe95
 2070 0e60 1A       		.uleb128 0x1a
 2071 0e61 E20D0000 		.4byte	.LASF215
 2072 0e65 11       		.byte	0x11
 2073 0e66 4A01     		.2byte	0x14a
 2074 0e68 9C120000 		.4byte	0x129c
 2075 0e6c 00       		.byte	0
 2076 0e6d 1A       		.uleb128 0x1a
 2077 0e6e 820D0000 		.4byte	.LASF218
 2078 0e72 11       		.byte	0x11
 2079 0e73 4C01     		.2byte	0x14c
 2080 0e75 9C120000 		.4byte	0x129c
 2081 0e79 04       		.byte	0x4
 2082 0e7a 1A       		.uleb128 0x1a
 2083 0e7b C60A0000 		.4byte	.LASF225
 2084 0e7f 11       		.byte	0x11
 2085 0e80 4E01     		.2byte	0x14e
 2086 0e82 2C0F0000 		.4byte	0xf2c
 2087 0e86 08       		.byte	0x8
 2088 0e87 1A       		.uleb128 0x1a
 2089 0e88 4C040000 		.4byte	.LASF229
 2090 0e8c 11       		.byte	0x11
 2091 0e8d 5601     		.2byte	0x156
 2092 0e8f 210F0000 		.4byte	0xf21
 2093 0e93 0C       		.byte	0xc
 2094 0e94 00       		.byte	0
 2095 0e95 03       		.uleb128 0x3
 2096 0e96 A2040000 		.4byte	.LASF230
 2097 0e9a 10       		.byte	0x10
 2098 0e9b 60       		.byte	0x60
 2099 0e9c A00E0000 		.4byte	0xea0
 2100 0ea0 1C       		.uleb128 0x1c
 2101 0ea1 1C0C0000 		.4byte	.LASF231
 2102 0ea5 04       		.byte	0x4
 2103 0ea6 11       		.byte	0x11
 2104 0ea7 7001     		.2byte	0x170
 2105 0ea9 BB0E0000 		.4byte	0xebb
 2106 0ead 1A       		.uleb128 0x1a
 2107 0eae 65040000 		.4byte	.LASF232
 2108 0eb2 11       		.byte	0x11
 2109 0eb3 7801     		.2byte	0x178
ARM GAS  /tmp/cc248mnq.s 			page 38


 2110 0eb5 5F070000 		.4byte	0x75f
 2111 0eb9 00       		.byte	0
 2112 0eba 00       		.byte	0
 2113 0ebb 03       		.uleb128 0x3
 2114 0ebc 540D0000 		.4byte	.LASF233
 2115 0ec0 10       		.byte	0x10
 2116 0ec1 65       		.byte	0x65
 2117 0ec2 C60E0000 		.4byte	0xec6
 2118 0ec6 1C       		.uleb128 0x1c
 2119 0ec7 DE0C0000 		.4byte	.LASF234
 2120 0ecb D0       		.byte	0xd0
 2121 0ecc 11       		.byte	0x11
 2122 0ecd 9001     		.2byte	0x190
 2123 0ecf 210F0000 		.4byte	0xf21
 2124 0ed3 1A       		.uleb128 0x1a
 2125 0ed4 8E0B0000 		.4byte	.LASF235
 2126 0ed8 11       		.byte	0x11
 2127 0ed9 9401     		.2byte	0x194
 2128 0edb 6B0D0000 		.4byte	0xd6b
 2129 0edf 00       		.byte	0
 2130 0ee0 1A       		.uleb128 0x1a
 2131 0ee1 630C0000 		.4byte	.LASF236
 2132 0ee5 11       		.byte	0x11
 2133 0ee6 9801     		.2byte	0x198
 2134 0ee8 480E0000 		.4byte	0xe48
 2135 0eec 1C       		.byte	0x1c
 2136 0eed 23       		.uleb128 0x23
 2137 0eee 64626700 		.ascii	"dbg\000"
 2138 0ef2 11       		.byte	0x11
 2139 0ef3 9C01     		.2byte	0x19c
 2140 0ef5 950E0000 		.4byte	0xe95
 2141 0ef9 2C       		.byte	0x2c
 2142 0efa 1A       		.uleb128 0x1a
 2143 0efb 210B0000 		.4byte	.LASF237
 2144 0eff 11       		.byte	0x11
 2145 0f00 A001     		.2byte	0x1a0
 2146 0f02 100C0000 		.4byte	0xc10
 2147 0f06 30       		.byte	0x30
 2148 0f07 23       		.uleb128 0x23
 2149 0f08 746D00   		.ascii	"tm\000"
 2150 0f0b 11       		.byte	0x11
 2151 0f0c A501     		.2byte	0x1a5
 2152 0f0e 23110000 		.4byte	0x1123
 2153 0f12 90       		.byte	0x90
 2154 0f13 1A       		.uleb128 0x1a
 2155 0f14 500A0000 		.4byte	.LASF238
 2156 0f18 11       		.byte	0x11
 2157 0f19 AB01     		.2byte	0x1ab
 2158 0f1b B5110000 		.4byte	0x11b5
 2159 0f1f 98       		.byte	0x98
 2160 0f20 00       		.byte	0
 2161 0f21 03       		.uleb128 0x3
 2162 0f22 40000000 		.4byte	.LASF239
 2163 0f26 12       		.byte	0x12
 2164 0f27 6D       		.byte	0x6d
 2165 0f28 F4010000 		.4byte	0x1f4
 2166 0f2c 03       		.uleb128 0x3
ARM GAS  /tmp/cc248mnq.s 			page 39


 2167 0f2d B0070000 		.4byte	.LASF240
 2168 0f31 12       		.byte	0x12
 2169 0f32 79       		.byte	0x79
 2170 0f33 F4010000 		.4byte	0x1f4
 2171 0f37 21       		.uleb128 0x21
 2172 0f38 14080000 		.4byte	.LASF241
 2173 0f3c 13       		.byte	0x13
 2174 0f3d 220A     		.2byte	0xa22
 2175 0f3f EF010000 		.4byte	0x1ef
 2176 0f43 11       		.uleb128 0x11
 2177 0f44 5C060000 		.4byte	.LASF242
 2178 0f48 14       		.byte	0x14
 2179 0f49 4C       		.byte	0x4c
 2180 0f4a F4010000 		.4byte	0x1f4
 2181 0f4e 0A       		.uleb128 0xa
 2182 0f4f D4010000 		.4byte	0x1d4
 2183 0f53 5E0F0000 		.4byte	0xf5e
 2184 0f57 0B       		.uleb128 0xb
 2185 0f58 7E010000 		.4byte	0x17e
 2186 0f5c 0F       		.byte	0xf
 2187 0f5d 00       		.byte	0
 2188 0f5e 0F       		.uleb128 0xf
 2189 0f5f 4E0F0000 		.4byte	0xf4e
 2190 0f63 11       		.uleb128 0x11
 2191 0f64 1C0A0000 		.4byte	.LASF243
 2192 0f68 14       		.byte	0x14
 2193 0f69 4E       		.byte	0x4e
 2194 0f6a 5E0F0000 		.4byte	0xf5e
 2195 0f6e 0A       		.uleb128 0xa
 2196 0f6f D4010000 		.4byte	0x1d4
 2197 0f73 7E0F0000 		.4byte	0xf7e
 2198 0f77 0B       		.uleb128 0xb
 2199 0f78 7E010000 		.4byte	0x17e
 2200 0f7c 07       		.byte	0x7
 2201 0f7d 00       		.byte	0
 2202 0f7e 0F       		.uleb128 0xf
 2203 0f7f 6E0F0000 		.4byte	0xf6e
 2204 0f83 11       		.uleb128 0x11
 2205 0f84 BB0B0000 		.4byte	.LASF244
 2206 0f88 14       		.byte	0x14
 2207 0f89 4F       		.byte	0x4f
 2208 0f8a 7E0F0000 		.4byte	0xf7e
 2209 0f8e 03       		.uleb128 0x3
 2210 0f8f 5A020000 		.4byte	.LASF245
 2211 0f93 15       		.byte	0x15
 2212 0f94 65       		.byte	0x65
 2213 0f95 BC010000 		.4byte	0x1bc
 2214 0f99 03       		.uleb128 0x3
 2215 0f9a 09050000 		.4byte	.LASF246
 2216 0f9e 15       		.byte	0x15
 2217 0f9f 6D       		.byte	0x6d
 2218 0fa0 FF010000 		.4byte	0x1ff
 2219 0fa4 12       		.uleb128 0x12
 2220 0fa5 C00C0000 		.4byte	.LASF247
 2221 0fa9 04       		.byte	0x4
 2222 0faa 15       		.byte	0x15
 2223 0fab 89       		.byte	0x89
ARM GAS  /tmp/cc248mnq.s 			page 40


 2224 0fac BC0F0000 		.4byte	0xfbc
 2225 0fb0 13       		.uleb128 0x13
 2226 0fb1 737000   		.ascii	"sp\000"
 2227 0fb4 15       		.byte	0x15
 2228 0fb5 8A       		.byte	0x8a
 2229 0fb6 08110000 		.4byte	0x1108
 2230 0fba 00       		.byte	0
 2231 0fbb 00       		.byte	0
 2232 0fbc 1C       		.uleb128 0x1c
 2233 0fbd C5090000 		.4byte	.LASF248
 2234 0fc1 64       		.byte	0x64
 2235 0fc2 16       		.byte	0x16
 2236 0fc3 5901     		.2byte	0x159
 2237 0fc5 08110000 		.4byte	0x1108
 2238 0fc9 23       		.uleb128 0x23
 2239 0fca 73313600 		.ascii	"s16\000"
 2240 0fce 16       		.byte	0x16
 2241 0fcf 5B01     		.2byte	0x15b
 2242 0fd1 8E0F0000 		.4byte	0xf8e
 2243 0fd5 00       		.byte	0
 2244 0fd6 23       		.uleb128 0x23
 2245 0fd7 73313700 		.ascii	"s17\000"
 2246 0fdb 16       		.byte	0x16
 2247 0fdc 5C01     		.2byte	0x15c
 2248 0fde 8E0F0000 		.4byte	0xf8e
 2249 0fe2 04       		.byte	0x4
 2250 0fe3 23       		.uleb128 0x23
 2251 0fe4 73313800 		.ascii	"s18\000"
 2252 0fe8 16       		.byte	0x16
 2253 0fe9 5D01     		.2byte	0x15d
 2254 0feb 8E0F0000 		.4byte	0xf8e
 2255 0fef 08       		.byte	0x8
 2256 0ff0 23       		.uleb128 0x23
 2257 0ff1 73313900 		.ascii	"s19\000"
 2258 0ff5 16       		.byte	0x16
 2259 0ff6 5E01     		.2byte	0x15e
 2260 0ff8 8E0F0000 		.4byte	0xf8e
 2261 0ffc 0C       		.byte	0xc
 2262 0ffd 23       		.uleb128 0x23
 2263 0ffe 73323000 		.ascii	"s20\000"
 2264 1002 16       		.byte	0x16
 2265 1003 5F01     		.2byte	0x15f
 2266 1005 8E0F0000 		.4byte	0xf8e
 2267 1009 10       		.byte	0x10
 2268 100a 23       		.uleb128 0x23
 2269 100b 73323100 		.ascii	"s21\000"
 2270 100f 16       		.byte	0x16
 2271 1010 6001     		.2byte	0x160
 2272 1012 8E0F0000 		.4byte	0xf8e
 2273 1016 14       		.byte	0x14
 2274 1017 23       		.uleb128 0x23
 2275 1018 73323200 		.ascii	"s22\000"
 2276 101c 16       		.byte	0x16
 2277 101d 6101     		.2byte	0x161
 2278 101f 8E0F0000 		.4byte	0xf8e
 2279 1023 18       		.byte	0x18
 2280 1024 23       		.uleb128 0x23
ARM GAS  /tmp/cc248mnq.s 			page 41


 2281 1025 73323300 		.ascii	"s23\000"
 2282 1029 16       		.byte	0x16
 2283 102a 6201     		.2byte	0x162
 2284 102c 8E0F0000 		.4byte	0xf8e
 2285 1030 1C       		.byte	0x1c
 2286 1031 23       		.uleb128 0x23
 2287 1032 73323400 		.ascii	"s24\000"
 2288 1036 16       		.byte	0x16
 2289 1037 6301     		.2byte	0x163
 2290 1039 8E0F0000 		.4byte	0xf8e
 2291 103d 20       		.byte	0x20
 2292 103e 23       		.uleb128 0x23
 2293 103f 73323500 		.ascii	"s25\000"
 2294 1043 16       		.byte	0x16
 2295 1044 6401     		.2byte	0x164
 2296 1046 8E0F0000 		.4byte	0xf8e
 2297 104a 24       		.byte	0x24
 2298 104b 23       		.uleb128 0x23
 2299 104c 73323600 		.ascii	"s26\000"
 2300 1050 16       		.byte	0x16
 2301 1051 6501     		.2byte	0x165
 2302 1053 8E0F0000 		.4byte	0xf8e
 2303 1057 28       		.byte	0x28
 2304 1058 23       		.uleb128 0x23
 2305 1059 73323700 		.ascii	"s27\000"
 2306 105d 16       		.byte	0x16
 2307 105e 6601     		.2byte	0x166
 2308 1060 8E0F0000 		.4byte	0xf8e
 2309 1064 2C       		.byte	0x2c
 2310 1065 23       		.uleb128 0x23
 2311 1066 73323800 		.ascii	"s28\000"
 2312 106a 16       		.byte	0x16
 2313 106b 6701     		.2byte	0x167
 2314 106d 8E0F0000 		.4byte	0xf8e
 2315 1071 30       		.byte	0x30
 2316 1072 23       		.uleb128 0x23
 2317 1073 73323900 		.ascii	"s29\000"
 2318 1077 16       		.byte	0x16
 2319 1078 6801     		.2byte	0x168
 2320 107a 8E0F0000 		.4byte	0xf8e
 2321 107e 34       		.byte	0x34
 2322 107f 23       		.uleb128 0x23
 2323 1080 73333000 		.ascii	"s30\000"
 2324 1084 16       		.byte	0x16
 2325 1085 6901     		.2byte	0x169
 2326 1087 8E0F0000 		.4byte	0xf8e
 2327 108b 38       		.byte	0x38
 2328 108c 23       		.uleb128 0x23
 2329 108d 73333100 		.ascii	"s31\000"
 2330 1091 16       		.byte	0x16
 2331 1092 6A01     		.2byte	0x16a
 2332 1094 8E0F0000 		.4byte	0xf8e
 2333 1098 3C       		.byte	0x3c
 2334 1099 23       		.uleb128 0x23
 2335 109a 723400   		.ascii	"r4\000"
 2336 109d 16       		.byte	0x16
 2337 109e 6C01     		.2byte	0x16c
ARM GAS  /tmp/cc248mnq.s 			page 42


 2338 10a0 8E0F0000 		.4byte	0xf8e
 2339 10a4 40       		.byte	0x40
 2340 10a5 23       		.uleb128 0x23
 2341 10a6 723500   		.ascii	"r5\000"
 2342 10a9 16       		.byte	0x16
 2343 10aa 6D01     		.2byte	0x16d
 2344 10ac 8E0F0000 		.4byte	0xf8e
 2345 10b0 44       		.byte	0x44
 2346 10b1 23       		.uleb128 0x23
 2347 10b2 723600   		.ascii	"r6\000"
 2348 10b5 16       		.byte	0x16
 2349 10b6 6E01     		.2byte	0x16e
 2350 10b8 8E0F0000 		.4byte	0xf8e
 2351 10bc 48       		.byte	0x48
 2352 10bd 23       		.uleb128 0x23
 2353 10be 723700   		.ascii	"r7\000"
 2354 10c1 16       		.byte	0x16
 2355 10c2 6F01     		.2byte	0x16f
 2356 10c4 8E0F0000 		.4byte	0xf8e
 2357 10c8 4C       		.byte	0x4c
 2358 10c9 23       		.uleb128 0x23
 2359 10ca 723800   		.ascii	"r8\000"
 2360 10cd 16       		.byte	0x16
 2361 10ce 7001     		.2byte	0x170
 2362 10d0 8E0F0000 		.4byte	0xf8e
 2363 10d4 50       		.byte	0x50
 2364 10d5 23       		.uleb128 0x23
 2365 10d6 723900   		.ascii	"r9\000"
 2366 10d9 16       		.byte	0x16
 2367 10da 7101     		.2byte	0x171
 2368 10dc 8E0F0000 		.4byte	0xf8e
 2369 10e0 54       		.byte	0x54
 2370 10e1 23       		.uleb128 0x23
 2371 10e2 72313000 		.ascii	"r10\000"
 2372 10e6 16       		.byte	0x16
 2373 10e7 7201     		.2byte	0x172
 2374 10e9 8E0F0000 		.4byte	0xf8e
 2375 10ed 58       		.byte	0x58
 2376 10ee 23       		.uleb128 0x23
 2377 10ef 72313100 		.ascii	"r11\000"
 2378 10f3 16       		.byte	0x16
 2379 10f4 7301     		.2byte	0x173
 2380 10f6 8E0F0000 		.4byte	0xf8e
 2381 10fa 5C       		.byte	0x5c
 2382 10fb 23       		.uleb128 0x23
 2383 10fc 6C7200   		.ascii	"lr\000"
 2384 10ff 16       		.byte	0x16
 2385 1100 7401     		.2byte	0x174
 2386 1102 8E0F0000 		.4byte	0xf8e
 2387 1106 60       		.byte	0x60
 2388 1107 00       		.byte	0
 2389 1108 05       		.uleb128 0x5
 2390 1109 04       		.byte	0x4
 2391 110a BC0F0000 		.4byte	0xfbc
 2392 110e 0C       		.uleb128 0xc
 2393 110f 04       		.byte	0x4
 2394 1110 17       		.byte	0x17
ARM GAS  /tmp/cc248mnq.s 			page 43


 2395 1111 38       		.byte	0x38
 2396 1112 23110000 		.4byte	0x1123
 2397 1116 0D       		.uleb128 0xd
 2398 1117 1E090000 		.4byte	.LASF249
 2399 111b 17       		.byte	0x17
 2400 111c 3C       		.byte	0x3c
 2401 111d A20B0000 		.4byte	0xba2
 2402 1121 00       		.byte	0
 2403 1122 00       		.byte	0
 2404 1123 03       		.uleb128 0x3
 2405 1124 A50B0000 		.4byte	.LASF250
 2406 1128 17       		.byte	0x17
 2407 1129 3D       		.byte	0x3d
 2408 112a 0E110000 		.4byte	0x110e
 2409 112e 0C       		.uleb128 0xc
 2410 112f 18       		.byte	0x18
 2411 1130 17       		.byte	0x17
 2412 1131 48       		.byte	0x48
 2413 1132 71110000 		.4byte	0x1171
 2414 1136 0D       		.uleb128 0xd
 2415 1137 440B0000 		.4byte	.LASF251
 2416 113b 17       		.byte	0x17
 2417 113c 49       		.byte	0x49
 2418 113d A20B0000 		.4byte	0xba2
 2419 1141 00       		.byte	0
 2420 1142 0D       		.uleb128 0xd
 2421 1143 37050000 		.4byte	.LASF252
 2422 1147 17       		.byte	0x17
 2423 1148 4A       		.byte	0x4a
 2424 1149 A20B0000 		.4byte	0xba2
 2425 114d 04       		.byte	0x4
 2426 114e 0D       		.uleb128 0xd
 2427 114f 210E0000 		.4byte	.LASF253
 2428 1153 17       		.byte	0x17
 2429 1154 4B       		.byte	0x4b
 2430 1155 A20B0000 		.4byte	0xba2
 2431 1159 08       		.byte	0x8
 2432 115a 13       		.uleb128 0x13
 2433 115b 6E00     		.ascii	"n\000"
 2434 115d 17       		.byte	0x17
 2435 115e 4C       		.byte	0x4c
 2436 115f 050C0000 		.4byte	0xc05
 2437 1163 0C       		.byte	0xc
 2438 1164 0D       		.uleb128 0xd
 2439 1165 D7050000 		.4byte	.LASF254
 2440 1169 17       		.byte	0x17
 2441 116a 4D       		.byte	0x4d
 2442 116b AD0B0000 		.4byte	0xbad
 2443 116f 10       		.byte	0x10
 2444 1170 00       		.byte	0
 2445 1171 03       		.uleb128 0x3
 2446 1172 66010000 		.4byte	.LASF255
 2447 1176 17       		.byte	0x17
 2448 1177 4E       		.byte	0x4e
 2449 1178 2E110000 		.4byte	0x112e
 2450 117c 0C       		.uleb128 0xc
 2451 117d 38       		.byte	0x38
ARM GAS  /tmp/cc248mnq.s 			page 44


 2452 117e 18       		.byte	0x18
 2453 117f 38       		.byte	0x38
 2454 1180 B5110000 		.4byte	0x11b5
 2455 1184 0D       		.uleb128 0xd
 2456 1185 3E070000 		.4byte	.LASF256
 2457 1189 18       		.byte	0x18
 2458 118a 39       		.byte	0x39
 2459 118b 050C0000 		.4byte	0xc05
 2460 118f 00       		.byte	0
 2461 1190 0D       		.uleb128 0xd
 2462 1191 EA040000 		.4byte	.LASF257
 2463 1195 18       		.byte	0x18
 2464 1196 3A       		.byte	0x3a
 2465 1197 050C0000 		.4byte	0xc05
 2466 119b 04       		.byte	0x4
 2467 119c 0D       		.uleb128 0xd
 2468 119d F1050000 		.4byte	.LASF258
 2469 11a1 18       		.byte	0x18
 2470 11a2 3B       		.byte	0x3b
 2471 11a3 71110000 		.4byte	0x1171
 2472 11a7 08       		.byte	0x8
 2473 11a8 0D       		.uleb128 0xd
 2474 11a9 43080000 		.4byte	.LASF259
 2475 11ad 18       		.byte	0x18
 2476 11ae 3D       		.byte	0x3d
 2477 11af 71110000 		.4byte	0x1171
 2478 11b3 20       		.byte	0x20
 2479 11b4 00       		.byte	0
 2480 11b5 03       		.uleb128 0x3
 2481 11b6 CB080000 		.4byte	.LASF260
 2482 11ba 18       		.byte	0x18
 2483 11bb 3F       		.byte	0x3f
 2484 11bc 7C110000 		.4byte	0x117c
 2485 11c0 08       		.uleb128 0x8
 2486 11c1 04       		.byte	0x4
 2487 11c2 11       		.byte	0x11
 2488 11c3 C6       		.byte	0xc6
 2489 11c4 22120000 		.4byte	0x1222
 2490 11c8 09       		.uleb128 0x9
 2491 11c9 2B0D0000 		.4byte	.LASF261
 2492 11cd 11       		.byte	0x11
 2493 11ce CD       		.byte	0xcd
 2494 11cf E40B0000 		.4byte	0xbe4
 2495 11d3 09       		.uleb128 0x9
 2496 11d4 8E010000 		.4byte	.LASF262
 2497 11d8 11       		.byte	0x11
 2498 11d9 D4       		.byte	0xd4
 2499 11da E40B0000 		.4byte	0xbe4
 2500 11de 09       		.uleb128 0x9
 2501 11df E3040000 		.4byte	.LASF263
 2502 11e3 11       		.byte	0x11
 2503 11e4 DB       		.byte	0xdb
 2504 11e5 BC010000 		.4byte	0x1bc
 2505 11e9 09       		.uleb128 0x9
 2506 11ea 30040000 		.4byte	.LASF264
 2507 11ee 11       		.byte	0x11
 2508 11ef E2       		.byte	0xe2
ARM GAS  /tmp/cc248mnq.s 			page 45


 2509 11f0 22120000 		.4byte	0x1222
 2510 11f4 09       		.uleb128 0x9
 2511 11f5 BD090000 		.4byte	.LASF265
 2512 11f9 11       		.byte	0x11
 2513 11fa E7       		.byte	0xe7
 2514 11fb E40B0000 		.4byte	0xbe4
 2515 11ff 09       		.uleb128 0x9
 2516 1200 1A0E0000 		.4byte	.LASF266
 2517 1204 11       		.byte	0x11
 2518 1205 F0       		.byte	0xf0
 2519 1206 4D120000 		.4byte	0x124d
 2520 120a 09       		.uleb128 0x9
 2521 120b 8C050000 		.4byte	.LASF267
 2522 120f 11       		.byte	0x11
 2523 1210 F9       		.byte	0xf9
 2524 1211 90120000 		.4byte	0x1290
 2525 1215 1F       		.uleb128 0x1f
 2526 1216 CE020000 		.4byte	.LASF268
 2527 121a 11       		.byte	0x11
 2528 121b 0101     		.2byte	0x101
 2529 121d EF0B0000 		.4byte	0xbef
 2530 1221 00       		.byte	0
 2531 1222 05       		.uleb128 0x5
 2532 1223 04       		.byte	0x4
 2533 1224 060D0000 		.4byte	0xd06
 2534 1228 12       		.uleb128 0x12
 2535 1229 6C060000 		.4byte	.LASF269
 2536 122d 0C       		.byte	0xc
 2537 122e 19       		.byte	0x19
 2538 122f 34       		.byte	0x34
 2539 1230 4D120000 		.4byte	0x124d
 2540 1234 0D       		.uleb128 0xd
 2541 1235 DB0A0000 		.4byte	.LASF196
 2542 1239 19       		.byte	0x19
 2543 123a 35       		.byte	0x35
 2544 123b 3B0D0000 		.4byte	0xd3b
 2545 123f 00       		.byte	0
 2546 1240 13       		.uleb128 0x13
 2547 1241 636E7400 		.ascii	"cnt\000"
 2548 1245 19       		.byte	0x19
 2549 1246 37       		.byte	0x37
 2550 1247 FA0B0000 		.4byte	0xbfa
 2551 124b 08       		.byte	0x8
 2552 124c 00       		.byte	0
 2553 124d 05       		.uleb128 0x5
 2554 124e 04       		.byte	0x4
 2555 124f 28120000 		.4byte	0x1228
 2556 1253 12       		.uleb128 0x12
 2557 1254 010C0000 		.4byte	.LASF270
 2558 1258 14       		.byte	0x14
 2559 1259 1A       		.byte	0x1a
 2560 125a 39       		.byte	0x39
 2561 125b 90120000 		.4byte	0x1290
 2562 125f 0D       		.uleb128 0xd
 2563 1260 DB0A0000 		.4byte	.LASF196
 2564 1264 1A       		.byte	0x1a
 2565 1265 3A       		.byte	0x3a
ARM GAS  /tmp/cc248mnq.s 			page 46


 2566 1266 3B0D0000 		.4byte	0xd3b
 2567 126a 00       		.byte	0
 2568 126b 0D       		.uleb128 0xd
 2569 126c 5B000000 		.4byte	.LASF271
 2570 1270 1A       		.byte	0x1a
 2571 1271 3C       		.byte	0x3c
 2572 1272 110D0000 		.4byte	0xd11
 2573 1276 08       		.byte	0x8
 2574 1277 0D       		.uleb128 0xd
 2575 1278 E20D0000 		.4byte	.LASF215
 2576 127c 1A       		.byte	0x1a
 2577 127d 3E       		.byte	0x3e
 2578 127e DB130000 		.4byte	0x13db
 2579 1282 0C       		.byte	0xc
 2580 1283 13       		.uleb128 0x13
 2581 1284 636E7400 		.ascii	"cnt\000"
 2582 1288 1A       		.byte	0x1a
 2583 1289 41       		.byte	0x41
 2584 128a FA0B0000 		.4byte	0xbfa
 2585 128e 10       		.byte	0x10
 2586 128f 00       		.byte	0
 2587 1290 05       		.uleb128 0x5
 2588 1291 04       		.byte	0x4
 2589 1292 53120000 		.4byte	0x1253
 2590 1296 05       		.uleb128 0x5
 2591 1297 04       		.byte	0x4
 2592 1298 990F0000 		.4byte	0xf99
 2593 129c 05       		.uleb128 0x5
 2594 129d 04       		.byte	0x4
 2595 129e EE0D0000 		.4byte	0xdee
 2596 12a2 24       		.uleb128 0x24
 2597 12a3 636800   		.ascii	"ch\000"
 2598 12a6 11       		.byte	0x11
 2599 12a7 C701     		.2byte	0x1c7
 2600 12a9 BB0E0000 		.4byte	0xebb
 2601 12ad 0A       		.uleb128 0xa
 2602 12ae 990F0000 		.4byte	0xf99
 2603 12b2 B8120000 		.4byte	0x12b8
 2604 12b6 22       		.uleb128 0x22
 2605 12b7 00       		.byte	0
 2606 12b8 21       		.uleb128 0x21
 2607 12b9 99060000 		.4byte	.LASF272
 2608 12bd 1B       		.byte	0x1b
 2609 12be 1701     		.2byte	0x117
 2610 12c0 AD120000 		.4byte	0x12ad
 2611 12c4 0C       		.uleb128 0xc
 2612 12c5 16       		.byte	0x16
 2613 12c6 1C       		.byte	0x1c
 2614 12c7 34       		.byte	0x34
 2615 12c8 A5130000 		.4byte	0x13a5
 2616 12cc 0D       		.uleb128 0xd
 2617 12cd 020E0000 		.4byte	.LASF273
 2618 12d1 1C       		.byte	0x1c
 2619 12d2 35       		.byte	0x35
 2620 12d3 A5130000 		.4byte	0x13a5
 2621 12d7 00       		.byte	0
 2622 12d8 0D       		.uleb128 0xd
ARM GAS  /tmp/cc248mnq.s 			page 47


 2623 12d9 15020000 		.4byte	.LASF274
 2624 12dd 1C       		.byte	0x1c
 2625 12de 36       		.byte	0x36
 2626 12df C9010000 		.4byte	0x1c9
 2627 12e3 04       		.byte	0x4
 2628 12e4 0D       		.uleb128 0xd
 2629 12e5 5D0A0000 		.4byte	.LASF275
 2630 12e9 1C       		.byte	0x1c
 2631 12ea 37       		.byte	0x37
 2632 12eb C9010000 		.4byte	0x1c9
 2633 12ef 05       		.byte	0x5
 2634 12f0 0D       		.uleb128 0xd
 2635 12f1 350B0000 		.4byte	.LASF276
 2636 12f5 1C       		.byte	0x1c
 2637 12f6 38       		.byte	0x38
 2638 12f7 D9010000 		.4byte	0x1d9
 2639 12fb 06       		.byte	0x6
 2640 12fc 0D       		.uleb128 0xd
 2641 12fd 45050000 		.4byte	.LASF277
 2642 1301 1C       		.byte	0x1c
 2643 1302 39       		.byte	0x39
 2644 1303 C9010000 		.4byte	0x1c9
 2645 1307 08       		.byte	0x8
 2646 1308 0D       		.uleb128 0xd
 2647 1309 870D0000 		.4byte	.LASF278
 2648 130d 1C       		.byte	0x1c
 2649 130e 3A       		.byte	0x3a
 2650 130f C9010000 		.4byte	0x1c9
 2651 1313 09       		.byte	0x9
 2652 1314 0D       		.uleb128 0xd
 2653 1315 2E060000 		.4byte	.LASF279
 2654 1319 1C       		.byte	0x1c
 2655 131a 3B       		.byte	0x3b
 2656 131b C9010000 		.4byte	0x1c9
 2657 131f 0A       		.byte	0xa
 2658 1320 0D       		.uleb128 0xd
 2659 1321 1B000000 		.4byte	.LASF280
 2660 1325 1C       		.byte	0x1c
 2661 1326 3C       		.byte	0x3c
 2662 1327 C9010000 		.4byte	0x1c9
 2663 132b 0B       		.byte	0xb
 2664 132c 0D       		.uleb128 0xd
 2665 132d 00000000 		.4byte	.LASF281
 2666 1331 1C       		.byte	0x1c
 2667 1332 3D       		.byte	0x3d
 2668 1333 C9010000 		.4byte	0x1c9
 2669 1337 0C       		.byte	0xc
 2670 1338 0D       		.uleb128 0xd
 2671 1339 39080000 		.4byte	.LASF282
 2672 133d 1C       		.byte	0x1c
 2673 133e 3E       		.byte	0x3e
 2674 133f C9010000 		.4byte	0x1c9
 2675 1343 0D       		.byte	0xd
 2676 1344 0D       		.uleb128 0xd
 2677 1345 79010000 		.4byte	.LASF283
 2678 1349 1C       		.byte	0x1c
 2679 134a 3F       		.byte	0x3f
ARM GAS  /tmp/cc248mnq.s 			page 48


 2680 134b C9010000 		.4byte	0x1c9
 2681 134f 0E       		.byte	0xe
 2682 1350 0D       		.uleb128 0xd
 2683 1351 8A0A0000 		.4byte	.LASF284
 2684 1355 1C       		.byte	0x1c
 2685 1356 40       		.byte	0x40
 2686 1357 C9010000 		.4byte	0x1c9
 2687 135b 0F       		.byte	0xf
 2688 135c 0D       		.uleb128 0xd
 2689 135d 05070000 		.4byte	.LASF285
 2690 1361 1C       		.byte	0x1c
 2691 1362 41       		.byte	0x41
 2692 1363 C9010000 		.4byte	0x1c9
 2693 1367 10       		.byte	0x10
 2694 1368 0D       		.uleb128 0xd
 2695 1369 0D060000 		.4byte	.LASF286
 2696 136d 1C       		.byte	0x1c
 2697 136e 42       		.byte	0x42
 2698 136f C9010000 		.4byte	0x1c9
 2699 1373 11       		.byte	0x11
 2700 1374 0D       		.uleb128 0xd
 2701 1375 AC0D0000 		.4byte	.LASF287
 2702 1379 1C       		.byte	0x1c
 2703 137a 43       		.byte	0x43
 2704 137b C9010000 		.4byte	0x1c9
 2705 137f 12       		.byte	0x12
 2706 1380 0D       		.uleb128 0xd
 2707 1381 160D0000 		.4byte	.LASF288
 2708 1385 1C       		.byte	0x1c
 2709 1386 44       		.byte	0x44
 2710 1387 C9010000 		.4byte	0x1c9
 2711 138b 13       		.byte	0x13
 2712 138c 0D       		.uleb128 0xd
 2713 138d 4A000000 		.4byte	.LASF289
 2714 1391 1C       		.byte	0x1c
 2715 1392 45       		.byte	0x45
 2716 1393 C9010000 		.4byte	0x1c9
 2717 1397 14       		.byte	0x14
 2718 1398 0D       		.uleb128 0xd
 2719 1399 61050000 		.4byte	.LASF290
 2720 139d 1C       		.byte	0x1c
 2721 139e 46       		.byte	0x46
 2722 139f C9010000 		.4byte	0x1c9
 2723 13a3 15       		.byte	0x15
 2724 13a4 00       		.byte	0
 2725 13a5 0A       		.uleb128 0xa
 2726 13a6 3C020000 		.4byte	0x23c
 2727 13aa B5130000 		.4byte	0x13b5
 2728 13ae 0B       		.uleb128 0xb
 2729 13af 7E010000 		.4byte	0x17e
 2730 13b3 03       		.byte	0x3
 2731 13b4 00       		.byte	0
 2732 13b5 03       		.uleb128 0x3
 2733 13b6 600D0000 		.4byte	.LASF291
 2734 13ba 1C       		.byte	0x1c
 2735 13bb 47       		.byte	0x47
 2736 13bc C4120000 		.4byte	0x12c4
ARM GAS  /tmp/cc248mnq.s 			page 49


 2737 13c0 0F       		.uleb128 0xf
 2738 13c1 B5130000 		.4byte	0x13b5
 2739 13c5 11       		.uleb128 0x11
 2740 13c6 79000000 		.4byte	.LASF292
 2741 13ca 1C       		.byte	0x1c
 2742 13cb 6C       		.byte	0x6c
 2743 13cc C0130000 		.4byte	0x13c0
 2744 13d0 03       		.uleb128 0x3
 2745 13d1 A10C0000 		.4byte	.LASF293
 2746 13d5 1A       		.byte	0x1a
 2747 13d6 34       		.byte	0x34
 2748 13d7 53120000 		.4byte	0x1253
 2749 13db 05       		.uleb128 0x5
 2750 13dc 04       		.byte	0x4
 2751 13dd D0130000 		.4byte	0x13d0
 2752 13e1 02       		.uleb128 0x2
 2753 13e2 01       		.byte	0x1
 2754 13e3 02       		.byte	0x2
 2755 13e4 B8040000 		.4byte	.LASF294
 2756 13e8 03       		.uleb128 0x3
 2757 13e9 71090000 		.4byte	.LASF295
 2758 13ed 1D       		.byte	0x1d
 2759 13ee 47       		.byte	0x47
 2760 13ef F3130000 		.4byte	0x13f3
 2761 13f3 05       		.uleb128 0x5
 2762 13f4 04       		.byte	0x4
 2763 13f5 F9130000 		.4byte	0x13f9
 2764 13f9 17       		.uleb128 0x17
 2765 13fa BC010000 		.4byte	0x1bc
 2766 13fe 0D140000 		.4byte	0x140d
 2767 1402 18       		.uleb128 0x18
 2768 1403 A2000000 		.4byte	0xa2
 2769 1407 18       		.uleb128 0x18
 2770 1408 9B000000 		.4byte	0x9b
 2771 140c 00       		.byte	0
 2772 140d 03       		.uleb128 0x3
 2773 140e 57090000 		.4byte	.LASF296
 2774 1412 1D       		.byte	0x1d
 2775 1413 4C       		.byte	0x4c
 2776 1414 18140000 		.4byte	0x1418
 2777 1418 05       		.uleb128 0x5
 2778 1419 04       		.byte	0x4
 2779 141a 1E140000 		.4byte	0x141e
 2780 141e 17       		.uleb128 0x17
 2781 141f BC010000 		.4byte	0x1bc
 2782 1423 37140000 		.4byte	0x1437
 2783 1427 18       		.uleb128 0x18
 2784 1428 A2000000 		.4byte	0xa2
 2785 142c 18       		.uleb128 0x18
 2786 142d 9B000000 		.4byte	0x9b
 2787 1431 18       		.uleb128 0x18
 2788 1432 A2000000 		.4byte	0xa2
 2789 1436 00       		.byte	0
 2790 1437 0C       		.uleb128 0xc
 2791 1438 08       		.byte	0x8
 2792 1439 1D       		.byte	0x1d
 2793 143a 51       		.byte	0x51
ARM GAS  /tmp/cc248mnq.s 			page 50


 2794 143b 58140000 		.4byte	0x1458
 2795 143f 0D       		.uleb128 0xd
 2796 1440 E2050000 		.4byte	.LASF297
 2797 1444 1D       		.byte	0x1d
 2798 1445 55       		.byte	0x55
 2799 1446 58140000 		.4byte	0x1458
 2800 144a 00       		.byte	0
 2801 144b 0D       		.uleb128 0xd
 2802 144c CD010000 		.4byte	.LASF298
 2803 1450 1D       		.byte	0x1d
 2804 1451 59       		.byte	0x59
 2805 1452 58140000 		.4byte	0x1458
 2806 1456 04       		.byte	0x4
 2807 1457 00       		.byte	0
 2808 1458 05       		.uleb128 0x5
 2809 1459 04       		.byte	0x4
 2810 145a C9010000 		.4byte	0x1c9
 2811 145e 03       		.uleb128 0x3
 2812 145f B8020000 		.4byte	.LASF299
 2813 1463 1D       		.byte	0x1d
 2814 1464 5A       		.byte	0x5a
 2815 1465 37140000 		.4byte	0x1437
 2816 1469 11       		.uleb128 0x11
 2817 146a A10D0000 		.4byte	.LASF300
 2818 146e 1D       		.byte	0x1d
 2819 146f 65       		.byte	0x65
 2820 1470 5E140000 		.4byte	0x145e
 2821 1474 03       		.uleb128 0x3
 2822 1475 F7010000 		.4byte	.LASF301
 2823 1479 02       		.byte	0x2
 2824 147a 48       		.byte	0x48
 2825 147b 7F140000 		.4byte	0x147f
 2826 147f 12       		.uleb128 0x12
 2827 1480 08000000 		.4byte	.LASF302
 2828 1484 20       		.byte	0x20
 2829 1485 02       		.byte	0x2
 2830 1486 60       		.byte	0x60
 2831 1487 B0140000 		.4byte	0x14b0
 2832 148b 0D       		.uleb128 0xd
 2833 148c 8C000000 		.4byte	.LASF303
 2834 1490 02       		.byte	0x2
 2835 1491 61       		.byte	0x61
 2836 1492 0D140000 		.4byte	0x140d
 2837 1496 00       		.byte	0
 2838 1497 0D       		.uleb128 0xd
 2839 1498 B1040000 		.4byte	.LASF304
 2840 149c 02       		.byte	0x2
 2841 149d 63       		.byte	0x63
 2842 149e B0140000 		.4byte	0x14b0
 2843 14a2 04       		.byte	0x4
 2844 14a3 13       		.uleb128 0x13
 2845 14a4 6D747800 		.ascii	"mtx\000"
 2846 14a8 02       		.byte	0x2
 2847 14a9 65       		.byte	0x65
 2848 14aa D0130000 		.4byte	0x13d0
 2849 14ae 0C       		.byte	0xc
 2850 14af 00       		.byte	0
ARM GAS  /tmp/cc248mnq.s 			page 51


 2851 14b0 03       		.uleb128 0x3
 2852 14b1 76070000 		.4byte	.LASF305
 2853 14b5 02       		.byte	0x2
 2854 14b6 4D       		.byte	0x4d
 2855 14b7 BB140000 		.4byte	0x14bb
 2856 14bb 25       		.uleb128 0x25
 2857 14bc 27080000 		.4byte	.LASF342
 2858 14c0 08       		.byte	0x8
 2859 14c1 02       		.byte	0x2
 2860 14c2 52       		.byte	0x52
 2861 14c3 DE140000 		.4byte	0x14de
 2862 14c7 09       		.uleb128 0x9
 2863 14c8 260D0000 		.4byte	.LASF306
 2864 14cc 02       		.byte	0x2
 2865 14cd 56       		.byte	0x56
 2866 14ce DE140000 		.4byte	0x14de
 2867 14d2 09       		.uleb128 0x9
 2868 14d3 6C090000 		.4byte	.LASF307
 2869 14d7 02       		.byte	0x2
 2870 14d8 5A       		.byte	0x5a
 2871 14d9 05150000 		.4byte	0x1505
 2872 14dd 00       		.byte	0
 2873 14de 0C       		.uleb128 0xc
 2874 14df 08       		.byte	0x8
 2875 14e0 02       		.byte	0x2
 2876 14e1 53       		.byte	0x53
 2877 14e2 FF140000 		.4byte	0x14ff
 2878 14e6 0D       		.uleb128 0xd
 2879 14e7 E20D0000 		.4byte	.LASF215
 2880 14eb 02       		.byte	0x2
 2881 14ec 54       		.byte	0x54
 2882 14ed FF140000 		.4byte	0x14ff
 2883 14f1 00       		.byte	0
 2884 14f2 0D       		.uleb128 0xd
 2885 14f3 5B050000 		.4byte	.LASF308
 2886 14f7 02       		.byte	0x2
 2887 14f8 55       		.byte	0x55
 2888 14f9 A2000000 		.4byte	0xa2
 2889 14fd 04       		.byte	0x4
 2890 14fe 00       		.byte	0
 2891 14ff 05       		.uleb128 0x5
 2892 1500 04       		.byte	0x4
 2893 1501 B0140000 		.4byte	0x14b0
 2894 1505 0C       		.uleb128 0xc
 2895 1506 08       		.byte	0x8
 2896 1507 02       		.byte	0x2
 2897 1508 57       		.byte	0x57
 2898 1509 26150000 		.4byte	0x1526
 2899 150d 0D       		.uleb128 0xd
 2900 150e 6C020000 		.4byte	.LASF309
 2901 1512 02       		.byte	0x2
 2902 1513 58       		.byte	0x58
 2903 1514 26150000 		.4byte	0x1526
 2904 1518 00       		.byte	0
 2905 1519 0D       		.uleb128 0xd
 2906 151a 5D0A0000 		.4byte	.LASF275
 2907 151e 02       		.byte	0x2
ARM GAS  /tmp/cc248mnq.s 			page 52


 2908 151f 59       		.byte	0x59
 2909 1520 A2000000 		.4byte	0xa2
 2910 1524 04       		.byte	0x4
 2911 1525 00       		.byte	0
 2912 1526 05       		.uleb128 0x5
 2913 1527 04       		.byte	0x4
 2914 1528 74140000 		.4byte	0x1474
 2915 152c 12       		.uleb128 0x12
 2916 152d 12070000 		.4byte	.LASF310
 2917 1531 04       		.byte	0x4
 2918 1532 1E       		.byte	0x1e
 2919 1533 38       		.byte	0x38
 2920 1534 45150000 		.4byte	0x1545
 2921 1538 0D       		.uleb128 0xd
 2922 1539 E20D0000 		.4byte	.LASF215
 2923 153d 1E       		.byte	0x1e
 2924 153e 39       		.byte	0x39
 2925 153f 45150000 		.4byte	0x1545
 2926 1543 00       		.byte	0
 2927 1544 00       		.byte	0
 2928 1545 05       		.uleb128 0x5
 2929 1546 04       		.byte	0x4
 2930 1547 2C150000 		.4byte	0x152c
 2931 154b 0C       		.uleb128 0xc
 2932 154c 10       		.byte	0x10
 2933 154d 1E       		.byte	0x1e
 2934 154e 40       		.byte	0x40
 2935 154f 84150000 		.4byte	0x1584
 2936 1553 0D       		.uleb128 0xd
 2937 1554 E20D0000 		.4byte	.LASF215
 2938 1558 1E       		.byte	0x1e
 2939 1559 41       		.byte	0x41
 2940 155a 45150000 		.4byte	0x1545
 2941 155e 00       		.byte	0
 2942 155f 0D       		.uleb128 0xd
 2943 1560 4E0C0000 		.4byte	.LASF311
 2944 1564 1E       		.byte	0x1e
 2945 1565 42       		.byte	0x42
 2946 1566 A2000000 		.4byte	0xa2
 2947 156a 04       		.byte	0x4
 2948 156b 0D       		.uleb128 0xd
 2949 156c 08080000 		.4byte	.LASF312
 2950 1570 1E       		.byte	0x1e
 2951 1571 44       		.byte	0x44
 2952 1572 9B000000 		.4byte	0x9b
 2953 1576 08       		.byte	0x8
 2954 1577 0D       		.uleb128 0xd
 2955 1578 8C000000 		.4byte	.LASF303
 2956 157c 1E       		.byte	0x1e
 2957 157d 45       		.byte	0x45
 2958 157e E8130000 		.4byte	0x13e8
 2959 1582 0C       		.byte	0xc
 2960 1583 00       		.byte	0
 2961 1584 03       		.uleb128 0x3
 2962 1585 6D0B0000 		.4byte	.LASF313
 2963 1589 1E       		.byte	0x1e
 2964 158a 47       		.byte	0x47
ARM GAS  /tmp/cc248mnq.s 			page 53


 2965 158b 4B150000 		.4byte	0x154b
 2966 158f 12       		.uleb128 0x12
 2967 1590 36010000 		.4byte	.LASF314
 2968 1594 10       		.byte	0x10
 2969 1595 1F       		.byte	0x1f
 2970 1596 A9       		.byte	0xa9
 2971 1597 C0150000 		.4byte	0x15c0
 2972 159b 0D       		.uleb128 0xd
 2973 159c E20D0000 		.4byte	.LASF215
 2974 15a0 1F       		.byte	0x1f
 2975 15a1 AD       		.byte	0xad
 2976 15a2 C0150000 		.4byte	0x15c0
 2977 15a6 00       		.byte	0
 2978 15a7 0D       		.uleb128 0xd
 2979 15a8 74080000 		.4byte	.LASF204
 2980 15ac 1F       		.byte	0x1f
 2981 15ad B1       		.byte	0xb1
 2982 15ae 050C0000 		.4byte	0xc05
 2983 15b2 04       		.byte	0x4
 2984 15b3 0D       		.uleb128 0xd
 2985 15b4 B60B0000 		.4byte	.LASF200
 2986 15b8 1F       		.byte	0x1f
 2987 15b9 B3       		.byte	0xb3
 2988 15ba 6B090000 		.4byte	0x96b
 2989 15be 08       		.byte	0x8
 2990 15bf 00       		.byte	0
 2991 15c0 05       		.uleb128 0x5
 2992 15c1 04       		.byte	0x4
 2993 15c2 8F150000 		.4byte	0x158f
 2994 15c6 03       		.uleb128 0x3
 2995 15c7 830C0000 		.4byte	.LASF315
 2996 15cb 1F       		.byte	0x1f
 2997 15cc B7       		.byte	0xb7
 2998 15cd 8F150000 		.4byte	0x158f
 2999 15d1 12       		.uleb128 0x12
 3000 15d2 F60D0000 		.4byte	.LASF316
 3001 15d6 04       		.byte	0x4
 3002 15d7 1F       		.byte	0x1f
 3003 15d8 BC       		.byte	0xbc
 3004 15d9 EA150000 		.4byte	0x15ea
 3005 15dd 0D       		.uleb128 0xd
 3006 15de E20D0000 		.4byte	.LASF215
 3007 15e2 1F       		.byte	0x1f
 3008 15e3 BD       		.byte	0xbd
 3009 15e4 EA150000 		.4byte	0x15ea
 3010 15e8 00       		.byte	0
 3011 15e9 00       		.byte	0
 3012 15ea 05       		.uleb128 0x5
 3013 15eb 04       		.byte	0x4
 3014 15ec C6150000 		.4byte	0x15c6
 3015 15f0 03       		.uleb128 0x3
 3016 15f1 390C0000 		.4byte	.LASF317
 3017 15f5 1F       		.byte	0x1f
 3018 15f6 BE       		.byte	0xbe
 3019 15f7 D1150000 		.4byte	0x15d1
 3020 15fb 1C       		.uleb128 0x1c
 3021 15fc C5070000 		.4byte	.LASF318
ARM GAS  /tmp/cc248mnq.s 			page 54


 3022 1600 48       		.byte	0x48
 3023 1601 1F       		.byte	0x1f
 3024 1602 3E01     		.2byte	0x13e
 3025 1604 71160000 		.4byte	0x1671
 3026 1608 23       		.uleb128 0x23
 3027 1609 6D747800 		.ascii	"mtx\000"
 3028 160d 1F       		.byte	0x1f
 3029 160e 4301     		.2byte	0x143
 3030 1610 D0130000 		.4byte	0x13d0
 3031 1614 00       		.byte	0
 3032 1615 1A       		.uleb128 0x1a
 3033 1616 5D010000 		.4byte	.LASF319
 3034 161a 1F       		.byte	0x1f
 3035 161b 4A01     		.2byte	0x14a
 3036 161d F0150000 		.4byte	0x15f0
 3037 1621 14       		.byte	0x14
 3038 1622 1A       		.uleb128 0x1a
 3039 1623 71020000 		.4byte	.LASF320
 3040 1627 1F       		.byte	0x1f
 3041 1628 4E01     		.2byte	0x14e
 3042 162a 84150000 		.4byte	0x1584
 3043 162e 18       		.byte	0x18
 3044 162f 1A       		.uleb128 0x1a
 3045 1630 F7090000 		.4byte	.LASF321
 3046 1634 1F       		.byte	0x1f
 3047 1635 5301     		.2byte	0x153
 3048 1637 F0150000 		.4byte	0x15f0
 3049 163b 28       		.byte	0x28
 3050 163c 1A       		.uleb128 0x1a
 3051 163d CF040000 		.4byte	.LASF322
 3052 1641 1F       		.byte	0x1f
 3053 1642 5901     		.2byte	0x159
 3054 1644 F0150000 		.4byte	0x15f0
 3055 1648 2C       		.byte	0x2c
 3056 1649 1A       		.uleb128 0x1a
 3057 164a B7050000 		.4byte	.LASF323
 3058 164e 1F       		.byte	0x1f
 3059 164f 5D01     		.2byte	0x15d
 3060 1651 84150000 		.4byte	0x1584
 3061 1655 30       		.byte	0x30
 3062 1656 1A       		.uleb128 0x1a
 3063 1657 180B0000 		.4byte	.LASF324
 3064 165b 1F       		.byte	0x1f
 3065 165c 6301     		.2byte	0x163
 3066 165e F0150000 		.4byte	0x15f0
 3067 1662 40       		.byte	0x40
 3068 1663 1A       		.uleb128 0x1a
 3069 1664 B2060000 		.4byte	.LASF325
 3070 1668 1F       		.byte	0x1f
 3071 1669 6901     		.2byte	0x169
 3072 166b F0150000 		.4byte	0x15f0
 3073 166f 44       		.byte	0x44
 3074 1670 00       		.byte	0
 3075 1671 07       		.uleb128 0x7
 3076 1672 D1090000 		.4byte	.LASF326
 3077 1676 1F       		.byte	0x1f
 3078 1677 7101     		.2byte	0x171
ARM GAS  /tmp/cc248mnq.s 			page 55


 3079 1679 FB150000 		.4byte	0x15fb
 3080 167d 21       		.uleb128 0x21
 3081 167e FE0A0000 		.4byte	.LASF327
 3082 1682 1F       		.byte	0x1f
 3083 1683 7C01     		.2byte	0x17c
 3084 1685 71160000 		.4byte	0x1671
 3085 1689 26       		.uleb128 0x26
 3086 168a 7E090000 		.4byte	.LASF328
 3087 168e 01       		.byte	0x1
 3088 168f 55       		.byte	0x55
 3089 1690 C9010000 		.4byte	0x1c9
 3090 1694 05       		.uleb128 0x5
 3091 1695 03       		.byte	0x3
 3092 1696 00000000 		.4byte	_before_main
 3093 169a 27       		.uleb128 0x27
 3094 169b EB090000 		.4byte	.LASF329
 3095 169f 01       		.byte	0x1
 3096 16a0 C5       		.byte	0xc5
 3097 16a1 94000000 		.4byte	0x94
 3098 16a5 00000000 		.4byte	.LFB311
 3099 16a9 06000000 		.4byte	.LFE311-.LFB311
 3100 16ad 01       		.uleb128 0x1
 3101 16ae 9C       		.byte	0x9c
 3102 16af D0160000 		.4byte	0x16d0
 3103 16b3 28       		.uleb128 0x28
 3104 16b4 70696400 		.ascii	"pid\000"
 3105 16b8 01       		.byte	0x1
 3106 16b9 C5       		.byte	0xc5
 3107 16ba 94000000 		.4byte	0x94
 3108 16be 00000000 		.4byte	.LLST9
 3109 16c2 29       		.uleb128 0x29
 3110 16c3 73696700 		.ascii	"sig\000"
 3111 16c7 01       		.byte	0x1
 3112 16c8 C5       		.byte	0xc5
 3113 16c9 94000000 		.4byte	0x94
 3114 16cd 01       		.uleb128 0x1
 3115 16ce 51       		.byte	0x51
 3116 16cf 00       		.byte	0
 3117 16d0 2A       		.uleb128 0x2a
 3118 16d1 7A020000 		.4byte	.LASF343
 3119 16d5 01       		.byte	0x1
 3120 16d6 C0       		.byte	0xc0
 3121 16d7 00000000 		.4byte	.LFB310
 3122 16db 02000000 		.4byte	.LFE310-.LFB310
 3123 16df 01       		.uleb128 0x1
 3124 16e0 9C       		.byte	0x9c
 3125 16e1 2B       		.uleb128 0x2b
 3126 16e2 33080000 		.4byte	.LASF330
 3127 16e6 0A       		.byte	0xa
 3128 16e7 12       		.byte	0x12
 3129 16e8 00000000 		.4byte	.LFB309
 3130 16ec 02000000 		.4byte	.LFE309-.LFB309
 3131 16f0 01       		.uleb128 0x1
 3132 16f1 9C       		.byte	0x9c
 3133 16f2 04170000 		.4byte	0x1704
 3134 16f6 2C       		.uleb128 0x2c
 3135 16f7 D70C0000 		.4byte	.LASF331
ARM GAS  /tmp/cc248mnq.s 			page 56


 3136 16fb 01       		.byte	0x1
 3137 16fc B9       		.byte	0xb9
 3138 16fd 94000000 		.4byte	0x94
 3139 1701 01       		.uleb128 0x1
 3140 1702 50       		.byte	0x50
 3141 1703 00       		.byte	0
 3142 1704 2D       		.uleb128 0x2d
 3143 1705 5D040000 		.4byte	.LASF344
 3144 1709 01       		.byte	0x1
 3145 170a B3       		.byte	0xb3
 3146 170b 7F020000 		.4byte	0x27f
 3147 170f 00000000 		.4byte	.LFB308
 3148 1713 04000000 		.4byte	.LFE308-.LFB308
 3149 1717 01       		.uleb128 0x1
 3150 1718 9C       		.byte	0x9c
 3151 1719 27       		.uleb128 0x27
 3152 171a 80020000 		.4byte	.LASF332
 3153 171e 01       		.byte	0x1
 3154 171f AB       		.byte	0xab
 3155 1720 94000000 		.4byte	0x94
 3156 1724 00000000 		.4byte	.LFB307
 3157 1728 04000000 		.4byte	.LFE307-.LFB307
 3158 172c 01       		.uleb128 0x1
 3159 172d 9C       		.byte	0x9c
 3160 172e 4C170000 		.4byte	0x174c
 3161 1732 28       		.uleb128 0x28
 3162 1733 7200     		.ascii	"r\000"
 3163 1735 01       		.byte	0x1
 3164 1736 AB       		.byte	0xab
 3165 1737 F3050000 		.4byte	0x5f3
 3166 173b 21000000 		.4byte	.LLST8
 3167 173f 29       		.uleb128 0x29
 3168 1740 666400   		.ascii	"fd\000"
 3169 1743 01       		.byte	0x1
 3170 1744 AB       		.byte	0xab
 3171 1745 94000000 		.4byte	0x94
 3172 1749 01       		.uleb128 0x1
 3173 174a 51       		.byte	0x51
 3174 174b 00       		.byte	0
 3175 174c 27       		.uleb128 0x27
 3176 174d 870B0000 		.4byte	.LASF333
 3177 1751 01       		.byte	0x1
 3178 1752 A0       		.byte	0xa0
 3179 1753 94000000 		.4byte	0x94
 3180 1757 00000000 		.4byte	.LFB306
 3181 175b 06000000 		.4byte	.LFE306-.LFB306
 3182 175f 01       		.uleb128 0x1
 3183 1760 9C       		.byte	0x9c
 3184 1761 8C170000 		.4byte	0x178c
 3185 1765 28       		.uleb128 0x28
 3186 1766 7200     		.ascii	"r\000"
 3187 1768 01       		.byte	0x1
 3188 1769 A0       		.byte	0xa0
 3189 176a F3050000 		.4byte	0x5f3
 3190 176e 42000000 		.4byte	.LLST7
 3191 1772 2C       		.uleb128 0x2c
 3192 1773 56050000 		.4byte	.LASF334
ARM GAS  /tmp/cc248mnq.s 			page 57


 3193 1777 01       		.byte	0x1
 3194 1778 A0       		.byte	0xa0
 3195 1779 94000000 		.4byte	0x94
 3196 177d 01       		.uleb128 0x1
 3197 177e 51       		.byte	0x51
 3198 177f 29       		.uleb128 0x29
 3199 1780 737400   		.ascii	"st\000"
 3200 1783 01       		.byte	0x1
 3201 1784 A0       		.byte	0xa0
 3202 1785 8C170000 		.4byte	0x178c
 3203 1789 01       		.uleb128 0x1
 3204 178a 52       		.byte	0x52
 3205 178b 00       		.byte	0
 3206 178c 05       		.uleb128 0x5
 3207 178d 04       		.byte	0x4
 3208 178e B90A0000 		.4byte	0xab9
 3209 1792 27       		.uleb128 0x27
 3210 1793 68070000 		.4byte	.LASF335
 3211 1797 01       		.byte	0x1
 3212 1798 89       		.byte	0x89
 3213 1799 2B020000 		.4byte	0x22b
 3214 179d 00000000 		.4byte	.LFB305
 3215 17a1 18000000 		.4byte	.LFE305-.LFB305
 3216 17a5 01       		.uleb128 0x1
 3217 17a6 9C       		.byte	0x9c
 3218 17a7 17180000 		.4byte	0x1817
 3219 17ab 28       		.uleb128 0x28
 3220 17ac 7200     		.ascii	"r\000"
 3221 17ae 01       		.byte	0x1
 3222 17af 89       		.byte	0x89
 3223 17b0 F3050000 		.4byte	0x5f3
 3224 17b4 63000000 		.4byte	.LLST3
 3225 17b8 2E       		.uleb128 0x2e
 3226 17b9 82080000 		.4byte	.LASF336
 3227 17bd 01       		.byte	0x1
 3228 17be 89       		.byte	0x89
 3229 17bf 94000000 		.4byte	0x94
 3230 17c3 81000000 		.4byte	.LLST4
 3231 17c7 2F       		.uleb128 0x2f
 3232 17c8 7000     		.ascii	"p\000"
 3233 17ca 01       		.byte	0x1
 3234 17cb 8C       		.byte	0x8c
 3235 17cc BC010000 		.4byte	0x1bc
 3236 17d0 30       		.uleb128 0x30
 3237 17d1 C2000000 		.4byte	.LASF345
 3238 17d5 27180000 		.4byte	0x1827
 3239 17d9 31       		.uleb128 0x31
 3240 17da 23190000 		.4byte	0x1923
 3241 17de 02000000 		.4byte	.LBB4
 3242 17e2 00000000 		.4byte	.Ldebug_ranges0+0
 3243 17e6 01       		.byte	0x1
 3244 17e7 8F       		.byte	0x8f
 3245 17e8 32       		.uleb128 0x32
 3246 17e9 33190000 		.4byte	0x1933
 3247 17ed A2000000 		.4byte	.LLST5
 3248 17f1 32       		.uleb128 0x32
 3249 17f2 3E190000 		.4byte	0x193e
ARM GAS  /tmp/cc248mnq.s 			page 58


 3250 17f6 B6000000 		.4byte	.LLST6
 3251 17fa 33       		.uleb128 0x33
 3252 17fb 0C000000 		.4byte	.LVL9
 3253 17ff 7C190000 		.4byte	0x197c
 3254 1803 34       		.uleb128 0x34
 3255 1804 01       		.uleb128 0x1
 3256 1805 50       		.byte	0x50
 3257 1806 01       		.uleb128 0x1
 3258 1807 30       		.byte	0x30
 3259 1808 34       		.uleb128 0x34
 3260 1809 01       		.uleb128 0x1
 3261 180a 51       		.byte	0x51
 3262 180b 03       		.uleb128 0x3
 3263 180c F3       		.byte	0xf3
 3264 180d 01       		.uleb128 0x1
 3265 180e 51       		.byte	0x51
 3266 180f 34       		.uleb128 0x34
 3267 1810 01       		.uleb128 0x1
 3268 1811 52       		.byte	0x52
 3269 1812 01       		.uleb128 0x1
 3270 1813 38       		.byte	0x38
 3271 1814 00       		.byte	0
 3272 1815 00       		.byte	0
 3273 1816 00       		.byte	0
 3274 1817 0A       		.uleb128 0xa
 3275 1818 43020000 		.4byte	0x243
 3276 181c 27180000 		.4byte	0x1827
 3277 1820 0B       		.uleb128 0xb
 3278 1821 7E010000 		.4byte	0x17e
 3279 1825 05       		.byte	0x5
 3280 1826 00       		.byte	0
 3281 1827 0F       		.uleb128 0xf
 3282 1828 17180000 		.4byte	0x1817
 3283 182c 27       		.uleb128 0x27
 3284 182d C8040000 		.4byte	.LASF96
 3285 1831 01       		.byte	0x1
 3286 1832 7F       		.byte	0x7f
 3287 1833 94000000 		.4byte	0x94
 3288 1837 00000000 		.4byte	.LFB304
 3289 183b 04000000 		.4byte	.LFE304-.LFB304
 3290 183f 01       		.uleb128 0x1
 3291 1840 9C       		.byte	0x9c
 3292 1841 60180000 		.4byte	0x1860
 3293 1845 28       		.uleb128 0x28
 3294 1846 7200     		.ascii	"r\000"
 3295 1848 01       		.byte	0x1
 3296 1849 7F       		.byte	0x7f
 3297 184a F3050000 		.4byte	0x5f3
 3298 184e D7000000 		.4byte	.LLST2
 3299 1852 2C       		.uleb128 0x2c
 3300 1853 56050000 		.4byte	.LASF334
 3301 1857 01       		.byte	0x1
 3302 1858 7F       		.byte	0x7f
 3303 1859 94000000 		.4byte	0x94
 3304 185d 01       		.uleb128 0x1
 3305 185e 51       		.byte	0x51
 3306 185f 00       		.byte	0
ARM GAS  /tmp/cc248mnq.s 			page 59


 3307 1860 35       		.uleb128 0x35
 3308 1861 95000000 		.4byte	.LASF94
 3309 1865 01       		.byte	0x1
 3310 1866 73       		.byte	0x73
 3311 1867 94000000 		.4byte	0x94
 3312 186b 01       		.byte	0x1
 3313 186c 9B180000 		.4byte	0x189b
 3314 1870 36       		.uleb128 0x36
 3315 1871 7200     		.ascii	"r\000"
 3316 1873 01       		.byte	0x1
 3317 1874 73       		.byte	0x73
 3318 1875 F3050000 		.4byte	0x5f3
 3319 1879 37       		.uleb128 0x37
 3320 187a 56050000 		.4byte	.LASF334
 3321 187e 01       		.byte	0x1
 3322 187f 73       		.byte	0x73
 3323 1880 94000000 		.4byte	0x94
 3324 1884 36       		.uleb128 0x36
 3325 1885 70747200 		.ascii	"ptr\000"
 3326 1889 01       		.byte	0x1
 3327 188a 73       		.byte	0x73
 3328 188b 36020000 		.4byte	0x236
 3329 188f 36       		.uleb128 0x36
 3330 1890 6C656E00 		.ascii	"len\000"
 3331 1894 01       		.byte	0x1
 3332 1895 73       		.byte	0x73
 3333 1896 94000000 		.4byte	0x94
 3334 189a 00       		.byte	0
 3335 189b 27       		.uleb128 0x27
 3336 189c 7B0D0000 		.4byte	.LASF337
 3337 18a0 01       		.byte	0x1
 3338 18a1 66       		.byte	0x66
 3339 18a2 94000000 		.4byte	0x94
 3340 18a6 00000000 		.4byte	.LFB302
 3341 18aa 04000000 		.4byte	.LFE302-.LFB302
 3342 18ae 01       		.uleb128 0x1
 3343 18af 9C       		.byte	0x9c
 3344 18b0 E9180000 		.4byte	0x18e9
 3345 18b4 28       		.uleb128 0x28
 3346 18b5 7200     		.ascii	"r\000"
 3347 18b7 01       		.byte	0x1
 3348 18b8 66       		.byte	0x66
 3349 18b9 F3050000 		.4byte	0x5f3
 3350 18bd F8000000 		.4byte	.LLST0
 3351 18c1 2C       		.uleb128 0x2c
 3352 18c2 56050000 		.4byte	.LASF334
 3353 18c6 01       		.byte	0x1
 3354 18c7 66       		.byte	0x66
 3355 18c8 94000000 		.4byte	0x94
 3356 18cc 01       		.uleb128 0x1
 3357 18cd 51       		.byte	0x51
 3358 18ce 29       		.uleb128 0x29
 3359 18cf 70747200 		.ascii	"ptr\000"
 3360 18d3 01       		.byte	0x1
 3361 18d4 66       		.byte	0x66
 3362 18d5 94000000 		.4byte	0x94
 3363 18d9 01       		.uleb128 0x1
ARM GAS  /tmp/cc248mnq.s 			page 60


 3364 18da 52       		.byte	0x52
 3365 18db 29       		.uleb128 0x29
 3366 18dc 64697200 		.ascii	"dir\000"
 3367 18e0 01       		.byte	0x1
 3368 18e1 66       		.byte	0x66
 3369 18e2 94000000 		.4byte	0x94
 3370 18e6 01       		.uleb128 0x1
 3371 18e7 53       		.byte	0x53
 3372 18e8 00       		.byte	0
 3373 18e9 38       		.uleb128 0x38
 3374 18ea 61000000 		.4byte	.LASF93
 3375 18ee 01       		.byte	0x1
 3376 18ef 5A       		.byte	0x5a
 3377 18f0 94000000 		.4byte	0x94
 3378 18f4 23190000 		.4byte	0x1923
 3379 18f8 36       		.uleb128 0x36
 3380 18f9 7200     		.ascii	"r\000"
 3381 18fb 01       		.byte	0x1
 3382 18fc 5A       		.byte	0x5a
 3383 18fd F3050000 		.4byte	0x5f3
 3384 1901 37       		.uleb128 0x37
 3385 1902 56050000 		.4byte	.LASF334
 3386 1906 01       		.byte	0x1
 3387 1907 5A       		.byte	0x5a
 3388 1908 94000000 		.4byte	0x94
 3389 190c 36       		.uleb128 0x36
 3390 190d 70747200 		.ascii	"ptr\000"
 3391 1911 01       		.byte	0x1
 3392 1912 5A       		.byte	0x5a
 3393 1913 36020000 		.4byte	0x236
 3394 1917 36       		.uleb128 0x36
 3395 1918 6C656E00 		.ascii	"len\000"
 3396 191c 01       		.byte	0x1
 3397 191d 5A       		.byte	0x5a
 3398 191e 94000000 		.4byte	0x94
 3399 1922 00       		.byte	0
 3400 1923 39       		.uleb128 0x39
 3401 1924 78050000 		.4byte	.LASF346
 3402 1928 02       		.byte	0x2
 3403 1929 9A       		.byte	0x9a
 3404 192a BC010000 		.4byte	0x1bc
 3405 192e 03       		.byte	0x3
 3406 192f 4A190000 		.4byte	0x194a
 3407 1933 37       		.uleb128 0x37
 3408 1934 540B0000 		.4byte	.LASF338
 3409 1938 02       		.byte	0x2
 3410 1939 9A       		.byte	0x9a
 3411 193a 26150000 		.4byte	0x1526
 3412 193e 37       		.uleb128 0x37
 3413 193f 5D0A0000 		.4byte	.LASF275
 3414 1943 02       		.byte	0x2
 3415 1944 9A       		.byte	0x9a
 3416 1945 A2000000 		.4byte	0xa2
 3417 1949 00       		.byte	0
 3418 194a 3A       		.uleb128 0x3a
 3419 194b 60180000 		.4byte	0x1860
 3420 194f 00000000 		.4byte	.LFB303
ARM GAS  /tmp/cc248mnq.s 			page 61


 3421 1953 06000000 		.4byte	.LFE303-.LFB303
 3422 1957 01       		.uleb128 0x1
 3423 1958 9C       		.byte	0x9c
 3424 1959 7C190000 		.4byte	0x197c
 3425 195d 32       		.uleb128 0x32
 3426 195e 70180000 		.4byte	0x1870
 3427 1962 19010000 		.4byte	.LLST1
 3428 1966 3B       		.uleb128 0x3b
 3429 1967 79180000 		.4byte	0x1879
 3430 196b 01       		.uleb128 0x1
 3431 196c 51       		.byte	0x51
 3432 196d 3B       		.uleb128 0x3b
 3433 196e 84180000 		.4byte	0x1884
 3434 1972 01       		.uleb128 0x1
 3435 1973 52       		.byte	0x52
 3436 1974 3B       		.uleb128 0x3b
 3437 1975 8F180000 		.4byte	0x188f
 3438 1979 01       		.uleb128 0x1
 3439 197a 53       		.byte	0x53
 3440 197b 00       		.byte	0
 3441 197c 3C       		.uleb128 0x3c
 3442 197d C90B0000 		.4byte	.LASF347
 3443 1981 C90B0000 		.4byte	.LASF347
 3444 1985 02       		.byte	0x2
 3445 1986 7F       		.byte	0x7f
 3446 1987 00       		.byte	0
 3447              		.section	.debug_abbrev,"",%progbits
 3448              	.Ldebug_abbrev0:
 3449 0000 01       		.uleb128 0x1
 3450 0001 11       		.uleb128 0x11
 3451 0002 01       		.byte	0x1
 3452 0003 25       		.uleb128 0x25
 3453 0004 0E       		.uleb128 0xe
 3454 0005 13       		.uleb128 0x13
 3455 0006 0B       		.uleb128 0xb
 3456 0007 03       		.uleb128 0x3
 3457 0008 0E       		.uleb128 0xe
 3458 0009 1B       		.uleb128 0x1b
 3459 000a 0E       		.uleb128 0xe
 3460 000b 55       		.uleb128 0x55
 3461 000c 17       		.uleb128 0x17
 3462 000d 11       		.uleb128 0x11
 3463 000e 01       		.uleb128 0x1
 3464 000f 10       		.uleb128 0x10
 3465 0010 17       		.uleb128 0x17
 3466 0011 00       		.byte	0
 3467 0012 00       		.byte	0
 3468 0013 02       		.uleb128 0x2
 3469 0014 24       		.uleb128 0x24
 3470 0015 00       		.byte	0
 3471 0016 0B       		.uleb128 0xb
 3472 0017 0B       		.uleb128 0xb
 3473 0018 3E       		.uleb128 0x3e
 3474 0019 0B       		.uleb128 0xb
 3475 001a 03       		.uleb128 0x3
 3476 001b 0E       		.uleb128 0xe
 3477 001c 00       		.byte	0
ARM GAS  /tmp/cc248mnq.s 			page 62


 3478 001d 00       		.byte	0
 3479 001e 03       		.uleb128 0x3
 3480 001f 16       		.uleb128 0x16
 3481 0020 00       		.byte	0
 3482 0021 03       		.uleb128 0x3
 3483 0022 0E       		.uleb128 0xe
 3484 0023 3A       		.uleb128 0x3a
 3485 0024 0B       		.uleb128 0xb
 3486 0025 3B       		.uleb128 0x3b
 3487 0026 0B       		.uleb128 0xb
 3488 0027 49       		.uleb128 0x49
 3489 0028 13       		.uleb128 0x13
 3490 0029 00       		.byte	0
 3491 002a 00       		.byte	0
 3492 002b 04       		.uleb128 0x4
 3493 002c 24       		.uleb128 0x24
 3494 002d 00       		.byte	0
 3495 002e 0B       		.uleb128 0xb
 3496 002f 0B       		.uleb128 0xb
 3497 0030 3E       		.uleb128 0x3e
 3498 0031 0B       		.uleb128 0xb
 3499 0032 03       		.uleb128 0x3
 3500 0033 08       		.uleb128 0x8
 3501 0034 00       		.byte	0
 3502 0035 00       		.byte	0
 3503 0036 05       		.uleb128 0x5
 3504 0037 0F       		.uleb128 0xf
 3505 0038 00       		.byte	0
 3506 0039 0B       		.uleb128 0xb
 3507 003a 0B       		.uleb128 0xb
 3508 003b 49       		.uleb128 0x49
 3509 003c 13       		.uleb128 0x13
 3510 003d 00       		.byte	0
 3511 003e 00       		.byte	0
 3512 003f 06       		.uleb128 0x6
 3513 0040 13       		.uleb128 0x13
 3514 0041 00       		.byte	0
 3515 0042 03       		.uleb128 0x3
 3516 0043 0E       		.uleb128 0xe
 3517 0044 3C       		.uleb128 0x3c
 3518 0045 19       		.uleb128 0x19
 3519 0046 00       		.byte	0
 3520 0047 00       		.byte	0
 3521 0048 07       		.uleb128 0x7
 3522 0049 16       		.uleb128 0x16
 3523 004a 00       		.byte	0
 3524 004b 03       		.uleb128 0x3
 3525 004c 0E       		.uleb128 0xe
 3526 004d 3A       		.uleb128 0x3a
 3527 004e 0B       		.uleb128 0xb
 3528 004f 3B       		.uleb128 0x3b
 3529 0050 05       		.uleb128 0x5
 3530 0051 49       		.uleb128 0x49
 3531 0052 13       		.uleb128 0x13
 3532 0053 00       		.byte	0
 3533 0054 00       		.byte	0
 3534 0055 08       		.uleb128 0x8
ARM GAS  /tmp/cc248mnq.s 			page 63


 3535 0056 17       		.uleb128 0x17
 3536 0057 01       		.byte	0x1
 3537 0058 0B       		.uleb128 0xb
 3538 0059 0B       		.uleb128 0xb
 3539 005a 3A       		.uleb128 0x3a
 3540 005b 0B       		.uleb128 0xb
 3541 005c 3B       		.uleb128 0x3b
 3542 005d 0B       		.uleb128 0xb
 3543 005e 01       		.uleb128 0x1
 3544 005f 13       		.uleb128 0x13
 3545 0060 00       		.byte	0
 3546 0061 00       		.byte	0
 3547 0062 09       		.uleb128 0x9
 3548 0063 0D       		.uleb128 0xd
 3549 0064 00       		.byte	0
 3550 0065 03       		.uleb128 0x3
 3551 0066 0E       		.uleb128 0xe
 3552 0067 3A       		.uleb128 0x3a
 3553 0068 0B       		.uleb128 0xb
 3554 0069 3B       		.uleb128 0x3b
 3555 006a 0B       		.uleb128 0xb
 3556 006b 49       		.uleb128 0x49
 3557 006c 13       		.uleb128 0x13
 3558 006d 00       		.byte	0
 3559 006e 00       		.byte	0
 3560 006f 0A       		.uleb128 0xa
 3561 0070 01       		.uleb128 0x1
 3562 0071 01       		.byte	0x1
 3563 0072 49       		.uleb128 0x49
 3564 0073 13       		.uleb128 0x13
 3565 0074 01       		.uleb128 0x1
 3566 0075 13       		.uleb128 0x13
 3567 0076 00       		.byte	0
 3568 0077 00       		.byte	0
 3569 0078 0B       		.uleb128 0xb
 3570 0079 21       		.uleb128 0x21
 3571 007a 00       		.byte	0
 3572 007b 49       		.uleb128 0x49
 3573 007c 13       		.uleb128 0x13
 3574 007d 2F       		.uleb128 0x2f
 3575 007e 0B       		.uleb128 0xb
 3576 007f 00       		.byte	0
 3577 0080 00       		.byte	0
 3578 0081 0C       		.uleb128 0xc
 3579 0082 13       		.uleb128 0x13
 3580 0083 01       		.byte	0x1
 3581 0084 0B       		.uleb128 0xb
 3582 0085 0B       		.uleb128 0xb
 3583 0086 3A       		.uleb128 0x3a
 3584 0087 0B       		.uleb128 0xb
 3585 0088 3B       		.uleb128 0x3b
 3586 0089 0B       		.uleb128 0xb
 3587 008a 01       		.uleb128 0x1
 3588 008b 13       		.uleb128 0x13
 3589 008c 00       		.byte	0
 3590 008d 00       		.byte	0
 3591 008e 0D       		.uleb128 0xd
ARM GAS  /tmp/cc248mnq.s 			page 64


 3592 008f 0D       		.uleb128 0xd
 3593 0090 00       		.byte	0
 3594 0091 03       		.uleb128 0x3
 3595 0092 0E       		.uleb128 0xe
 3596 0093 3A       		.uleb128 0x3a
 3597 0094 0B       		.uleb128 0xb
 3598 0095 3B       		.uleb128 0x3b
 3599 0096 0B       		.uleb128 0xb
 3600 0097 49       		.uleb128 0x49
 3601 0098 13       		.uleb128 0x13
 3602 0099 38       		.uleb128 0x38
 3603 009a 0B       		.uleb128 0xb
 3604 009b 00       		.byte	0
 3605 009c 00       		.byte	0
 3606 009d 0E       		.uleb128 0xe
 3607 009e 0F       		.uleb128 0xf
 3608 009f 00       		.byte	0
 3609 00a0 0B       		.uleb128 0xb
 3610 00a1 0B       		.uleb128 0xb
 3611 00a2 00       		.byte	0
 3612 00a3 00       		.byte	0
 3613 00a4 0F       		.uleb128 0xf
 3614 00a5 26       		.uleb128 0x26
 3615 00a6 00       		.byte	0
 3616 00a7 49       		.uleb128 0x49
 3617 00a8 13       		.uleb128 0x13
 3618 00a9 00       		.byte	0
 3619 00aa 00       		.byte	0
 3620 00ab 10       		.uleb128 0x10
 3621 00ac 35       		.uleb128 0x35
 3622 00ad 00       		.byte	0
 3623 00ae 49       		.uleb128 0x49
 3624 00af 13       		.uleb128 0x13
 3625 00b0 00       		.byte	0
 3626 00b1 00       		.byte	0
 3627 00b2 11       		.uleb128 0x11
 3628 00b3 34       		.uleb128 0x34
 3629 00b4 00       		.byte	0
 3630 00b5 03       		.uleb128 0x3
 3631 00b6 0E       		.uleb128 0xe
 3632 00b7 3A       		.uleb128 0x3a
 3633 00b8 0B       		.uleb128 0xb
 3634 00b9 3B       		.uleb128 0x3b
 3635 00ba 0B       		.uleb128 0xb
 3636 00bb 49       		.uleb128 0x49
 3637 00bc 13       		.uleb128 0x13
 3638 00bd 3F       		.uleb128 0x3f
 3639 00be 19       		.uleb128 0x19
 3640 00bf 3C       		.uleb128 0x3c
 3641 00c0 19       		.uleb128 0x19
 3642 00c1 00       		.byte	0
 3643 00c2 00       		.byte	0
 3644 00c3 12       		.uleb128 0x12
 3645 00c4 13       		.uleb128 0x13
 3646 00c5 01       		.byte	0x1
 3647 00c6 03       		.uleb128 0x3
 3648 00c7 0E       		.uleb128 0xe
ARM GAS  /tmp/cc248mnq.s 			page 65


 3649 00c8 0B       		.uleb128 0xb
 3650 00c9 0B       		.uleb128 0xb
 3651 00ca 3A       		.uleb128 0x3a
 3652 00cb 0B       		.uleb128 0xb
 3653 00cc 3B       		.uleb128 0x3b
 3654 00cd 0B       		.uleb128 0xb
 3655 00ce 01       		.uleb128 0x1
 3656 00cf 13       		.uleb128 0x13
 3657 00d0 00       		.byte	0
 3658 00d1 00       		.byte	0
 3659 00d2 13       		.uleb128 0x13
 3660 00d3 0D       		.uleb128 0xd
 3661 00d4 00       		.byte	0
 3662 00d5 03       		.uleb128 0x3
 3663 00d6 08       		.uleb128 0x8
 3664 00d7 3A       		.uleb128 0x3a
 3665 00d8 0B       		.uleb128 0xb
 3666 00d9 3B       		.uleb128 0x3b
 3667 00da 0B       		.uleb128 0xb
 3668 00db 49       		.uleb128 0x49
 3669 00dc 13       		.uleb128 0x13
 3670 00dd 38       		.uleb128 0x38
 3671 00de 0B       		.uleb128 0xb
 3672 00df 00       		.byte	0
 3673 00e0 00       		.byte	0
 3674 00e1 14       		.uleb128 0x14
 3675 00e2 13       		.uleb128 0x13
 3676 00e3 01       		.byte	0x1
 3677 00e4 03       		.uleb128 0x3
 3678 00e5 0E       		.uleb128 0xe
 3679 00e6 0B       		.uleb128 0xb
 3680 00e7 05       		.uleb128 0x5
 3681 00e8 3A       		.uleb128 0x3a
 3682 00e9 0B       		.uleb128 0xb
 3683 00ea 3B       		.uleb128 0x3b
 3684 00eb 0B       		.uleb128 0xb
 3685 00ec 01       		.uleb128 0x1
 3686 00ed 13       		.uleb128 0x13
 3687 00ee 00       		.byte	0
 3688 00ef 00       		.byte	0
 3689 00f0 15       		.uleb128 0x15
 3690 00f1 0D       		.uleb128 0xd
 3691 00f2 00       		.byte	0
 3692 00f3 03       		.uleb128 0x3
 3693 00f4 0E       		.uleb128 0xe
 3694 00f5 3A       		.uleb128 0x3a
 3695 00f6 0B       		.uleb128 0xb
 3696 00f7 3B       		.uleb128 0x3b
 3697 00f8 0B       		.uleb128 0xb
 3698 00f9 49       		.uleb128 0x49
 3699 00fa 13       		.uleb128 0x13
 3700 00fb 38       		.uleb128 0x38
 3701 00fc 05       		.uleb128 0x5
 3702 00fd 00       		.byte	0
 3703 00fe 00       		.byte	0
 3704 00ff 16       		.uleb128 0x16
 3705 0100 15       		.uleb128 0x15
ARM GAS  /tmp/cc248mnq.s 			page 66


 3706 0101 00       		.byte	0
 3707 0102 27       		.uleb128 0x27
 3708 0103 19       		.uleb128 0x19
 3709 0104 00       		.byte	0
 3710 0105 00       		.byte	0
 3711 0106 17       		.uleb128 0x17
 3712 0107 15       		.uleb128 0x15
 3713 0108 01       		.byte	0x1
 3714 0109 27       		.uleb128 0x27
 3715 010a 19       		.uleb128 0x19
 3716 010b 49       		.uleb128 0x49
 3717 010c 13       		.uleb128 0x13
 3718 010d 01       		.uleb128 0x1
 3719 010e 13       		.uleb128 0x13
 3720 010f 00       		.byte	0
 3721 0110 00       		.byte	0
 3722 0111 18       		.uleb128 0x18
 3723 0112 05       		.uleb128 0x5
 3724 0113 00       		.byte	0
 3725 0114 49       		.uleb128 0x49
 3726 0115 13       		.uleb128 0x13
 3727 0116 00       		.byte	0
 3728 0117 00       		.byte	0
 3729 0118 19       		.uleb128 0x19
 3730 0119 13       		.uleb128 0x13
 3731 011a 01       		.byte	0x1
 3732 011b 03       		.uleb128 0x3
 3733 011c 0E       		.uleb128 0xe
 3734 011d 0B       		.uleb128 0xb
 3735 011e 05       		.uleb128 0x5
 3736 011f 3A       		.uleb128 0x3a
 3737 0120 0B       		.uleb128 0xb
 3738 0121 3B       		.uleb128 0x3b
 3739 0122 05       		.uleb128 0x5
 3740 0123 01       		.uleb128 0x1
 3741 0124 13       		.uleb128 0x13
 3742 0125 00       		.byte	0
 3743 0126 00       		.byte	0
 3744 0127 1A       		.uleb128 0x1a
 3745 0128 0D       		.uleb128 0xd
 3746 0129 00       		.byte	0
 3747 012a 03       		.uleb128 0x3
 3748 012b 0E       		.uleb128 0xe
 3749 012c 3A       		.uleb128 0x3a
 3750 012d 0B       		.uleb128 0xb
 3751 012e 3B       		.uleb128 0x3b
 3752 012f 05       		.uleb128 0x5
 3753 0130 49       		.uleb128 0x49
 3754 0131 13       		.uleb128 0x13
 3755 0132 38       		.uleb128 0x38
 3756 0133 0B       		.uleb128 0xb
 3757 0134 00       		.byte	0
 3758 0135 00       		.byte	0
 3759 0136 1B       		.uleb128 0x1b
 3760 0137 0D       		.uleb128 0xd
 3761 0138 00       		.byte	0
 3762 0139 03       		.uleb128 0x3
ARM GAS  /tmp/cc248mnq.s 			page 67


 3763 013a 0E       		.uleb128 0xe
 3764 013b 3A       		.uleb128 0x3a
 3765 013c 0B       		.uleb128 0xb
 3766 013d 3B       		.uleb128 0x3b
 3767 013e 05       		.uleb128 0x5
 3768 013f 49       		.uleb128 0x49
 3769 0140 13       		.uleb128 0x13
 3770 0141 38       		.uleb128 0x38
 3771 0142 05       		.uleb128 0x5
 3772 0143 00       		.byte	0
 3773 0144 00       		.byte	0
 3774 0145 1C       		.uleb128 0x1c
 3775 0146 13       		.uleb128 0x13
 3776 0147 01       		.byte	0x1
 3777 0148 03       		.uleb128 0x3
 3778 0149 0E       		.uleb128 0xe
 3779 014a 0B       		.uleb128 0xb
 3780 014b 0B       		.uleb128 0xb
 3781 014c 3A       		.uleb128 0x3a
 3782 014d 0B       		.uleb128 0xb
 3783 014e 3B       		.uleb128 0x3b
 3784 014f 05       		.uleb128 0x5
 3785 0150 01       		.uleb128 0x1
 3786 0151 13       		.uleb128 0x13
 3787 0152 00       		.byte	0
 3788 0153 00       		.byte	0
 3789 0154 1D       		.uleb128 0x1d
 3790 0155 13       		.uleb128 0x13
 3791 0156 01       		.byte	0x1
 3792 0157 0B       		.uleb128 0xb
 3793 0158 0B       		.uleb128 0xb
 3794 0159 3A       		.uleb128 0x3a
 3795 015a 0B       		.uleb128 0xb
 3796 015b 3B       		.uleb128 0x3b
 3797 015c 05       		.uleb128 0x5
 3798 015d 01       		.uleb128 0x1
 3799 015e 13       		.uleb128 0x13
 3800 015f 00       		.byte	0
 3801 0160 00       		.byte	0
 3802 0161 1E       		.uleb128 0x1e
 3803 0162 17       		.uleb128 0x17
 3804 0163 01       		.byte	0x1
 3805 0164 0B       		.uleb128 0xb
 3806 0165 0B       		.uleb128 0xb
 3807 0166 3A       		.uleb128 0x3a
 3808 0167 0B       		.uleb128 0xb
 3809 0168 3B       		.uleb128 0x3b
 3810 0169 05       		.uleb128 0x5
 3811 016a 01       		.uleb128 0x1
 3812 016b 13       		.uleb128 0x13
 3813 016c 00       		.byte	0
 3814 016d 00       		.byte	0
 3815 016e 1F       		.uleb128 0x1f
 3816 016f 0D       		.uleb128 0xd
 3817 0170 00       		.byte	0
 3818 0171 03       		.uleb128 0x3
 3819 0172 0E       		.uleb128 0xe
ARM GAS  /tmp/cc248mnq.s 			page 68


 3820 0173 3A       		.uleb128 0x3a
 3821 0174 0B       		.uleb128 0xb
 3822 0175 3B       		.uleb128 0x3b
 3823 0176 05       		.uleb128 0x5
 3824 0177 49       		.uleb128 0x49
 3825 0178 13       		.uleb128 0x13
 3826 0179 00       		.byte	0
 3827 017a 00       		.byte	0
 3828 017b 20       		.uleb128 0x20
 3829 017c 15       		.uleb128 0x15
 3830 017d 01       		.byte	0x1
 3831 017e 27       		.uleb128 0x27
 3832 017f 19       		.uleb128 0x19
 3833 0180 01       		.uleb128 0x1
 3834 0181 13       		.uleb128 0x13
 3835 0182 00       		.byte	0
 3836 0183 00       		.byte	0
 3837 0184 21       		.uleb128 0x21
 3838 0185 34       		.uleb128 0x34
 3839 0186 00       		.byte	0
 3840 0187 03       		.uleb128 0x3
 3841 0188 0E       		.uleb128 0xe
 3842 0189 3A       		.uleb128 0x3a
 3843 018a 0B       		.uleb128 0xb
 3844 018b 3B       		.uleb128 0x3b
 3845 018c 05       		.uleb128 0x5
 3846 018d 49       		.uleb128 0x49
 3847 018e 13       		.uleb128 0x13
 3848 018f 3F       		.uleb128 0x3f
 3849 0190 19       		.uleb128 0x19
 3850 0191 3C       		.uleb128 0x3c
 3851 0192 19       		.uleb128 0x19
 3852 0193 00       		.byte	0
 3853 0194 00       		.byte	0
 3854 0195 22       		.uleb128 0x22
 3855 0196 21       		.uleb128 0x21
 3856 0197 00       		.byte	0
 3857 0198 00       		.byte	0
 3858 0199 00       		.byte	0
 3859 019a 23       		.uleb128 0x23
 3860 019b 0D       		.uleb128 0xd
 3861 019c 00       		.byte	0
 3862 019d 03       		.uleb128 0x3
 3863 019e 08       		.uleb128 0x8
 3864 019f 3A       		.uleb128 0x3a
 3865 01a0 0B       		.uleb128 0xb
 3866 01a1 3B       		.uleb128 0x3b
 3867 01a2 05       		.uleb128 0x5
 3868 01a3 49       		.uleb128 0x49
 3869 01a4 13       		.uleb128 0x13
 3870 01a5 38       		.uleb128 0x38
 3871 01a6 0B       		.uleb128 0xb
 3872 01a7 00       		.byte	0
 3873 01a8 00       		.byte	0
 3874 01a9 24       		.uleb128 0x24
 3875 01aa 34       		.uleb128 0x34
 3876 01ab 00       		.byte	0
ARM GAS  /tmp/cc248mnq.s 			page 69


 3877 01ac 03       		.uleb128 0x3
 3878 01ad 08       		.uleb128 0x8
 3879 01ae 3A       		.uleb128 0x3a
 3880 01af 0B       		.uleb128 0xb
 3881 01b0 3B       		.uleb128 0x3b
 3882 01b1 05       		.uleb128 0x5
 3883 01b2 49       		.uleb128 0x49
 3884 01b3 13       		.uleb128 0x13
 3885 01b4 3F       		.uleb128 0x3f
 3886 01b5 19       		.uleb128 0x19
 3887 01b6 3C       		.uleb128 0x3c
 3888 01b7 19       		.uleb128 0x19
 3889 01b8 00       		.byte	0
 3890 01b9 00       		.byte	0
 3891 01ba 25       		.uleb128 0x25
 3892 01bb 17       		.uleb128 0x17
 3893 01bc 01       		.byte	0x1
 3894 01bd 03       		.uleb128 0x3
 3895 01be 0E       		.uleb128 0xe
 3896 01bf 0B       		.uleb128 0xb
 3897 01c0 0B       		.uleb128 0xb
 3898 01c1 3A       		.uleb128 0x3a
 3899 01c2 0B       		.uleb128 0xb
 3900 01c3 3B       		.uleb128 0x3b
 3901 01c4 0B       		.uleb128 0xb
 3902 01c5 01       		.uleb128 0x1
 3903 01c6 13       		.uleb128 0x13
 3904 01c7 00       		.byte	0
 3905 01c8 00       		.byte	0
 3906 01c9 26       		.uleb128 0x26
 3907 01ca 34       		.uleb128 0x34
 3908 01cb 00       		.byte	0
 3909 01cc 03       		.uleb128 0x3
 3910 01cd 0E       		.uleb128 0xe
 3911 01ce 3A       		.uleb128 0x3a
 3912 01cf 0B       		.uleb128 0xb
 3913 01d0 3B       		.uleb128 0x3b
 3914 01d1 0B       		.uleb128 0xb
 3915 01d2 49       		.uleb128 0x49
 3916 01d3 13       		.uleb128 0x13
 3917 01d4 3F       		.uleb128 0x3f
 3918 01d5 19       		.uleb128 0x19
 3919 01d6 02       		.uleb128 0x2
 3920 01d7 18       		.uleb128 0x18
 3921 01d8 00       		.byte	0
 3922 01d9 00       		.byte	0
 3923 01da 27       		.uleb128 0x27
 3924 01db 2E       		.uleb128 0x2e
 3925 01dc 01       		.byte	0x1
 3926 01dd 3F       		.uleb128 0x3f
 3927 01de 19       		.uleb128 0x19
 3928 01df 03       		.uleb128 0x3
 3929 01e0 0E       		.uleb128 0xe
 3930 01e1 3A       		.uleb128 0x3a
 3931 01e2 0B       		.uleb128 0xb
 3932 01e3 3B       		.uleb128 0x3b
 3933 01e4 0B       		.uleb128 0xb
ARM GAS  /tmp/cc248mnq.s 			page 70


 3934 01e5 27       		.uleb128 0x27
 3935 01e6 19       		.uleb128 0x19
 3936 01e7 49       		.uleb128 0x49
 3937 01e8 13       		.uleb128 0x13
 3938 01e9 11       		.uleb128 0x11
 3939 01ea 01       		.uleb128 0x1
 3940 01eb 12       		.uleb128 0x12
 3941 01ec 06       		.uleb128 0x6
 3942 01ed 40       		.uleb128 0x40
 3943 01ee 18       		.uleb128 0x18
 3944 01ef 9742     		.uleb128 0x2117
 3945 01f1 19       		.uleb128 0x19
 3946 01f2 01       		.uleb128 0x1
 3947 01f3 13       		.uleb128 0x13
 3948 01f4 00       		.byte	0
 3949 01f5 00       		.byte	0
 3950 01f6 28       		.uleb128 0x28
 3951 01f7 05       		.uleb128 0x5
 3952 01f8 00       		.byte	0
 3953 01f9 03       		.uleb128 0x3
 3954 01fa 08       		.uleb128 0x8
 3955 01fb 3A       		.uleb128 0x3a
 3956 01fc 0B       		.uleb128 0xb
 3957 01fd 3B       		.uleb128 0x3b
 3958 01fe 0B       		.uleb128 0xb
 3959 01ff 49       		.uleb128 0x49
 3960 0200 13       		.uleb128 0x13
 3961 0201 02       		.uleb128 0x2
 3962 0202 17       		.uleb128 0x17
 3963 0203 00       		.byte	0
 3964 0204 00       		.byte	0
 3965 0205 29       		.uleb128 0x29
 3966 0206 05       		.uleb128 0x5
 3967 0207 00       		.byte	0
 3968 0208 03       		.uleb128 0x3
 3969 0209 08       		.uleb128 0x8
 3970 020a 3A       		.uleb128 0x3a
 3971 020b 0B       		.uleb128 0xb
 3972 020c 3B       		.uleb128 0x3b
 3973 020d 0B       		.uleb128 0xb
 3974 020e 49       		.uleb128 0x49
 3975 020f 13       		.uleb128 0x13
 3976 0210 02       		.uleb128 0x2
 3977 0211 18       		.uleb128 0x18
 3978 0212 00       		.byte	0
 3979 0213 00       		.byte	0
 3980 0214 2A       		.uleb128 0x2a
 3981 0215 2E       		.uleb128 0x2e
 3982 0216 00       		.byte	0
 3983 0217 3F       		.uleb128 0x3f
 3984 0218 19       		.uleb128 0x19
 3985 0219 03       		.uleb128 0x3
 3986 021a 0E       		.uleb128 0xe
 3987 021b 3A       		.uleb128 0x3a
 3988 021c 0B       		.uleb128 0xb
 3989 021d 3B       		.uleb128 0x3b
 3990 021e 0B       		.uleb128 0xb
ARM GAS  /tmp/cc248mnq.s 			page 71


 3991 021f 27       		.uleb128 0x27
 3992 0220 19       		.uleb128 0x19
 3993 0221 11       		.uleb128 0x11
 3994 0222 01       		.uleb128 0x1
 3995 0223 12       		.uleb128 0x12
 3996 0224 06       		.uleb128 0x6
 3997 0225 40       		.uleb128 0x40
 3998 0226 18       		.uleb128 0x18
 3999 0227 9742     		.uleb128 0x2117
 4000 0229 19       		.uleb128 0x19
 4001 022a 00       		.byte	0
 4002 022b 00       		.byte	0
 4003 022c 2B       		.uleb128 0x2b
 4004 022d 2E       		.uleb128 0x2e
 4005 022e 01       		.byte	0x1
 4006 022f 3F       		.uleb128 0x3f
 4007 0230 19       		.uleb128 0x19
 4008 0231 03       		.uleb128 0x3
 4009 0232 0E       		.uleb128 0xe
 4010 0233 3A       		.uleb128 0x3a
 4011 0234 0B       		.uleb128 0xb
 4012 0235 3B       		.uleb128 0x3b
 4013 0236 0B       		.uleb128 0xb
 4014 0237 27       		.uleb128 0x27
 4015 0238 19       		.uleb128 0x19
 4016 0239 8701     		.uleb128 0x87
 4017 023b 19       		.uleb128 0x19
 4018 023c 11       		.uleb128 0x11
 4019 023d 01       		.uleb128 0x1
 4020 023e 12       		.uleb128 0x12
 4021 023f 06       		.uleb128 0x6
 4022 0240 40       		.uleb128 0x40
 4023 0241 18       		.uleb128 0x18
 4024 0242 9742     		.uleb128 0x2117
 4025 0244 19       		.uleb128 0x19
 4026 0245 01       		.uleb128 0x1
 4027 0246 13       		.uleb128 0x13
 4028 0247 00       		.byte	0
 4029 0248 00       		.byte	0
 4030 0249 2C       		.uleb128 0x2c
 4031 024a 05       		.uleb128 0x5
 4032 024b 00       		.byte	0
 4033 024c 03       		.uleb128 0x3
 4034 024d 0E       		.uleb128 0xe
 4035 024e 3A       		.uleb128 0x3a
 4036 024f 0B       		.uleb128 0xb
 4037 0250 3B       		.uleb128 0x3b
 4038 0251 0B       		.uleb128 0xb
 4039 0252 49       		.uleb128 0x49
 4040 0253 13       		.uleb128 0x13
 4041 0254 02       		.uleb128 0x2
 4042 0255 18       		.uleb128 0x18
 4043 0256 00       		.byte	0
 4044 0257 00       		.byte	0
 4045 0258 2D       		.uleb128 0x2d
 4046 0259 2E       		.uleb128 0x2e
 4047 025a 00       		.byte	0
ARM GAS  /tmp/cc248mnq.s 			page 72


 4048 025b 3F       		.uleb128 0x3f
 4049 025c 19       		.uleb128 0x19
 4050 025d 03       		.uleb128 0x3
 4051 025e 0E       		.uleb128 0xe
 4052 025f 3A       		.uleb128 0x3a
 4053 0260 0B       		.uleb128 0xb
 4054 0261 3B       		.uleb128 0x3b
 4055 0262 0B       		.uleb128 0xb
 4056 0263 27       		.uleb128 0x27
 4057 0264 19       		.uleb128 0x19
 4058 0265 49       		.uleb128 0x49
 4059 0266 13       		.uleb128 0x13
 4060 0267 11       		.uleb128 0x11
 4061 0268 01       		.uleb128 0x1
 4062 0269 12       		.uleb128 0x12
 4063 026a 06       		.uleb128 0x6
 4064 026b 40       		.uleb128 0x40
 4065 026c 18       		.uleb128 0x18
 4066 026d 9742     		.uleb128 0x2117
 4067 026f 19       		.uleb128 0x19
 4068 0270 00       		.byte	0
 4069 0271 00       		.byte	0
 4070 0272 2E       		.uleb128 0x2e
 4071 0273 05       		.uleb128 0x5
 4072 0274 00       		.byte	0
 4073 0275 03       		.uleb128 0x3
 4074 0276 0E       		.uleb128 0xe
 4075 0277 3A       		.uleb128 0x3a
 4076 0278 0B       		.uleb128 0xb
 4077 0279 3B       		.uleb128 0x3b
 4078 027a 0B       		.uleb128 0xb
 4079 027b 49       		.uleb128 0x49
 4080 027c 13       		.uleb128 0x13
 4081 027d 02       		.uleb128 0x2
 4082 027e 17       		.uleb128 0x17
 4083 027f 00       		.byte	0
 4084 0280 00       		.byte	0
 4085 0281 2F       		.uleb128 0x2f
 4086 0282 34       		.uleb128 0x34
 4087 0283 00       		.byte	0
 4088 0284 03       		.uleb128 0x3
 4089 0285 08       		.uleb128 0x8
 4090 0286 3A       		.uleb128 0x3a
 4091 0287 0B       		.uleb128 0xb
 4092 0288 3B       		.uleb128 0x3b
 4093 0289 0B       		.uleb128 0xb
 4094 028a 49       		.uleb128 0x49
 4095 028b 13       		.uleb128 0x13
 4096 028c 00       		.byte	0
 4097 028d 00       		.byte	0
 4098 028e 30       		.uleb128 0x30
 4099 028f 34       		.uleb128 0x34
 4100 0290 00       		.byte	0
 4101 0291 03       		.uleb128 0x3
 4102 0292 0E       		.uleb128 0xe
 4103 0293 49       		.uleb128 0x49
 4104 0294 13       		.uleb128 0x13
ARM GAS  /tmp/cc248mnq.s 			page 73


 4105 0295 34       		.uleb128 0x34
 4106 0296 19       		.uleb128 0x19
 4107 0297 00       		.byte	0
 4108 0298 00       		.byte	0
 4109 0299 31       		.uleb128 0x31
 4110 029a 1D       		.uleb128 0x1d
 4111 029b 01       		.byte	0x1
 4112 029c 31       		.uleb128 0x31
 4113 029d 13       		.uleb128 0x13
 4114 029e 52       		.uleb128 0x52
 4115 029f 01       		.uleb128 0x1
 4116 02a0 55       		.uleb128 0x55
 4117 02a1 17       		.uleb128 0x17
 4118 02a2 58       		.uleb128 0x58
 4119 02a3 0B       		.uleb128 0xb
 4120 02a4 59       		.uleb128 0x59
 4121 02a5 0B       		.uleb128 0xb
 4122 02a6 00       		.byte	0
 4123 02a7 00       		.byte	0
 4124 02a8 32       		.uleb128 0x32
 4125 02a9 05       		.uleb128 0x5
 4126 02aa 00       		.byte	0
 4127 02ab 31       		.uleb128 0x31
 4128 02ac 13       		.uleb128 0x13
 4129 02ad 02       		.uleb128 0x2
 4130 02ae 17       		.uleb128 0x17
 4131 02af 00       		.byte	0
 4132 02b0 00       		.byte	0
 4133 02b1 33       		.uleb128 0x33
 4134 02b2 898201   		.uleb128 0x4109
 4135 02b5 01       		.byte	0x1
 4136 02b6 11       		.uleb128 0x11
 4137 02b7 01       		.uleb128 0x1
 4138 02b8 31       		.uleb128 0x31
 4139 02b9 13       		.uleb128 0x13
 4140 02ba 00       		.byte	0
 4141 02bb 00       		.byte	0
 4142 02bc 34       		.uleb128 0x34
 4143 02bd 8A8201   		.uleb128 0x410a
 4144 02c0 00       		.byte	0
 4145 02c1 02       		.uleb128 0x2
 4146 02c2 18       		.uleb128 0x18
 4147 02c3 9142     		.uleb128 0x2111
 4148 02c5 18       		.uleb128 0x18
 4149 02c6 00       		.byte	0
 4150 02c7 00       		.byte	0
 4151 02c8 35       		.uleb128 0x35
 4152 02c9 2E       		.uleb128 0x2e
 4153 02ca 01       		.byte	0x1
 4154 02cb 3F       		.uleb128 0x3f
 4155 02cc 19       		.uleb128 0x19
 4156 02cd 03       		.uleb128 0x3
 4157 02ce 0E       		.uleb128 0xe
 4158 02cf 3A       		.uleb128 0x3a
 4159 02d0 0B       		.uleb128 0xb
 4160 02d1 3B       		.uleb128 0x3b
 4161 02d2 0B       		.uleb128 0xb
ARM GAS  /tmp/cc248mnq.s 			page 74


 4162 02d3 27       		.uleb128 0x27
 4163 02d4 19       		.uleb128 0x19
 4164 02d5 49       		.uleb128 0x49
 4165 02d6 13       		.uleb128 0x13
 4166 02d7 20       		.uleb128 0x20
 4167 02d8 0B       		.uleb128 0xb
 4168 02d9 01       		.uleb128 0x1
 4169 02da 13       		.uleb128 0x13
 4170 02db 00       		.byte	0
 4171 02dc 00       		.byte	0
 4172 02dd 36       		.uleb128 0x36
 4173 02de 05       		.uleb128 0x5
 4174 02df 00       		.byte	0
 4175 02e0 03       		.uleb128 0x3
 4176 02e1 08       		.uleb128 0x8
 4177 02e2 3A       		.uleb128 0x3a
 4178 02e3 0B       		.uleb128 0xb
 4179 02e4 3B       		.uleb128 0x3b
 4180 02e5 0B       		.uleb128 0xb
 4181 02e6 49       		.uleb128 0x49
 4182 02e7 13       		.uleb128 0x13
 4183 02e8 00       		.byte	0
 4184 02e9 00       		.byte	0
 4185 02ea 37       		.uleb128 0x37
 4186 02eb 05       		.uleb128 0x5
 4187 02ec 00       		.byte	0
 4188 02ed 03       		.uleb128 0x3
 4189 02ee 0E       		.uleb128 0xe
 4190 02ef 3A       		.uleb128 0x3a
 4191 02f0 0B       		.uleb128 0xb
 4192 02f1 3B       		.uleb128 0x3b
 4193 02f2 0B       		.uleb128 0xb
 4194 02f3 49       		.uleb128 0x49
 4195 02f4 13       		.uleb128 0x13
 4196 02f5 00       		.byte	0
 4197 02f6 00       		.byte	0
 4198 02f7 38       		.uleb128 0x38
 4199 02f8 2E       		.uleb128 0x2e
 4200 02f9 01       		.byte	0x1
 4201 02fa 3F       		.uleb128 0x3f
 4202 02fb 19       		.uleb128 0x19
 4203 02fc 03       		.uleb128 0x3
 4204 02fd 0E       		.uleb128 0xe
 4205 02fe 3A       		.uleb128 0x3a
 4206 02ff 0B       		.uleb128 0xb
 4207 0300 3B       		.uleb128 0x3b
 4208 0301 0B       		.uleb128 0xb
 4209 0302 27       		.uleb128 0x27
 4210 0303 19       		.uleb128 0x19
 4211 0304 49       		.uleb128 0x49
 4212 0305 13       		.uleb128 0x13
 4213 0306 01       		.uleb128 0x1
 4214 0307 13       		.uleb128 0x13
 4215 0308 00       		.byte	0
 4216 0309 00       		.byte	0
 4217 030a 39       		.uleb128 0x39
 4218 030b 2E       		.uleb128 0x2e
ARM GAS  /tmp/cc248mnq.s 			page 75


 4219 030c 01       		.byte	0x1
 4220 030d 03       		.uleb128 0x3
 4221 030e 0E       		.uleb128 0xe
 4222 030f 3A       		.uleb128 0x3a
 4223 0310 0B       		.uleb128 0xb
 4224 0311 3B       		.uleb128 0x3b
 4225 0312 0B       		.uleb128 0xb
 4226 0313 27       		.uleb128 0x27
 4227 0314 19       		.uleb128 0x19
 4228 0315 49       		.uleb128 0x49
 4229 0316 13       		.uleb128 0x13
 4230 0317 20       		.uleb128 0x20
 4231 0318 0B       		.uleb128 0xb
 4232 0319 01       		.uleb128 0x1
 4233 031a 13       		.uleb128 0x13
 4234 031b 00       		.byte	0
 4235 031c 00       		.byte	0
 4236 031d 3A       		.uleb128 0x3a
 4237 031e 2E       		.uleb128 0x2e
 4238 031f 01       		.byte	0x1
 4239 0320 31       		.uleb128 0x31
 4240 0321 13       		.uleb128 0x13
 4241 0322 11       		.uleb128 0x11
 4242 0323 01       		.uleb128 0x1
 4243 0324 12       		.uleb128 0x12
 4244 0325 06       		.uleb128 0x6
 4245 0326 40       		.uleb128 0x40
 4246 0327 18       		.uleb128 0x18
 4247 0328 9742     		.uleb128 0x2117
 4248 032a 19       		.uleb128 0x19
 4249 032b 01       		.uleb128 0x1
 4250 032c 13       		.uleb128 0x13
 4251 032d 00       		.byte	0
 4252 032e 00       		.byte	0
 4253 032f 3B       		.uleb128 0x3b
 4254 0330 05       		.uleb128 0x5
 4255 0331 00       		.byte	0
 4256 0332 31       		.uleb128 0x31
 4257 0333 13       		.uleb128 0x13
 4258 0334 02       		.uleb128 0x2
 4259 0335 18       		.uleb128 0x18
 4260 0336 00       		.byte	0
 4261 0337 00       		.byte	0
 4262 0338 3C       		.uleb128 0x3c
 4263 0339 2E       		.uleb128 0x2e
 4264 033a 00       		.byte	0
 4265 033b 3F       		.uleb128 0x3f
 4266 033c 19       		.uleb128 0x19
 4267 033d 3C       		.uleb128 0x3c
 4268 033e 19       		.uleb128 0x19
 4269 033f 6E       		.uleb128 0x6e
 4270 0340 0E       		.uleb128 0xe
 4271 0341 03       		.uleb128 0x3
 4272 0342 0E       		.uleb128 0xe
 4273 0343 3A       		.uleb128 0x3a
 4274 0344 0B       		.uleb128 0xb
 4275 0345 3B       		.uleb128 0x3b
ARM GAS  /tmp/cc248mnq.s 			page 76


 4276 0346 0B       		.uleb128 0xb
 4277 0347 00       		.byte	0
 4278 0348 00       		.byte	0
 4279 0349 00       		.byte	0
 4280              		.section	.debug_loc,"",%progbits
 4281              	.Ldebug_loc0:
 4282              	.LLST9:
 4283 0000 00000000 		.4byte	.LVL15
 4284 0004 04000000 		.4byte	.LVL16
 4285 0008 0100     		.2byte	0x1
 4286 000a 50       		.byte	0x50
 4287 000b 04000000 		.4byte	.LVL16
 4288 000f 06000000 		.4byte	.LFE311
 4289 0013 0400     		.2byte	0x4
 4290 0015 F3       		.byte	0xf3
 4291 0016 01       		.uleb128 0x1
 4292 0017 50       		.byte	0x50
 4293 0018 9F       		.byte	0x9f
 4294 0019 00000000 		.4byte	0
 4295 001d 00000000 		.4byte	0
 4296              	.LLST8:
 4297 0021 00000000 		.4byte	.LVL12
 4298 0025 02000000 		.4byte	.LVL13
 4299 0029 0100     		.2byte	0x1
 4300 002b 50       		.byte	0x50
 4301 002c 02000000 		.4byte	.LVL13
 4302 0030 04000000 		.4byte	.LFE307
 4303 0034 0400     		.2byte	0x4
 4304 0036 F3       		.byte	0xf3
 4305 0037 01       		.uleb128 0x1
 4306 0038 50       		.byte	0x50
 4307 0039 9F       		.byte	0x9f
 4308 003a 00000000 		.4byte	0
 4309 003e 00000000 		.4byte	0
 4310              	.LLST7:
 4311 0042 00000000 		.4byte	.LVL10
 4312 0046 04000000 		.4byte	.LVL11
 4313 004a 0100     		.2byte	0x1
 4314 004c 50       		.byte	0x50
 4315 004d 04000000 		.4byte	.LVL11
 4316 0051 06000000 		.4byte	.LFE306
 4317 0055 0400     		.2byte	0x4
 4318 0057 F3       		.byte	0xf3
 4319 0058 01       		.uleb128 0x1
 4320 0059 50       		.byte	0x50
 4321 005a 9F       		.byte	0x9f
 4322 005b 00000000 		.4byte	0
 4323 005f 00000000 		.4byte	0
 4324              	.LLST3:
 4325 0063 00000000 		.4byte	.LVL6
 4326 0067 08000000 		.4byte	.LVL8
 4327 006b 0100     		.2byte	0x1
 4328 006d 50       		.byte	0x50
 4329 006e 08000000 		.4byte	.LVL8
 4330 0072 18000000 		.4byte	.LFE305
 4331 0076 0100     		.2byte	0x1
 4332 0078 54       		.byte	0x54
ARM GAS  /tmp/cc248mnq.s 			page 77


 4333 0079 00000000 		.4byte	0
 4334 007d 00000000 		.4byte	0
 4335              	.LLST4:
 4336 0081 00000000 		.4byte	.LVL6
 4337 0085 0B000000 		.4byte	.LVL9-1
 4338 0089 0100     		.2byte	0x1
 4339 008b 51       		.byte	0x51
 4340 008c 0B000000 		.4byte	.LVL9-1
 4341 0090 18000000 		.4byte	.LFE305
 4342 0094 0400     		.2byte	0x4
 4343 0096 F3       		.byte	0xf3
 4344 0097 01       		.uleb128 0x1
 4345 0098 51       		.byte	0x51
 4346 0099 9F       		.byte	0x9f
 4347 009a 00000000 		.4byte	0
 4348 009e 00000000 		.4byte	0
 4349              	.LLST5:
 4350 00a2 06000000 		.4byte	.LVL7
 4351 00a6 0C000000 		.4byte	.LVL9
 4352 00aa 0200     		.2byte	0x2
 4353 00ac 30       		.byte	0x30
 4354 00ad 9F       		.byte	0x9f
 4355 00ae 00000000 		.4byte	0
 4356 00b2 00000000 		.4byte	0
 4357              	.LLST6:
 4358 00b6 06000000 		.4byte	.LVL7
 4359 00ba 0B000000 		.4byte	.LVL9-1
 4360 00be 0100     		.2byte	0x1
 4361 00c0 51       		.byte	0x51
 4362 00c1 0B000000 		.4byte	.LVL9-1
 4363 00c5 0C000000 		.4byte	.LVL9
 4364 00c9 0400     		.2byte	0x4
 4365 00cb F3       		.byte	0xf3
 4366 00cc 01       		.uleb128 0x1
 4367 00cd 51       		.byte	0x51
 4368 00ce 9F       		.byte	0x9f
 4369 00cf 00000000 		.4byte	0
 4370 00d3 00000000 		.4byte	0
 4371              	.LLST2:
 4372 00d7 00000000 		.4byte	.LVL4
 4373 00db 02000000 		.4byte	.LVL5
 4374 00df 0100     		.2byte	0x1
 4375 00e1 50       		.byte	0x50
 4376 00e2 02000000 		.4byte	.LVL5
 4377 00e6 04000000 		.4byte	.LFE304
 4378 00ea 0400     		.2byte	0x4
 4379 00ec F3       		.byte	0xf3
 4380 00ed 01       		.uleb128 0x1
 4381 00ee 50       		.byte	0x50
 4382 00ef 9F       		.byte	0x9f
 4383 00f0 00000000 		.4byte	0
 4384 00f4 00000000 		.4byte	0
 4385              	.LLST0:
 4386 00f8 00000000 		.4byte	.LVL0
 4387 00fc 02000000 		.4byte	.LVL1
 4388 0100 0100     		.2byte	0x1
 4389 0102 50       		.byte	0x50
ARM GAS  /tmp/cc248mnq.s 			page 78


 4390 0103 02000000 		.4byte	.LVL1
 4391 0107 04000000 		.4byte	.LFE302
 4392 010b 0400     		.2byte	0x4
 4393 010d F3       		.byte	0xf3
 4394 010e 01       		.uleb128 0x1
 4395 010f 50       		.byte	0x50
 4396 0110 9F       		.byte	0x9f
 4397 0111 00000000 		.4byte	0
 4398 0115 00000000 		.4byte	0
 4399              	.LLST1:
 4400 0119 00000000 		.4byte	.LVL2
 4401 011d 04000000 		.4byte	.LVL3
 4402 0121 0100     		.2byte	0x1
 4403 0123 50       		.byte	0x50
 4404 0124 04000000 		.4byte	.LVL3
 4405 0128 06000000 		.4byte	.LFE303
 4406 012c 0400     		.2byte	0x4
 4407 012e F3       		.byte	0xf3
 4408 012f 01       		.uleb128 0x1
 4409 0130 50       		.byte	0x50
 4410 0131 9F       		.byte	0x9f
 4411 0132 00000000 		.4byte	0
 4412 0136 00000000 		.4byte	0
 4413              		.section	.debug_aranges,"",%progbits
 4414 0000 64000000 		.4byte	0x64
 4415 0004 0200     		.2byte	0x2
 4416 0006 00000000 		.4byte	.Ldebug_info0
 4417 000a 04       		.byte	0x4
 4418 000b 00       		.byte	0
 4419 000c 0000     		.2byte	0
 4420 000e 0000     		.2byte	0
 4421 0010 00000000 		.4byte	.LFB302
 4422 0014 04000000 		.4byte	.LFE302-.LFB302
 4423 0018 00000000 		.4byte	.LFB303
 4424 001c 06000000 		.4byte	.LFE303-.LFB303
 4425 0020 00000000 		.4byte	.LFB304
 4426 0024 04000000 		.4byte	.LFE304-.LFB304
 4427 0028 00000000 		.4byte	.LFB305
 4428 002c 18000000 		.4byte	.LFE305-.LFB305
 4429 0030 00000000 		.4byte	.LFB306
 4430 0034 06000000 		.4byte	.LFE306-.LFB306
 4431 0038 00000000 		.4byte	.LFB307
 4432 003c 04000000 		.4byte	.LFE307-.LFB307
 4433 0040 00000000 		.4byte	.LFB308
 4434 0044 04000000 		.4byte	.LFE308-.LFB308
 4435 0048 00000000 		.4byte	.LFB309
 4436 004c 02000000 		.4byte	.LFE309-.LFB309
 4437 0050 00000000 		.4byte	.LFB310
 4438 0054 02000000 		.4byte	.LFE310-.LFB310
 4439 0058 00000000 		.4byte	.LFB311
 4440 005c 06000000 		.4byte	.LFE311-.LFB311
 4441 0060 00000000 		.4byte	0
 4442 0064 00000000 		.4byte	0
 4443              		.section	.debug_ranges,"",%progbits
 4444              	.Ldebug_ranges0:
 4445 0000 02000000 		.4byte	.LBB4
 4446 0004 04000000 		.4byte	.LBE4
ARM GAS  /tmp/cc248mnq.s 			page 79


 4447 0008 06000000 		.4byte	.LBB7
 4448 000c 0C000000 		.4byte	.LBE7
 4449 0010 00000000 		.4byte	0
 4450 0014 00000000 		.4byte	0
 4451 0018 00000000 		.4byte	.LFB302
 4452 001c 04000000 		.4byte	.LFE302
 4453 0020 00000000 		.4byte	.LFB303
 4454 0024 06000000 		.4byte	.LFE303
 4455 0028 00000000 		.4byte	.LFB304
 4456 002c 04000000 		.4byte	.LFE304
 4457 0030 00000000 		.4byte	.LFB305
 4458 0034 18000000 		.4byte	.LFE305
 4459 0038 00000000 		.4byte	.LFB306
 4460 003c 06000000 		.4byte	.LFE306
 4461 0040 00000000 		.4byte	.LFB307
 4462 0044 04000000 		.4byte	.LFE307
 4463 0048 00000000 		.4byte	.LFB308
 4464 004c 04000000 		.4byte	.LFE308
 4465 0050 00000000 		.4byte	.LFB309
 4466 0054 02000000 		.4byte	.LFE309
 4467 0058 00000000 		.4byte	.LFB310
 4468 005c 02000000 		.4byte	.LFE310
 4469 0060 00000000 		.4byte	.LFB311
 4470 0064 06000000 		.4byte	.LFE311
 4471 0068 00000000 		.4byte	0
 4472 006c 00000000 		.4byte	0
 4473              		.section	.debug_line,"",%progbits
 4474              	.Ldebug_line0:
 4475 0000 CF040000 		.section	.debug_str,"MS",%progbits,1
 4475      02000804 
 4475      00000201 
 4475      FB0E0D00 
 4475      01010101 
 4476              	.LASF281:
 4477 0000 6F66665F 		.ascii	"off_ctx\000"
 4477      63747800 
 4478              	.LASF302:
 4479 0008 6D656D6F 		.ascii	"memory_heap\000"
 4479      72795F68 
 4479      65617000 
 4480              	.LASF14:
 4481 0014 73697A65 		.ascii	"size_t\000"
 4481      5F7400
 4482              	.LASF280:
 4483 001b 6F66665F 		.ascii	"off_prio\000"
 4483      7072696F 
 4483      00
 4484              	.LASF31:
 4485 0024 73697A65 		.ascii	"sizetype\000"
 4485      74797065 
 4485      00
 4486              	.LASF158:
 4487 002d 5F5F6C6F 		.ascii	"__locale_t\000"
 4487      63616C65 
 4487      5F7400
 4488              	.LASF33:
 4489 0038 5F5F7661 		.ascii	"__value\000"
ARM GAS  /tmp/cc248mnq.s 			page 80


 4489      6C756500 
 4490              	.LASF239:
 4491 0040 73797374 		.ascii	"systime_t\000"
 4491      696D655F 
 4491      7400
 4492              	.LASF289:
 4493 004a 6F66665F 		.ascii	"off_preempt\000"
 4493      70726565 
 4493      6D707400 
 4494              	.LASF126:
 4495 0056 5F5F7366 		.ascii	"__sf\000"
 4495      00
 4496              	.LASF271:
 4497 005b 6F776E65 		.ascii	"owner\000"
 4497      7200
 4498              	.LASF93:
 4499 0061 5F726561 		.ascii	"_read\000"
 4499      6400
 4500              	.LASF189:
 4501 0067 74707269 		.ascii	"tprio_t\000"
 4501      6F5F7400 
 4502              	.LASF182:
 4503 006f 73745F62 		.ascii	"st_blocks\000"
 4503      6C6F636B 
 4503      7300
 4504              	.LASF292:
 4505 0079 63685F64 		.ascii	"ch_debug\000"
 4505      65627567 
 4505      00
 4506              	.LASF115:
 4507 0082 5F5F636C 		.ascii	"__cleanup\000"
 4507      65616E75 
 4507      7000
 4508              	.LASF303:
 4509 008c 70726F76 		.ascii	"provider\000"
 4509      69646572 
 4509      00
 4510              	.LASF94:
 4511 0095 5F777269 		.ascii	"_write\000"
 4511      746500
 4512              	.LASF39:
 4513 009c 696E7433 		.ascii	"int32_t\000"
 4513      325F7400 
 4514              	.LASF137:
 4515 00a4 5F617363 		.ascii	"_asctime_buf\000"
 4515      74696D65 
 4515      5F627566 
 4515      00
 4516              	.LASF120:
 4517 00b1 5F637674 		.ascii	"_cvtlen\000"
 4517      6C656E00 
 4518              	.LASF222:
 4519 00b9 76746675 		.ascii	"vtfunc_t\000"
 4519      6E635F74 
 4519      00
 4520              	.LASF345:
 4521 00c2 5F5F6675 		.ascii	"__func__\000"
ARM GAS  /tmp/cc248mnq.s 			page 81


 4521      6E635F5F 
 4521      00
 4522              	.LASF228:
 4523 00cb 63685F76 		.ascii	"ch_virtual_timers_list\000"
 4523      69727475 
 4523      616C5F74 
 4523      696D6572 
 4523      735F6C69 
 4524              	.LASF49:
 4525 00e2 6465765F 		.ascii	"dev_t\000"
 4525      7400
 4526              	.LASF54:
 4527 00e8 6E6C696E 		.ascii	"nlink_t\000"
 4527      6B5F7400 
 4528              	.LASF23:
 4529 00f0 5F5F6769 		.ascii	"__gid_t\000"
 4529      645F7400 
 4530              	.LASF156:
 4531 00f8 5F756E75 		.ascii	"_unused\000"
 4531      73656400 
 4532              	.LASF67:
 4533 0100 5F5F746D 		.ascii	"__tm\000"
 4533      00
 4534              	.LASF152:
 4535 0105 5F776373 		.ascii	"_wcsrtombs_state\000"
 4535      72746F6D 
 4535      62735F73 
 4535      74617465 
 4535      00
 4536              	.LASF98:
 4537 0116 5F6E6275 		.ascii	"_nbuf\000"
 4537      6600
 4538              	.LASF68:
 4539 011c 5F5F746D 		.ascii	"__tm_sec\000"
 4539      5F736563 
 4539      00
 4540              	.LASF145:
 4541 0125 5F6C3634 		.ascii	"_l64a_buf\000"
 4541      615F6275 
 4541      6600
 4542              	.LASF42:
 4543 012f 74696D65 		.ascii	"time_t\000"
 4543      5F7400
 4544              	.LASF314:
 4545 0136 63685F64 		.ascii	"ch_dyn_element\000"
 4545      796E5F65 
 4545      6C656D65 
 4545      6E7400
 4546              	.LASF202:
 4547 0145 73746174 		.ascii	"state\000"
 4547      6500
 4548              	.LASF102:
 4549 014b 5F6C6F63 		.ascii	"_lock\000"
 4549      6B00
 4550              	.LASF211:
 4551 0151 73746174 		.ascii	"stats\000"
 4551      7300
ARM GAS  /tmp/cc248mnq.s 			page 82


 4552              	.LASF133:
 4553 0157 5F6D756C 		.ascii	"_mult\000"
 4553      7400
 4554              	.LASF319:
 4555 015d 6F626A5F 		.ascii	"obj_list\000"
 4555      6C697374 
 4555      00
 4556              	.LASF255:
 4557 0166 74696D65 		.ascii	"time_measurement_t\000"
 4557      5F6D6561 
 4557      73757265 
 4557      6D656E74 
 4557      5F7400
 4558              	.LASF283:
 4559 0179 6F66665F 		.ascii	"off_older\000"
 4559      6F6C6465 
 4559      7200
 4560              	.LASF197:
 4561 0183 7072696F 		.ascii	"prio\000"
 4561      00
 4562              	.LASF29:
 4563 0188 5F5F7763 		.ascii	"__wch\000"
 4563      6800
 4564              	.LASF262:
 4565 018e 65786974 		.ascii	"exitcode\000"
 4565      636F6465 
 4565      00
 4566              	.LASF3:
 4567 0197 5F5F7569 		.ascii	"__uint8_t\000"
 4567      6E74385F 
 4567      7400
 4568              	.LASF21:
 4569 01a1 5F5F6465 		.ascii	"__dev_t\000"
 4569      765F7400 
 4570              	.LASF50:
 4571 01a9 7569645F 		.ascii	"uid_t\000"
 4571      7400
 4572              	.LASF90:
 4573 01af 5F66696C 		.ascii	"_file\000"
 4573      6500
 4574              	.LASF77:
 4575 01b5 5F6F6E5F 		.ascii	"_on_exit_args\000"
 4575      65786974 
 4575      5F617267 
 4575      7300
 4576              	.LASF162:
 4577 01c3 5F737973 		.ascii	"_sys_nerr\000"
 4577      5F6E6572 
 4577      7200
 4578              	.LASF298:
 4579 01cd 656E646D 		.ascii	"endmem\000"
 4579      656D00
 4580              	.LASF148:
 4581 01d4 5F6D6272 		.ascii	"_mbrlen_state\000"
 4581      6C656E5F 
 4581      73746174 
 4581      6500
ARM GAS  /tmp/cc248mnq.s 			page 83


 4582              	.LASF7:
 4583 01e2 6C6F6E67 		.ascii	"long int\000"
 4583      20696E74 
 4583      00
 4584              	.LASF159:
 4585 01eb 5F696D70 		.ascii	"_impure_ptr\000"
 4585      7572655F 
 4585      70747200 
 4586              	.LASF301:
 4587 01f7 6D656D6F 		.ascii	"memory_heap_t\000"
 4587      72795F68 
 4587      6561705F 
 4587      7400
 4588              	.LASF117:
 4589 0205 5F726573 		.ascii	"_result_k\000"
 4589      756C745F 
 4589      6B00
 4590              	.LASF87:
 4591 020f 5F73697A 		.ascii	"_size\000"
 4591      6500
 4592              	.LASF274:
 4593 0215 7A65726F 		.ascii	"zero\000"
 4593      00
 4594              	.LASF138:
 4595 021a 5F6C6F63 		.ascii	"_localtime_buf\000"
 4595      616C7469 
 4595      6D655F62 
 4595      756600
 4596              	.LASF187:
 4597 0229 74737461 		.ascii	"tstate_t\000"
 4597      74655F74 
 4597      00
 4598              	.LASF185:
 4599 0232 72747469 		.ascii	"rttime_t\000"
 4599      6D655F74 
 4599      00
 4600              	.LASF216:
 4601 023b 74687265 		.ascii	"threads_queue_t\000"
 4601      6164735F 
 4601      71756575 
 4601      655F7400 
 4602              	.LASF213:
 4603 024b 74687265 		.ascii	"threads_list_t\000"
 4603      6164735F 
 4603      6C697374 
 4603      5F7400
 4604              	.LASF245:
 4605 025a 72656761 		.ascii	"regarm_t\000"
 4605      726D5F74 
 4605      00
 4606              	.LASF72:
 4607 0263 5F5F746D 		.ascii	"__tm_mon\000"
 4607      5F6D6F6E 
 4607      00
 4608              	.LASF309:
 4609 026c 68656170 		.ascii	"heap\000"
 4609      00
ARM GAS  /tmp/cc248mnq.s 			page 84


 4610              	.LASF320:
 4611 0271 6F626A5F 		.ascii	"obj_pool\000"
 4611      706F6F6C 
 4611      00
 4612              	.LASF343:
 4613 027a 5F66696E 		.ascii	"_fini\000"
 4613      6900
 4614              	.LASF332:
 4615 0280 5F697361 		.ascii	"_isatty\000"
 4615      74747900 
 4616              	.LASF341:
 4617 0288 2F686F6D 		.ascii	"/home/incsl/ardupilot/build/CUAVv5\000"
 4617      652F696E 
 4617      63736C2F 
 4617      61726475 
 4617      70696C6F 
 4618              	.LASF135:
 4619 02ab 5F756E75 		.ascii	"_unused_rand\000"
 4619      7365645F 
 4619      72616E64 
 4619      00
 4620              	.LASF299:
 4621 02b8 6D656D63 		.ascii	"memcore_t\000"
 4621      6F72655F 
 4621      7400
 4622              	.LASF0:
 4623 02c2 7369676E 		.ascii	"signed char\000"
 4623      65642063 
 4623      68617200 
 4624              	.LASF268:
 4625 02ce 65776D61 		.ascii	"ewmask\000"
 4625      736B00
 4626              	.LASF18:
 4627 02d5 5F5F626C 		.ascii	"__blksize_t\000"
 4627      6B73697A 
 4627      655F7400 
 4628              	.LASF37:
 4629 02e1 75696E74 		.ascii	"uint8_t\000"
 4629      385F7400 
 4630              	.LASF176:
 4631 02e9 73745F73 		.ascii	"st_spare1\000"
 4631      70617265 
 4631      3100
 4632              	.LASF171:
 4633 02f3 73745F75 		.ascii	"st_uid\000"
 4633      696400
 4634              	.LASF180:
 4635 02fa 73745F73 		.ascii	"st_spare3\000"
 4635      70617265 
 4635      3300
 4636              	.LASF183:
 4637 0304 73745F73 		.ascii	"st_spare4\000"
 4637      70617265 
 4637      3400
 4638              	.LASF191:
 4639 030e 6576656E 		.ascii	"eventmask_t\000"
 4639      746D6173 
ARM GAS  /tmp/cc248mnq.s 			page 85


 4639      6B5F7400 
 4640              	.LASF339:
 4641 031a 474E5520 		.ascii	"GNU C11 6.3.1 20170620 (release) [ARM/embedded-6-br"
 4641      43313120 
 4641      362E332E 
 4641      31203230 
 4641      31373036 
 4642 034d 616E6368 		.ascii	"anch revision 249437] -mcpu=cortex-m7 -mfloat-abi=h"
 4642      20726576 
 4642      6973696F 
 4642      6E203234 
 4642      39343337 
 4643 0380 61726420 		.ascii	"ard -mfpu=fpv4-sp-d16 -mno-thumb-interwork -mthumb "
 4643      2D6D6670 
 4643      753D6670 
 4643      76342D73 
 4643      702D6431 
 4644 03b3 2D67202D 		.ascii	"-g -Os -fomit-frame-pointer -falign-functions=16 -f"
 4644      4F73202D 
 4644      666F6D69 
 4644      742D6672 
 4644      616D652D 
 4645 03e6 66756E63 		.ascii	"function-sections -fdata-sections -fno-common -fsin"
 4645      74696F6E 
 4645      2D736563 
 4645      74696F6E 
 4645      73202D66 
 4646 0419 676C652D 		.ascii	"gle-precision-constant\000"
 4646      70726563 
 4646      6973696F 
 4646      6E2D636F 
 4646      6E737461 
 4647              	.LASF264:
 4648 0430 77747472 		.ascii	"wttrp\000"
 4648      7000
 4649              	.LASF55:
 4650 0436 656E7669 		.ascii	"environ\000"
 4650      726F6E00 
 4651              	.LASF1:
 4652 043e 756E7369 		.ascii	"unsigned char\000"
 4652      676E6564 
 4652      20636861 
 4652      7200
 4653              	.LASF229:
 4654 044c 6C617374 		.ascii	"lasttime\000"
 4654      74696D65 
 4654      00
 4655              	.LASF173:
 4656 0455 73745F72 		.ascii	"st_rdev\000"
 4656      64657600 
 4657              	.LASF344:
 4658 045d 5F676574 		.ascii	"_getpid\000"
 4658      70696400 
 4659              	.LASF232:
 4660 0465 70616E69 		.ascii	"panic_msg\000"
 4660      635F6D73 
 4660      6700
ARM GAS  /tmp/cc248mnq.s 			page 86


 4661              	.LASF112:
 4662 046f 5F756E73 		.ascii	"_unspecified_locale_info\000"
 4662      70656369 
 4662      66696564 
 4662      5F6C6F63 
 4662      616C655F 
 4663              	.LASF105:
 4664 0488 5F726565 		.ascii	"_reent\000"
 4664      6E7400
 4665              	.LASF160:
 4666 048f 5F676C6F 		.ascii	"_global_impure_ptr\000"
 4666      62616C5F 
 4666      696D7075 
 4666      72655F70 
 4666      747200
 4667              	.LASF230:
 4668 04a2 73797374 		.ascii	"system_debug_t\000"
 4668      656D5F64 
 4668      65627567 
 4668      5F7400
 4669              	.LASF304:
 4670 04b1 68656164 		.ascii	"header\000"
 4670      657200
 4671              	.LASF294:
 4672 04b8 5F426F6F 		.ascii	"_Bool\000"
 4672      6C00
 4673              	.LASF46:
 4674 04be 63686172 		.ascii	"char\000"
 4674      00
 4675              	.LASF84:
 4676 04c3 5F666E73 		.ascii	"_fns\000"
 4676      00
 4677              	.LASF96:
 4678 04c8 5F636C6F 		.ascii	"_close\000"
 4678      736500
 4679              	.LASF322:
 4680 04cf 73656D5F 		.ascii	"sem_list\000"
 4680      6C697374 
 4680      00
 4681              	.LASF4:
 4682 04d8 5F5F7569 		.ascii	"__uint16_t\000"
 4682      6E743136 
 4682      5F7400
 4683              	.LASF263:
 4684 04e3 77746F62 		.ascii	"wtobjp\000"
 4684      6A7000
 4685              	.LASF257:
 4686 04ea 6E5F6374 		.ascii	"n_ctxswc\000"
 4686      78737763 
 4686      00
 4687              	.LASF107:
 4688 04f3 5F737464 		.ascii	"_stdin\000"
 4688      696E00
 4689              	.LASF25:
 4690 04fa 5F5F6D6F 		.ascii	"__mode_t\000"
 4690      64655F74 
 4690      00
ARM GAS  /tmp/cc248mnq.s 			page 87


 4691              	.LASF203:
 4692 0503 666C6167 		.ascii	"flags\000"
 4692      7300
 4693              	.LASF246:
 4694 0509 73746B61 		.ascii	"stkalign_t\000"
 4694      6C69676E 
 4694      5F7400
 4695              	.LASF164:
 4696 0514 5F646179 		.ascii	"_daylight\000"
 4696      6C696768 
 4696      7400
 4697              	.LASF163:
 4698 051e 5F74696D 		.ascii	"_timezone\000"
 4698      657A6F6E 
 4698      6500
 4699              	.LASF60:
 4700 0528 6F707472 		.ascii	"optreset\000"
 4700      65736574 
 4700      00
 4701              	.LASF210:
 4702 0531 6D706F6F 		.ascii	"mpool\000"
 4702      6C00
 4703              	.LASF252:
 4704 0537 776F7273 		.ascii	"worst\000"
 4704      7400
 4705              	.LASF188:
 4706 053d 74726566 		.ascii	"trefs_t\000"
 4706      735F7400 
 4707              	.LASF277:
 4708 0545 70747273 		.ascii	"ptrsize\000"
 4708      697A6500 
 4709              	.LASF179:
 4710 054d 73745F63 		.ascii	"st_ctime\000"
 4710      74696D65 
 4710      00
 4711              	.LASF334:
 4712 0556 66696C65 		.ascii	"file\000"
 4712      00
 4713              	.LASF308:
 4714 055b 70616765 		.ascii	"pages\000"
 4714      7300
 4715              	.LASF290:
 4716 0561 6F66665F 		.ascii	"off_time\000"
 4716      74696D65 
 4716      00
 4717              	.LASF192:
 4718 056a 636E745F 		.ascii	"cnt_t\000"
 4718      7400
 4719              	.LASF165:
 4720 0570 5F747A6E 		.ascii	"_tzname\000"
 4720      616D6500 
 4721              	.LASF346:
 4722 0578 63684865 		.ascii	"chHeapAlloc\000"
 4722      6170416C 
 4722      6C6F6300 
 4723              	.LASF92:
 4724 0584 5F636F6F 		.ascii	"_cookie\000"
ARM GAS  /tmp/cc248mnq.s 			page 88


 4724      6B696500 
 4725              	.LASF267:
 4726 058c 77746D74 		.ascii	"wtmtxp\000"
 4726      787000
 4727              	.LASF65:
 4728 0593 5F776473 		.ascii	"_wds\000"
 4728      00
 4729              	.LASF220:
 4730 0598 63685F72 		.ascii	"ch_ready_list\000"
 4730      65616479 
 4730      5F6C6973 
 4730      7400
 4731              	.LASF157:
 4732 05a6 5F5F6C6F 		.ascii	"__lock\000"
 4732      636B00
 4733              	.LASF124:
 4734 05ad 5F736967 		.ascii	"_sig_func\000"
 4734      5F66756E 
 4734      6300
 4735              	.LASF323:
 4736 05b7 73656D5F 		.ascii	"sem_pool\000"
 4736      706F6F6C 
 4736      00
 4737              	.LASF100:
 4738 05c0 5F6F6666 		.ascii	"_offset\000"
 4738      73657400 
 4739              	.LASF121:
 4740 05c8 5F637674 		.ascii	"_cvtbuf\000"
 4740      62756600 
 4741              	.LASF172:
 4742 05d0 73745F67 		.ascii	"st_gid\000"
 4742      696400
 4743              	.LASF254:
 4744 05d7 63756D75 		.ascii	"cumulative\000"
 4744      6C617469 
 4744      766500
 4745              	.LASF297:
 4746 05e2 6E657874 		.ascii	"nextmem\000"
 4746      6D656D00 
 4747              	.LASF57:
 4748 05ea 6F707469 		.ascii	"optind\000"
 4748      6E6400
 4749              	.LASF258:
 4750 05f1 6D5F6372 		.ascii	"m_crit_thd\000"
 4750      69745F74 
 4750      686400
 4751              	.LASF11:
 4752 05fc 5F5F7569 		.ascii	"__uint64_t\000"
 4752      6E743634 
 4752      5F7400
 4753              	.LASF47:
 4754 0607 696E6F5F 		.ascii	"ino_t\000"
 4754      7400
 4755              	.LASF286:
 4756 060d 6F66665F 		.ascii	"off_state\000"
 4756      73746174 
 4756      6500
ARM GAS  /tmp/cc248mnq.s 			page 89


 4757              	.LASF118:
 4758 0617 5F703573 		.ascii	"_p5s\000"
 4758      00
 4759              	.LASF9:
 4760 061c 6C6F6E67 		.ascii	"long unsigned int\000"
 4760      20756E73 
 4760      69676E65 
 4760      6420696E 
 4760      7400
 4761              	.LASF279:
 4762 062e 74687265 		.ascii	"threadsize\000"
 4762      61647369 
 4762      7A6500
 4763              	.LASF88:
 4764 0639 5F5F7346 		.ascii	"__sFILE\000"
 4764      494C4500 
 4765              	.LASF114:
 4766 0641 5F5F7364 		.ascii	"__sdidinit\000"
 4766      6964696E 
 4766      697400
 4767              	.LASF104:
 4768 064c 5F666C61 		.ascii	"_flags2\000"
 4768      67733200 
 4769              	.LASF174:
 4770 0654 73745F73 		.ascii	"st_size\000"
 4770      697A6500 
 4771              	.LASF242:
 4772 065c 53797374 		.ascii	"SystemCoreClock\000"
 4772      656D436F 
 4772      7265436C 
 4772      6F636B00 
 4773              	.LASF269:
 4774 066c 63685F73 		.ascii	"ch_semaphore\000"
 4774      656D6170 
 4774      686F7265 
 4774      00
 4775              	.LASF195:
 4776 0679 63685F74 		.ascii	"ch_thread\000"
 4776      68726561 
 4776      6400
 4777              	.LASF227:
 4778 0683 76697274 		.ascii	"virtual_timers_list_t\000"
 4778      75616C5F 
 4778      74696D65 
 4778      72735F6C 
 4778      6973745F 
 4779              	.LASF272:
 4780 0699 63685F69 		.ascii	"ch_idle_thread_wa\000"
 4780      646C655F 
 4780      74687265 
 4780      61645F77 
 4780      6100
 4781              	.LASF106:
 4782 06ab 5F657272 		.ascii	"_errno\000"
 4782      6E6F00
 4783              	.LASF325:
 4784 06b2 6669666F 		.ascii	"fifo_list\000"
ARM GAS  /tmp/cc248mnq.s 			page 90


 4784      5F6C6973 
 4784      7400
 4785              	.LASF223:
 4786 06bc 76697274 		.ascii	"virtual_timer_t\000"
 4786      75616C5F 
 4786      74696D65 
 4786      725F7400 
 4787              	.LASF219:
 4788 06cc 72656164 		.ascii	"ready_list_t\000"
 4788      795F6C69 
 4788      73745F74 
 4788      00
 4789              	.LASF199:
 4790 06d9 6F6C6465 		.ascii	"older\000"
 4790      7200
 4791              	.LASF178:
 4792 06df 73745F73 		.ascii	"st_spare2\000"
 4792      70617265 
 4792      3200
 4793              	.LASF146:
 4794 06e9 5F736967 		.ascii	"_signal_buf\000"
 4794      6E616C5F 
 4794      62756600 
 4795              	.LASF209:
 4796 06f5 7265616C 		.ascii	"realprio\000"
 4796      7072696F 
 4796      00
 4797              	.LASF193:
 4798 06fe 75636E74 		.ascii	"ucnt_t\000"
 4798      5F7400
 4799              	.LASF285:
 4800 0705 6F66665F 		.ascii	"off_stklimit\000"
 4800      73746B6C 
 4800      696D6974 
 4800      00
 4801              	.LASF310:
 4802 0712 706F6F6C 		.ascii	"pool_header\000"
 4802      5F686561 
 4802      64657200 
 4803              	.LASF66:
 4804 071e 5F426967 		.ascii	"_Bigint\000"
 4804      696E7400 
 4805              	.LASF214:
 4806 0726 63685F74 		.ascii	"ch_threads_list\000"
 4806      68726561 
 4806      64735F6C 
 4806      69737400 
 4807              	.LASF63:
 4808 0736 5F6D6178 		.ascii	"_maxwds\000"
 4808      77647300 
 4809              	.LASF256:
 4810 073e 6E5F6972 		.ascii	"n_irq\000"
 4810      7100
 4811              	.LASF17:
 4812 0744 5F5F626C 		.ascii	"__blkcnt_t\000"
 4812      6B636E74 
 4812      5F7400
ARM GAS  /tmp/cc248mnq.s 			page 91


 4813              	.LASF123:
 4814 074f 5F617465 		.ascii	"_atexit0\000"
 4814      78697430 
 4814      00
 4815              	.LASF166:
 4816 0758 73746174 		.ascii	"stat\000"
 4816      00
 4817              	.LASF181:
 4818 075d 73745F62 		.ascii	"st_blksize\000"
 4818      6C6B7369 
 4818      7A6500
 4819              	.LASF335:
 4820 0768 5F736272 		.ascii	"_sbrk\000"
 4820      6B00
 4821              	.LASF24:
 4822 076e 5F5F696E 		.ascii	"__ino_t\000"
 4822      6F5F7400 
 4823              	.LASF305:
 4824 0776 68656170 		.ascii	"heap_header_t\000"
 4824      5F686561 
 4824      6465725F 
 4824      7400
 4825              	.LASF8:
 4826 0784 5F5F7569 		.ascii	"__uint32_t\000"
 4826      6E743332 
 4826      5F7400
 4827              	.LASF111:
 4828 078f 5F656D65 		.ascii	"_emergency\000"
 4828      7267656E 
 4828      637900
 4829              	.LASF208:
 4830 079a 6D74786C 		.ascii	"mtxlist\000"
 4830      69737400 
 4831              	.LASF10:
 4832 07a2 6C6F6E67 		.ascii	"long long int\000"
 4832      206C6F6E 
 4832      6720696E 
 4832      7400
 4833              	.LASF240:
 4834 07b0 73797369 		.ascii	"sysinterval_t\000"
 4834      6E746572 
 4834      76616C5F 
 4834      7400
 4835              	.LASF129:
 4836 07be 5F6E696F 		.ascii	"_niobs\000"
 4836      627300
 4837              	.LASF318:
 4838 07c5 63685F6F 		.ascii	"ch_objects_factory\000"
 4838      626A6563 
 4838      74735F66 
 4838      6163746F 
 4838      727900
 4839              	.LASF125:
 4840 07d8 5F5F7367 		.ascii	"__sglue\000"
 4840      6C756500 
 4841              	.LASF155:
 4842 07e0 5F6E6D61 		.ascii	"_nmalloc\000"
ARM GAS  /tmp/cc248mnq.s 			page 92


 4842      6C6C6F63 
 4842      00
 4843              	.LASF139:
 4844 07e9 5F67616D 		.ascii	"_gamma_signgam\000"
 4844      6D615F73 
 4844      69676E67 
 4844      616D00
 4845              	.LASF119:
 4846 07f8 5F667265 		.ascii	"_freelist\000"
 4846      656C6973 
 4846      7400
 4847              	.LASF130:
 4848 0802 5F696F62 		.ascii	"_iobs\000"
 4848      7300
 4849              	.LASF312:
 4850 0808 616C6967 		.ascii	"align\000"
 4850      6E00
 4851              	.LASF128:
 4852 080e 5F676C75 		.ascii	"_glue\000"
 4852      6500
 4853              	.LASF241:
 4854 0814 49544D5F 		.ascii	"ITM_RxBuffer\000"
 4854      52784275 
 4854      66666572 
 4854      00
 4855              	.LASF64:
 4856 0821 5F736967 		.ascii	"_sign\000"
 4856      6E00
 4857              	.LASF342:
 4858 0827 68656170 		.ascii	"heap_header\000"
 4858      5F686561 
 4858      64657200 
 4859              	.LASF330:
 4860 0833 5F657869 		.ascii	"_exit\000"
 4860      7400
 4861              	.LASF282:
 4862 0839 6F66665F 		.ascii	"off_newer\000"
 4862      6E657765 
 4862      7200
 4863              	.LASF259:
 4864 0843 6D5F6372 		.ascii	"m_crit_isr\000"
 4864      69745F69 
 4864      737200
 4865              	.LASF13:
 4866 084e 756E7369 		.ascii	"unsigned int\000"
 4866      676E6564 
 4866      20696E74 
 4866      00
 4867              	.LASF43:
 4868 085b 626C6B63 		.ascii	"blkcnt_t\000"
 4868      6E745F74 
 4868      00
 4869              	.LASF45:
 4870 0864 63616464 		.ascii	"caddr_t\000"
 4870      725F7400 
 4871              	.LASF184:
 4872 086c 7274636E 		.ascii	"rtcnt_t\000"
ARM GAS  /tmp/cc248mnq.s 			page 93


 4872      745F7400 
 4873              	.LASF204:
 4874 0874 72656673 		.ascii	"refs\000"
 4874      00
 4875              	.LASF153:
 4876 0879 5F685F65 		.ascii	"_h_errno\000"
 4876      72726E6F 
 4876      00
 4877              	.LASF336:
 4878 0882 696E6372 		.ascii	"incr\000"
 4878      00
 4879              	.LASF340:
 4880 0887 2E2E2F2E 		.ascii	"../../libraries/AP_HAL_ChibiOS/hwdef/common/stubs.c"
 4880      2E2F6C69 
 4880      62726172 
 4880      6965732F 
 4880      41505F48 
 4881 08ba 00       		.ascii	"\000"
 4882              	.LASF52:
 4883 08bb 7069645F 		.ascii	"pid_t\000"
 4883      7400
 4884              	.LASF71:
 4885 08c1 5F5F746D 		.ascii	"__tm_mday\000"
 4885      5F6D6461 
 4885      7900
 4886              	.LASF260:
 4887 08cb 6B65726E 		.ascii	"kernel_stats_t\000"
 4887      656C5F73 
 4887      74617473 
 4887      5F7400
 4888              	.LASF122:
 4889 08da 5F6E6577 		.ascii	"_new\000"
 4889      00
 4890              	.LASF97:
 4891 08df 5F756275 		.ascii	"_ubuf\000"
 4891      6600
 4892              	.LASF109:
 4893 08e5 5F737464 		.ascii	"_stderr\000"
 4893      65727200 
 4894              	.LASF144:
 4895 08ed 5F776374 		.ascii	"_wctomb_state\000"
 4895      6F6D625F 
 4895      73746174 
 4895      6500
 4896              	.LASF103:
 4897 08fb 5F6D6273 		.ascii	"_mbstate\000"
 4897      74617465 
 4897      00
 4898              	.LASF221:
 4899 0904 63757272 		.ascii	"current\000"
 4899      656E7400 
 4900              	.LASF140:
 4901 090c 5F72616E 		.ascii	"_rand_next\000"
 4901      645F6E65 
 4901      787400
 4902              	.LASF89:
 4903 0917 5F666C61 		.ascii	"_flags\000"
ARM GAS  /tmp/cc248mnq.s 			page 94


 4903      677300
 4904              	.LASF249:
 4905 091e 6F666673 		.ascii	"offset\000"
 4905      657400
 4906              	.LASF212:
 4907 0925 74687265 		.ascii	"thread_reference_t\000"
 4907      61645F72 
 4907      65666572 
 4907      656E6365 
 4907      5F7400
 4908              	.LASF82:
 4909 0938 5F617465 		.ascii	"_atexit\000"
 4909      78697400 
 4910              	.LASF32:
 4911 0940 5F5F636F 		.ascii	"__count\000"
 4911      756E7400 
 4912              	.LASF170:
 4913 0948 73745F6E 		.ascii	"st_nlink\000"
 4913      6C696E6B 
 4913      00
 4914              	.LASF48:
 4915 0951 6F66665F 		.ascii	"off_t\000"
 4915      7400
 4916              	.LASF296:
 4917 0957 6D656D67 		.ascii	"memgetfunc2_t\000"
 4917      65746675 
 4917      6E63325F 
 4917      7400
 4918              	.LASF53:
 4919 0965 6D6F6465 		.ascii	"mode_t\000"
 4919      5F7400
 4920              	.LASF307:
 4921 096c 75736564 		.ascii	"used\000"
 4921      00
 4922              	.LASF295:
 4923 0971 6D656D67 		.ascii	"memgetfunc_t\000"
 4923      65746675 
 4923      6E635F74 
 4923      00
 4924              	.LASF328:
 4925 097e 5F626566 		.ascii	"_before_main\000"
 4925      6F72655F 
 4925      6D61696E 
 4925      00
 4926              	.LASF74:
 4927 098b 5F5F746D 		.ascii	"__tm_wday\000"
 4927      5F776461 
 4927      7900
 4928              	.LASF194:
 4929 0995 74687265 		.ascii	"thread_t\000"
 4929      61645F74 
 4929      00
 4930              	.LASF175:
 4931 099e 73745F61 		.ascii	"st_atime\000"
 4931      74696D65 
 4931      00
 4932              	.LASF15:
ARM GAS  /tmp/cc248mnq.s 			page 95


 4933 09a7 6C6F6E67 		.ascii	"long double\000"
 4933      20646F75 
 4933      626C6500 
 4934              	.LASF75:
 4935 09b3 5F5F746D 		.ascii	"__tm_yday\000"
 4935      5F796461 
 4935      7900
 4936              	.LASF265:
 4937 09bd 73656E74 		.ascii	"sentmsg\000"
 4937      6D736700 
 4938              	.LASF248:
 4939 09c5 706F7274 		.ascii	"port_intctx\000"
 4939      5F696E74 
 4939      63747800 
 4940              	.LASF326:
 4941 09d1 6F626A65 		.ascii	"objects_factory_t\000"
 4941      6374735F 
 4941      66616374 
 4941      6F72795F 
 4941      7400
 4942              	.LASF20:
 4943 09e3 5F5F7069 		.ascii	"__pid_t\000"
 4943      645F7400 
 4944              	.LASF329:
 4945 09eb 5F6B696C 		.ascii	"_kill\000"
 4945      6C00
 4946              	.LASF132:
 4947 09f1 5F736565 		.ascii	"_seed\000"
 4947      6400
 4948              	.LASF321:
 4949 09f7 6275665F 		.ascii	"buf_list\000"
 4949      6C697374 
 4949      00
 4950              	.LASF95:
 4951 0a00 5F736565 		.ascii	"_seek\000"
 4951      6B00
 4952              	.LASF167:
 4953 0a06 73745F64 		.ascii	"st_dev\000"
 4953      657600
 4954              	.LASF27:
 4955 0a0d 5F66706F 		.ascii	"_fpos_t\000"
 4955      735F7400 
 4956              	.LASF30:
 4957 0a15 5F5F7763 		.ascii	"__wchb\000"
 4957      686200
 4958              	.LASF243:
 4959 0a1c 41484250 		.ascii	"AHBPrescTable\000"
 4959      72657363 
 4959      5461626C 
 4959      6500
 4960              	.LASF224:
 4961 0a2a 63685F76 		.ascii	"ch_virtual_timer\000"
 4961      69727475 
 4961      616C5F74 
 4961      696D6572 
 4961      00
 4962              	.LASF143:
ARM GAS  /tmp/cc248mnq.s 			page 96


 4963 0a3b 5F6D6274 		.ascii	"_mbtowc_state\000"
 4963      6F77635F 
 4963      73746174 
 4963      6500
 4964              	.LASF59:
 4965 0a49 6F70746F 		.ascii	"optopt\000"
 4965      707400
 4966              	.LASF238:
 4967 0a50 6B65726E 		.ascii	"kernel_stats\000"
 4967      656C5F73 
 4967      74617473 
 4967      00
 4968              	.LASF275:
 4969 0a5d 73697A65 		.ascii	"size\000"
 4969      00
 4970              	.LASF12:
 4971 0a62 6C6F6E67 		.ascii	"long long unsigned int\000"
 4971      206C6F6E 
 4971      6720756E 
 4971      7369676E 
 4971      65642069 
 4972              	.LASF38:
 4973 0a79 75696E74 		.ascii	"uint16_t\000"
 4973      31365F74 
 4973      00
 4974              	.LASF26:
 4975 0a82 5F5F6F66 		.ascii	"__off_t\000"
 4975      665F7400 
 4976              	.LASF284:
 4977 0a8a 6F66665F 		.ascii	"off_name\000"
 4977      6E616D65 
 4977      00
 4978              	.LASF79:
 4979 0a93 5F64736F 		.ascii	"_dso_handle\000"
 4979      5F68616E 
 4979      646C6500 
 4980              	.LASF190:
 4981 0a9f 6D73675F 		.ascii	"msg_t\000"
 4981      7400
 4982              	.LASF217:
 4983 0aa5 63685F74 		.ascii	"ch_threads_queue\000"
 4983      68726561 
 4983      64735F71 
 4983      75657565 
 4983      00
 4984              	.LASF131:
 4985 0ab6 5F72616E 		.ascii	"_rand48\000"
 4985      64343800 
 4986              	.LASF108:
 4987 0abe 5F737464 		.ascii	"_stdout\000"
 4987      6F757400 
 4988              	.LASF225:
 4989 0ac6 64656C74 		.ascii	"delta\000"
 4989      6100
 4990              	.LASF99:
 4991 0acc 5F626C6B 		.ascii	"_blksize\000"
 4991      73697A65 
ARM GAS  /tmp/cc248mnq.s 			page 97


 4991      00
 4992              	.LASF86:
 4993 0ad5 5F626173 		.ascii	"_base\000"
 4993      6500
 4994              	.LASF196:
 4995 0adb 71756575 		.ascii	"queue\000"
 4995      6500
 4996              	.LASF207:
 4997 0ae1 6570656E 		.ascii	"epending\000"
 4997      64696E67 
 4997      00
 4998              	.LASF58:
 4999 0aea 6F707465 		.ascii	"opterr\000"
 4999      727200
 5000              	.LASF136:
 5001 0af1 5F737472 		.ascii	"_strtok_last\000"
 5001      746F6B5F 
 5001      6C617374 
 5001      00
 5002              	.LASF327:
 5003 0afe 63685F66 		.ascii	"ch_factory\000"
 5003      6163746F 
 5003      727900
 5004              	.LASF149:
 5005 0b09 5F6D6272 		.ascii	"_mbrtowc_state\000"
 5005      746F7763 
 5005      5F737461 
 5005      746500
 5006              	.LASF324:
 5007 0b18 6D62785F 		.ascii	"mbx_list\000"
 5007      6C697374 
 5007      00
 5008              	.LASF237:
 5009 0b21 6D61696E 		.ascii	"mainthread\000"
 5009      74687265 
 5009      616400
 5010              	.LASF35:
 5011 0b2c 5F666C6F 		.ascii	"_flock_t\000"
 5011      636B5F74 
 5011      00
 5012              	.LASF276:
 5013 0b35 76657273 		.ascii	"version\000"
 5013      696F6E00 
 5014              	.LASF127:
 5015 0b3d 5F5F4649 		.ascii	"__FILE\000"
 5015      4C4500
 5016              	.LASF251:
 5017 0b44 62657374 		.ascii	"best\000"
 5017      00
 5018              	.LASF34:
 5019 0b49 5F6D6273 		.ascii	"_mbstate_t\000"
 5019      74617465 
 5019      5F7400
 5020              	.LASF338:
 5021 0b54 68656170 		.ascii	"heapp\000"
 5021      7000
 5022              	.LASF141:
ARM GAS  /tmp/cc248mnq.s 			page 98


 5023 0b5a 5F723438 		.ascii	"_r48\000"
 5023      00
 5024              	.LASF201:
 5025 0b5f 77616261 		.ascii	"wabase\000"
 5025      736500
 5026              	.LASF28:
 5027 0b66 77696E74 		.ascii	"wint_t\000"
 5027      5F7400
 5028              	.LASF313:
 5029 0b6d 6D656D6F 		.ascii	"memory_pool_t\000"
 5029      72795F70 
 5029      6F6F6C5F 
 5029      7400
 5030              	.LASF62:
 5031 0b7b 5F6E6578 		.ascii	"_next\000"
 5031      7400
 5032              	.LASF101:
 5033 0b81 5F646174 		.ascii	"_data\000"
 5033      6100
 5034              	.LASF333:
 5035 0b87 5F667374 		.ascii	"_fstat\000"
 5035      617400
 5036              	.LASF235:
 5037 0b8e 726C6973 		.ascii	"rlist\000"
 5037      7400
 5038              	.LASF186:
 5039 0b94 746D6F64 		.ascii	"tmode_t\000"
 5039      655F7400 
 5040              	.LASF177:
 5041 0b9c 73745F6D 		.ascii	"st_mtime\000"
 5041      74696D65 
 5041      00
 5042              	.LASF250:
 5043 0ba5 746D5F63 		.ascii	"tm_calibration_t\000"
 5043      616C6962 
 5043      72617469 
 5043      6F6E5F74 
 5043      00
 5044              	.LASF200:
 5045 0bb6 6E616D65 		.ascii	"name\000"
 5045      00
 5046              	.LASF244:
 5047 0bbb 41504250 		.ascii	"APBPrescTable\000"
 5047      72657363 
 5047      5461626C 
 5047      6500
 5048              	.LASF347:
 5049 0bc9 63684865 		.ascii	"chHeapAllocAligned\000"
 5049      6170416C 
 5049      6C6F6341 
 5049      6C69676E 
 5049      656400
 5050              	.LASF142:
 5051 0bdc 5F6D626C 		.ascii	"_mblen_state\000"
 5051      656E5F73 
 5051      74617465 
 5051      00
ARM GAS  /tmp/cc248mnq.s 			page 99


 5052              	.LASF2:
 5053 0be9 73686F72 		.ascii	"short int\000"
 5053      7420696E 
 5053      7400
 5054              	.LASF41:
 5055 0bf3 75696E74 		.ascii	"uint64_t\000"
 5055      36345F74 
 5055      00
 5056              	.LASF226:
 5057 0bfc 66756E63 		.ascii	"func\000"
 5057      00
 5058              	.LASF270:
 5059 0c01 63685F6D 		.ascii	"ch_mutex\000"
 5059      75746578 
 5059      00
 5060              	.LASF206:
 5061 0c0a 6D736771 		.ascii	"msgqueue\000"
 5061      75657565 
 5061      00
 5062              	.LASF80:
 5063 0c13 5F666E74 		.ascii	"_fntypes\000"
 5063      79706573 
 5063      00
 5064              	.LASF231:
 5065 0c1c 63685F73 		.ascii	"ch_system_debug\000"
 5065      79737465 
 5065      6D5F6465 
 5065      62756700 
 5066              	.LASF161:
 5067 0c2c 5F737973 		.ascii	"_sys_errlist\000"
 5067      5F657272 
 5067      6C697374 
 5067      00
 5068              	.LASF317:
 5069 0c39 64796E5F 		.ascii	"dyn_list_t\000"
 5069      6C697374 
 5069      5F7400
 5070              	.LASF73:
 5071 0c44 5F5F746D 		.ascii	"__tm_year\000"
 5071      5F796561 
 5071      7200
 5072              	.LASF311:
 5073 0c4e 6F626A65 		.ascii	"object_size\000"
 5073      63745F73 
 5073      697A6500 
 5074              	.LASF91:
 5075 0c5a 5F6C6266 		.ascii	"_lbfsize\000"
 5075      73697A65 
 5075      00
 5076              	.LASF236:
 5077 0c63 76746C69 		.ascii	"vtlist\000"
 5077      737400
 5078              	.LASF110:
 5079 0c6a 5F696E63 		.ascii	"_inc\000"
 5079      00
 5080              	.LASF83:
 5081 0c6f 5F696E64 		.ascii	"_ind\000"
ARM GAS  /tmp/cc248mnq.s 			page 100


 5081      00
 5082              	.LASF205:
 5083 0c74 77616974 		.ascii	"waiting\000"
 5083      696E6700 
 5084              	.LASF85:
 5085 0c7c 5F5F7362 		.ascii	"__sbuf\000"
 5085      756600
 5086              	.LASF315:
 5087 0c83 64796E5F 		.ascii	"dyn_element_t\000"
 5087      656C656D 
 5087      656E745F 
 5087      7400
 5088              	.LASF81:
 5089 0c91 5F69735F 		.ascii	"_is_cxa\000"
 5089      63786100 
 5090              	.LASF16:
 5091 0c99 5F4C4F43 		.ascii	"_LOCK_T\000"
 5091      4B5F5400 
 5092              	.LASF293:
 5093 0ca1 6D757465 		.ascii	"mutex_t\000"
 5093      785F7400 
 5094              	.LASF169:
 5095 0ca9 73745F6D 		.ascii	"st_mode\000"
 5095      6F646500 
 5096              	.LASF22:
 5097 0cb1 5F5F7569 		.ascii	"__uid_t\000"
 5097      645F7400 
 5098              	.LASF154:
 5099 0cb9 5F6E6578 		.ascii	"_nextf\000"
 5099      746600
 5100              	.LASF247:
 5101 0cc0 706F7274 		.ascii	"port_context\000"
 5101      5F636F6E 
 5101      74657874 
 5101      00
 5102              	.LASF44:
 5103 0ccd 626C6B73 		.ascii	"blksize_t\000"
 5103      697A655F 
 5103      7400
 5104              	.LASF331:
 5105 0cd7 73746174 		.ascii	"status\000"
 5105      757300
 5106              	.LASF234:
 5107 0cde 63685F73 		.ascii	"ch_system\000"
 5107      79737465 
 5107      6D00
 5108              	.LASF113:
 5109 0ce8 5F6C6F63 		.ascii	"_locale\000"
 5109      616C6500 
 5110              	.LASF61:
 5111 0cf0 5F5F554C 		.ascii	"__ULong\000"
 5111      6F6E6700 
 5112              	.LASF198:
 5113 0cf8 6E657765 		.ascii	"newer\000"
 5113      7200
 5114              	.LASF40:
 5115 0cfe 75696E74 		.ascii	"uint32_t\000"
ARM GAS  /tmp/cc248mnq.s 			page 101


 5115      33325F74 
 5115      00
 5116              	.LASF116:
 5117 0d07 5F726573 		.ascii	"_result\000"
 5117      756C7400 
 5118              	.LASF56:
 5119 0d0f 6F707461 		.ascii	"optarg\000"
 5119      726700
 5120              	.LASF288:
 5121 0d16 6F66665F 		.ascii	"off_refs\000"
 5121      72656673 
 5121      00
 5122              	.LASF19:
 5123 0d1f 5F6F6666 		.ascii	"_off_t\000"
 5123      5F7400
 5124              	.LASF306:
 5125 0d26 66726565 		.ascii	"free\000"
 5125      00
 5126              	.LASF261:
 5127 0d2b 7264796D 		.ascii	"rdymsg\000"
 5127      736700
 5128              	.LASF134:
 5129 0d32 5F616464 		.ascii	"_add\000"
 5129      00
 5130              	.LASF5:
 5131 0d37 73686F72 		.ascii	"short unsigned int\000"
 5131      7420756E 
 5131      7369676E 
 5131      65642069 
 5131      6E7400
 5132              	.LASF70:
 5133 0d4a 5F5F746D 		.ascii	"__tm_hour\000"
 5133      5F686F75 
 5133      7200
 5134              	.LASF233:
 5135 0d54 63685F73 		.ascii	"ch_system_t\000"
 5135      79737465 
 5135      6D5F7400 
 5136              	.LASF291:
 5137 0d60 63686465 		.ascii	"chdebug_t\000"
 5137      6275675F 
 5137      7400
 5138              	.LASF150:
 5139 0d6a 5F6D6273 		.ascii	"_mbsrtowcs_state\000"
 5139      72746F77 
 5139      63735F73 
 5139      74617465 
 5139      00
 5140              	.LASF337:
 5141 0d7b 5F6C7365 		.ascii	"_lseek\000"
 5141      656B00
 5142              	.LASF218:
 5143 0d82 70726576 		.ascii	"prev\000"
 5143      00
 5144              	.LASF278:
 5145 0d87 74696D65 		.ascii	"timesize\000"
 5145      73697A65 
ARM GAS  /tmp/cc248mnq.s 			page 102


 5145      00
 5146              	.LASF6:
 5147 0d90 5F5F696E 		.ascii	"__int32_t\000"
 5147      7433325F 
 5147      7400
 5148              	.LASF168:
 5149 0d9a 73745F69 		.ascii	"st_ino\000"
 5149      6E6F00
 5150              	.LASF300:
 5151 0da1 63685F6D 		.ascii	"ch_memcore\000"
 5151      656D636F 
 5151      726500
 5152              	.LASF287:
 5153 0dac 6F66665F 		.ascii	"off_flags\000"
 5153      666C6167 
 5153      7300
 5154              	.LASF36:
 5155 0db6 5F5F6E6C 		.ascii	"__nlink_t\000"
 5155      696E6B5F 
 5155      7400
 5156              	.LASF78:
 5157 0dc0 5F666E61 		.ascii	"_fnargs\000"
 5157      72677300 
 5158              	.LASF151:
 5159 0dc8 5F776372 		.ascii	"_wcrtomb_state\000"
 5159      746F6D62 
 5159      5F737461 
 5159      746500
 5160              	.LASF76:
 5161 0dd7 5F5F746D 		.ascii	"__tm_isdst\000"
 5161      5F697364 
 5161      737400
 5162              	.LASF215:
 5163 0de2 6E657874 		.ascii	"next\000"
 5163      00
 5164              	.LASF51:
 5165 0de7 6769645F 		.ascii	"gid_t\000"
 5165      7400
 5166              	.LASF69:
 5167 0ded 5F5F746D 		.ascii	"__tm_min\000"
 5167      5F6D696E 
 5167      00
 5168              	.LASF316:
 5169 0df6 63685F64 		.ascii	"ch_dyn_list\000"
 5169      796E5F6C 
 5169      69737400 
 5170              	.LASF273:
 5171 0e02 6964656E 		.ascii	"identifier\000"
 5171      74696669 
 5171      657200
 5172              	.LASF147:
 5173 0e0d 5F676574 		.ascii	"_getdate_err\000"
 5173      64617465 
 5173      5F657272 
 5173      00
 5174              	.LASF266:
 5175 0e1a 77747365 		.ascii	"wtsemp\000"
ARM GAS  /tmp/cc248mnq.s 			page 103


 5175      6D7000
 5176              	.LASF253:
 5177 0e21 6C617374 		.ascii	"last\000"
 5177      00
 5178              		.ident	"GCC: (GNU Tools for ARM Embedded Processors 6-2017-q2-update) 6.3.1 20170620 (release) [AR
ARM GAS  /tmp/cc248mnq.s 			page 104


DEFINED SYMBOLS
                            *ABS*:0000000000000000 stubs.c
     /tmp/cc248mnq.s:18     .text._read:0000000000000000 $t
     /tmp/cc248mnq.s:25     .text._read:0000000000000000 _read
     /tmp/cc248mnq.s:37     .text._lseek:0000000000000000 $t
     /tmp/cc248mnq.s:44     .text._lseek:0000000000000000 _lseek
     /tmp/cc248mnq.s:61     .text._write:0000000000000000 $t
     /tmp/cc248mnq.s:68     .text._write:0000000000000000 _write
     /tmp/cc248mnq.s:84     .text._close:0000000000000000 $t
     /tmp/cc248mnq.s:91     .text._close:0000000000000000 _close
     /tmp/cc248mnq.s:107    .text._sbrk:0000000000000000 $t
     /tmp/cc248mnq.s:114    .text._sbrk:0000000000000000 _sbrk
     /tmp/cc248mnq.s:159    .text._fstat:0000000000000000 $t
     /tmp/cc248mnq.s:166    .text._fstat:0000000000000000 _fstat
     /tmp/cc248mnq.s:182    .text._isatty:0000000000000000 $t
     /tmp/cc248mnq.s:189    .text._isatty:0000000000000000 _isatty
     /tmp/cc248mnq.s:205    .text._getpid:0000000000000000 $t
     /tmp/cc248mnq.s:212    .text._getpid:0000000000000000 _getpid
     /tmp/cc248mnq.s:226    .text._exit:0000000000000000 $t
     /tmp/cc248mnq.s:233    .text._exit:0000000000000000 _exit
     /tmp/cc248mnq.s:248    .text._fini:0000000000000000 $t
     /tmp/cc248mnq.s:255    .text._fini:0000000000000000 _fini
     /tmp/cc248mnq.s:267    .text._kill:0000000000000000 $t
     /tmp/cc248mnq.s:274    .text._kill:0000000000000000 _kill
     /tmp/cc248mnq.s:293    .data._before_main:0000000000000000 _before_main
                     .debug_frame:0000000000000010 $d

UNDEFINED SYMBOLS
chHeapAllocAligned
