ARM GAS  /tmp/cc248mnq.s 			page 1


   1              		.cpu cortex-m7
   2              		.eabi_attribute 27, 1
   3              		.eabi_attribute 28, 1
   4              		.eabi_attribute 20, 1
   5              		.eabi_attribute 21, 1
   6              		.eabi_attribute 23, 3
   7              		.eabi_attribute 24, 1
   8              		.eabi_attribute 25, 1
   9              		.eabi_attribute 26, 1
  10              		.eabi_attribute 30, 4
  11              		.eabi_attribute 34, 1
  12              		.eabi_attribute 18, 4
  13              		.file	"stubs.c"
  14              		.text
  15              	.Ltext0:
  16              		.cfi_sections	.debug_frame
  17              		.section	.text._read,"ax",%progbits
  18              		.align	1
  19              		.global	_read
  20              		.syntax unified
  21              		.thumb
  22              		.thumb_func
  23              		.fpu fpv4-sp-d16
  24              		.type	_read, %function
  25              	_read:
  26              	.LFB313:
  27              		.cfi_startproc
  28              		@ args = 0, pretend = 0, frame = 0
  29              		@ frame_needed = 0, uses_anonymous_args = 0
  30              		@ link register save eliminated.
  31 0000 4FF0FF30 		mov	r0, #-1
  32 0004 7047     		bx	lr
  33              		.cfi_endproc
  34              	.LFE313:
  35              		.size	_read, .-_read
  36              		.section	.text._lseek,"ax",%progbits
  37              		.align	1
  38              		.global	_lseek
  39              		.syntax unified
  40              		.thumb
  41              		.thumb_func
  42              		.fpu fpv4-sp-d16
  43              		.type	_lseek, %function
  44              	_lseek:
  45              	.LFB302:
  46              		.file 1 "../../libraries/AP_HAL_ChibiOS/hwdef/common/stubs.c"
  47              		.loc 1 103 0
  48              		.cfi_startproc
  49              		@ args = 0, pretend = 0, frame = 0
  50              		@ frame_needed = 0, uses_anonymous_args = 0
  51              		@ link register save eliminated.
  52              	.LVL0:
  53              		.loc 1 110 0
  54 0000 0020     		movs	r0, #0
  55              	.LVL1:
  56 0002 7047     		bx	lr
  57              		.cfi_endproc
ARM GAS  /tmp/cc248mnq.s 			page 2


  58              	.LFE302:
  59              		.size	_lseek, .-_lseek
  60              		.section	.text._write,"ax",%progbits
  61              		.align	1
  62              		.global	_write
  63              		.syntax unified
  64              		.thumb
  65              		.thumb_func
  66              		.fpu fpv4-sp-d16
  67              		.type	_write, %function
  68              	_write:
  69              	.LFB303:
  70              		.loc 1 116 0
  71              		.cfi_startproc
  72              		@ args = 0, pretend = 0, frame = 0
  73              		@ frame_needed = 0, uses_anonymous_args = 0
  74              		@ link register save eliminated.
  75              	.LVL2:
  76              		.loc 1 122 0
  77 0000 4FF0FF30 		mov	r0, #-1
  78              	.LVL3:
  79 0004 7047     		bx	lr
  80              		.cfi_endproc
  81              	.LFE303:
  82              		.size	_write, .-_write
  83              		.section	.text._close,"ax",%progbits
  84              		.align	1
  85              		.global	_close
  86              		.syntax unified
  87              		.thumb
  88              		.thumb_func
  89              		.fpu fpv4-sp-d16
  90              		.type	_close, %function
  91              	_close:
  92              	.LFB304:
  93              		.loc 1 128 0
  94              		.cfi_startproc
  95              		@ args = 0, pretend = 0, frame = 0
  96              		@ frame_needed = 0, uses_anonymous_args = 0
  97              		@ link register save eliminated.
  98              	.LVL4:
  99              		.loc 1 132 0
 100 0000 0020     		movs	r0, #0
 101              	.LVL5:
 102 0002 7047     		bx	lr
 103              		.cfi_endproc
 104              	.LFE304:
 105              		.size	_close, .-_close
 106              		.section	.text._sbrk,"ax",%progbits
 107              		.align	1
 108              		.global	_sbrk
 109              		.syntax unified
 110              		.thumb
 111              		.thumb_func
 112              		.fpu fpv4-sp-d16
 113              		.type	_sbrk, %function
 114              	_sbrk:
ARM GAS  /tmp/cc248mnq.s 			page 3


 115              	.LFB305:
 116              		.loc 1 138 0
 117              		.cfi_startproc
 118              		@ args = 0, pretend = 0, frame = 0
 119              		@ frame_needed = 0, uses_anonymous_args = 0
 120              	.LVL6:
 121 0000 10B5     		push	{r4, lr}
 122              		.cfi_def_cfa_offset 8
 123              		.cfi_offset 4, -8
 124              		.cfi_offset 14, -4
 125              	.LBB4:
 126              	.LBB5:
 127              		.file 2 "../../modules/ChibiOS/os/oslib/include/chmemheaps.h"
 128              		.loc 2 156 0
 129 0002 0822     		movs	r2, #8
 130              	.LBE5:
 131              	.LBE4:
 132              		.loc 1 138 0
 133 0004 0446     		mov	r4, r0
 134              	.LVL7:
 135              	.LBB7:
 136              	.LBB6:
 137              		.loc 2 156 0
 138 0006 0020     		movs	r0, #0
 139              	.LVL8:
 140 0008 FFF7FEFF 		bl	chHeapAllocAligned
 141              	.LVL9:
 142              	.LBE6:
 143              	.LBE7:
 144              		.loc 1 144 0
 145 000c 18B9     		cbnz	r0, .L5
 146              		.loc 1 145 0
 147 000e 0C23     		movs	r3, #12
 148              		.loc 1 146 0
 149 0010 4FF0FF30 		mov	r0, #-1
 150              		.loc 1 145 0
 151 0014 2360     		str	r3, [r4]
 152              	.L5:
 153              		.loc 1 154 0
 154 0016 10BD     		pop	{r4, pc}
 155              		.cfi_endproc
 156              	.LFE305:
 157              		.size	_sbrk, .-_sbrk
 158              		.section	.text._fstat,"ax",%progbits
 159              		.align	1
 160              		.global	_fstat
 161              		.syntax unified
 162              		.thumb
 163              		.thumb_func
 164              		.fpu fpv4-sp-d16
 165              		.type	_fstat, %function
 166              	_fstat:
 167              	.LFB306:
 168              		.loc 1 161 0
 169              		.cfi_startproc
 170              		@ args = 0, pretend = 0, frame = 0
 171              		@ frame_needed = 0, uses_anonymous_args = 0
ARM GAS  /tmp/cc248mnq.s 			page 4


 172              		@ link register save eliminated.
 173              	.LVL10:
 174              		.loc 1 166 0
 175 0000 4FF0FF30 		mov	r0, #-1
 176              	.LVL11:
 177 0004 7047     		bx	lr
 178              		.cfi_endproc
 179              	.LFE306:
 180              		.size	_fstat, .-_fstat
 181              		.section	.text._isatty,"ax",%progbits
 182              		.align	1
 183              		.global	_isatty
 184              		.syntax unified
 185              		.thumb
 186              		.thumb_func
 187              		.fpu fpv4-sp-d16
 188              		.type	_isatty, %function
 189              	_isatty:
 190              	.LFB307:
 191              		.loc 1 172 0
 192              		.cfi_startproc
 193              		@ args = 0, pretend = 0, frame = 0
 194              		@ frame_needed = 0, uses_anonymous_args = 0
 195              		@ link register save eliminated.
 196              	.LVL12:
 197              		.loc 1 176 0
 198 0000 0120     		movs	r0, #1
 199              	.LVL13:
 200 0002 7047     		bx	lr
 201              		.cfi_endproc
 202              	.LFE307:
 203              		.size	_isatty, .-_isatty
 204              		.section	.text._getpid,"ax",%progbits
 205              		.align	1
 206              		.global	_getpid
 207              		.syntax unified
 208              		.thumb
 209              		.thumb_func
 210              		.fpu fpv4-sp-d16
 211              		.type	_getpid, %function
 212              	_getpid:
 213              	.LFB308:
 214              		.loc 1 180 0
 215              		.cfi_startproc
 216              		@ args = 0, pretend = 0, frame = 0
 217              		@ frame_needed = 0, uses_anonymous_args = 0
 218              		@ link register save eliminated.
 219              		.loc 1 182 0
 220 0000 0020     		movs	r0, #0
 221 0002 7047     		bx	lr
 222              		.cfi_endproc
 223              	.LFE308:
 224              		.size	_getpid, .-_getpid
 225              		.section	.text._exit,"ax",%progbits
 226              		.align	1
 227              		.global	_exit
 228              		.syntax unified
ARM GAS  /tmp/cc248mnq.s 			page 5


 229              		.thumb
 230              		.thumb_func
 231              		.fpu fpv4-sp-d16
 232              		.type	_exit, %function
 233              	_exit:
 234              	.LFB309:
 235              		.loc 1 186 0
 236              		.cfi_startproc
 237              		@ Volatile: function does not return.
 238              		@ args = 0, pretend = 0, frame = 0
 239              		@ frame_needed = 0, uses_anonymous_args = 0
 240              		@ link register save eliminated.
 241              	.LVL14:
 242              	.L12:
 243 0000 FEE7     		b	.L12
 244              		.cfi_endproc
 245              	.LFE309:
 246              		.size	_exit, .-_exit
 247              		.section	.text._fini,"ax",%progbits
 248              		.align	1
 249              		.global	_fini
 250              		.syntax unified
 251              		.thumb
 252              		.thumb_func
 253              		.fpu fpv4-sp-d16
 254              		.type	_fini, %function
 255              	_fini:
 256              	.LFB310:
 257              		.loc 1 193 0
 258              		.cfi_startproc
 259              		@ args = 0, pretend = 0, frame = 0
 260              		@ frame_needed = 0, uses_anonymous_args = 0
 261              		@ link register save eliminated.
 262 0000 7047     		bx	lr
 263              		.cfi_endproc
 264              	.LFE310:
 265              		.size	_fini, .-_fini
 266              		.section	.text._kill,"ax",%progbits
 267              		.align	1
 268              		.global	_kill
 269              		.syntax unified
 270              		.thumb
 271              		.thumb_func
 272              		.fpu fpv4-sp-d16
 273              		.type	_kill, %function
 274              	_kill:
 275              	.LFB311:
 276              		.loc 1 198 0
 277              		.cfi_startproc
 278              		@ args = 0, pretend = 0, frame = 0
 279              		@ frame_needed = 0, uses_anonymous_args = 0
 280              		@ link register save eliminated.
 281              	.LVL15:
 282              		.loc 1 202 0
 283 0000 4FF0FF30 		mov	r0, #-1
 284              	.LVL16:
 285 0004 7047     		bx	lr
ARM GAS  /tmp/cc248mnq.s 			page 6


 286              		.cfi_endproc
 287              	.LFE311:
 288              		.size	_kill, .-_kill
 289              		.global	_before_main
 290              		.section	.data._before_main,"aw",%progbits
 291              		.type	_before_main, %object
 292              		.size	_before_main, 1
 293              	_before_main:
 294 0000 01       		.byte	1
 295              		.text
 296              	.Letext0:
 297              		.file 3 "/opt/gcc-arm-none-eabi-6-2017-q2-update/arm-none-eabi/include/machine/_default_types.h"
 298              		.file 4 "/opt/gcc-arm-none-eabi-6-2017-q2-update/lib/gcc/arm-none-eabi/6.3.1/include/stddef.h"
 299              		.file 5 "/opt/gcc-arm-none-eabi-6-2017-q2-update/arm-none-eabi/include/sys/lock.h"
 300              		.file 6 "/opt/gcc-arm-none-eabi-6-2017-q2-update/arm-none-eabi/include/sys/_types.h"
 301              		.file 7 "/opt/gcc-arm-none-eabi-6-2017-q2-update/arm-none-eabi/include/sys/_stdint.h"
 302              		.file 8 "/opt/gcc-arm-none-eabi-6-2017-q2-update/arm-none-eabi/include/sys/_timeval.h"
 303              		.file 9 "/opt/gcc-arm-none-eabi-6-2017-q2-update/arm-none-eabi/include/sys/types.h"
 304              		.file 10 "/opt/gcc-arm-none-eabi-6-2017-q2-update/arm-none-eabi/include/sys/unistd.h"
 305              		.file 11 "/opt/gcc-arm-none-eabi-6-2017-q2-update/arm-none-eabi/include/sys/reent.h"
 306              		.file 12 "/opt/gcc-arm-none-eabi-6-2017-q2-update/arm-none-eabi/include/sys/errno.h"
 307              		.file 13 "/opt/gcc-arm-none-eabi-6-2017-q2-update/arm-none-eabi/include/time.h"
 308              		.file 14 "/opt/gcc-arm-none-eabi-6-2017-q2-update/arm-none-eabi/include/sys/stat.h"
 309              		.file 15 "../../modules/ChibiOS/os/common/ports/ARMCMx/compilers/GCC/chtypes.h"
 310              		.file 16 "../../modules/ChibiOS/os/rt/include/chsystypes.h"
 311              		.file 17 "../../modules/ChibiOS/os/rt/include/chschd.h"
 312              		.file 18 "../../modules/ChibiOS/os/rt/include/chtime.h"
 313              		.file 19 "../../modules/ChibiOS/os/common/ext/ARM/CMSIS/Core/Include/core_cm7.h"
 314              		.file 20 "../../modules/ChibiOS/os/common/ext/ST/STM32F7xx/system_stm32f7xx.h"
 315              		.file 21 "../../modules/ChibiOS/os/common/ports/ARMCMx/chcore.h"
 316              		.file 22 "../../modules/ChibiOS/os/common/ports/ARMCMx/chcore_v7m.h"
 317              		.file 23 "../../modules/ChibiOS/os/rt/include/chtm.h"
 318              		.file 24 "../../modules/ChibiOS/os/rt/include/chstats.h"
 319              		.file 25 "../../modules/ChibiOS/os/rt/include/chsem.h"
 320              		.file 26 "../../modules/ChibiOS/os/rt/include/chmtx.h"
 321              		.file 27 "../../modules/ChibiOS/os/rt/include/chsys.h"
 322              		.file 28 "../../modules/ChibiOS/os/rt/include/chregistry.h"
 323              		.file 29 "../../modules/ChibiOS/os/oslib/include/chmemcore.h"
 324              		.file 30 "../../modules/ChibiOS/os/oslib/include/chmempools.h"
 325              		.file 31 "../../modules/ChibiOS/os/oslib/include/chfactory.h"