ARM GAS  /tmp/ccwKqRxp.s 			page 1


   1              		.cpu cortex-m7
   2              		.eabi_attribute 27, 1
   3              		.eabi_attribute 28, 1
   4              		.eabi_attribute 20, 1
   5              		.eabi_attribute 21, 1
   6              		.eabi_attribute 23, 3
   7              		.eabi_attribute 24, 1
   8              		.eabi_attribute 25, 1
   9              		.eabi_attribute 26, 1
  10              		.eabi_attribute 30, 6
  11              		.eabi_attribute 34, 1
  12              		.eabi_attribute 18, 4
  13              		.file	"syscalls_cpp.cpp"
  14              		.text
  15              	.Ltext0:
  16              		.cfi_sections	.debug_frame
  17              		.section	.text._ZL11osalSysHaltPKc,"ax",%progbits
  18              		.align	1
  19              		.p2align 4,,15
  20              		.syntax unified
  21              		.thumb
  22              		.thumb_func
  23              		.fpu fpv4-sp-d16
  24              		.type	_ZL11osalSysHaltPKc, %function
  25              	_ZL11osalSysHaltPKc:
  26              		.fnstart
  27              	.LFB302:
  28              		.file 1 "../../modules/ChibiOS/os/hal/osal/rt/osal.h"
  29              		.loc 1 478 0
  30              		.cfi_startproc
  31              		@ args = 0, pretend = 0, frame = 8
  32              		@ frame_needed = 0, uses_anonymous_args = 0
  33 0000 00B5     		push	{lr}
  34              		.save {lr}
  35              		.cfi_def_cfa_offset 4
  36              		.cfi_offset 14, -4
  37              		.pad #12
  38 0002 83B0     		sub	sp, sp, #12
  39              		.cfi_def_cfa_offset 16
  40 0004 0190     		str	r0, [sp, #4]
  41              		.loc 1 480 0
  42 0006 0198     		ldr	r0, [sp, #4]
  43 0008 FFF7FEFF 		bl	chSysHalt
  44              		.loc 1 481 0
  45 000c 00BF     		nop
  46 000e 03B0     		add	sp, sp, #12
  47              		.cfi_def_cfa_offset 4
  48              		@ sp needed
  49 0010 5DF804FB 		ldr	pc, [sp], #4
  50              		.cfi_endproc
  51              	.LFE302:
  52              		.fnend
  53              		.size	_ZL11osalSysHaltPKc, .-_ZL11osalSysHaltPKc
  54              		.global	__dso_handle
  55              		.section	.bss.__dso_handle,"aw",%nobits
  56              		.align	2
  57              		.type	__dso_handle, %object
ARM GAS  /tmp/ccwKqRxp.s 			page 2


  58              		.size	__dso_handle, 4
  59              	__dso_handle:
  60 0000 00000000 		.space	4
  61              		.section	.rodata
  62              		.align	2
  63              	.LC0:
  64 0000 556E7265 		.ascii	"Unrealized\000"
  64      616C697A 
  64      656400
  65              		.section	.text._exit,"ax",%progbits
  66              		.align	1
  67              		.p2align 4,,15
  68              		.global	_exit
  69              		.syntax unified
  70              		.thumb
  71              		.thumb_func
  72              		.fpu fpv4-sp-d16
  73              		.type	_exit, %function
  74              	_exit:
  75              		.fnstart
  76              	.LFB334:
  77              		.file 2 "../../modules/ChibiOS/os/various/cpp_wrappers/syscalls_cpp.cpp"
  78              		.loc 2 12 0
  79              		.cfi_startproc
  80              		@ args = 0, pretend = 0, frame = 8
  81              		@ frame_needed = 0, uses_anonymous_args = 0
  82 0000 00B5     		push	{lr}
  83              		.save {lr}
  84              		.cfi_def_cfa_offset 4
  85              		.cfi_offset 14, -4
  86              		.pad #12
  87 0002 83B0     		sub	sp, sp, #12
  88              		.cfi_def_cfa_offset 16
  89 0004 0190     		str	r0, [sp, #4]
  90              		.loc 2 14 0
  91 0006 0248     		ldr	r0, .L4
  92 0008 FFF7FEFF 		bl	_ZL11osalSysHaltPKc
  93              	.L3:
  94              		.loc 2 15 0 discriminator 1
  95 000c FEE7     		b	.L3
  96              	.L5:
  97 000e 00BF     		.align	2
  98              	.L4:
  99 0010 00000000 		.word	.LC0
 100              		.cfi_endproc
 101              	.LFE334:
 102              		.fnend
 103              		.size	_exit, .-_exit
 104              		.section	.text._kill,"ax",%progbits
 105              		.align	1
 106              		.p2align 4,,15
 107              		.global	_kill
 108              		.syntax unified
 109              		.thumb
 110              		.thumb_func
 111              		.fpu fpv4-sp-d16
 112              		.type	_kill, %function
ARM GAS  /tmp/ccwKqRxp.s 			page 3


 113              	_kill:
 114              		.fnstart
 115              	.LFB335:
 116              		.loc 2 20 0
 117              		.cfi_startproc
 118              		@ args = 0, pretend = 0, frame = 8
 119              		@ frame_needed = 0, uses_anonymous_args = 0
 120              		@ link register save eliminated.
 121 0000 82B0     		sub	sp, sp, #8
 122              		.cfi_def_cfa_offset 8
 123 0002 0190     		str	r0, [sp, #4]
 124 0004 0091     		str	r1, [sp]
 125              		.loc 2 23 0
 126 0006 044B     		ldr	r3, .L8
 127 0008 1622     		movs	r2, #22
 128 000a 1A60     		str	r2, [r3]
 129              		.loc 2 24 0
 130 000c 4FF0FF33 		mov	r3, #-1
 131              		.loc 2 25 0
 132 0010 1846     		mov	r0, r3
 133 0012 02B0     		add	sp, sp, #8
 134              		.cfi_def_cfa_offset 0
 135              		@ sp needed
 136 0014 7047     		bx	lr
 137              	.L9:
 138 0016 00BF     		.align	2
 139              	.L8:
 140 0018 00000000 		.word	errno
 141              		.cfi_endproc
 142              	.LFE335:
 143              		.cantunwind
 144              		.fnend
 145              		.size	_kill, .-_kill
 146              		.section	.text._open_r,"ax",%progbits
 147              		.align	1
 148              		.p2align 4,,15
 149              		.global	_open_r
 150              		.syntax unified
 151              		.thumb
 152              		.thumb_func
 153              		.fpu fpv4-sp-d16
 154              		.type	_open_r, %function
 155              	_open_r:
 156              		.fnstart
 157              	.LFB336:
 158              		.loc 2 27 0
 159              		.cfi_startproc
 160              		@ args = 0, pretend = 0, frame = 0
 161              		@ frame_needed = 0, uses_anonymous_args = 0
 162              		@ link register save eliminated.
 163              		.loc 2 28 0
 164 0000 00BF     		nop
 165              		.loc 2 29 0
 166 0002 7047     		bx	lr
 167              		.cfi_endproc
 168              	.LFE336:
 169              		.cantunwind
ARM GAS  /tmp/ccwKqRxp.s 			page 4


 170              		.fnend
 171              		.size	_open_r, .-_open_r
 172              		.section	.rodata
 173 000b 00       		.align	2
 174              	.LC1:
 175 000c 50757265 		.ascii	"Pure virtual function call.\000"
 175      20766972 
 175      7475616C 
 175      2066756E 
 175      6374696F 
 176              		.section	.text.__cxa_pure_virtual,"ax",%progbits
 177              		.align	1
 178              		.p2align 4,,15
 179              		.global	__cxa_pure_virtual
 180              		.syntax unified
 181              		.thumb
 182              		.thumb_func
 183              		.fpu fpv4-sp-d16
 184              		.type	__cxa_pure_virtual, %function
 185              	__cxa_pure_virtual:
 186              		.fnstart
 187              	.LFB337:
 188              		.loc 2 31 0
 189              		.cfi_startproc
 190              		@ args = 0, pretend = 0, frame = 0
 191              		@ frame_needed = 0, uses_anonymous_args = 0
 192 0000 08B5     		push	{r3, lr}
 193              		.save {r3, lr}
 194              		.cfi_def_cfa_offset 8
 195              		.cfi_offset 3, -8
 196              		.cfi_offset 14, -4
 197              		.loc 2 32 0
 198 0002 0248     		ldr	r0, .L13
 199 0004 FFF7FEFF 		bl	_ZL11osalSysHaltPKc
 200              		.loc 2 33 0
 201 0008 00BF     		nop
 202 000a 08BD     		pop	{r3, pc}
 203              	.L14:
 204              		.align	2
 205              	.L13:
 206 000c 0C000000 		.word	.LC1
 207              		.cfi_endproc
 208              	.LFE337:
 209              		.fnend
 210              		.size	__cxa_pure_virtual, .-__cxa_pure_virtual
 211              		.text
 212              	.Letext0:
 213              		.file 3 "/opt/gcc-arm-none-eabi-6-2017-q2-update/lib/gcc/arm-none-eabi/6.3.1/include/stdarg.h"
 214              		.file 4 "/opt/gcc-arm-none-eabi-6-2017-q2-update/arm-none-eabi/include/machine/_default_types.h"
 215              		.file 5 "/opt/gcc-arm-none-eabi-6-2017-q2-update/arm-none-eabi/include/sys/_stdint.h"
 216              		.file 6 "/opt/gcc-arm-none-eabi-6-2017-q2-update/lib/gcc/arm-none-eabi/6.3.1/include/stddef.h"
 217              		.file 7 "/opt/gcc-arm-none-eabi-6-2017-q2-update/arm-none-eabi/include/sys/lock.h"
 218              		.file 8 "/opt/gcc-arm-none-eabi-6-2017-q2-update/arm-none-eabi/include/sys/_types.h"
 219              		.file 9 "/opt/gcc-arm-none-eabi-6-2017-q2-update/arm-none-eabi/include/sys/reent.h"
 220              		.file 10 "<built-in>"
 221              		.file 11 "../../libraries/AP_HAL_ChibiOS/hwdef/common/stdio.h"
 222              		.file 12 "/opt/gcc-arm-none-eabi-6-2017-q2-update/arm-none-eabi/include/sys/errno.h"
ARM GAS  /tmp/ccwKqRxp.s 			page 5


 223              		.file 13 "../../modules/ChibiOS/os/common/ports/ARMCMx/compilers/GCC/chtypes.h"
 224              		.file 14 "../../modules/ChibiOS/os/rt/include/chsystypes.h"
 225              		.file 15 "../../modules/ChibiOS/os/rt/include/chschd.h"
 226              		.file 16 "../../modules/ChibiOS/os/rt/include/chtime.h"
 227              		.file 17 "../../modules/ChibiOS/os/common/ext/ARM/CMSIS/Core/Include/core_cm7.h"
 228              		.file 18 "../../modules/ChibiOS/os/common/ext/ST/STM32F7xx/system_stm32f7xx.h"
 229              		.file 19 "../../modules/ChibiOS/os/common/ext/ST/STM32F7xx/stm32f7xx.h"
 230              		.file 20 "../../modules/ChibiOS/os/common/ports/ARMCMx/chcore.h"
 231              		.file 21 "../../modules/ChibiOS/os/common/ports/ARMCMx/chcore_v7m.h"
 232              		.file 22 "../../modules/ChibiOS/os/rt/include/chtm.h"
 233              		.file 23 "../../modules/ChibiOS/os/rt/include/chstats.h"
 234              		.file 24 "../../modules/ChibiOS/os/rt/include/chsem.h"
 235              		.file 25 "../../modules/ChibiOS/os/rt/include/chmtx.h"
 236              		.file 26 "../../modules/ChibiOS/os/rt/include/chsys.h"
 237              		.file 27 "../../modules/ChibiOS/os/rt/include/chregistry.h"
 238              		.file 28 "../../modules/ChibiOS/os/oslib/include/chmemcore.h"
 239              		.file 29 "../../modules/ChibiOS/os/oslib/include/chmempools.h"
 240              		.file 30 "../../modules/ChibiOS/os/oslib/include/chfactory.h"
 241              		.file 31 "../../modules/ChibiOS/os/various/cpp_wrappers/syscalls_cpp.hpp"
 242              		.section	.debug_info,"",%progbits
 243              	.Ldebug_info0:
 244 0000 F0140000 		.4byte	0x14f0
 245 0004 0400     		.2byte	0x4
 246 0006 00000000 		.4byte	.Ldebug_abbrev0
 247 000a 04       		.byte	0x4
 248 000b 01       		.uleb128 0x1
 249 000c 2B010000 		.4byte	.LASF301
 250 0010 04       		.byte	0x4
 251 0011 890C0000 		.4byte	.LASF302
 252 0015 6F030000 		.4byte	.LASF303
 253 0019 00000000 		.4byte	.Ldebug_ranges0+0
 254 001d 00000000 		.4byte	0
 255 0021 00000000 		.4byte	.Ldebug_line0
 256 0025 02       		.uleb128 0x2
 257 0026 4B040000 		.4byte	.LASF0
 258 002a 03       		.byte	0x3
 259 002b 28       		.byte	0x28
 260 002c 30000000 		.4byte	0x30
 261 0030 03       		.uleb128 0x3
 262 0031 93050000 		.4byte	.LASF37
 263 0035 04       		.byte	0x4
 264 0036 0A       		.byte	0xa
 265 0037 00       		.byte	0
 266 0038 47000000 		.4byte	0x47
 267 003c 04       		.uleb128 0x4
 268 003d DF050000 		.4byte	.LASF28
 269 0041 47000000 		.4byte	0x47
 270 0045 00       		.byte	0
 271 0046 00       		.byte	0
 272 0047 05       		.uleb128 0x5
 273 0048 04       		.byte	0x4
 274 0049 02       		.uleb128 0x2
 275 004a FF060000 		.4byte	.LASF1
 276 004e 03       		.byte	0x3
 277 004f 63       		.byte	0x63
 278 0050 25000000 		.4byte	0x25
 279 0054 06       		.uleb128 0x6
ARM GAS  /tmp/ccwKqRxp.s 			page 6


 280 0055 01       		.byte	0x1
 281 0056 06       		.byte	0x6
 282 0057 A9030000 		.4byte	.LASF3
 283 005b 02       		.uleb128 0x2
 284 005c 98020000 		.4byte	.LASF2
 285 0060 04       		.byte	0x4
 286 0061 2B       		.byte	0x2b
 287 0062 66000000 		.4byte	0x66
 288 0066 06       		.uleb128 0x6
 289 0067 01       		.byte	0x1
 290 0068 08       		.byte	0x8
 291 0069 D6030000 		.4byte	.LASF4
 292 006d 06       		.uleb128 0x6
 293 006e 02       		.byte	0x2
 294 006f 05       		.byte	0x5
 295 0070 F70A0000 		.4byte	.LASF5
 296 0074 02       		.uleb128 0x2
 297 0075 84040000 		.4byte	.LASF6
 298 0079 04       		.byte	0x4
 299 007a 39       		.byte	0x39
 300 007b 7F000000 		.4byte	0x7f
 301 007f 06       		.uleb128 0x6
 302 0080 02       		.byte	0x2
 303 0081 07       		.byte	0x7
 304 0082 560C0000 		.4byte	.LASF7
 305 0086 02       		.uleb128 0x2
 306 0087 E70C0000 		.4byte	.LASF8
 307 008b 04       		.byte	0x4
 308 008c 4D       		.byte	0x4d
 309 008d 91000000 		.4byte	0x91
 310 0091 06       		.uleb128 0x6
 311 0092 04       		.byte	0x4
 312 0093 05       		.byte	0x5
 313 0094 DB020000 		.4byte	.LASF9
 314 0098 02       		.uleb128 0x2
 315 0099 D3060000 		.4byte	.LASF10
 316 009d 04       		.byte	0x4
 317 009e 4F       		.byte	0x4f
 318 009f A3000000 		.4byte	0xa3
 319 00a3 06       		.uleb128 0x6
 320 00a4 04       		.byte	0x4
 321 00a5 07       		.byte	0x7
 322 00a6 76050000 		.4byte	.LASF11
 323 00aa 06       		.uleb128 0x6
 324 00ab 08       		.byte	0x8
 325 00ac 05       		.byte	0x5
 326 00ad F1060000 		.4byte	.LASF12
 327 00b1 02       		.uleb128 0x2
 328 00b2 56050000 		.4byte	.LASF13
 329 00b6 04       		.byte	0x4
 330 00b7 69       		.byte	0x69
 331 00b8 BC000000 		.4byte	0xbc
 332 00bc 06       		.uleb128 0x6
 333 00bd 08       		.byte	0x8
 334 00be 07       		.byte	0x7
 335 00bf 73090000 		.4byte	.LASF14
 336 00c3 07       		.uleb128 0x7
ARM GAS  /tmp/ccwKqRxp.s 			page 7


 337 00c4 04       		.byte	0x4
 338 00c5 05       		.byte	0x5
 339 00c6 696E7400 		.ascii	"int\000"
 340 00ca 06       		.uleb128 0x6
 341 00cb 04       		.byte	0x4
 342 00cc 07       		.byte	0x7
 343 00cd 99070000 		.4byte	.LASF15
 344 00d1 02       		.uleb128 0x2
 345 00d2 BC030000 		.4byte	.LASF16
 346 00d6 05       		.byte	0x5
 347 00d7 18       		.byte	0x18
 348 00d8 5B000000 		.4byte	0x5b
 349 00dc 08       		.uleb128 0x8
 350 00dd D1000000 		.4byte	0xd1
 351 00e1 02       		.uleb128 0x2
 352 00e2 8A090000 		.4byte	.LASF17
 353 00e6 05       		.byte	0x5
 354 00e7 24       		.byte	0x24
 355 00e8 74000000 		.4byte	0x74
 356 00ec 02       		.uleb128 0x2
 357 00ed 8A000000 		.4byte	.LASF18
 358 00f1 05       		.byte	0x5
 359 00f2 2C       		.byte	0x2c
 360 00f3 86000000 		.4byte	0x86
 361 00f7 09       		.uleb128 0x9
 362 00f8 EC000000 		.4byte	0xec
 363 00fc 02       		.uleb128 0x2
 364 00fd 090C0000 		.4byte	.LASF19
 365 0101 05       		.byte	0x5
 366 0102 30       		.byte	0x30
 367 0103 98000000 		.4byte	0x98
 368 0107 02       		.uleb128 0x2
 369 0108 010B0000 		.4byte	.LASF20
 370 010c 05       		.byte	0x5
 371 010d 3C       		.byte	0x3c
 372 010e B1000000 		.4byte	0xb1
 373 0112 02       		.uleb128 0x2
 374 0113 08000000 		.4byte	.LASF21
 375 0117 06       		.byte	0x6
 376 0118 D8       		.byte	0xd8
 377 0119 CA000000 		.4byte	0xca
 378 011d 06       		.uleb128 0x6
 379 011e 08       		.byte	0x8
 380 011f 04       		.byte	0x4
 381 0120 9D080000 		.4byte	.LASF22
 382 0124 0A       		.uleb128 0xa
 383 0125 AC040000 		.4byte	.LASF304
 384 0129 0B       		.uleb128 0xb
 385 012a C3000000 		.4byte	0xc3
 386 012e 3D010000 		.4byte	0x13d
 387 0132 0C       		.uleb128 0xc
 388 0133 3D010000 		.4byte	0x13d
 389 0137 0C       		.uleb128 0xc
 390 0138 49000000 		.4byte	0x49
 391 013c 00       		.byte	0
 392 013d 0D       		.uleb128 0xd
 393 013e 04       		.byte	0x4
ARM GAS  /tmp/ccwKqRxp.s 			page 8


 394 013f 54010000 		.4byte	0x154
 395 0143 08       		.uleb128 0x8
 396 0144 3D010000 		.4byte	0x13d
 397 0148 09       		.uleb128 0x9
 398 0149 3D010000 		.4byte	0x13d
 399 014d 06       		.uleb128 0x6
 400 014e 01       		.byte	0x1
 401 014f 08       		.byte	0x8
 402 0150 6A040000 		.4byte	.LASF23
 403 0154 08       		.uleb128 0x8
 404 0155 4D010000 		.4byte	0x14d
 405 0159 0E       		.uleb128 0xe
 406 015a D5090000 		.4byte	.LASF135
 407 015e 0B       		.byte	0xb
 408 015f 30       		.byte	0x30
 409 0160 64010000 		.4byte	0x164
 410 0164 0D       		.uleb128 0xd
 411 0165 04       		.byte	0x4
 412 0166 29010000 		.4byte	0x129
 413 016a 02       		.uleb128 0x2
 414 016b A70B0000 		.4byte	.LASF24
 415 016f 07       		.byte	0x7
 416 0170 22       		.byte	0x22
 417 0171 75010000 		.4byte	0x175
 418 0175 0D       		.uleb128 0xd
 419 0176 04       		.byte	0x4
 420 0177 7B010000 		.4byte	0x17b
 421 017b 0F       		.uleb128 0xf
 422 017c 0E050000 		.4byte	.LASF133
 423 0180 02       		.uleb128 0x2
 424 0181 430C0000 		.4byte	.LASF25
 425 0185 08       		.byte	0x8
 426 0186 2C       		.byte	0x2c
 427 0187 91000000 		.4byte	0x91
 428 018b 02       		.uleb128 0x2
 429 018c 12090000 		.4byte	.LASF26
 430 0190 08       		.byte	0x8
 431 0191 72       		.byte	0x72
 432 0192 91000000 		.4byte	0x91
 433 0196 10       		.uleb128 0x10
 434 0197 8C0A0000 		.4byte	.LASF27
 435 019b 06       		.byte	0x6
 436 019c 6501     		.2byte	0x165
 437 019e CA000000 		.4byte	0xca
 438 01a2 11       		.uleb128 0x11
 439 01a3 08       		.byte	0x8
 440 01a4 08       		.byte	0x8
 441 01a5 A4       		.byte	0xa4
 442 01a6 FA020000 		.4byte	.LASF224
 443 01aa E6010000 		.4byte	0x1e6
 444 01ae 12       		.uleb128 0x12
 445 01af 04       		.byte	0x4
 446 01b0 08       		.byte	0x8
 447 01b1 A7       		.byte	0xa7
 448 01b2 CD010000 		.4byte	0x1cd
 449 01b6 13       		.uleb128 0x13
 450 01b7 81020000 		.4byte	.LASF29
ARM GAS  /tmp/ccwKqRxp.s 			page 9


 451 01bb 08       		.byte	0x8
 452 01bc A8       		.byte	0xa8
 453 01bd 96010000 		.4byte	0x196
 454 01c1 13       		.uleb128 0x13
 455 01c2 1A090000 		.4byte	.LASF30
 456 01c6 08       		.byte	0x8
 457 01c7 A9       		.byte	0xa9
 458 01c8 E6010000 		.4byte	0x1e6
 459 01cc 00       		.byte	0
 460 01cd 14       		.uleb128 0x14
 461 01ce 68080000 		.4byte	.LASF31
 462 01d2 08       		.byte	0x8
 463 01d3 A5       		.byte	0xa5
 464 01d4 C3000000 		.4byte	0xc3
 465 01d8 00       		.byte	0
 466 01d9 14       		.uleb128 0x14
 467 01da 2C000000 		.4byte	.LASF32
 468 01de 08       		.byte	0x8
 469 01df AA       		.byte	0xaa
 470 01e0 AE010000 		.4byte	0x1ae
 471 01e4 04       		.byte	0x4
 472 01e5 00       		.byte	0
 473 01e6 15       		.uleb128 0x15
 474 01e7 66000000 		.4byte	0x66
 475 01eb F6010000 		.4byte	0x1f6
 476 01ef 16       		.uleb128 0x16
 477 01f0 F6010000 		.4byte	0x1f6
 478 01f4 03       		.byte	0x3
 479 01f5 00       		.byte	0
 480 01f6 06       		.uleb128 0x6
 481 01f7 04       		.byte	0x4
 482 01f8 07       		.byte	0x7
 483 01f9 18000000 		.4byte	.LASF33
 484 01fd 02       		.uleb128 0x2
 485 01fe 750A0000 		.4byte	.LASF34
 486 0202 08       		.byte	0x8
 487 0203 AB       		.byte	0xab
 488 0204 A2010000 		.4byte	0x1a2
 489 0208 02       		.uleb128 0x2
 490 0209 520A0000 		.4byte	.LASF35
 491 020d 08       		.byte	0x8
 492 020e AF       		.byte	0xaf
 493 020f 6A010000 		.4byte	0x16a
 494 0213 0D       		.uleb128 0xd
 495 0214 04       		.byte	0x4
 496 0215 4D010000 		.4byte	0x14d
 497 0219 02       		.uleb128 0x2
 498 021a FB0B0000 		.4byte	.LASF36
 499 021e 09       		.byte	0x9
 500 021f 16       		.byte	0x16
 501 0220 A3000000 		.4byte	0xa3
 502 0224 03       		.uleb128 0x3
 503 0225 7B060000 		.4byte	.LASF38
 504 0229 18       		.byte	0x18
 505 022a 09       		.byte	0x9
 506 022b 2F       		.byte	0x2f
 507 022c 77020000 		.4byte	0x277
ARM GAS  /tmp/ccwKqRxp.s 			page 10


 508 0230 14       		.uleb128 0x14
 509 0231 A10A0000 		.4byte	.LASF39
 510 0235 09       		.byte	0x9
 511 0236 31       		.byte	0x31
 512 0237 77020000 		.4byte	0x277
 513 023b 00       		.byte	0
 514 023c 17       		.uleb128 0x17
 515 023d 5F6B00   		.ascii	"_k\000"
 516 0240 09       		.byte	0x9
 517 0241 32       		.byte	0x32
 518 0242 C3000000 		.4byte	0xc3
 519 0246 04       		.byte	0x4
 520 0247 14       		.uleb128 0x14
 521 0248 93060000 		.4byte	.LASF40
 522 024c 09       		.byte	0x9
 523 024d 32       		.byte	0x32
 524 024e C3000000 		.4byte	0xc3
 525 0252 08       		.byte	0x8
 526 0253 14       		.uleb128 0x14
 527 0254 78070000 		.4byte	.LASF41
 528 0258 09       		.byte	0x9
 529 0259 32       		.byte	0x32
 530 025a C3000000 		.4byte	0xc3
 531 025e 0C       		.byte	0xc
 532 025f 14       		.uleb128 0x14
 533 0260 FB040000 		.4byte	.LASF42
 534 0264 09       		.byte	0x9
 535 0265 32       		.byte	0x32
 536 0266 C3000000 		.4byte	0xc3
 537 026a 10       		.byte	0x10
 538 026b 17       		.uleb128 0x17
 539 026c 5F7800   		.ascii	"_x\000"
 540 026f 09       		.byte	0x9
 541 0270 33       		.byte	0x33
 542 0271 7D020000 		.4byte	0x27d
 543 0275 14       		.byte	0x14
 544 0276 00       		.byte	0
 545 0277 0D       		.uleb128 0xd
 546 0278 04       		.byte	0x4
 547 0279 24020000 		.4byte	0x224
 548 027d 15       		.uleb128 0x15
 549 027e 19020000 		.4byte	0x219
 550 0282 8D020000 		.4byte	0x28d
 551 0286 16       		.uleb128 0x16
 552 0287 F6010000 		.4byte	0x1f6
 553 028b 00       		.byte	0
 554 028c 00       		.byte	0
 555 028d 03       		.uleb128 0x3
 556 028e CF000000 		.4byte	.LASF43
 557 0292 24       		.byte	0x24
 558 0293 09       		.byte	0x9
 559 0294 37       		.byte	0x37
 560 0295 06030000 		.4byte	0x306
 561 0299 14       		.uleb128 0x14
 562 029a EB000000 		.4byte	.LASF44
 563 029e 09       		.byte	0x9
 564 029f 39       		.byte	0x39
ARM GAS  /tmp/ccwKqRxp.s 			page 11


 565 02a0 C3000000 		.4byte	0xc3
 566 02a4 00       		.byte	0
 567 02a5 14       		.uleb128 0x14
 568 02a6 1E0D0000 		.4byte	.LASF45
 569 02aa 09       		.byte	0x9
 570 02ab 3A       		.byte	0x3a
 571 02ac C3000000 		.4byte	0xc3
 572 02b0 04       		.byte	0x4
 573 02b1 14       		.uleb128 0x14
 574 02b2 690C0000 		.4byte	.LASF46
 575 02b6 09       		.byte	0x9
 576 02b7 3B       		.byte	0x3b
 577 02b8 C3000000 		.4byte	0xc3
 578 02bc 08       		.byte	0x8
 579 02bd 14       		.uleb128 0x14
 580 02be E9070000 		.4byte	.LASF47
 581 02c2 09       		.byte	0x9
 582 02c3 3C       		.byte	0x3c
 583 02c4 C3000000 		.4byte	0xc3
 584 02c8 0C       		.byte	0xc
 585 02c9 14       		.uleb128 0x14
 586 02ca 5D030000 		.4byte	.LASF48
 587 02ce 09       		.byte	0x9
 588 02cf 3D       		.byte	0x3d
 589 02d0 C3000000 		.4byte	0xc3
 590 02d4 10       		.byte	0x10
 591 02d5 14       		.uleb128 0x14
 592 02d6 520B0000 		.4byte	.LASF49
 593 02da 09       		.byte	0x9
 594 02db 3E       		.byte	0x3e
 595 02dc C3000000 		.4byte	0xc3
 596 02e0 14       		.byte	0x14
 597 02e1 14       		.uleb128 0x14
 598 02e2 82080000 		.4byte	.LASF50
 599 02e6 09       		.byte	0x9
 600 02e7 3F       		.byte	0x3f
 601 02e8 C3000000 		.4byte	0xc3
 602 02ec 18       		.byte	0x18
 603 02ed 14       		.uleb128 0x14
 604 02ee A9080000 		.4byte	.LASF51
 605 02f2 09       		.byte	0x9
 606 02f3 40       		.byte	0x40
 607 02f4 C3000000 		.4byte	0xc3
 608 02f8 1C       		.byte	0x1c
 609 02f9 14       		.uleb128 0x14
 610 02fa 0E0D0000 		.4byte	.LASF52
 611 02fe 09       		.byte	0x9
 612 02ff 41       		.byte	0x41
 613 0300 C3000000 		.4byte	0xc3
 614 0304 20       		.byte	0x20
 615 0305 00       		.byte	0
 616 0306 18       		.uleb128 0x18
 617 0307 A8020000 		.4byte	.LASF53
 618 030b 0801     		.2byte	0x108
 619 030d 09       		.byte	0x9
 620 030e 4A       		.byte	0x4a
 621 030f 46030000 		.4byte	0x346
ARM GAS  /tmp/ccwKqRxp.s 			page 12


 622 0313 14       		.uleb128 0x14
 623 0314 060D0000 		.4byte	.LASF54
 624 0318 09       		.byte	0x9
 625 0319 4B       		.byte	0x4b
 626 031a 46030000 		.4byte	0x346
 627 031e 00       		.byte	0
 628 031f 14       		.uleb128 0x14
 629 0320 9C090000 		.4byte	.LASF55
 630 0324 09       		.byte	0x9
 631 0325 4C       		.byte	0x4c
 632 0326 46030000 		.4byte	0x346
 633 032a 80       		.byte	0x80
 634 032b 19       		.uleb128 0x19
 635 032c 210B0000 		.4byte	.LASF56
 636 0330 09       		.byte	0x9
 637 0331 4E       		.byte	0x4e
 638 0332 19020000 		.4byte	0x219
 639 0336 0001     		.2byte	0x100
 640 0338 19       		.uleb128 0x19
 641 0339 9F0B0000 		.4byte	.LASF57
 642 033d 09       		.byte	0x9
 643 033e 51       		.byte	0x51
 644 033f 19020000 		.4byte	0x219
 645 0343 0401     		.2byte	0x104
 646 0345 00       		.byte	0
 647 0346 15       		.uleb128 0x15
 648 0347 47000000 		.4byte	0x47
 649 034b 56030000 		.4byte	0x356
 650 034f 16       		.uleb128 0x16
 651 0350 F6010000 		.4byte	0x1f6
 652 0354 1F       		.byte	0x1f
 653 0355 00       		.byte	0
 654 0356 18       		.uleb128 0x18
 655 0357 60080000 		.4byte	.LASF58
 656 035b 9001     		.2byte	0x190
 657 035d 09       		.byte	0x9
 658 035e 5D       		.byte	0x5d
 659 035f 94030000 		.4byte	0x394
 660 0363 14       		.uleb128 0x14
 661 0364 A10A0000 		.4byte	.LASF39
 662 0368 09       		.byte	0x9
 663 0369 5E       		.byte	0x5e
 664 036a 94030000 		.4byte	0x394
 665 036e 00       		.byte	0
 666 036f 14       		.uleb128 0x14
 667 0370 7D0B0000 		.4byte	.LASF59
 668 0374 09       		.byte	0x9
 669 0375 5F       		.byte	0x5f
 670 0376 C3000000 		.4byte	0xc3
 671 037a 04       		.byte	0x4
 672 037b 14       		.uleb128 0x14
 673 037c 6F040000 		.4byte	.LASF60
 674 0380 09       		.byte	0x9
 675 0381 61       		.byte	0x61
 676 0382 9A030000 		.4byte	0x39a
 677 0386 08       		.byte	0x8
 678 0387 14       		.uleb128 0x14
ARM GAS  /tmp/ccwKqRxp.s 			page 13


 679 0388 A8020000 		.4byte	.LASF53
 680 038c 09       		.byte	0x9
 681 038d 62       		.byte	0x62
 682 038e 06030000 		.4byte	0x306
 683 0392 88       		.byte	0x88
 684 0393 00       		.byte	0
 685 0394 0D       		.uleb128 0xd
 686 0395 04       		.byte	0x4
 687 0396 56030000 		.4byte	0x356
 688 039a 15       		.uleb128 0x15
 689 039b AA030000 		.4byte	0x3aa
 690 039f AA030000 		.4byte	0x3aa
 691 03a3 16       		.uleb128 0x16
 692 03a4 F6010000 		.4byte	0x1f6
 693 03a8 1F       		.byte	0x1f
 694 03a9 00       		.byte	0
 695 03aa 0D       		.uleb128 0xd
 696 03ab 04       		.byte	0x4
 697 03ac B0030000 		.4byte	0x3b0
 698 03b0 1A       		.uleb128 0x1a
 699 03b1 03       		.uleb128 0x3
 700 03b2 8A0B0000 		.4byte	.LASF61
 701 03b6 08       		.byte	0x8
 702 03b7 09       		.byte	0x9
 703 03b8 75       		.byte	0x75
 704 03b9 D6030000 		.4byte	0x3d6
 705 03bd 14       		.uleb128 0x14
 706 03be F3090000 		.4byte	.LASF62
 707 03c2 09       		.byte	0x9
 708 03c3 76       		.byte	0x76
 709 03c4 D6030000 		.4byte	0x3d6
 710 03c8 00       		.byte	0
 711 03c9 14       		.uleb128 0x14
 712 03ca 0D010000 		.4byte	.LASF63
 713 03ce 09       		.byte	0x9
 714 03cf 77       		.byte	0x77
 715 03d0 C3000000 		.4byte	0xc3
 716 03d4 04       		.byte	0x4
 717 03d5 00       		.byte	0
 718 03d6 0D       		.uleb128 0xd
 719 03d7 04       		.byte	0x4
 720 03d8 66000000 		.4byte	0x66
 721 03dc 03       		.uleb128 0x3
 722 03dd 9D050000 		.4byte	.LASF64
 723 03e1 68       		.byte	0x68
 724 03e2 09       		.byte	0x9
 725 03e3 B5       		.byte	0xb5
 726 03e4 06050000 		.4byte	0x506
 727 03e8 17       		.uleb128 0x17
 728 03e9 5F7000   		.ascii	"_p\000"
 729 03ec 09       		.byte	0x9
 730 03ed B6       		.byte	0xb6
 731 03ee D6030000 		.4byte	0x3d6
 732 03f2 00       		.byte	0
 733 03f3 17       		.uleb128 0x17
 734 03f4 5F7200   		.ascii	"_r\000"
 735 03f7 09       		.byte	0x9
ARM GAS  /tmp/ccwKqRxp.s 			page 14


 736 03f8 B7       		.byte	0xb7
 737 03f9 C3000000 		.4byte	0xc3
 738 03fd 04       		.byte	0x4
 739 03fe 17       		.uleb128 0x17
 740 03ff 5F7700   		.ascii	"_w\000"
 741 0402 09       		.byte	0x9
 742 0403 B8       		.byte	0xb8
 743 0404 C3000000 		.4byte	0xc3
 744 0408 08       		.byte	0x8
 745 0409 14       		.uleb128 0x14
 746 040a 3F080000 		.4byte	.LASF65
 747 040e 09       		.byte	0x9
 748 040f B9       		.byte	0xb9
 749 0410 6D000000 		.4byte	0x6d
 750 0414 0C       		.byte	0xc
 751 0415 14       		.uleb128 0x14
 752 0416 A2020000 		.4byte	.LASF66
 753 041a 09       		.byte	0x9
 754 041b BA       		.byte	0xba
 755 041c 6D000000 		.4byte	0x6d
 756 0420 0E       		.byte	0xe
 757 0421 17       		.uleb128 0x17
 758 0422 5F626600 		.ascii	"_bf\000"
 759 0426 09       		.byte	0x9
 760 0427 BB       		.byte	0xbb
 761 0428 B1030000 		.4byte	0x3b1
 762 042c 10       		.byte	0x10
 763 042d 14       		.uleb128 0x14
 764 042e 680B0000 		.4byte	.LASF67
 765 0432 09       		.byte	0x9
 766 0433 BC       		.byte	0xbc
 767 0434 C3000000 		.4byte	0xc3
 768 0438 18       		.byte	0x18
 769 0439 14       		.uleb128 0x14
 770 043a EC040000 		.4byte	.LASF68
 771 043e 09       		.byte	0x9
 772 043f C3       		.byte	0xc3
 773 0440 47000000 		.4byte	0x47
 774 0444 1C       		.byte	0x1c
 775 0445 14       		.uleb128 0x14
 776 0446 55000000 		.4byte	.LASF69
 777 044a 09       		.byte	0x9
 778 044b C5       		.byte	0xc5
 779 044c A8070000 		.4byte	0x7a8
 780 0450 20       		.byte	0x20
 781 0451 14       		.uleb128 0x14
 782 0452 83000000 		.4byte	.LASF70
 783 0456 09       		.byte	0x9
 784 0457 C7       		.byte	0xc7
 785 0458 CC070000 		.4byte	0x7cc
 786 045c 24       		.byte	0x24
 787 045d 14       		.uleb128 0x14
 788 045e 00090000 		.4byte	.LASF71
 789 0462 09       		.byte	0x9
 790 0463 CA       		.byte	0xca
 791 0464 F0070000 		.4byte	0x7f0
 792 0468 28       		.byte	0x28
ARM GAS  /tmp/ccwKqRxp.s 			page 15


 793 0469 14       		.uleb128 0x14
 794 046a 74040000 		.4byte	.LASF72
 795 046e 09       		.byte	0x9
 796 046f CB       		.byte	0xcb
 797 0470 0A080000 		.4byte	0x80a
 798 0474 2C       		.byte	0x2c
 799 0475 17       		.uleb128 0x17
 800 0476 5F756200 		.ascii	"_ub\000"
 801 047a 09       		.byte	0x9
 802 047b CE       		.byte	0xce
 803 047c B1030000 		.4byte	0x3b1
 804 0480 30       		.byte	0x30
 805 0481 17       		.uleb128 0x17
 806 0482 5F757000 		.ascii	"_up\000"
 807 0486 09       		.byte	0x9
 808 0487 CF       		.byte	0xcf
 809 0488 D6030000 		.4byte	0x3d6
 810 048c 38       		.byte	0x38
 811 048d 17       		.uleb128 0x17
 812 048e 5F757200 		.ascii	"_ur\000"
 813 0492 09       		.byte	0x9
 814 0493 D0       		.byte	0xd0
 815 0494 C3000000 		.4byte	0xc3
 816 0498 3C       		.byte	0x3c
 817 0499 14       		.uleb128 0x14
 818 049a 07080000 		.4byte	.LASF73
 819 049e 09       		.byte	0x9
 820 049f D3       		.byte	0xd3
 821 04a0 10080000 		.4byte	0x810
 822 04a4 40       		.byte	0x40
 823 04a5 14       		.uleb128 0x14
 824 04a6 E5000000 		.4byte	.LASF74
 825 04aa 09       		.byte	0x9
 826 04ab D4       		.byte	0xd4
 827 04ac 20080000 		.4byte	0x820
 828 04b0 43       		.byte	0x43
 829 04b1 17       		.uleb128 0x17
 830 04b2 5F6C6200 		.ascii	"_lb\000"
 831 04b6 09       		.byte	0x9
 832 04b7 D7       		.byte	0xd7
 833 04b8 B1030000 		.4byte	0x3b1
 834 04bc 44       		.byte	0x44
 835 04bd 14       		.uleb128 0x14
 836 04be EA090000 		.4byte	.LASF75
 837 04c2 09       		.byte	0x9
 838 04c3 DA       		.byte	0xda
 839 04c4 C3000000 		.4byte	0xc3
 840 04c8 4C       		.byte	0x4c
 841 04c9 14       		.uleb128 0x14
 842 04ca 28050000 		.4byte	.LASF76
 843 04ce 09       		.byte	0x9
 844 04cf DB       		.byte	0xdb
 845 04d0 80010000 		.4byte	0x180
 846 04d4 50       		.byte	0x50
 847 04d5 14       		.uleb128 0x14
 848 04d6 A70A0000 		.4byte	.LASF77
 849 04da 09       		.byte	0x9
ARM GAS  /tmp/ccwKqRxp.s 			page 16


 850 04db DE       		.byte	0xde
 851 04dc 24050000 		.4byte	0x524
 852 04e0 54       		.byte	0x54
 853 04e1 14       		.uleb128 0x14
 854 04e2 19010000 		.4byte	.LASF78
 855 04e6 09       		.byte	0x9
 856 04e7 E2       		.byte	0xe2
 857 04e8 08020000 		.4byte	0x208
 858 04ec 58       		.byte	0x58
 859 04ed 14       		.uleb128 0x14
 860 04ee 23080000 		.4byte	.LASF79
 861 04f2 09       		.byte	0x9
 862 04f3 E4       		.byte	0xe4
 863 04f4 FD010000 		.4byte	0x1fd
 864 04f8 5C       		.byte	0x5c
 865 04f9 14       		.uleb128 0x14
 866 04fa B0050000 		.4byte	.LASF80
 867 04fe 09       		.byte	0x9
 868 04ff E5       		.byte	0xe5
 869 0500 C3000000 		.4byte	0xc3
 870 0504 64       		.byte	0x64
 871 0505 00       		.byte	0
 872 0506 0B       		.uleb128 0xb
 873 0507 C3000000 		.4byte	0xc3
 874 050b 24050000 		.4byte	0x524
 875 050f 0C       		.uleb128 0xc
 876 0510 24050000 		.4byte	0x524
 877 0514 0C       		.uleb128 0xc
 878 0515 47000000 		.4byte	0x47
 879 0519 0C       		.uleb128 0xc
 880 051a 13020000 		.4byte	0x213
 881 051e 0C       		.uleb128 0xc
 882 051f C3000000 		.4byte	0xc3
 883 0523 00       		.byte	0
 884 0524 0D       		.uleb128 0xd
 885 0525 04       		.byte	0x4
 886 0526 2F050000 		.4byte	0x52f
 887 052a 08       		.uleb128 0x8
 888 052b 24050000 		.4byte	0x524
 889 052f 1B       		.uleb128 0x1b
 890 0530 10040000 		.4byte	.LASF81
 891 0534 2804     		.2byte	0x428
 892 0536 09       		.byte	0x9
 893 0537 3902     		.2byte	0x239
 894 0539 A8070000 		.4byte	0x7a8
 895 053d 1C       		.uleb128 0x1c
 896 053e F0       		.byte	0xf0
 897 053f 09       		.byte	0x9
 898 0540 5802     		.2byte	0x258
 899 0542 84060000 		.4byte	0x684
 900 0546 1D       		.uleb128 0x1d
 901 0547 D0       		.byte	0xd0
 902 0548 09       		.byte	0x9
 903 0549 5A02     		.2byte	0x25a
 904 054b 47060000 		.4byte	0x647
 905 054f 1E       		.uleb128 0x1e
 906 0550 92030000 		.4byte	.LASF82
ARM GAS  /tmp/ccwKqRxp.s 			page 17


 907 0554 09       		.byte	0x9
 908 0555 5B02     		.2byte	0x25b
 909 0557 CA000000 		.4byte	0xca
 910 055b 00       		.byte	0
 911 055c 1E       		.uleb128 0x1e
 912 055d 170A0000 		.4byte	.LASF83
 913 0561 09       		.byte	0x9
 914 0562 5C02     		.2byte	0x25c
 915 0564 13020000 		.4byte	0x213
 916 0568 04       		.byte	0x4
 917 0569 1E       		.uleb128 0x1e
 918 056a 92000000 		.4byte	.LASF84
 919 056e 09       		.byte	0x9
 920 056f 5D02     		.2byte	0x25d
 921 0571 C2080000 		.4byte	0x8c2
 922 0575 08       		.byte	0x8
 923 0576 1E       		.uleb128 0x1e
 924 0577 0C030000 		.4byte	.LASF85
 925 057b 09       		.byte	0x9
 926 057c 5E02     		.2byte	0x25e
 927 057e 8D020000 		.4byte	0x28d
 928 0582 24       		.byte	0x24
 929 0583 1E       		.uleb128 0x1e
 930 0584 40070000 		.4byte	.LASF86
 931 0588 09       		.byte	0x9
 932 0589 5F02     		.2byte	0x25f
 933 058b C3000000 		.4byte	0xc3
 934 058f 48       		.byte	0x48
 935 0590 1E       		.uleb128 0x1e
 936 0591 34080000 		.4byte	.LASF87
 937 0595 09       		.byte	0x9
 938 0596 6002     		.2byte	0x260
 939 0598 BC000000 		.4byte	0xbc
 940 059c 50       		.byte	0x50
 941 059d 1E       		.uleb128 0x1e
 942 059e 800A0000 		.4byte	.LASF88
 943 05a2 09       		.byte	0x9
 944 05a3 6102     		.2byte	0x261
 945 05a5 7D080000 		.4byte	0x87d
 946 05a9 58       		.byte	0x58
 947 05aa 1E       		.uleb128 0x1e
 948 05ab EA0A0000 		.4byte	.LASF89
 949 05af 09       		.byte	0x9
 950 05b0 6202     		.2byte	0x262
 951 05b2 FD010000 		.4byte	0x1fd
 952 05b6 68       		.byte	0x68
 953 05b7 1E       		.uleb128 0x1e
 954 05b8 53090000 		.4byte	.LASF90
 955 05bc 09       		.byte	0x9
 956 05bd 6302     		.2byte	0x263
 957 05bf FD010000 		.4byte	0x1fd
 958 05c3 70       		.byte	0x70
 959 05c4 1E       		.uleb128 0x1e
 960 05c5 15080000 		.4byte	.LASF91
 961 05c9 09       		.byte	0x9
 962 05ca 6402     		.2byte	0x264
 963 05cc FD010000 		.4byte	0x1fd
ARM GAS  /tmp/ccwKqRxp.s 			page 18


 964 05d0 78       		.byte	0x78
 965 05d1 1E       		.uleb128 0x1e
 966 05d2 F4000000 		.4byte	.LASF92
 967 05d6 09       		.byte	0x9
 968 05d7 6502     		.2byte	0x265
 969 05d9 D2080000 		.4byte	0x8d2
 970 05dd 80       		.byte	0x80
 971 05de 1E       		.uleb128 0x1e
 972 05df 40060000 		.4byte	.LASF93
 973 05e3 09       		.byte	0x9
 974 05e4 6602     		.2byte	0x266
 975 05e6 E2080000 		.4byte	0x8e2
 976 05ea 88       		.byte	0x88
 977 05eb 1E       		.uleb128 0x1e
 978 05ec 3E0D0000 		.4byte	.LASF94
 979 05f0 09       		.byte	0x9
 980 05f1 6702     		.2byte	0x267
 981 05f3 C3000000 		.4byte	0xc3
 982 05f7 A0       		.byte	0xa0
 983 05f8 1E       		.uleb128 0x1e
 984 05f9 CD020000 		.4byte	.LASF95
 985 05fd 09       		.byte	0x9
 986 05fe 6802     		.2byte	0x268
 987 0600 FD010000 		.4byte	0x1fd
 988 0604 A4       		.byte	0xa4
 989 0605 1E       		.uleb128 0x1e
 990 0606 2F0A0000 		.4byte	.LASF96
 991 060a 09       		.byte	0x9
 992 060b 6902     		.2byte	0x269
 993 060d FD010000 		.4byte	0x1fd
 994 0611 AC       		.byte	0xac
 995 0612 1E       		.uleb128 0x1e
 996 0613 C80C0000 		.4byte	.LASF97
 997 0617 09       		.byte	0x9
 998 0618 6A02     		.2byte	0x26a
 999 061a FD010000 		.4byte	0x1fd
 1000 061e B4       		.byte	0xb4
 1001 061f 1E       		.uleb128 0x1e
 1002 0620 DA070000 		.4byte	.LASF98
 1003 0624 09       		.byte	0x9
 1004 0625 6B02     		.2byte	0x26b
 1005 0627 FD010000 		.4byte	0x1fd
 1006 062b BC       		.byte	0xbc
 1007 062c 1E       		.uleb128 0x1e
 1008 062d D4000000 		.4byte	.LASF99
 1009 0631 09       		.byte	0x9
 1010 0632 6C02     		.2byte	0x26c
 1011 0634 FD010000 		.4byte	0x1fd
 1012 0638 C4       		.byte	0xc4
 1013 0639 1E       		.uleb128 0x1e
 1014 063a B3070000 		.4byte	.LASF100
 1015 063e 09       		.byte	0x9
 1016 063f 6D02     		.2byte	0x26d
 1017 0641 C3000000 		.4byte	0xc3
 1018 0645 CC       		.byte	0xcc
 1019 0646 00       		.byte	0
 1020 0647 1D       		.uleb128 0x1d
ARM GAS  /tmp/ccwKqRxp.s 			page 19


 1021 0648 F0       		.byte	0xf0
 1022 0649 09       		.byte	0x9
 1023 064a 7302     		.2byte	0x273
 1024 064c 6B060000 		.4byte	0x66b
 1025 0650 1E       		.uleb128 0x1e
 1026 0651 BF0B0000 		.4byte	.LASF101
 1027 0655 09       		.byte	0x9
 1028 0656 7502     		.2byte	0x275
 1029 0658 F2080000 		.4byte	0x8f2
 1030 065c 00       		.byte	0
 1031 065d 1E       		.uleb128 0x1e
 1032 065e 37070000 		.4byte	.LASF102
 1033 0662 09       		.byte	0x9
 1034 0663 7602     		.2byte	0x276
 1035 0665 02090000 		.4byte	0x902
 1036 0669 78       		.byte	0x78
 1037 066a 00       		.byte	0
 1038 066b 1F       		.uleb128 0x1f
 1039 066c 10040000 		.4byte	.LASF81
 1040 0670 09       		.byte	0x9
 1041 0671 6E02     		.2byte	0x26e
 1042 0673 46050000 		.4byte	0x546
 1043 0677 1F       		.uleb128 0x1f
 1044 0678 C7000000 		.4byte	.LASF103
 1045 067c 09       		.byte	0x9
 1046 067d 7702     		.2byte	0x277
 1047 067f 47060000 		.4byte	0x647
 1048 0683 00       		.byte	0
 1049 0684 1E       		.uleb128 0x1e
 1050 0685 0C060000 		.4byte	.LASF104
 1051 0689 09       		.byte	0x9
 1052 068a 3B02     		.2byte	0x23b
 1053 068c C3000000 		.4byte	0xc3
 1054 0690 00       		.byte	0
 1055 0691 1E       		.uleb128 0x1e
 1056 0692 9F040000 		.4byte	.LASF105
 1057 0696 09       		.byte	0x9
 1058 0697 4002     		.2byte	0x240
 1059 0699 77080000 		.4byte	0x877
 1060 069d 04       		.byte	0x4
 1061 069e 1E       		.uleb128 0x1e
 1062 069f C7090000 		.4byte	.LASF106
 1063 06a3 09       		.byte	0x9
 1064 06a4 4002     		.2byte	0x240
 1065 06a6 77080000 		.4byte	0x877
 1066 06aa 08       		.byte	0x8
 1067 06ab 1E       		.uleb128 0x1e
 1068 06ac 0D080000 		.4byte	.LASF107
 1069 06b0 09       		.byte	0x9
 1070 06b1 4002     		.2byte	0x240
 1071 06b3 77080000 		.4byte	0x877
 1072 06b7 0C       		.byte	0xc
 1073 06b8 1E       		.uleb128 0x1e
 1074 06b9 780B0000 		.4byte	.LASF108
 1075 06bd 09       		.byte	0x9
 1076 06be 4202     		.2byte	0x242
 1077 06c0 C3000000 		.4byte	0xc3
ARM GAS  /tmp/ccwKqRxp.s 			page 20


 1078 06c4 10       		.byte	0x10
 1079 06c5 1E       		.uleb128 0x1e
 1080 06c6 DE060000 		.4byte	.LASF109
 1081 06ca 09       		.byte	0x9
 1082 06cb 4302     		.2byte	0x243
 1083 06cd 12090000 		.4byte	0x912
 1084 06d1 14       		.byte	0x14
 1085 06d2 1E       		.uleb128 0x1e
 1086 06d3 F7030000 		.4byte	.LASF110
 1087 06d7 09       		.byte	0x9
 1088 06d8 4602     		.2byte	0x246
 1089 06da C3000000 		.4byte	0xc3
 1090 06de 30       		.byte	0x30
 1091 06df 1E       		.uleb128 0x1e
 1092 06e0 F30B0000 		.4byte	.LASF111
 1093 06e4 09       		.byte	0x9
 1094 06e5 4702     		.2byte	0x247
 1095 06e7 27090000 		.4byte	0x927
 1096 06eb 34       		.byte	0x34
 1097 06ec 1E       		.uleb128 0x1e
 1098 06ed A5050000 		.4byte	.LASF112
 1099 06f1 09       		.byte	0x9
 1100 06f2 4902     		.2byte	0x249
 1101 06f4 C3000000 		.4byte	0xc3
 1102 06f8 38       		.byte	0x38
 1103 06f9 1E       		.uleb128 0x1e
 1104 06fa AD060000 		.4byte	.LASF113
 1105 06fe 09       		.byte	0x9
 1106 06ff 4B02     		.2byte	0x24b
 1107 0701 38090000 		.4byte	0x938
 1108 0705 3C       		.byte	0x3c
 1109 0706 1E       		.uleb128 0x1e
 1110 0707 270C0000 		.4byte	.LASF114
 1111 070b 09       		.byte	0x9
 1112 070c 4E02     		.2byte	0x24e
 1113 070e 77020000 		.4byte	0x277
 1114 0712 40       		.byte	0x40
 1115 0713 1E       		.uleb128 0x1e
 1116 0714 F0020000 		.4byte	.LASF115
 1117 0718 09       		.byte	0x9
 1118 0719 4F02     		.2byte	0x24f
 1119 071b C3000000 		.4byte	0xc3
 1120 071f 44       		.byte	0x44
 1121 0720 1E       		.uleb128 0x1e
 1122 0721 71050000 		.4byte	.LASF116
 1123 0725 09       		.byte	0x9
 1124 0726 5002     		.2byte	0x250
 1125 0728 77020000 		.4byte	0x277
 1126 072c 48       		.byte	0x48
 1127 072d 1E       		.uleb128 0x1e
 1128 072e 4F070000 		.4byte	.LASF117
 1129 0732 09       		.byte	0x9
 1130 0733 5102     		.2byte	0x251
 1131 0735 3E090000 		.4byte	0x93e
 1132 0739 4C       		.byte	0x4c
 1133 073a 1E       		.uleb128 0x1e
 1134 073b 9F000000 		.4byte	.LASF118
ARM GAS  /tmp/ccwKqRxp.s 			page 21


 1135 073f 09       		.byte	0x9
 1136 0740 5402     		.2byte	0x254
 1137 0742 C3000000 		.4byte	0xc3
 1138 0746 50       		.byte	0x50
 1139 0747 1E       		.uleb128 0x1e
 1140 0748 30050000 		.4byte	.LASF119
 1141 074c 09       		.byte	0x9
 1142 074d 5502     		.2byte	0x255
 1143 074f 13020000 		.4byte	0x213
 1144 0753 54       		.byte	0x54
 1145 0754 1E       		.uleb128 0x1e
 1146 0755 02080000 		.4byte	.LASF120
 1147 0759 09       		.byte	0x9
 1148 075a 7802     		.2byte	0x278
 1149 075c 3D050000 		.4byte	0x53d
 1150 0760 58       		.byte	0x58
 1151 0761 20       		.uleb128 0x20
 1152 0762 60080000 		.4byte	.LASF58
 1153 0766 09       		.byte	0x9
 1154 0767 7C02     		.2byte	0x27c
 1155 0769 94030000 		.4byte	0x394
 1156 076d 4801     		.2byte	0x148
 1157 076f 20       		.uleb128 0x20
 1158 0770 B7060000 		.4byte	.LASF121
 1159 0774 09       		.byte	0x9
 1160 0775 7D02     		.2byte	0x27d
 1161 0777 56030000 		.4byte	0x356
 1162 077b 4C01     		.2byte	0x14c
 1163 077d 20       		.uleb128 0x20
 1164 077e 15050000 		.4byte	.LASF122
 1165 0782 09       		.byte	0x9
 1166 0783 8102     		.2byte	0x281
 1167 0785 4F090000 		.4byte	0x94f
 1168 0789 DC02     		.2byte	0x2dc
 1169 078b 20       		.uleb128 0x20
 1170 078c 2F070000 		.4byte	.LASF123
 1171 0790 09       		.byte	0x9
 1172 0791 8602     		.2byte	0x286
 1173 0793 3C080000 		.4byte	0x83c
 1174 0797 E002     		.2byte	0x2e0
 1175 0799 20       		.uleb128 0x20
 1176 079a 4A000000 		.4byte	.LASF124
 1177 079e 09       		.byte	0x9
 1178 079f 8702     		.2byte	0x287
 1179 07a1 5B090000 		.4byte	0x95b
 1180 07a5 EC02     		.2byte	0x2ec
 1181 07a7 00       		.byte	0
 1182 07a8 0D       		.uleb128 0xd
 1183 07a9 04       		.byte	0x4
 1184 07aa 06050000 		.4byte	0x506
 1185 07ae 0B       		.uleb128 0xb
 1186 07af C3000000 		.4byte	0xc3
 1187 07b3 CC070000 		.4byte	0x7cc
 1188 07b7 0C       		.uleb128 0xc
 1189 07b8 24050000 		.4byte	0x524
 1190 07bc 0C       		.uleb128 0xc
 1191 07bd 47000000 		.4byte	0x47
ARM GAS  /tmp/ccwKqRxp.s 			page 22


 1192 07c1 0C       		.uleb128 0xc
 1193 07c2 3D010000 		.4byte	0x13d
 1194 07c6 0C       		.uleb128 0xc
 1195 07c7 C3000000 		.4byte	0xc3
 1196 07cb 00       		.byte	0
 1197 07cc 0D       		.uleb128 0xd
 1198 07cd 04       		.byte	0x4
 1199 07ce AE070000 		.4byte	0x7ae
 1200 07d2 0B       		.uleb128 0xb
 1201 07d3 8B010000 		.4byte	0x18b
 1202 07d7 F0070000 		.4byte	0x7f0
 1203 07db 0C       		.uleb128 0xc
 1204 07dc 24050000 		.4byte	0x524
 1205 07e0 0C       		.uleb128 0xc
 1206 07e1 47000000 		.4byte	0x47
 1207 07e5 0C       		.uleb128 0xc
 1208 07e6 8B010000 		.4byte	0x18b
 1209 07ea 0C       		.uleb128 0xc
 1210 07eb C3000000 		.4byte	0xc3
 1211 07ef 00       		.byte	0
 1212 07f0 0D       		.uleb128 0xd
 1213 07f1 04       		.byte	0x4
 1214 07f2 D2070000 		.4byte	0x7d2
 1215 07f6 0B       		.uleb128 0xb
 1216 07f7 C3000000 		.4byte	0xc3
 1217 07fb 0A080000 		.4byte	0x80a
 1218 07ff 0C       		.uleb128 0xc
 1219 0800 24050000 		.4byte	0x524
 1220 0804 0C       		.uleb128 0xc
 1221 0805 47000000 		.4byte	0x47
 1222 0809 00       		.byte	0
 1223 080a 0D       		.uleb128 0xd
 1224 080b 04       		.byte	0x4
 1225 080c F6070000 		.4byte	0x7f6
 1226 0810 15       		.uleb128 0x15
 1227 0811 66000000 		.4byte	0x66
 1228 0815 20080000 		.4byte	0x820
 1229 0819 16       		.uleb128 0x16
 1230 081a F6010000 		.4byte	0x1f6
 1231 081e 02       		.byte	0x2
 1232 081f 00       		.byte	0
 1233 0820 15       		.uleb128 0x15
 1234 0821 66000000 		.4byte	0x66
 1235 0825 30080000 		.4byte	0x830
 1236 0829 16       		.uleb128 0x16
 1237 082a F6010000 		.4byte	0x1f6
 1238 082e 00       		.byte	0
 1239 082f 00       		.byte	0
 1240 0830 10       		.uleb128 0x10
 1241 0831 630A0000 		.4byte	.LASF125
 1242 0835 09       		.byte	0x9
 1243 0836 1F01     		.2byte	0x11f
 1244 0838 DC030000 		.4byte	0x3dc
 1245 083c 21       		.uleb128 0x21
 1246 083d 65070000 		.4byte	.LASF126
 1247 0841 0C       		.byte	0xc
 1248 0842 09       		.byte	0x9
ARM GAS  /tmp/ccwKqRxp.s 			page 23


 1249 0843 2301     		.2byte	0x123
 1250 0845 71080000 		.4byte	0x871
 1251 0849 1E       		.uleb128 0x1e
 1252 084a A10A0000 		.4byte	.LASF39
 1253 084e 09       		.byte	0x9
 1254 084f 2501     		.2byte	0x125
 1255 0851 71080000 		.4byte	0x871
 1256 0855 00       		.byte	0
 1257 0856 1E       		.uleb128 0x1e
 1258 0857 15070000 		.4byte	.LASF127
 1259 085b 09       		.byte	0x9
 1260 085c 2601     		.2byte	0x126
 1261 085e C3000000 		.4byte	0xc3
 1262 0862 04       		.byte	0x4
 1263 0863 1E       		.uleb128 0x1e
 1264 0864 59070000 		.4byte	.LASF128
 1265 0868 09       		.byte	0x9
 1266 0869 2701     		.2byte	0x127
 1267 086b 77080000 		.4byte	0x877
 1268 086f 08       		.byte	0x8
 1269 0870 00       		.byte	0
 1270 0871 0D       		.uleb128 0xd
 1271 0872 04       		.byte	0x4
 1272 0873 3C080000 		.4byte	0x83c
 1273 0877 0D       		.uleb128 0xd
 1274 0878 04       		.byte	0x4
 1275 0879 30080000 		.4byte	0x830
 1276 087d 21       		.uleb128 0x21
 1277 087e BF090000 		.4byte	.LASF129
 1278 0882 0E       		.byte	0xe
 1279 0883 09       		.byte	0x9
 1280 0884 3F01     		.2byte	0x13f
 1281 0886 B2080000 		.4byte	0x8b2
 1282 088a 1E       		.uleb128 0x1e
 1283 088b EA080000 		.4byte	.LASF130
 1284 088f 09       		.byte	0x9
 1285 0890 4001     		.2byte	0x140
 1286 0892 B2080000 		.4byte	0x8b2
 1287 0896 00       		.byte	0
 1288 0897 1E       		.uleb128 0x1e
 1289 0898 25010000 		.4byte	.LASF131
 1290 089c 09       		.byte	0x9
 1291 089d 4101     		.2byte	0x141
 1292 089f B2080000 		.4byte	0x8b2
 1293 08a3 06       		.byte	0x6
 1294 08a4 1E       		.uleb128 0x1e
 1295 08a5 510C0000 		.4byte	.LASF132
 1296 08a9 09       		.byte	0x9
 1297 08aa 4201     		.2byte	0x142
 1298 08ac 7F000000 		.4byte	0x7f
 1299 08b0 0C       		.byte	0xc
 1300 08b1 00       		.byte	0
 1301 08b2 15       		.uleb128 0x15
 1302 08b3 7F000000 		.4byte	0x7f
 1303 08b7 C2080000 		.4byte	0x8c2
 1304 08bb 16       		.uleb128 0x16
 1305 08bc F6010000 		.4byte	0x1f6
ARM GAS  /tmp/ccwKqRxp.s 			page 24


 1306 08c0 02       		.byte	0x2
 1307 08c1 00       		.byte	0
 1308 08c2 15       		.uleb128 0x15
 1309 08c3 4D010000 		.4byte	0x14d
 1310 08c7 D2080000 		.4byte	0x8d2
 1311 08cb 16       		.uleb128 0x16
 1312 08cc F6010000 		.4byte	0x1f6
 1313 08d0 19       		.byte	0x19
 1314 08d1 00       		.byte	0
 1315 08d2 15       		.uleb128 0x15
 1316 08d3 4D010000 		.4byte	0x14d
 1317 08d7 E2080000 		.4byte	0x8e2
 1318 08db 16       		.uleb128 0x16
 1319 08dc F6010000 		.4byte	0x1f6
 1320 08e0 07       		.byte	0x7
 1321 08e1 00       		.byte	0
 1322 08e2 15       		.uleb128 0x15
 1323 08e3 4D010000 		.4byte	0x14d
 1324 08e7 F2080000 		.4byte	0x8f2
 1325 08eb 16       		.uleb128 0x16
 1326 08ec F6010000 		.4byte	0x1f6
 1327 08f0 17       		.byte	0x17
 1328 08f1 00       		.byte	0
 1329 08f2 15       		.uleb128 0x15
 1330 08f3 D6030000 		.4byte	0x3d6
 1331 08f7 02090000 		.4byte	0x902
 1332 08fb 16       		.uleb128 0x16
 1333 08fc F6010000 		.4byte	0x1f6
 1334 0900 1D       		.byte	0x1d
 1335 0901 00       		.byte	0
 1336 0902 15       		.uleb128 0x15
 1337 0903 CA000000 		.4byte	0xca
 1338 0907 12090000 		.4byte	0x912
 1339 090b 16       		.uleb128 0x16
 1340 090c F6010000 		.4byte	0x1f6
 1341 0910 1D       		.byte	0x1d
 1342 0911 00       		.byte	0
 1343 0912 15       		.uleb128 0x15
 1344 0913 4D010000 		.4byte	0x14d
 1345 0917 22090000 		.4byte	0x922
 1346 091b 16       		.uleb128 0x16
 1347 091c F6010000 		.4byte	0x1f6
 1348 0920 18       		.byte	0x18
 1349 0921 00       		.byte	0
 1350 0922 0F       		.uleb128 0xf
 1351 0923 21000000 		.4byte	.LASF134
 1352 0927 0D       		.uleb128 0xd
 1353 0928 04       		.byte	0x4
 1354 0929 22090000 		.4byte	0x922
 1355 092d 22       		.uleb128 0x22
 1356 092e 38090000 		.4byte	0x938
 1357 0932 0C       		.uleb128 0xc
 1358 0933 24050000 		.4byte	0x524
 1359 0937 00       		.byte	0
 1360 0938 0D       		.uleb128 0xd
 1361 0939 04       		.byte	0x4
 1362 093a 2D090000 		.4byte	0x92d
ARM GAS  /tmp/ccwKqRxp.s 			page 25


 1363 093e 0D       		.uleb128 0xd
 1364 093f 04       		.byte	0x4
 1365 0940 77020000 		.4byte	0x277
 1366 0944 22       		.uleb128 0x22
 1367 0945 4F090000 		.4byte	0x94f
 1368 0949 0C       		.uleb128 0xc
 1369 094a C3000000 		.4byte	0xc3
 1370 094e 00       		.byte	0
 1371 094f 0D       		.uleb128 0xd
 1372 0950 04       		.byte	0x4
 1373 0951 55090000 		.4byte	0x955
 1374 0955 0D       		.uleb128 0xd
 1375 0956 04       		.byte	0x4
 1376 0957 44090000 		.4byte	0x944
 1377 095b 15       		.uleb128 0x15
 1378 095c 30080000 		.4byte	0x830
 1379 0960 6B090000 		.4byte	0x96b
 1380 0964 16       		.uleb128 0x16
 1381 0965 F6010000 		.4byte	0x1f6
 1382 0969 02       		.byte	0x2
 1383 096a 00       		.byte	0
 1384 096b 23       		.uleb128 0x23
 1385 096c E4020000 		.4byte	.LASF136
 1386 0970 09       		.byte	0x9
 1387 0971 FE02     		.2byte	0x2fe
 1388 0973 24050000 		.4byte	0x524
 1389 0977 23       		.uleb128 0x23
 1390 0978 29040000 		.4byte	.LASF137
 1391 097c 09       		.byte	0x9
 1392 097d FF02     		.2byte	0x2ff
 1393 097f 2A050000 		.4byte	0x52a
 1394 0983 15       		.uleb128 0x15
 1395 0984 43010000 		.4byte	0x143
 1396 0988 8E090000 		.4byte	0x98e
 1397 098c 24       		.uleb128 0x24
 1398 098d 00       		.byte	0
 1399 098e 0E       		.uleb128 0xe
 1400 098f 3A0B0000 		.4byte	.LASF138
 1401 0993 0C       		.byte	0xc
 1402 0994 14       		.byte	0x14
 1403 0995 83090000 		.4byte	0x983
 1404 0999 0E       		.uleb128 0xe
 1405 099a B6020000 		.4byte	.LASF139
 1406 099e 0C       		.byte	0xc
 1407 099f 15       		.byte	0x15
 1408 09a0 C3000000 		.4byte	0xc3
 1409 09a4 02       		.uleb128 0x2
 1410 09a5 A6070000 		.4byte	.LASF140
 1411 09a9 0D       		.byte	0xd
 1412 09aa 27       		.byte	0x27
 1413 09ab FC000000 		.4byte	0xfc
 1414 09af 02       		.uleb128 0x2
 1415 09b0 24030000 		.4byte	.LASF141
 1416 09b4 0D       		.byte	0xd
 1417 09b5 28       		.byte	0x28
 1418 09b6 07010000 		.4byte	0x107
 1419 09ba 02       		.uleb128 0x2
ARM GAS  /tmp/ccwKqRxp.s 			page 26


 1420 09bb BE0A0000 		.4byte	.LASF142
 1421 09bf 0D       		.byte	0xd
 1422 09c0 2A       		.byte	0x2a
 1423 09c1 D1000000 		.4byte	0xd1
 1424 09c5 02       		.uleb128 0x2
 1425 09c6 1B030000 		.4byte	.LASF143
 1426 09ca 0D       		.byte	0xd
 1427 09cb 2B       		.byte	0x2b
 1428 09cc D1000000 		.4byte	0xd1
 1429 09d0 02       		.uleb128 0x2
 1430 09d1 B70B0000 		.4byte	.LASF144
 1431 09d5 0D       		.byte	0xd
 1432 09d6 2C       		.byte	0x2c
 1433 09d7 D1000000 		.4byte	0xd1
 1434 09db 02       		.uleb128 0x2
 1435 09dc 5B000000 		.4byte	.LASF145
 1436 09e0 0D       		.byte	0xd
 1437 09e1 2E       		.byte	0x2e
 1438 09e2 FC000000 		.4byte	0xfc
 1439 09e6 02       		.uleb128 0x2
 1440 09e7 A8090000 		.4byte	.LASF146
 1441 09eb 0D       		.byte	0xd
 1442 09ec 2F       		.byte	0x2f
 1443 09ed EC000000 		.4byte	0xec
 1444 09f1 02       		.uleb128 0x2
 1445 09f2 C4030000 		.4byte	.LASF147
 1446 09f6 0D       		.byte	0xd
 1447 09f7 31       		.byte	0x31
 1448 09f8 FC000000 		.4byte	0xfc
 1449 09fc 02       		.uleb128 0x2
 1450 09fd E6040000 		.4byte	.LASF148
 1451 0a01 0D       		.byte	0xd
 1452 0a02 33       		.byte	0x33
 1453 0a03 EC000000 		.4byte	0xec
 1454 0a07 02       		.uleb128 0x2
 1455 0a08 55060000 		.4byte	.LASF149
 1456 0a0c 0D       		.byte	0xd
 1457 0a0d 34       		.byte	0x34
 1458 0a0e FC000000 		.4byte	0xfc
 1459 0a12 02       		.uleb128 0x2
 1460 0a13 94080000 		.4byte	.LASF150
 1461 0a17 0E       		.byte	0xe
 1462 0a18 34       		.byte	0x34
 1463 0a19 1D0A0000 		.4byte	0xa1d
 1464 0a1d 03       		.uleb128 0x3
 1465 0a1e D5050000 		.4byte	.LASF151
 1466 0a22 60       		.byte	0x60
 1467 0a23 0F       		.byte	0xf
 1468 0a24 8E       		.byte	0x8e
 1469 0a25 6A0B0000 		.4byte	0xb6a
 1470 0a29 12       		.uleb128 0x12
 1471 0a2a 04       		.byte	0x4
 1472 0a2b 0F       		.byte	0xf
 1473 0a2c C6       		.byte	0xc6
 1474 0a2d 8B0A0000 		.4byte	0xa8b
 1475 0a31 13       		.uleb128 0x13
 1476 0a32 4A0C0000 		.4byte	.LASF152
ARM GAS  /tmp/ccwKqRxp.s 			page 27


 1477 0a36 0F       		.byte	0xf
 1478 0a37 CD       		.byte	0xcd
 1479 0a38 E6090000 		.4byte	0x9e6
 1480 0a3c 13       		.uleb128 0x13
 1481 0a3d 87020000 		.4byte	.LASF153
 1482 0a41 0F       		.byte	0xf
 1483 0a42 D4       		.byte	0xd4
 1484 0a43 E6090000 		.4byte	0x9e6
 1485 0a47 13       		.uleb128 0x13
 1486 0a48 8F040000 		.4byte	.LASF154
 1487 0a4c 0F       		.byte	0xf
 1488 0a4d DB       		.byte	0xdb
 1489 0a4e 47000000 		.4byte	0x47
 1490 0a52 13       		.uleb128 0x13
 1491 0a53 D0030000 		.4byte	.LASF155
 1492 0a57 0F       		.byte	0xf
 1493 0a58 E2       		.byte	0xe2
 1494 0a59 A8100000 		.4byte	0x10a8
 1495 0a5d 13       		.uleb128 0x13
 1496 0a5e BE080000 		.4byte	.LASF156
 1497 0a62 0F       		.byte	0xf
 1498 0a63 E7       		.byte	0xe7
 1499 0a64 E6090000 		.4byte	0x9e6
 1500 0a68 13       		.uleb128 0x13
 1501 0a69 4B0D0000 		.4byte	.LASF157
 1502 0a6d 0F       		.byte	0xf
 1503 0a6e F0       		.byte	0xf0
 1504 0a6f D3100000 		.4byte	0x10d3
 1505 0a73 13       		.uleb128 0x13
 1506 0a74 F4040000 		.4byte	.LASF158
 1507 0a78 0F       		.byte	0xf
 1508 0a79 F9       		.byte	0xf9
 1509 0a7a 16110000 		.4byte	0x1116
 1510 0a7e 1F       		.uleb128 0x1f
 1511 0a7f B5030000 		.4byte	.LASF159
 1512 0a83 0F       		.byte	0xf
 1513 0a84 0101     		.2byte	0x101
 1514 0a86 F1090000 		.4byte	0x9f1
 1515 0a8a 00       		.byte	0
 1516 0a8b 14       		.uleb128 0x14
 1517 0a8c 010A0000 		.4byte	.LASF160
 1518 0a90 0F       		.byte	0xf
 1519 0a91 8F       		.byte	0x8f
 1520 0a92 9F0B0000 		.4byte	0xb9f
 1521 0a96 00       		.byte	0
 1522 0a97 14       		.uleb128 0x14
 1523 0a98 7C020000 		.4byte	.LASF161
 1524 0a9c 0F       		.byte	0xf
 1525 0a9d 90       		.byte	0x90
 1526 0a9e DB090000 		.4byte	0x9db
 1527 0aa2 08       		.byte	0x8
 1528 0aa3 17       		.uleb128 0x17
 1529 0aa4 63747800 		.ascii	"ctx\000"
 1530 0aa8 0F       		.byte	0xf
 1531 0aa9 91       		.byte	0x91
 1532 0aaa 800E0000 		.4byte	0xe80
 1533 0aae 0C       		.byte	0xc
ARM GAS  /tmp/ccwKqRxp.s 			page 28


 1534 0aaf 14       		.uleb128 0x14
 1535 0ab0 030C0000 		.4byte	.LASF162
 1536 0ab4 0F       		.byte	0xf
 1537 0ab5 93       		.byte	0x93
 1538 0ab6 750B0000 		.4byte	0xb75
 1539 0aba 10       		.byte	0x10
 1540 0abb 14       		.uleb128 0x14
 1541 0abc 3A060000 		.4byte	.LASF163
 1542 0ac0 0F       		.byte	0xf
 1543 0ac1 94       		.byte	0x94
 1544 0ac2 750B0000 		.4byte	0xb75
 1545 0ac6 14       		.byte	0x14
 1546 0ac7 14       		.uleb128 0x14
 1547 0ac8 D70A0000 		.4byte	.LASF164
 1548 0acc 0F       		.byte	0xf
 1549 0acd 9B       		.byte	0x9b
 1550 0ace 3D010000 		.4byte	0x13d
 1551 0ad2 18       		.byte	0x18
 1552 0ad3 14       		.uleb128 0x14
 1553 0ad4 850A0000 		.4byte	.LASF165
 1554 0ad8 0F       		.byte	0xf
 1555 0ad9 A4       		.byte	0xa4
 1556 0ada 1C110000 		.4byte	0x111c
 1557 0ade 1C       		.byte	0x1c
 1558 0adf 14       		.uleb128 0x14
 1559 0ae0 13010000 		.4byte	.LASF166
 1560 0ae4 0F       		.byte	0xf
 1561 0ae5 A9       		.byte	0xa9
 1562 0ae6 C5090000 		.4byte	0x9c5
 1563 0aea 20       		.byte	0x20
 1564 0aeb 14       		.uleb128 0x14
 1565 0aec A6040000 		.4byte	.LASF167
 1566 0af0 0F       		.byte	0xf
 1567 0af1 AD       		.byte	0xad
 1568 0af2 BA090000 		.4byte	0x9ba
 1569 0af6 21       		.byte	0x21
 1570 0af7 14       		.uleb128 0x14
 1571 0af8 AE070000 		.4byte	.LASF168
 1572 0afc 0F       		.byte	0xf
 1573 0afd B2       		.byte	0xb2
 1574 0afe D0090000 		.4byte	0x9d0
 1575 0b02 22       		.byte	0x22
 1576 0b03 25       		.uleb128 0x25
 1577 0b04 7500     		.ascii	"u\000"
 1578 0b06 0F       		.byte	0xf
 1579 0b07 0301     		.2byte	0x103
 1580 0b09 290A0000 		.4byte	0xa29
 1581 0b0d 24       		.byte	0x24
 1582 0b0e 1E       		.uleb128 0x1e
 1583 0b0f 820B0000 		.4byte	.LASF169
 1584 0b13 0F       		.byte	0xf
 1585 0b14 0801     		.2byte	0x108
 1586 0b16 7B0B0000 		.4byte	0xb7b
 1587 0b1a 28       		.byte	0x28
 1588 0b1b 1E       		.uleb128 0x1e
 1589 0b1c 180B0000 		.4byte	.LASF170
 1590 0b20 0F       		.byte	0xf
ARM GAS  /tmp/ccwKqRxp.s 			page 29


 1591 0b21 0E01     		.2byte	0x10e
 1592 0b23 9F0B0000 		.4byte	0xb9f
 1593 0b27 2C       		.byte	0x2c
 1594 0b28 1E       		.uleb128 0x1e
 1595 0b29 070A0000 		.4byte	.LASF171
 1596 0b2d 0F       		.byte	0xf
 1597 0b2e 1401     		.2byte	0x114
 1598 0b30 F1090000 		.4byte	0x9f1
 1599 0b34 34       		.byte	0x34
 1600 0b35 1E       		.uleb128 0x1e
 1601 0b36 E9060000 		.4byte	.LASF172
 1602 0b3a 0F       		.byte	0xf
 1603 0b3b 1B01     		.2byte	0x11b
 1604 0b3d 16110000 		.4byte	0x1116
 1605 0b41 38       		.byte	0x38
 1606 0b42 1E       		.uleb128 0x1e
 1607 0b43 4C060000 		.4byte	.LASF173
 1608 0b47 0F       		.byte	0xf
 1609 0b48 1F01     		.2byte	0x11f
 1610 0b4a DB090000 		.4byte	0x9db
 1611 0b4e 3C       		.byte	0x3c
 1612 0b4f 1E       		.uleb128 0x1e
 1613 0b50 C9040000 		.4byte	.LASF174
 1614 0b54 0F       		.byte	0xf
 1615 0b55 2601     		.2byte	0x126
 1616 0b57 47000000 		.4byte	0x47
 1617 0b5b 40       		.byte	0x40
 1618 0b5c 1E       		.uleb128 0x1e
 1619 0b5d 1F010000 		.4byte	.LASF175
 1620 0b61 0F       		.byte	0xf
 1621 0b62 2C01     		.2byte	0x12c
 1622 0b64 55100000 		.4byte	0x1055
 1623 0b68 48       		.byte	0x48
 1624 0b69 00       		.byte	0
 1625 0b6a 02       		.uleb128 0x2
 1626 0b6b 4D080000 		.4byte	.LASF176
 1627 0b6f 0E       		.byte	0xe
 1628 0b70 39       		.byte	0x39
 1629 0b71 750B0000 		.4byte	0xb75
 1630 0b75 0D       		.uleb128 0xd
 1631 0b76 04       		.byte	0x4
 1632 0b77 120A0000 		.4byte	0xa12
 1633 0b7b 02       		.uleb128 0x2
 1634 0b7c D30B0000 		.4byte	.LASF177
 1635 0b80 0E       		.byte	0xe
 1636 0b81 3E       		.byte	0x3e
 1637 0b82 860B0000 		.4byte	0xb86
 1638 0b86 03       		.uleb128 0x3
 1639 0b87 83060000 		.4byte	.LASF178
 1640 0b8b 04       		.byte	0x4
 1641 0b8c 0F       		.byte	0xf
 1642 0b8d 7C       		.byte	0x7c
 1643 0b8e 9F0B0000 		.4byte	0xb9f
 1644 0b92 14       		.uleb128 0x14
 1645 0b93 190D0000 		.4byte	.LASF179
 1646 0b97 0F       		.byte	0xf
 1647 0b98 7D       		.byte	0x7d
ARM GAS  /tmp/ccwKqRxp.s 			page 30


 1648 0b99 750B0000 		.4byte	0xb75
 1649 0b9d 00       		.byte	0
 1650 0b9e 00       		.byte	0
 1651 0b9f 02       		.uleb128 0x2
 1652 0ba0 37030000 		.4byte	.LASF180
 1653 0ba4 0E       		.byte	0xe
 1654 0ba5 45       		.byte	0x45
 1655 0ba6 AA0B0000 		.4byte	0xbaa
 1656 0baa 03       		.uleb128 0x3
 1657 0bab AE090000 		.4byte	.LASF181
 1658 0baf 08       		.byte	0x8
 1659 0bb0 0F       		.byte	0xf
 1660 0bb1 83       		.byte	0x83
 1661 0bb2 CF0B0000 		.4byte	0xbcf
 1662 0bb6 14       		.uleb128 0x14
 1663 0bb7 190D0000 		.4byte	.LASF179
 1664 0bbb 0F       		.byte	0xf
 1665 0bbc 84       		.byte	0x84
 1666 0bbd 750B0000 		.4byte	0xb75
 1667 0bc1 00       		.byte	0
 1668 0bc2 14       		.uleb128 0x14
 1669 0bc3 D90C0000 		.4byte	.LASF182
 1670 0bc7 0F       		.byte	0xf
 1671 0bc8 85       		.byte	0x85
 1672 0bc9 750B0000 		.4byte	0xb75
 1673 0bcd 04       		.byte	0x4
 1674 0bce 00       		.byte	0
 1675 0bcf 02       		.uleb128 0x2
 1676 0bd0 2D060000 		.4byte	.LASF183
 1677 0bd4 0E       		.byte	0xe
 1678 0bd5 4C       		.byte	0x4c
 1679 0bd6 DA0B0000 		.4byte	0xbda
 1680 0bda 21       		.uleb128 0x21
 1681 0bdb 00050000 		.4byte	.LASF184
 1682 0bdf 1C       		.byte	0x1c
 1683 0be0 0F       		.byte	0xf
 1684 0be1 5E01     		.2byte	0x15e
 1685 0be3 360C0000 		.4byte	0xc36
 1686 0be7 1E       		.uleb128 0x1e
 1687 0be8 010A0000 		.4byte	.LASF160
 1688 0bec 0F       		.byte	0xf
 1689 0bed 5F01     		.2byte	0x15f
 1690 0bef 9F0B0000 		.4byte	0xb9f
 1691 0bf3 00       		.byte	0
 1692 0bf4 1E       		.uleb128 0x1e
 1693 0bf5 7C020000 		.4byte	.LASF161
 1694 0bf9 0F       		.byte	0xf
 1695 0bfa 6001     		.2byte	0x160
 1696 0bfc DB090000 		.4byte	0x9db
 1697 0c00 08       		.byte	0x8
 1698 0c01 25       		.uleb128 0x25
 1699 0c02 63747800 		.ascii	"ctx\000"
 1700 0c06 0F       		.byte	0xf
 1701 0c07 6201     		.2byte	0x162
 1702 0c09 800E0000 		.4byte	0xe80
 1703 0c0d 0C       		.byte	0xc
 1704 0c0e 1E       		.uleb128 0x1e
ARM GAS  /tmp/ccwKqRxp.s 			page 31


 1705 0c0f 030C0000 		.4byte	.LASF162
 1706 0c13 0F       		.byte	0xf
 1707 0c14 6501     		.2byte	0x165
 1708 0c16 750B0000 		.4byte	0xb75
 1709 0c1a 10       		.byte	0x10
 1710 0c1b 1E       		.uleb128 0x1e
 1711 0c1c 3A060000 		.4byte	.LASF163
 1712 0c20 0F       		.byte	0xf
 1713 0c21 6601     		.2byte	0x166
 1714 0c23 750B0000 		.4byte	0xb75
 1715 0c27 14       		.byte	0x14
 1716 0c28 1E       		.uleb128 0x1e
 1717 0c29 2C080000 		.4byte	.LASF185
 1718 0c2d 0F       		.byte	0xf
 1719 0c2e 6901     		.2byte	0x169
 1720 0c30 750B0000 		.4byte	0xb75
 1721 0c34 18       		.byte	0x18
 1722 0c35 00       		.byte	0
 1723 0c36 02       		.uleb128 0x2
 1724 0c37 A7000000 		.4byte	.LASF186
 1725 0c3b 0E       		.byte	0xe
 1726 0c3c 51       		.byte	0x51
 1727 0c3d 410C0000 		.4byte	0xc41
 1728 0c41 0D       		.uleb128 0xd
 1729 0c42 04       		.byte	0x4
 1730 0c43 470C0000 		.4byte	0xc47
 1731 0c47 22       		.uleb128 0x22
 1732 0c48 520C0000 		.4byte	0xc52
 1733 0c4c 0C       		.uleb128 0xc
 1734 0c4d 47000000 		.4byte	0x47
 1735 0c51 00       		.byte	0
 1736 0c52 02       		.uleb128 0x2
 1737 0c53 1D060000 		.4byte	.LASF187
 1738 0c57 0E       		.byte	0xe
 1739 0c58 56       		.byte	0x56
 1740 0c59 5D0C0000 		.4byte	0xc5d
 1741 0c5d 21       		.uleb128 0x21
 1742 0c5e 2F090000 		.4byte	.LASF188
 1743 0c62 14       		.byte	0x14
 1744 0c63 0F       		.byte	0xf
 1745 0c64 3901     		.2byte	0x139
 1746 0c66 AC0C0000 		.4byte	0xcac
 1747 0c6a 1E       		.uleb128 0x1e
 1748 0c6b 190D0000 		.4byte	.LASF179
 1749 0c6f 0F       		.byte	0xf
 1750 0c70 3A01     		.2byte	0x13a
 1751 0c72 22110000 		.4byte	0x1122
 1752 0c76 00       		.byte	0
 1753 0c77 1E       		.uleb128 0x1e
 1754 0c78 D90C0000 		.4byte	.LASF182
 1755 0c7c 0F       		.byte	0xf
 1756 0c7d 3B01     		.2byte	0x13b
 1757 0c7f 22110000 		.4byte	0x1122
 1758 0c83 04       		.byte	0x4
 1759 0c84 1E       		.uleb128 0x1e
 1760 0c85 CF090000 		.4byte	.LASF189
 1761 0c89 0F       		.byte	0xf
ARM GAS  /tmp/ccwKqRxp.s 			page 32


 1762 0c8a 3C01     		.2byte	0x13c
 1763 0c8c 900D0000 		.4byte	0xd90
 1764 0c90 08       		.byte	0x8
 1765 0c91 1E       		.uleb128 0x1e
 1766 0c92 0A0B0000 		.4byte	.LASF190
 1767 0c96 0F       		.byte	0xf
 1768 0c97 3D01     		.2byte	0x13d
 1769 0c99 360C0000 		.4byte	0xc36
 1770 0c9d 0C       		.byte	0xc
 1771 0c9e 25       		.uleb128 0x25
 1772 0c9f 70617200 		.ascii	"par\000"
 1773 0ca3 0F       		.byte	0xf
 1774 0ca4 3F01     		.2byte	0x13f
 1775 0ca6 47000000 		.4byte	0x47
 1776 0caa 10       		.byte	0x10
 1777 0cab 00       		.byte	0
 1778 0cac 02       		.uleb128 0x2
 1779 0cad E4050000 		.4byte	.LASF191
 1780 0cb1 0E       		.byte	0xe
 1781 0cb2 5B       		.byte	0x5b
 1782 0cb3 B70C0000 		.4byte	0xcb7
 1783 0cb7 21       		.uleb128 0x21
 1784 0cb8 B0000000 		.4byte	.LASF192
 1785 0cbc 10       		.byte	0x10
 1786 0cbd 0F       		.byte	0xf
 1787 0cbe 4901     		.2byte	0x149
 1788 0cc0 F90C0000 		.4byte	0xcf9
 1789 0cc4 1E       		.uleb128 0x1e
 1790 0cc5 190D0000 		.4byte	.LASF179
 1791 0cc9 0F       		.byte	0xf
 1792 0cca 4A01     		.2byte	0x14a
 1793 0ccc 22110000 		.4byte	0x1122
 1794 0cd0 00       		.byte	0
 1795 0cd1 1E       		.uleb128 0x1e
 1796 0cd2 D90C0000 		.4byte	.LASF182
 1797 0cd6 0F       		.byte	0xf
 1798 0cd7 4C01     		.2byte	0x14c
 1799 0cd9 22110000 		.4byte	0x1122
 1800 0cdd 04       		.byte	0x4
 1801 0cde 1E       		.uleb128 0x1e
 1802 0cdf CF090000 		.4byte	.LASF189
 1803 0ce3 0F       		.byte	0xf
 1804 0ce4 4E01     		.2byte	0x14e
 1805 0ce6 900D0000 		.4byte	0xd90
 1806 0cea 08       		.byte	0x8
 1807 0ceb 1E       		.uleb128 0x1e
 1808 0cec E4030000 		.4byte	.LASF193
 1809 0cf0 0F       		.byte	0xf
 1810 0cf1 5601     		.2byte	0x156
 1811 0cf3 850D0000 		.4byte	0xd85
 1812 0cf7 0C       		.byte	0xc
 1813 0cf8 00       		.byte	0
 1814 0cf9 02       		.uleb128 0x2
 1815 0cfa 3C040000 		.4byte	.LASF194
 1816 0cfe 0E       		.byte	0xe
 1817 0cff 60       		.byte	0x60
 1818 0d00 040D0000 		.4byte	0xd04
ARM GAS  /tmp/ccwKqRxp.s 			page 33


 1819 0d04 21       		.uleb128 0x21
 1820 0d05 2A0B0000 		.4byte	.LASF195
 1821 0d09 04       		.byte	0x4
 1822 0d0a 0F       		.byte	0xf
 1823 0d0b 7001     		.2byte	0x170
 1824 0d0d 1F0D0000 		.4byte	0xd1f
 1825 0d11 1E       		.uleb128 0x1e
 1826 0d12 ED030000 		.4byte	.LASF196
 1827 0d16 0F       		.byte	0xf
 1828 0d17 7801     		.2byte	0x178
 1829 0d19 48010000 		.4byte	0x148
 1830 0d1d 00       		.byte	0
 1831 0d1e 00       		.byte	0
 1832 0d1f 02       		.uleb128 0x2
 1833 0d20 730C0000 		.4byte	.LASF197
 1834 0d24 0E       		.byte	0xe
 1835 0d25 65       		.byte	0x65
 1836 0d26 2A0D0000 		.4byte	0xd2a
 1837 0d2a 21       		.uleb128 0x21
 1838 0d2b E90B0000 		.4byte	.LASF198
 1839 0d2f D0       		.byte	0xd0
 1840 0d30 0F       		.byte	0xf
 1841 0d31 9001     		.2byte	0x190
 1842 0d33 850D0000 		.4byte	0xd85
 1843 0d37 1E       		.uleb128 0x1e
 1844 0d38 B80A0000 		.4byte	.LASF199
 1845 0d3c 0F       		.byte	0xf
 1846 0d3d 9401     		.2byte	0x194
 1847 0d3f CF0B0000 		.4byte	0xbcf
 1848 0d43 00       		.byte	0
 1849 0d44 1E       		.uleb128 0x1e
 1850 0d45 710B0000 		.4byte	.LASF200
 1851 0d49 0F       		.byte	0xf
 1852 0d4a 9801     		.2byte	0x198
 1853 0d4c AC0C0000 		.4byte	0xcac
 1854 0d50 1C       		.byte	0x1c
 1855 0d51 25       		.uleb128 0x25
 1856 0d52 64626700 		.ascii	"dbg\000"
 1857 0d56 0F       		.byte	0xf
 1858 0d57 9C01     		.2byte	0x19c
 1859 0d59 F90C0000 		.4byte	0xcf9
 1860 0d5d 2C       		.byte	0x2c
 1861 0d5e 1E       		.uleb128 0x1e
 1862 0d5f 470A0000 		.4byte	.LASF201
 1863 0d63 0F       		.byte	0xf
 1864 0d64 A001     		.2byte	0x1a0
 1865 0d66 120A0000 		.4byte	0xa12
 1866 0d6a 30       		.byte	0x30
 1867 0d6b 25       		.uleb128 0x25
 1868 0d6c 746D00   		.ascii	"tm\000"
 1869 0d6f 0F       		.byte	0xf
 1870 0d70 A501     		.2byte	0x1a5
 1871 0d72 03100000 		.4byte	0x1003
 1872 0d76 90       		.byte	0x90
 1873 0d77 1E       		.uleb128 0x1e
 1874 0d78 61090000 		.4byte	.LASF202
 1875 0d7c 0F       		.byte	0xf
ARM GAS  /tmp/ccwKqRxp.s 			page 34


 1876 0d7d AB01     		.2byte	0x1ab
 1877 0d7f 9D100000 		.4byte	0x109d
 1878 0d83 98       		.byte	0x98
 1879 0d84 00       		.byte	0
 1880 0d85 02       		.uleb128 0x2
 1881 0d86 34000000 		.4byte	.LASF203
 1882 0d8a 10       		.byte	0x10
 1883 0d8b 6D       		.byte	0x6d
 1884 0d8c FC000000 		.4byte	0xfc
 1885 0d90 02       		.uleb128 0x2
 1886 0d91 07070000 		.4byte	.LASF204
 1887 0d95 10       		.byte	0x10
 1888 0d96 79       		.byte	0x79
 1889 0d97 FC000000 		.4byte	0xfc
 1890 0d9b 23       		.uleb128 0x23
 1891 0d9c 6B070000 		.4byte	.LASF205
 1892 0da0 11       		.byte	0x11
 1893 0da1 220A     		.2byte	0xa22
 1894 0da3 F7000000 		.4byte	0xf7
 1895 0da7 0E       		.uleb128 0xe
 1896 0da8 B8050000 		.4byte	.LASF206
 1897 0dac 12       		.byte	0x12
 1898 0dad 4C       		.byte	0x4c
 1899 0dae FC000000 		.4byte	0xfc
 1900 0db2 15       		.uleb128 0x15
 1901 0db3 DC000000 		.4byte	0xdc
 1902 0db7 C20D0000 		.4byte	0xdc2
 1903 0dbb 16       		.uleb128 0x16
 1904 0dbc F6010000 		.4byte	0x1f6
 1905 0dc0 0F       		.byte	0xf
 1906 0dc1 00       		.byte	0
 1907 0dc2 08       		.uleb128 0x8
 1908 0dc3 B20D0000 		.4byte	0xdb2
 1909 0dc7 0E       		.uleb128 0xe
 1910 0dc8 21090000 		.4byte	.LASF207
 1911 0dcc 12       		.byte	0x12
 1912 0dcd 4E       		.byte	0x4e
 1913 0dce C20D0000 		.4byte	0xdc2
 1914 0dd2 15       		.uleb128 0x15
 1915 0dd3 DC000000 		.4byte	0xdc
 1916 0dd7 E20D0000 		.4byte	0xde2
 1917 0ddb 16       		.uleb128 0x16
 1918 0ddc F6010000 		.4byte	0x1f6
 1919 0de0 07       		.byte	0x7
 1920 0de1 00       		.byte	0
 1921 0de2 08       		.uleb128 0x8
 1922 0de3 D20D0000 		.4byte	0xdd2
 1923 0de7 0E       		.uleb128 0xe
 1924 0de8 DC0A0000 		.4byte	.LASF208
 1925 0dec 12       		.byte	0x12
 1926 0ded 4F       		.byte	0x4f
 1927 0dee E20D0000 		.4byte	0xde2
 1928 0df2 26       		.uleb128 0x26
 1929 0df3 01       		.byte	0x1
 1930 0df4 66000000 		.4byte	0x66
 1931 0df8 13       		.byte	0x13
 1932 0df9 A7       		.byte	0xa7
ARM GAS  /tmp/ccwKqRxp.s 			page 35


 1933 0dfa 50030000 		.4byte	.LASF211
 1934 0dfe 0F0E0000 		.4byte	0xe0f
 1935 0e02 27       		.uleb128 0x27
 1936 0e03 6A0A0000 		.4byte	.LASF209
 1937 0e07 00       		.byte	0
 1938 0e08 28       		.uleb128 0x28
 1939 0e09 53455400 		.ascii	"SET\000"
 1940 0e0d 01       		.byte	0x1
 1941 0e0e 00       		.byte	0
 1942 0e0f 02       		.uleb128 0x2
 1943 0e10 AD0A0000 		.4byte	.LASF210
 1944 0e14 13       		.byte	0x13
 1945 0e15 AA       		.byte	0xaa
 1946 0e16 F20D0000 		.4byte	0xdf2
 1947 0e1a 26       		.uleb128 0x26
 1948 0e1b 01       		.byte	0x1
 1949 0e1c 66000000 		.4byte	0x66
 1950 0e20 13       		.byte	0x13
 1951 0e21 AD       		.byte	0xad
 1952 0e22 17040000 		.4byte	.LASF212
 1953 0e26 370E0000 		.4byte	0xe37
 1954 0e2a 27       		.uleb128 0x27
 1955 0e2b 8C080000 		.4byte	.LASF213
 1956 0e2f 00       		.byte	0
 1957 0e30 27       		.uleb128 0x27
 1958 0e31 F0080000 		.4byte	.LASF214
 1959 0e35 01       		.byte	0x1
 1960 0e36 00       		.byte	0
 1961 0e37 02       		.uleb128 0x2
 1962 0e38 61050000 		.4byte	.LASF215
 1963 0e3c 13       		.byte	0x13
 1964 0e3d B0       		.byte	0xb0
 1965 0e3e 1A0E0000 		.4byte	0xe1a
 1966 0e42 26       		.uleb128 0x26
 1967 0e43 01       		.byte	0x1
 1968 0e44 66000000 		.4byte	0x66
 1969 0e48 13       		.byte	0x13
 1970 0e49 B4       		.byte	0xb4
 1971 0e4a 6C000000 		.4byte	.LASF216
 1972 0e4e 5F0E0000 		.4byte	0xe5f
 1973 0e52 27       		.uleb128 0x27
 1974 0e53 5C060000 		.4byte	.LASF217
 1975 0e57 00       		.byte	0
 1976 0e58 27       		.uleb128 0x27
 1977 0e59 F9090000 		.4byte	.LASF218
 1978 0e5d 01       		.byte	0x1
 1979 0e5e 00       		.byte	0
 1980 0e5f 02       		.uleb128 0x2
 1981 0e60 06090000 		.4byte	.LASF219
 1982 0e64 13       		.byte	0x13
 1983 0e65 B7       		.byte	0xb7
 1984 0e66 420E0000 		.4byte	0xe42
 1985 0e6a 02       		.uleb128 0x2
 1986 0e6b 47030000 		.4byte	.LASF220
 1987 0e6f 14       		.byte	0x14
 1988 0e70 65       		.byte	0x65
 1989 0e71 47000000 		.4byte	0x47
ARM GAS  /tmp/ccwKqRxp.s 			page 36


 1990 0e75 02       		.uleb128 0x2
 1991 0e76 BE040000 		.4byte	.LASF221
 1992 0e7a 14       		.byte	0x14
 1993 0e7b 6D       		.byte	0x6d
 1994 0e7c 07010000 		.4byte	0x107
 1995 0e80 03       		.uleb128 0x3
 1996 0e81 C60B0000 		.4byte	.LASF222
 1997 0e85 04       		.byte	0x4
 1998 0e86 14       		.byte	0x14
 1999 0e87 89       		.byte	0x89
 2000 0e88 980E0000 		.4byte	0xe98
 2001 0e8c 17       		.uleb128 0x17
 2002 0e8d 737000   		.ascii	"sp\000"
 2003 0e90 14       		.byte	0x14
 2004 0e91 8A       		.byte	0x8a
 2005 0e92 E40F0000 		.4byte	0xfe4
 2006 0e96 00       		.byte	0
 2007 0e97 00       		.byte	0
 2008 0e98 21       		.uleb128 0x21
 2009 0e99 C6080000 		.4byte	.LASF223
 2010 0e9d 64       		.byte	0x64
 2011 0e9e 15       		.byte	0x15
 2012 0e9f 5901     		.2byte	0x159
 2013 0ea1 E40F0000 		.4byte	0xfe4
 2014 0ea5 25       		.uleb128 0x25
 2015 0ea6 73313600 		.ascii	"s16\000"
 2016 0eaa 15       		.byte	0x15
 2017 0eab 5B01     		.2byte	0x15b
 2018 0ead 6A0E0000 		.4byte	0xe6a
 2019 0eb1 00       		.byte	0
 2020 0eb2 25       		.uleb128 0x25
 2021 0eb3 73313700 		.ascii	"s17\000"
 2022 0eb7 15       		.byte	0x15
 2023 0eb8 5C01     		.2byte	0x15c
 2024 0eba 6A0E0000 		.4byte	0xe6a
 2025 0ebe 04       		.byte	0x4
 2026 0ebf 25       		.uleb128 0x25
 2027 0ec0 73313800 		.ascii	"s18\000"
 2028 0ec4 15       		.byte	0x15
 2029 0ec5 5D01     		.2byte	0x15d
 2030 0ec7 6A0E0000 		.4byte	0xe6a
 2031 0ecb 08       		.byte	0x8
 2032 0ecc 25       		.uleb128 0x25
 2033 0ecd 73313900 		.ascii	"s19\000"
 2034 0ed1 15       		.byte	0x15
 2035 0ed2 5E01     		.2byte	0x15e
 2036 0ed4 6A0E0000 		.4byte	0xe6a
 2037 0ed8 0C       		.byte	0xc
 2038 0ed9 25       		.uleb128 0x25
 2039 0eda 73323000 		.ascii	"s20\000"
 2040 0ede 15       		.byte	0x15
 2041 0edf 5F01     		.2byte	0x15f
 2042 0ee1 6A0E0000 		.4byte	0xe6a
 2043 0ee5 10       		.byte	0x10
 2044 0ee6 25       		.uleb128 0x25
 2045 0ee7 73323100 		.ascii	"s21\000"
 2046 0eeb 15       		.byte	0x15
ARM GAS  /tmp/ccwKqRxp.s 			page 37


 2047 0eec 6001     		.2byte	0x160
 2048 0eee 6A0E0000 		.4byte	0xe6a
 2049 0ef2 14       		.byte	0x14
 2050 0ef3 25       		.uleb128 0x25
 2051 0ef4 73323200 		.ascii	"s22\000"
 2052 0ef8 15       		.byte	0x15
 2053 0ef9 6101     		.2byte	0x161
 2054 0efb 6A0E0000 		.4byte	0xe6a
 2055 0eff 18       		.byte	0x18
 2056 0f00 25       		.uleb128 0x25
 2057 0f01 73323300 		.ascii	"s23\000"
 2058 0f05 15       		.byte	0x15
 2059 0f06 6201     		.2byte	0x162
 2060 0f08 6A0E0000 		.4byte	0xe6a
 2061 0f0c 1C       		.byte	0x1c
 2062 0f0d 25       		.uleb128 0x25
 2063 0f0e 73323400 		.ascii	"s24\000"
 2064 0f12 15       		.byte	0x15
 2065 0f13 6301     		.2byte	0x163
 2066 0f15 6A0E0000 		.4byte	0xe6a
 2067 0f19 20       		.byte	0x20
 2068 0f1a 25       		.uleb128 0x25
 2069 0f1b 73323500 		.ascii	"s25\000"
 2070 0f1f 15       		.byte	0x15
 2071 0f20 6401     		.2byte	0x164
 2072 0f22 6A0E0000 		.4byte	0xe6a
 2073 0f26 24       		.byte	0x24
 2074 0f27 25       		.uleb128 0x25
 2075 0f28 73323600 		.ascii	"s26\000"
 2076 0f2c 15       		.byte	0x15
 2077 0f2d 6501     		.2byte	0x165
 2078 0f2f 6A0E0000 		.4byte	0xe6a
 2079 0f33 28       		.byte	0x28
 2080 0f34 25       		.uleb128 0x25
 2081 0f35 73323700 		.ascii	"s27\000"
 2082 0f39 15       		.byte	0x15
 2083 0f3a 6601     		.2byte	0x166
 2084 0f3c 6A0E0000 		.4byte	0xe6a
 2085 0f40 2C       		.byte	0x2c
 2086 0f41 25       		.uleb128 0x25
 2087 0f42 73323800 		.ascii	"s28\000"
 2088 0f46 15       		.byte	0x15
 2089 0f47 6701     		.2byte	0x167
 2090 0f49 6A0E0000 		.4byte	0xe6a
 2091 0f4d 30       		.byte	0x30
 2092 0f4e 25       		.uleb128 0x25
 2093 0f4f 73323900 		.ascii	"s29\000"
 2094 0f53 15       		.byte	0x15
 2095 0f54 6801     		.2byte	0x168
 2096 0f56 6A0E0000 		.4byte	0xe6a
 2097 0f5a 34       		.byte	0x34
 2098 0f5b 25       		.uleb128 0x25
 2099 0f5c 73333000 		.ascii	"s30\000"
 2100 0f60 15       		.byte	0x15
 2101 0f61 6901     		.2byte	0x169
 2102 0f63 6A0E0000 		.4byte	0xe6a
 2103 0f67 38       		.byte	0x38
ARM GAS  /tmp/ccwKqRxp.s 			page 38


 2104 0f68 25       		.uleb128 0x25
 2105 0f69 73333100 		.ascii	"s31\000"
 2106 0f6d 15       		.byte	0x15
 2107 0f6e 6A01     		.2byte	0x16a
 2108 0f70 6A0E0000 		.4byte	0xe6a
 2109 0f74 3C       		.byte	0x3c
 2110 0f75 25       		.uleb128 0x25
 2111 0f76 723400   		.ascii	"r4\000"
 2112 0f79 15       		.byte	0x15
 2113 0f7a 6C01     		.2byte	0x16c
 2114 0f7c 6A0E0000 		.4byte	0xe6a
 2115 0f80 40       		.byte	0x40
 2116 0f81 25       		.uleb128 0x25
 2117 0f82 723500   		.ascii	"r5\000"
 2118 0f85 15       		.byte	0x15
 2119 0f86 6D01     		.2byte	0x16d
 2120 0f88 6A0E0000 		.4byte	0xe6a
 2121 0f8c 44       		.byte	0x44
 2122 0f8d 25       		.uleb128 0x25
 2123 0f8e 723600   		.ascii	"r6\000"
 2124 0f91 15       		.byte	0x15
 2125 0f92 6E01     		.2byte	0x16e
 2126 0f94 6A0E0000 		.4byte	0xe6a
 2127 0f98 48       		.byte	0x48
 2128 0f99 25       		.uleb128 0x25
 2129 0f9a 723700   		.ascii	"r7\000"
 2130 0f9d 15       		.byte	0x15
 2131 0f9e 6F01     		.2byte	0x16f
 2132 0fa0 6A0E0000 		.4byte	0xe6a
 2133 0fa4 4C       		.byte	0x4c
 2134 0fa5 25       		.uleb128 0x25
 2135 0fa6 723800   		.ascii	"r8\000"
 2136 0fa9 15       		.byte	0x15
 2137 0faa 7001     		.2byte	0x170
 2138 0fac 6A0E0000 		.4byte	0xe6a
 2139 0fb0 50       		.byte	0x50
 2140 0fb1 25       		.uleb128 0x25
 2141 0fb2 723900   		.ascii	"r9\000"
 2142 0fb5 15       		.byte	0x15
 2143 0fb6 7101     		.2byte	0x171
 2144 0fb8 6A0E0000 		.4byte	0xe6a
 2145 0fbc 54       		.byte	0x54
 2146 0fbd 25       		.uleb128 0x25
 2147 0fbe 72313000 		.ascii	"r10\000"
 2148 0fc2 15       		.byte	0x15
 2149 0fc3 7201     		.2byte	0x172
 2150 0fc5 6A0E0000 		.4byte	0xe6a
 2151 0fc9 58       		.byte	0x58
 2152 0fca 25       		.uleb128 0x25
 2153 0fcb 72313100 		.ascii	"r11\000"
 2154 0fcf 15       		.byte	0x15
 2155 0fd0 7301     		.2byte	0x173
 2156 0fd2 6A0E0000 		.4byte	0xe6a
 2157 0fd6 5C       		.byte	0x5c
 2158 0fd7 25       		.uleb128 0x25
 2159 0fd8 6C7200   		.ascii	"lr\000"
 2160 0fdb 15       		.byte	0x15
ARM GAS  /tmp/ccwKqRxp.s 			page 39


 2161 0fdc 7401     		.2byte	0x174
 2162 0fde 6A0E0000 		.4byte	0xe6a
 2163 0fe2 60       		.byte	0x60
 2164 0fe3 00       		.byte	0
 2165 0fe4 0D       		.uleb128 0xd
 2166 0fe5 04       		.byte	0x4
 2167 0fe6 980E0000 		.4byte	0xe98
 2168 0fea 11       		.uleb128 0x11
 2169 0feb 04       		.byte	0x4
 2170 0fec 16       		.byte	0x16
 2171 0fed 38       		.byte	0x38
 2172 0fee 40090000 		.4byte	.LASF225
 2173 0ff2 03100000 		.4byte	0x1003
 2174 0ff6 14       		.uleb128 0x14
 2175 0ff7 46080000 		.4byte	.LASF226
 2176 0ffb 16       		.byte	0x16
 2177 0ffc 3C       		.byte	0x3c
 2178 0ffd A4090000 		.4byte	0x9a4
 2179 1001 00       		.byte	0
 2180 1002 00       		.byte	0
 2181 1003 02       		.uleb128 0x2
 2182 1004 C60A0000 		.4byte	.LASF227
 2183 1008 16       		.byte	0x16
 2184 1009 3D       		.byte	0x3d
 2185 100a EA0F0000 		.4byte	0xfea
 2186 100e 11       		.uleb128 0x11
 2187 100f 18       		.byte	0x18
 2188 1010 16       		.byte	0x16
 2189 1011 48       		.byte	0x48
 2190 1012 120C0000 		.4byte	.LASF228
 2191 1016 55100000 		.4byte	0x1055
 2192 101a 14       		.uleb128 0x14
 2193 101b 700A0000 		.4byte	.LASF229
 2194 101f 16       		.byte	0x16
 2195 1020 49       		.byte	0x49
 2196 1021 A4090000 		.4byte	0x9a4
 2197 1025 00       		.byte	0
 2198 1026 14       		.uleb128 0x14
 2199 1027 CF040000 		.4byte	.LASF230
 2200 102b 16       		.byte	0x16
 2201 102c 4A       		.byte	0x4a
 2202 102d A4090000 		.4byte	0x9a4
 2203 1031 04       		.byte	0x4
 2204 1032 14       		.uleb128 0x14
 2205 1033 520D0000 		.4byte	.LASF231
 2206 1037 16       		.byte	0x16
 2207 1038 4B       		.byte	0x4b
 2208 1039 A4090000 		.4byte	0x9a4
 2209 103d 08       		.byte	0x8
 2210 103e 17       		.uleb128 0x17
 2211 103f 6E00     		.ascii	"n\000"
 2212 1041 16       		.byte	0x16
 2213 1042 4C       		.byte	0x4c
 2214 1043 070A0000 		.4byte	0xa07
 2215 1047 0C       		.byte	0xc
 2216 1048 14       		.uleb128 0x14
 2217 1049 38050000 		.4byte	.LASF232
ARM GAS  /tmp/ccwKqRxp.s 			page 40


 2218 104d 16       		.byte	0x16
 2219 104e 4D       		.byte	0x4d
 2220 104f AF090000 		.4byte	0x9af
 2221 1053 10       		.byte	0x10
 2222 1054 00       		.byte	0
 2223 1055 02       		.uleb128 0x2
 2224 1056 5F020000 		.4byte	.LASF233
 2225 105a 16       		.byte	0x16
 2226 105b 4E       		.byte	0x4e
 2227 105c 0E100000 		.4byte	0x100e
 2228 1060 11       		.uleb128 0x11
 2229 1061 38       		.byte	0x38
 2230 1062 17       		.byte	0x17
 2231 1063 38       		.byte	0x38
 2232 1064 BC070000 		.4byte	.LASF234
 2233 1068 9D100000 		.4byte	0x109d
 2234 106c 14       		.uleb128 0x14
 2235 106d 9B060000 		.4byte	.LASF235
 2236 1071 17       		.byte	0x17
 2237 1072 39       		.byte	0x39
 2238 1073 070A0000 		.4byte	0xa07
 2239 1077 00       		.byte	0
 2240 1078 14       		.uleb128 0x14
 2241 1079 96040000 		.4byte	.LASF236
 2242 107d 17       		.byte	0x17
 2243 107e 3A       		.byte	0x3a
 2244 107f 070A0000 		.4byte	0xa07
 2245 1083 04       		.byte	0x4
 2246 1084 14       		.uleb128 0x14
 2247 1085 4B050000 		.4byte	.LASF237
 2248 1089 17       		.byte	0x17
 2249 108a 3B       		.byte	0x3b
 2250 108b 55100000 		.4byte	0x1055
 2251 108f 08       		.byte	0x8
 2252 1090 14       		.uleb128 0x14
 2253 1091 8E070000 		.4byte	.LASF238
 2254 1095 17       		.byte	0x17
 2255 1096 3D       		.byte	0x3d
 2256 1097 55100000 		.4byte	0x1055
 2257 109b 20       		.byte	0x20
 2258 109c 00       		.byte	0
 2259 109d 02       		.uleb128 0x2
 2260 109e F3070000 		.4byte	.LASF239
 2261 10a2 17       		.byte	0x17
 2262 10a3 3F       		.byte	0x3f
 2263 10a4 60100000 		.4byte	0x1060
 2264 10a8 0D       		.uleb128 0xd
 2265 10a9 04       		.byte	0x4
 2266 10aa 6A0B0000 		.4byte	0xb6a
 2267 10ae 03       		.uleb128 0x3
 2268 10af C8050000 		.4byte	.LASF240
 2269 10b3 0C       		.byte	0xc
 2270 10b4 18       		.byte	0x18
 2271 10b5 34       		.byte	0x34
 2272 10b6 D3100000 		.4byte	0x10d3
 2273 10ba 14       		.uleb128 0x14
 2274 10bb 010A0000 		.4byte	.LASF160
ARM GAS  /tmp/ccwKqRxp.s 			page 41


 2275 10bf 18       		.byte	0x18
 2276 10c0 35       		.byte	0x35
 2277 10c1 9F0B0000 		.4byte	0xb9f
 2278 10c5 00       		.byte	0
 2279 10c6 17       		.uleb128 0x17
 2280 10c7 636E7400 		.ascii	"cnt\000"
 2281 10cb 18       		.byte	0x18
 2282 10cc 37       		.byte	0x37
 2283 10cd FC090000 		.4byte	0x9fc
 2284 10d1 08       		.byte	0x8
 2285 10d2 00       		.byte	0
 2286 10d3 0D       		.uleb128 0xd
 2287 10d4 04       		.byte	0x4
 2288 10d5 AE100000 		.4byte	0x10ae
 2289 10d9 03       		.uleb128 0x3
 2290 10da 0F0B0000 		.4byte	.LASF241
 2291 10de 14       		.byte	0x14
 2292 10df 19       		.byte	0x19
 2293 10e0 39       		.byte	0x39
 2294 10e1 16110000 		.4byte	0x1116
 2295 10e5 14       		.uleb128 0x14
 2296 10e6 010A0000 		.4byte	.LASF160
 2297 10ea 19       		.byte	0x19
 2298 10eb 3A       		.byte	0x3a
 2299 10ec 9F0B0000 		.4byte	0xb9f
 2300 10f0 00       		.byte	0
 2301 10f1 14       		.uleb128 0x14
 2302 10f2 4F000000 		.4byte	.LASF242
 2303 10f6 19       		.byte	0x19
 2304 10f7 3C       		.byte	0x3c
 2305 10f8 750B0000 		.4byte	0xb75
 2306 10fc 08       		.byte	0x8
 2307 10fd 14       		.uleb128 0x14
 2308 10fe 190D0000 		.4byte	.LASF179
 2309 1102 19       		.byte	0x19
 2310 1103 3E       		.byte	0x3e
 2311 1104 65120000 		.4byte	0x1265
 2312 1108 0C       		.byte	0xc
 2313 1109 17       		.uleb128 0x17
 2314 110a 636E7400 		.ascii	"cnt\000"
 2315 110e 19       		.byte	0x19
 2316 110f 41       		.byte	0x41
 2317 1110 FC090000 		.4byte	0x9fc
 2318 1114 10       		.byte	0x10
 2319 1115 00       		.byte	0
 2320 1116 0D       		.uleb128 0xd
 2321 1117 04       		.byte	0x4
 2322 1118 D9100000 		.4byte	0x10d9
 2323 111c 0D       		.uleb128 0xd
 2324 111d 04       		.byte	0x4
 2325 111e 750E0000 		.4byte	0xe75
 2326 1122 0D       		.uleb128 0xd
 2327 1123 04       		.byte	0x4
 2328 1124 520C0000 		.4byte	0xc52
 2329 1128 29       		.uleb128 0x29
 2330 1129 636800   		.ascii	"ch\000"
 2331 112c 0F       		.byte	0xf
ARM GAS  /tmp/ccwKqRxp.s 			page 42


 2332 112d C701     		.2byte	0x1c7
 2333 112f 1F0D0000 		.4byte	0xd1f
 2334 1133 15       		.uleb128 0x15
 2335 1134 750E0000 		.4byte	0xe75
 2336 1138 3E110000 		.4byte	0x113e
 2337 113c 24       		.uleb128 0x24
 2338 113d 00       		.byte	0
 2339 113e 23       		.uleb128 0x23
 2340 113f FA050000 		.4byte	.LASF243
 2341 1143 1A       		.byte	0x1a
 2342 1144 1701     		.2byte	0x117
 2343 1146 33110000 		.4byte	0x1133
 2344 114a 11       		.uleb128 0x11
 2345 114b 16       		.byte	0x16
 2346 114c 1B       		.byte	0x1b
 2347 114d 34       		.byte	0x34
 2348 114e B3080000 		.4byte	.LASF244
 2349 1152 2F120000 		.4byte	0x122f
 2350 1156 14       		.uleb128 0x14
 2351 1157 330D0000 		.4byte	.LASF245
 2352 115b 1B       		.byte	0x1b
 2353 115c 35       		.byte	0x35
 2354 115d 2F120000 		.4byte	0x122f
 2355 1161 00       		.byte	0
 2356 1162 14       		.uleb128 0x14
 2357 1163 07030000 		.4byte	.LASF246
 2358 1167 1B       		.byte	0x1b
 2359 1168 36       		.byte	0x36
 2360 1169 D1000000 		.4byte	0xd1
 2361 116d 04       		.byte	0x4
 2362 116e 14       		.uleb128 0x14
 2363 116f 6E090000 		.4byte	.LASF247
 2364 1173 1B       		.byte	0x1b
 2365 1174 37       		.byte	0x37
 2366 1175 D1000000 		.4byte	0xd1
 2367 1179 05       		.byte	0x5
 2368 117a 14       		.uleb128 0x14
 2369 117b 5B0A0000 		.4byte	.LASF248
 2370 117f 1B       		.byte	0x1b
 2371 1180 38       		.byte	0x38
 2372 1181 E1000000 		.4byte	0xe1
 2373 1185 06       		.byte	0x6
 2374 1186 14       		.uleb128 0x14
 2375 1187 D5040000 		.4byte	.LASF249
 2376 118b 1B       		.byte	0x1b
 2377 118c 39       		.byte	0x39
 2378 118d D1000000 		.4byte	0xd1
 2379 1191 08       		.byte	0x8
 2380 1192 14       		.uleb128 0x14
 2381 1193 DE0C0000 		.4byte	.LASF250
 2382 1197 1B       		.byte	0x1b
 2383 1198 3A       		.byte	0x3a
 2384 1199 D1000000 		.4byte	0xd1
 2385 119d 09       		.byte	0x9
 2386 119e 14       		.uleb128 0x14
 2387 119f 88050000 		.4byte	.LASF251
 2388 11a3 1B       		.byte	0x1b
ARM GAS  /tmp/ccwKqRxp.s 			page 43


 2389 11a4 3B       		.byte	0x3b
 2390 11a5 D1000000 		.4byte	0xd1
 2391 11a9 0A       		.byte	0xa
 2392 11aa 14       		.uleb128 0x14
 2393 11ab 0F000000 		.4byte	.LASF252
 2394 11af 1B       		.byte	0x1b
 2395 11b0 3C       		.byte	0x3c
 2396 11b1 D1000000 		.4byte	0xd1
 2397 11b5 0B       		.byte	0xb
 2398 11b6 14       		.uleb128 0x14
 2399 11b7 00000000 		.4byte	.LASF253
 2400 11bb 1B       		.byte	0x1b
 2401 11bc 3D       		.byte	0x3d
 2402 11bd D1000000 		.4byte	0xd1
 2403 11c1 0C       		.byte	0xc
 2404 11c2 14       		.uleb128 0x14
 2405 11c3 84070000 		.4byte	.LASF254
 2406 11c7 1B       		.byte	0x1b
 2407 11c8 3E       		.byte	0x3e
 2408 11c9 D1000000 		.4byte	0xd1
 2409 11cd 0D       		.byte	0xd
 2410 11ce 14       		.uleb128 0x14
 2411 11cf 72020000 		.4byte	.LASF255
 2412 11d3 1B       		.byte	0x1b
 2413 11d4 3F       		.byte	0x3f
 2414 11d5 D1000000 		.4byte	0xd1
 2415 11d9 0E       		.byte	0xe
 2416 11da 14       		.uleb128 0x14
 2417 11db 93090000 		.4byte	.LASF256
 2418 11df 1B       		.byte	0x1b
 2419 11e0 40       		.byte	0x40
 2420 11e1 D1000000 		.4byte	0xd1
 2421 11e5 0F       		.byte	0xf
 2422 11e6 14       		.uleb128 0x14
 2423 11e7 62060000 		.4byte	.LASF257
 2424 11eb 1B       		.byte	0x1b
 2425 11ec 41       		.byte	0x41
 2426 11ed D1000000 		.4byte	0xd1
 2427 11f1 10       		.byte	0x10
 2428 11f2 14       		.uleb128 0x14
 2429 11f3 2D030000 		.4byte	.LASF258
 2430 11f7 1B       		.byte	0x1b
 2431 11f8 42       		.byte	0x42
 2432 11f9 D1000000 		.4byte	0xd1
 2433 11fd 11       		.byte	0x11
 2434 11fe 14       		.uleb128 0x14
 2435 11ff FC0C0000 		.4byte	.LASF259
 2436 1203 1B       		.byte	0x1b
 2437 1204 43       		.byte	0x43
 2438 1205 D1000000 		.4byte	0xd1
 2439 1209 12       		.byte	0x12
 2440 120a 14       		.uleb128 0x14
 2441 120b 3A0C0000 		.4byte	.LASF260
 2442 120f 1B       		.byte	0x1b
 2443 1210 44       		.byte	0x44
 2444 1211 D1000000 		.4byte	0xd1
 2445 1215 13       		.byte	0x13
ARM GAS  /tmp/ccwKqRxp.s 			page 44


 2446 1216 14       		.uleb128 0x14
 2447 1217 3E000000 		.4byte	.LASF261
 2448 121b 1B       		.byte	0x1b
 2449 121c 45       		.byte	0x45
 2450 121d D1000000 		.4byte	0xd1
 2451 1221 14       		.byte	0x14
 2452 1222 14       		.uleb128 0x14
 2453 1223 DD040000 		.4byte	.LASF262
 2454 1227 1B       		.byte	0x1b
 2455 1228 46       		.byte	0x46
 2456 1229 D1000000 		.4byte	0xd1
 2457 122d 15       		.byte	0x15
 2458 122e 00       		.byte	0
 2459 122f 15       		.uleb128 0x15
 2460 1230 4D010000 		.4byte	0x14d
 2461 1234 3F120000 		.4byte	0x123f
 2462 1238 16       		.uleb128 0x16
 2463 1239 F6010000 		.4byte	0x1f6
 2464 123d 03       		.byte	0x3
 2465 123e 00       		.byte	0
 2466 123f 02       		.uleb128 0x2
 2467 1240 7F0C0000 		.4byte	.LASF263
 2468 1244 1B       		.byte	0x1b
 2469 1245 47       		.byte	0x47
 2470 1246 4A110000 		.4byte	0x114a
 2471 124a 08       		.uleb128 0x8
 2472 124b 3F120000 		.4byte	0x123f
 2473 124f 0E       		.uleb128 0xe
 2474 1250 63000000 		.4byte	.LASF264
 2475 1254 1B       		.byte	0x1b
 2476 1255 6C       		.byte	0x6c
 2477 1256 4A120000 		.4byte	0x124a
 2478 125a 02       		.uleb128 0x2
 2479 125b AF0B0000 		.4byte	.LASF265
 2480 125f 19       		.byte	0x19
 2481 1260 34       		.byte	0x34
 2482 1261 D9100000 		.4byte	0x10d9
 2483 1265 0D       		.uleb128 0xd
 2484 1266 04       		.byte	0x4
 2485 1267 5A120000 		.4byte	0x125a
 2486 126b 06       		.uleb128 0x6
 2487 126c 01       		.byte	0x1
 2488 126d 02       		.byte	0x2
 2489 126e 70080000 		.4byte	.LASF266
 2490 1272 02       		.uleb128 0x2
 2491 1273 75080000 		.4byte	.LASF267
 2492 1277 1C       		.byte	0x1c
 2493 1278 47       		.byte	0x47
 2494 1279 7D120000 		.4byte	0x127d
 2495 127d 0D       		.uleb128 0xd
 2496 127e 04       		.byte	0x4
 2497 127f 83120000 		.4byte	0x1283
 2498 1283 0B       		.uleb128 0xb
 2499 1284 47000000 		.4byte	0x47
 2500 1288 97120000 		.4byte	0x1297
 2501 128c 0C       		.uleb128 0xc
 2502 128d 12010000 		.4byte	0x112
ARM GAS  /tmp/ccwKqRxp.s 			page 45


 2503 1291 0C       		.uleb128 0xc
 2504 1292 CA000000 		.4byte	0xca
 2505 1296 00       		.byte	0
 2506 1297 11       		.uleb128 0x11
 2507 1298 08       		.byte	0x8
 2508 1299 1C       		.byte	0x1c
 2509 129a 51       		.byte	0x51
 2510 129b 2F0C0000 		.4byte	.LASF268
 2511 129f BC120000 		.4byte	0x12bc
 2512 12a3 14       		.uleb128 0x14
 2513 12a4 43050000 		.4byte	.LASF269
 2514 12a8 1C       		.byte	0x1c
 2515 12a9 55       		.byte	0x55
 2516 12aa BC120000 		.4byte	0x12bc
 2517 12ae 00       		.byte	0
 2518 12af 14       		.uleb128 0x14
 2519 12b0 C0020000 		.4byte	.LASF270
 2520 12b4 1C       		.byte	0x1c
 2521 12b5 59       		.byte	0x59
 2522 12b6 BC120000 		.4byte	0x12bc
 2523 12ba 04       		.byte	0x4
 2524 12bb 00       		.byte	0
 2525 12bc 0D       		.uleb128 0xd
 2526 12bd 04       		.byte	0x4
 2527 12be D1000000 		.4byte	0xd1
 2528 12c2 02       		.uleb128 0x2
 2529 12c3 9F030000 		.4byte	.LASF271
 2530 12c7 1C       		.byte	0x1c
 2531 12c8 5A       		.byte	0x5a
 2532 12c9 97120000 		.4byte	0x1297
 2533 12cd 0E       		.uleb128 0xe
 2534 12ce F10C0000 		.4byte	.LASF272
 2535 12d2 1C       		.byte	0x1c
 2536 12d3 65       		.byte	0x65
 2537 12d4 C2120000 		.4byte	0x12c2
 2538 12d8 03       		.uleb128 0x3
 2539 12d9 6F060000 		.4byte	.LASF273
 2540 12dd 04       		.byte	0x4
 2541 12de 1D       		.byte	0x1d
 2542 12df 38       		.byte	0x38
 2543 12e0 F1120000 		.4byte	0x12f1
 2544 12e4 14       		.uleb128 0x14
 2545 12e5 190D0000 		.4byte	.LASF179
 2546 12e9 1D       		.byte	0x1d
 2547 12ea 39       		.byte	0x39
 2548 12eb F1120000 		.4byte	0x12f1
 2549 12ef 00       		.byte	0
 2550 12f0 00       		.byte	0
 2551 12f1 0D       		.uleb128 0xd
 2552 12f2 04       		.byte	0x4
 2553 12f3 D8120000 		.4byte	0x12d8
 2554 12f7 11       		.uleb128 0x11
 2555 12f8 10       		.byte	0x10
 2556 12f9 1D       		.byte	0x1d
 2557 12fa 40       		.byte	0x40
 2558 12fb 5A040000 		.4byte	.LASF274
 2559 12ff 34130000 		.4byte	0x1334
ARM GAS  /tmp/ccwKqRxp.s 			page 46


 2560 1303 14       		.uleb128 0x14
 2561 1304 190D0000 		.4byte	.LASF179
 2562 1308 1D       		.byte	0x1d
 2563 1309 41       		.byte	0x41
 2564 130a F1120000 		.4byte	0x12f1
 2565 130e 00       		.byte	0
 2566 130f 14       		.uleb128 0x14
 2567 1310 5C0B0000 		.4byte	.LASF275
 2568 1314 1D       		.byte	0x1d
 2569 1315 42       		.byte	0x42
 2570 1316 12010000 		.4byte	0x112
 2571 131a 04       		.byte	0x4
 2572 131b 14       		.uleb128 0x14
 2573 131c 5F070000 		.4byte	.LASF276
 2574 1320 1D       		.byte	0x1d
 2575 1321 44       		.byte	0x44
 2576 1322 CA000000 		.4byte	0xca
 2577 1326 08       		.byte	0x8
 2578 1327 14       		.uleb128 0x14
 2579 1328 7A000000 		.4byte	.LASF277
 2580 132c 1D       		.byte	0x1d
 2581 132d 45       		.byte	0x45
 2582 132e 72120000 		.4byte	0x1272
 2583 1332 0C       		.byte	0xc
 2584 1333 00       		.byte	0
 2585 1334 02       		.uleb128 0x2
 2586 1335 930A0000 		.4byte	.LASF278
 2587 1339 1D       		.byte	0x1d
 2588 133a 47       		.byte	0x47
 2589 133b F7120000 		.4byte	0x12f7
 2590 133f 03       		.uleb128 0x3
 2591 1340 FE000000 		.4byte	.LASF279
 2592 1344 10       		.byte	0x10
 2593 1345 1E       		.byte	0x1e
 2594 1346 A9       		.byte	0xa9
 2595 1347 70130000 		.4byte	0x1370
 2596 134b 14       		.uleb128 0x14
 2597 134c 190D0000 		.4byte	.LASF179
 2598 1350 1E       		.byte	0x1e
 2599 1351 AD       		.byte	0xad
 2600 1352 70130000 		.4byte	0x1370
 2601 1356 00       		.byte	0
 2602 1357 14       		.uleb128 0x14
 2603 1358 AE070000 		.4byte	.LASF168
 2604 135c 1E       		.byte	0x1e
 2605 135d B1       		.byte	0xb1
 2606 135e 070A0000 		.4byte	0xa07
 2607 1362 04       		.byte	0x4
 2608 1363 14       		.uleb128 0x14
 2609 1364 D70A0000 		.4byte	.LASF164
 2610 1368 1E       		.byte	0x1e
 2611 1369 B3       		.byte	0xb3
 2612 136a D2080000 		.4byte	0x8d2
 2613 136e 08       		.byte	0x8
 2614 136f 00       		.byte	0
 2615 1370 0D       		.uleb128 0xd
 2616 1371 04       		.byte	0x4
ARM GAS  /tmp/ccwKqRxp.s 			page 47


 2617 1372 3F130000 		.4byte	0x133f
 2618 1376 02       		.uleb128 0x2
 2619 1377 910B0000 		.4byte	.LASF280
 2620 137b 1E       		.byte	0x1e
 2621 137c B7       		.byte	0xb7
 2622 137d 3F130000 		.4byte	0x133f
 2623 1381 03       		.uleb128 0x3
 2624 1382 270D0000 		.4byte	.LASF281
 2625 1386 04       		.byte	0x4
 2626 1387 1E       		.byte	0x1e
 2627 1388 BC       		.byte	0xbc
 2628 1389 9A130000 		.4byte	0x139a
 2629 138d 14       		.uleb128 0x14
 2630 138e 190D0000 		.4byte	.LASF179
 2631 1392 1E       		.byte	0x1e
 2632 1393 BD       		.byte	0xbd
 2633 1394 9A130000 		.4byte	0x139a
 2634 1398 00       		.byte	0
 2635 1399 00       		.byte	0
 2636 139a 0D       		.uleb128 0xd
 2637 139b 04       		.byte	0x4
 2638 139c 76130000 		.4byte	0x1376
 2639 13a0 02       		.uleb128 0x2
 2640 13a1 470B0000 		.4byte	.LASF282
 2641 13a5 1E       		.byte	0x1e
 2642 13a6 BE       		.byte	0xbe
 2643 13a7 81130000 		.4byte	0x1381
 2644 13ab 21       		.uleb128 0x21
 2645 13ac 1C070000 		.4byte	.LASF283
 2646 13b0 48       		.byte	0x48
 2647 13b1 1E       		.byte	0x1e
 2648 13b2 3E01     		.2byte	0x13e
 2649 13b4 21140000 		.4byte	0x1421
 2650 13b8 25       		.uleb128 0x25
 2651 13b9 6D747800 		.ascii	"mtx\000"
 2652 13bd 1E       		.byte	0x1e
 2653 13be 4301     		.2byte	0x143
 2654 13c0 5A120000 		.4byte	0x125a
 2655 13c4 00       		.byte	0
 2656 13c5 1E       		.uleb128 0x1e
 2657 13c6 56020000 		.4byte	.LASF284
 2658 13ca 1E       		.byte	0x1e
 2659 13cb 4A01     		.2byte	0x14a
 2660 13cd A0130000 		.4byte	0x13a0
 2661 13d1 14       		.byte	0x14
 2662 13d2 1E       		.uleb128 0x1e
 2663 13d3 66030000 		.4byte	.LASF285
 2664 13d7 1E       		.byte	0x1e
 2665 13d8 4E01     		.2byte	0x14e
 2666 13da 34130000 		.4byte	0x1334
 2667 13de 18       		.byte	0x18
 2668 13df 1E       		.uleb128 0x1e
 2669 13e0 F7080000 		.4byte	.LASF286
 2670 13e4 1E       		.byte	0x1e
 2671 13e5 5301     		.2byte	0x153
 2672 13e7 A0130000 		.4byte	0x13a0
 2673 13eb 28       		.byte	0x28
ARM GAS  /tmp/ccwKqRxp.s 			page 48


 2674 13ec 1E       		.uleb128 0x1e
 2675 13ed 7B040000 		.4byte	.LASF287
 2676 13f1 1E       		.byte	0x1e
 2677 13f2 5901     		.2byte	0x159
 2678 13f4 A0130000 		.4byte	0x13a0
 2679 13f8 2C       		.byte	0x2c
 2680 13f9 1E       		.uleb128 0x1e
 2681 13fa 1F050000 		.4byte	.LASF288
 2682 13fe 1E       		.byte	0x1e
 2683 13ff 5D01     		.2byte	0x15d
 2684 1401 34130000 		.4byte	0x1334
 2685 1405 30       		.byte	0x30
 2686 1406 1E       		.uleb128 0x1e
 2687 1407 3E0A0000 		.4byte	.LASF289
 2688 140b 1E       		.byte	0x1e
 2689 140c 6301     		.2byte	0x163
 2690 140e A0130000 		.4byte	0x13a0
 2691 1412 40       		.byte	0x40
 2692 1413 1E       		.uleb128 0x1e
 2693 1414 13060000 		.4byte	.LASF290
 2694 1418 1E       		.byte	0x1e
 2695 1419 6901     		.2byte	0x169
 2696 141b A0130000 		.4byte	0x13a0
 2697 141f 44       		.byte	0x44
 2698 1420 00       		.byte	0
 2699 1421 10       		.uleb128 0x10
 2700 1422 D2080000 		.4byte	.LASF291
 2701 1426 1E       		.byte	0x1e
 2702 1427 7101     		.2byte	0x171
 2703 1429 AB130000 		.4byte	0x13ab
 2704 142d 23       		.uleb128 0x23
 2705 142e 240A0000 		.4byte	.LASF292
 2706 1432 1E       		.byte	0x1e
 2707 1433 7C01     		.2byte	0x17c
 2708 1435 21140000 		.4byte	0x1421
 2709 1439 2A       		.uleb128 0x2a
 2710 143a CD070000 		.4byte	.LASF293
 2711 143e 1F       		.byte	0x1f
 2712 143f 0B       		.byte	0xb
 2713 1440 47000000 		.4byte	0x47
 2714 1444 05       		.uleb128 0x5
 2715 1445 03       		.byte	0x3
 2716 1446 00000000 		.4byte	__dso_handle
 2717 144a 0E       		.uleb128 0xe
 2718 144b C7020000 		.4byte	.LASF294
 2719 144f 02       		.byte	0x2
 2720 1450 13       		.byte	0x13
 2721 1451 C3000000 		.4byte	0xc3
 2722 1455 2B       		.uleb128 0x2b
 2723 1456 C0060000 		.4byte	.LASF295
 2724 145a 02       		.byte	0x2
 2725 145b 1F       		.byte	0x1f
 2726 145c 00000000 		.4byte	.LFB337
 2727 1460 10000000 		.4byte	.LFE337-.LFB337
 2728 1464 01       		.uleb128 0x1
 2729 1465 9C       		.byte	0x9c
 2730 1466 2C       		.uleb128 0x2c
ARM GAS  /tmp/ccwKqRxp.s 			page 49


 2731 1467 90020000 		.4byte	.LASF296
 2732 146b 02       		.byte	0x2
 2733 146c 1B       		.byte	0x1b
 2734 146d 00000000 		.4byte	.LFB336
 2735 1471 04000000 		.4byte	.LFE336-.LFB336
 2736 1475 01       		.uleb128 0x1
 2737 1476 9C       		.byte	0x9c
 2738 1477 2D       		.uleb128 0x2d
 2739 1478 E4080000 		.4byte	.LASF297
 2740 147c 02       		.byte	0x2
 2741 147d 14       		.byte	0x14
 2742 147e C3000000 		.4byte	0xc3
 2743 1482 00000000 		.4byte	.LFB335
 2744 1486 1C000000 		.4byte	.LFE335-.LFB335
 2745 148a 01       		.uleb128 0x1
 2746 148b 9C       		.byte	0x9c
 2747 148c AD140000 		.4byte	0x14ad
 2748 1490 2E       		.uleb128 0x2e
 2749 1491 70696400 		.ascii	"pid\000"
 2750 1495 02       		.byte	0x2
 2751 1496 14       		.byte	0x14
 2752 1497 C3000000 		.4byte	0xc3
 2753 149b 02       		.uleb128 0x2
 2754 149c 91       		.byte	0x91
 2755 149d 7C       		.sleb128 -4
 2756 149e 2E       		.uleb128 0x2e
 2757 149f 73696700 		.ascii	"sig\000"
 2758 14a3 02       		.byte	0x2
 2759 14a4 14       		.byte	0x14
 2760 14a5 C3000000 		.4byte	0xc3
 2761 14a9 02       		.uleb128 0x2
 2762 14aa 91       		.byte	0x91
 2763 14ab 78       		.sleb128 -8
 2764 14ac 00       		.byte	0
 2765 14ad 2F       		.uleb128 0x2f
 2766 14ae 7E070000 		.4byte	.LASF298
 2767 14b2 02       		.byte	0x2
 2768 14b3 0C       		.byte	0xc
 2769 14b4 00000000 		.4byte	.LFB334
 2770 14b8 14000000 		.4byte	.LFE334-.LFB334
 2771 14bc 01       		.uleb128 0x1
 2772 14bd 9C       		.byte	0x9c
 2773 14be D1140000 		.4byte	0x14d1
 2774 14c2 30       		.uleb128 0x30
 2775 14c3 E20B0000 		.4byte	.LASF299
 2776 14c7 02       		.byte	0x2
 2777 14c8 0C       		.byte	0xc
 2778 14c9 C3000000 		.4byte	0xc3
 2779 14cd 02       		.uleb128 0x2
 2780 14ce 91       		.byte	0x91
 2781 14cf 74       		.sleb128 -12
 2782 14d0 00       		.byte	0
 2783 14d1 31       		.uleb128 0x31
 2784 14d2 A1060000 		.4byte	.LASF305
 2785 14d6 01       		.byte	0x1
 2786 14d7 DE01     		.2byte	0x1de
 2787 14d9 00000000 		.4byte	.LFB302
ARM GAS  /tmp/ccwKqRxp.s 			page 50


 2788 14dd 14000000 		.4byte	.LFE302-.LFB302
 2789 14e1 01       		.uleb128 0x1
 2790 14e2 9C       		.byte	0x9c
 2791 14e3 32       		.uleb128 0x32
 2792 14e4 100A0000 		.4byte	.LASF300
 2793 14e8 01       		.byte	0x1
 2794 14e9 DE01     		.2byte	0x1de
 2795 14eb 3D010000 		.4byte	0x13d
 2796 14ef 02       		.uleb128 0x2
 2797 14f0 91       		.byte	0x91
 2798 14f1 74       		.sleb128 -12
 2799 14f2 00       		.byte	0
 2800 14f3 00       		.byte	0
 2801              		.section	.debug_abbrev,"",%progbits
 2802              	.Ldebug_abbrev0:
 2803 0000 01       		.uleb128 0x1
 2804 0001 11       		.uleb128 0x11
 2805 0002 01       		.byte	0x1
 2806 0003 25       		.uleb128 0x25
 2807 0004 0E       		.uleb128 0xe
 2808 0005 13       		.uleb128 0x13
 2809 0006 0B       		.uleb128 0xb
 2810 0007 03       		.uleb128 0x3
 2811 0008 0E       		.uleb128 0xe
 2812 0009 1B       		.uleb128 0x1b
 2813 000a 0E       		.uleb128 0xe
 2814 000b 55       		.uleb128 0x55
 2815 000c 17       		.uleb128 0x17
 2816 000d 11       		.uleb128 0x11
 2817 000e 01       		.uleb128 0x1
 2818 000f 10       		.uleb128 0x10
 2819 0010 17       		.uleb128 0x17
 2820 0011 00       		.byte	0
 2821 0012 00       		.byte	0
 2822 0013 02       		.uleb128 0x2
 2823 0014 16       		.uleb128 0x16
 2824 0015 00       		.byte	0
 2825 0016 03       		.uleb128 0x3
 2826 0017 0E       		.uleb128 0xe
 2827 0018 3A       		.uleb128 0x3a
 2828 0019 0B       		.uleb128 0xb
 2829 001a 3B       		.uleb128 0x3b
 2830 001b 0B       		.uleb128 0xb
 2831 001c 49       		.uleb128 0x49
 2832 001d 13       		.uleb128 0x13
 2833 001e 00       		.byte	0
 2834 001f 00       		.byte	0
 2835 0020 03       		.uleb128 0x3
 2836 0021 13       		.uleb128 0x13
 2837 0022 01       		.byte	0x1
 2838 0023 03       		.uleb128 0x3
 2839 0024 0E       		.uleb128 0xe
 2840 0025 0B       		.uleb128 0xb
 2841 0026 0B       		.uleb128 0xb
 2842 0027 3A       		.uleb128 0x3a
 2843 0028 0B       		.uleb128 0xb
 2844 0029 3B       		.uleb128 0x3b
ARM GAS  /tmp/ccwKqRxp.s 			page 51


 2845 002a 0B       		.uleb128 0xb
 2846 002b 01       		.uleb128 0x1
 2847 002c 13       		.uleb128 0x13
 2848 002d 00       		.byte	0
 2849 002e 00       		.byte	0
 2850 002f 04       		.uleb128 0x4
 2851 0030 0D       		.uleb128 0xd
 2852 0031 00       		.byte	0
 2853 0032 03       		.uleb128 0x3
 2854 0033 0E       		.uleb128 0xe
 2855 0034 49       		.uleb128 0x49
 2856 0035 13       		.uleb128 0x13
 2857 0036 38       		.uleb128 0x38
 2858 0037 0B       		.uleb128 0xb
 2859 0038 34       		.uleb128 0x34
 2860 0039 19       		.uleb128 0x19
 2861 003a 00       		.byte	0
 2862 003b 00       		.byte	0
 2863 003c 05       		.uleb128 0x5
 2864 003d 0F       		.uleb128 0xf
 2865 003e 00       		.byte	0
 2866 003f 0B       		.uleb128 0xb
 2867 0040 0B       		.uleb128 0xb
 2868 0041 00       		.byte	0
 2869 0042 00       		.byte	0
 2870 0043 06       		.uleb128 0x6
 2871 0044 24       		.uleb128 0x24
 2872 0045 00       		.byte	0
 2873 0046 0B       		.uleb128 0xb
 2874 0047 0B       		.uleb128 0xb
 2875 0048 3E       		.uleb128 0x3e
 2876 0049 0B       		.uleb128 0xb
 2877 004a 03       		.uleb128 0x3
 2878 004b 0E       		.uleb128 0xe
 2879 004c 00       		.byte	0
 2880 004d 00       		.byte	0
 2881 004e 07       		.uleb128 0x7
 2882 004f 24       		.uleb128 0x24
 2883 0050 00       		.byte	0
 2884 0051 0B       		.uleb128 0xb
 2885 0052 0B       		.uleb128 0xb
 2886 0053 3E       		.uleb128 0x3e
 2887 0054 0B       		.uleb128 0xb
 2888 0055 03       		.uleb128 0x3
 2889 0056 08       		.uleb128 0x8
 2890 0057 00       		.byte	0
 2891 0058 00       		.byte	0
 2892 0059 08       		.uleb128 0x8
 2893 005a 26       		.uleb128 0x26
 2894 005b 00       		.byte	0
 2895 005c 49       		.uleb128 0x49
 2896 005d 13       		.uleb128 0x13
 2897 005e 00       		.byte	0
 2898 005f 00       		.byte	0
 2899 0060 09       		.uleb128 0x9
 2900 0061 35       		.uleb128 0x35
 2901 0062 00       		.byte	0
ARM GAS  /tmp/ccwKqRxp.s 			page 52


 2902 0063 49       		.uleb128 0x49
 2903 0064 13       		.uleb128 0x13
 2904 0065 00       		.byte	0
 2905 0066 00       		.byte	0
 2906 0067 0A       		.uleb128 0xa
 2907 0068 3B       		.uleb128 0x3b
 2908 0069 00       		.byte	0
 2909 006a 03       		.uleb128 0x3
 2910 006b 0E       		.uleb128 0xe
 2911 006c 00       		.byte	0
 2912 006d 00       		.byte	0
 2913 006e 0B       		.uleb128 0xb
 2914 006f 15       		.uleb128 0x15
 2915 0070 01       		.byte	0x1
 2916 0071 49       		.uleb128 0x49
 2917 0072 13       		.uleb128 0x13
 2918 0073 01       		.uleb128 0x1
 2919 0074 13       		.uleb128 0x13
 2920 0075 00       		.byte	0
 2921 0076 00       		.byte	0
 2922 0077 0C       		.uleb128 0xc
 2923 0078 05       		.uleb128 0x5
 2924 0079 00       		.byte	0
 2925 007a 49       		.uleb128 0x49
 2926 007b 13       		.uleb128 0x13
 2927 007c 00       		.byte	0
 2928 007d 00       		.byte	0
 2929 007e 0D       		.uleb128 0xd
 2930 007f 0F       		.uleb128 0xf
 2931 0080 00       		.byte	0
 2932 0081 0B       		.uleb128 0xb
 2933 0082 0B       		.uleb128 0xb
 2934 0083 49       		.uleb128 0x49
 2935 0084 13       		.uleb128 0x13
 2936 0085 00       		.byte	0
 2937 0086 00       		.byte	0
 2938 0087 0E       		.uleb128 0xe
 2939 0088 34       		.uleb128 0x34
 2940 0089 00       		.byte	0
 2941 008a 03       		.uleb128 0x3
 2942 008b 0E       		.uleb128 0xe
 2943 008c 3A       		.uleb128 0x3a
 2944 008d 0B       		.uleb128 0xb
 2945 008e 3B       		.uleb128 0x3b
 2946 008f 0B       		.uleb128 0xb
 2947 0090 49       		.uleb128 0x49
 2948 0091 13       		.uleb128 0x13
 2949 0092 3F       		.uleb128 0x3f
 2950 0093 19       		.uleb128 0x19
 2951 0094 3C       		.uleb128 0x3c
 2952 0095 19       		.uleb128 0x19
 2953 0096 00       		.byte	0
 2954 0097 00       		.byte	0
 2955 0098 0F       		.uleb128 0xf
 2956 0099 13       		.uleb128 0x13
 2957 009a 00       		.byte	0
 2958 009b 03       		.uleb128 0x3
ARM GAS  /tmp/ccwKqRxp.s 			page 53


 2959 009c 0E       		.uleb128 0xe
 2960 009d 3C       		.uleb128 0x3c
 2961 009e 19       		.uleb128 0x19
 2962 009f 00       		.byte	0
 2963 00a0 00       		.byte	0
 2964 00a1 10       		.uleb128 0x10
 2965 00a2 16       		.uleb128 0x16
 2966 00a3 00       		.byte	0
 2967 00a4 03       		.uleb128 0x3
 2968 00a5 0E       		.uleb128 0xe
 2969 00a6 3A       		.uleb128 0x3a
 2970 00a7 0B       		.uleb128 0xb
 2971 00a8 3B       		.uleb128 0x3b
 2972 00a9 05       		.uleb128 0x5
 2973 00aa 49       		.uleb128 0x49
 2974 00ab 13       		.uleb128 0x13
 2975 00ac 00       		.byte	0
 2976 00ad 00       		.byte	0
 2977 00ae 11       		.uleb128 0x11
 2978 00af 13       		.uleb128 0x13
 2979 00b0 01       		.byte	0x1
 2980 00b1 0B       		.uleb128 0xb
 2981 00b2 0B       		.uleb128 0xb
 2982 00b3 3A       		.uleb128 0x3a
 2983 00b4 0B       		.uleb128 0xb
 2984 00b5 3B       		.uleb128 0x3b
 2985 00b6 0B       		.uleb128 0xb
 2986 00b7 6E       		.uleb128 0x6e
 2987 00b8 0E       		.uleb128 0xe
 2988 00b9 01       		.uleb128 0x1
 2989 00ba 13       		.uleb128 0x13
 2990 00bb 00       		.byte	0
 2991 00bc 00       		.byte	0
 2992 00bd 12       		.uleb128 0x12
 2993 00be 17       		.uleb128 0x17
 2994 00bf 01       		.byte	0x1
 2995 00c0 0B       		.uleb128 0xb
 2996 00c1 0B       		.uleb128 0xb
 2997 00c2 3A       		.uleb128 0x3a
 2998 00c3 0B       		.uleb128 0xb
 2999 00c4 3B       		.uleb128 0x3b
 3000 00c5 0B       		.uleb128 0xb
 3001 00c6 01       		.uleb128 0x1
 3002 00c7 13       		.uleb128 0x13
 3003 00c8 00       		.byte	0
 3004 00c9 00       		.byte	0
 3005 00ca 13       		.uleb128 0x13
 3006 00cb 0D       		.uleb128 0xd
 3007 00cc 00       		.byte	0
 3008 00cd 03       		.uleb128 0x3
 3009 00ce 0E       		.uleb128 0xe
 3010 00cf 3A       		.uleb128 0x3a
 3011 00d0 0B       		.uleb128 0xb
 3012 00d1 3B       		.uleb128 0x3b
 3013 00d2 0B       		.uleb128 0xb
 3014 00d3 49       		.uleb128 0x49
 3015 00d4 13       		.uleb128 0x13
ARM GAS  /tmp/ccwKqRxp.s 			page 54


 3016 00d5 00       		.byte	0
 3017 00d6 00       		.byte	0
 3018 00d7 14       		.uleb128 0x14
 3019 00d8 0D       		.uleb128 0xd
 3020 00d9 00       		.byte	0
 3021 00da 03       		.uleb128 0x3
 3022 00db 0E       		.uleb128 0xe
 3023 00dc 3A       		.uleb128 0x3a
 3024 00dd 0B       		.uleb128 0xb
 3025 00de 3B       		.uleb128 0x3b
 3026 00df 0B       		.uleb128 0xb
 3027 00e0 49       		.uleb128 0x49
 3028 00e1 13       		.uleb128 0x13
 3029 00e2 38       		.uleb128 0x38
 3030 00e3 0B       		.uleb128 0xb
 3031 00e4 00       		.byte	0
 3032 00e5 00       		.byte	0
 3033 00e6 15       		.uleb128 0x15
 3034 00e7 01       		.uleb128 0x1
 3035 00e8 01       		.byte	0x1
 3036 00e9 49       		.uleb128 0x49
 3037 00ea 13       		.uleb128 0x13
 3038 00eb 01       		.uleb128 0x1
 3039 00ec 13       		.uleb128 0x13
 3040 00ed 00       		.byte	0
 3041 00ee 00       		.byte	0
 3042 00ef 16       		.uleb128 0x16
 3043 00f0 21       		.uleb128 0x21
 3044 00f1 00       		.byte	0
 3045 00f2 49       		.uleb128 0x49
 3046 00f3 13       		.uleb128 0x13
 3047 00f4 2F       		.uleb128 0x2f
 3048 00f5 0B       		.uleb128 0xb
 3049 00f6 00       		.byte	0
 3050 00f7 00       		.byte	0
 3051 00f8 17       		.uleb128 0x17
 3052 00f9 0D       		.uleb128 0xd
 3053 00fa 00       		.byte	0
 3054 00fb 03       		.uleb128 0x3
 3055 00fc 08       		.uleb128 0x8
 3056 00fd 3A       		.uleb128 0x3a
 3057 00fe 0B       		.uleb128 0xb
 3058 00ff 3B       		.uleb128 0x3b
 3059 0100 0B       		.uleb128 0xb
 3060 0101 49       		.uleb128 0x49
 3061 0102 13       		.uleb128 0x13
 3062 0103 38       		.uleb128 0x38
 3063 0104 0B       		.uleb128 0xb
 3064 0105 00       		.byte	0
 3065 0106 00       		.byte	0
 3066 0107 18       		.uleb128 0x18
 3067 0108 13       		.uleb128 0x13
 3068 0109 01       		.byte	0x1
 3069 010a 03       		.uleb128 0x3
 3070 010b 0E       		.uleb128 0xe
 3071 010c 0B       		.uleb128 0xb
 3072 010d 05       		.uleb128 0x5
ARM GAS  /tmp/ccwKqRxp.s 			page 55


 3073 010e 3A       		.uleb128 0x3a
 3074 010f 0B       		.uleb128 0xb
 3075 0110 3B       		.uleb128 0x3b
 3076 0111 0B       		.uleb128 0xb
 3077 0112 01       		.uleb128 0x1
 3078 0113 13       		.uleb128 0x13
 3079 0114 00       		.byte	0
 3080 0115 00       		.byte	0
 3081 0116 19       		.uleb128 0x19
 3082 0117 0D       		.uleb128 0xd
 3083 0118 00       		.byte	0
 3084 0119 03       		.uleb128 0x3
 3085 011a 0E       		.uleb128 0xe
 3086 011b 3A       		.uleb128 0x3a
 3087 011c 0B       		.uleb128 0xb
 3088 011d 3B       		.uleb128 0x3b
 3089 011e 0B       		.uleb128 0xb
 3090 011f 49       		.uleb128 0x49
 3091 0120 13       		.uleb128 0x13
 3092 0121 38       		.uleb128 0x38
 3093 0122 05       		.uleb128 0x5
 3094 0123 00       		.byte	0
 3095 0124 00       		.byte	0
 3096 0125 1A       		.uleb128 0x1a
 3097 0126 15       		.uleb128 0x15
 3098 0127 00       		.byte	0
 3099 0128 00       		.byte	0
 3100 0129 00       		.byte	0
 3101 012a 1B       		.uleb128 0x1b
 3102 012b 13       		.uleb128 0x13
 3103 012c 01       		.byte	0x1
 3104 012d 03       		.uleb128 0x3
 3105 012e 0E       		.uleb128 0xe
 3106 012f 0B       		.uleb128 0xb
 3107 0130 05       		.uleb128 0x5
 3108 0131 3A       		.uleb128 0x3a
 3109 0132 0B       		.uleb128 0xb
 3110 0133 3B       		.uleb128 0x3b
 3111 0134 05       		.uleb128 0x5
 3112 0135 01       		.uleb128 0x1
 3113 0136 13       		.uleb128 0x13
 3114 0137 00       		.byte	0
 3115 0138 00       		.byte	0
 3116 0139 1C       		.uleb128 0x1c
 3117 013a 17       		.uleb128 0x17
 3118 013b 01       		.byte	0x1
 3119 013c 0B       		.uleb128 0xb
 3120 013d 0B       		.uleb128 0xb
 3121 013e 3A       		.uleb128 0x3a
 3122 013f 0B       		.uleb128 0xb
 3123 0140 3B       		.uleb128 0x3b
 3124 0141 05       		.uleb128 0x5
 3125 0142 01       		.uleb128 0x1
 3126 0143 13       		.uleb128 0x13
 3127 0144 00       		.byte	0
 3128 0145 00       		.byte	0
 3129 0146 1D       		.uleb128 0x1d
ARM GAS  /tmp/ccwKqRxp.s 			page 56


 3130 0147 13       		.uleb128 0x13
 3131 0148 01       		.byte	0x1
 3132 0149 0B       		.uleb128 0xb
 3133 014a 0B       		.uleb128 0xb
 3134 014b 3A       		.uleb128 0x3a
 3135 014c 0B       		.uleb128 0xb
 3136 014d 3B       		.uleb128 0x3b
 3137 014e 05       		.uleb128 0x5
 3138 014f 01       		.uleb128 0x1
 3139 0150 13       		.uleb128 0x13
 3140 0151 00       		.byte	0
 3141 0152 00       		.byte	0
 3142 0153 1E       		.uleb128 0x1e
 3143 0154 0D       		.uleb128 0xd
 3144 0155 00       		.byte	0
 3145 0156 03       		.uleb128 0x3
 3146 0157 0E       		.uleb128 0xe
 3147 0158 3A       		.uleb128 0x3a
 3148 0159 0B       		.uleb128 0xb
 3149 015a 3B       		.uleb128 0x3b
 3150 015b 05       		.uleb128 0x5
 3151 015c 49       		.uleb128 0x49
 3152 015d 13       		.uleb128 0x13
 3153 015e 38       		.uleb128 0x38
 3154 015f 0B       		.uleb128 0xb
 3155 0160 00       		.byte	0
 3156 0161 00       		.byte	0
 3157 0162 1F       		.uleb128 0x1f
 3158 0163 0D       		.uleb128 0xd
 3159 0164 00       		.byte	0
 3160 0165 03       		.uleb128 0x3
 3161 0166 0E       		.uleb128 0xe
 3162 0167 3A       		.uleb128 0x3a
 3163 0168 0B       		.uleb128 0xb
 3164 0169 3B       		.uleb128 0x3b
 3165 016a 05       		.uleb128 0x5
 3166 016b 49       		.uleb128 0x49
 3167 016c 13       		.uleb128 0x13
 3168 016d 00       		.byte	0
 3169 016e 00       		.byte	0
 3170 016f 20       		.uleb128 0x20
 3171 0170 0D       		.uleb128 0xd
 3172 0171 00       		.byte	0
 3173 0172 03       		.uleb128 0x3
 3174 0173 0E       		.uleb128 0xe
 3175 0174 3A       		.uleb128 0x3a
 3176 0175 0B       		.uleb128 0xb
 3177 0176 3B       		.uleb128 0x3b
 3178 0177 05       		.uleb128 0x5
 3179 0178 49       		.uleb128 0x49
 3180 0179 13       		.uleb128 0x13
 3181 017a 38       		.uleb128 0x38
 3182 017b 05       		.uleb128 0x5
 3183 017c 00       		.byte	0
 3184 017d 00       		.byte	0
 3185 017e 21       		.uleb128 0x21
 3186 017f 13       		.uleb128 0x13
ARM GAS  /tmp/ccwKqRxp.s 			page 57


 3187 0180 01       		.byte	0x1
 3188 0181 03       		.uleb128 0x3
 3189 0182 0E       		.uleb128 0xe
 3190 0183 0B       		.uleb128 0xb
 3191 0184 0B       		.uleb128 0xb
 3192 0185 3A       		.uleb128 0x3a
 3193 0186 0B       		.uleb128 0xb
 3194 0187 3B       		.uleb128 0x3b
 3195 0188 05       		.uleb128 0x5
 3196 0189 01       		.uleb128 0x1
 3197 018a 13       		.uleb128 0x13
 3198 018b 00       		.byte	0
 3199 018c 00       		.byte	0
 3200 018d 22       		.uleb128 0x22
 3201 018e 15       		.uleb128 0x15
 3202 018f 01       		.byte	0x1
 3203 0190 01       		.uleb128 0x1
 3204 0191 13       		.uleb128 0x13
 3205 0192 00       		.byte	0
 3206 0193 00       		.byte	0
 3207 0194 23       		.uleb128 0x23
 3208 0195 34       		.uleb128 0x34
 3209 0196 00       		.byte	0
 3210 0197 03       		.uleb128 0x3
 3211 0198 0E       		.uleb128 0xe
 3212 0199 3A       		.uleb128 0x3a
 3213 019a 0B       		.uleb128 0xb
 3214 019b 3B       		.uleb128 0x3b
 3215 019c 05       		.uleb128 0x5
 3216 019d 49       		.uleb128 0x49
 3217 019e 13       		.uleb128 0x13
 3218 019f 3F       		.uleb128 0x3f
 3219 01a0 19       		.uleb128 0x19
 3220 01a1 3C       		.uleb128 0x3c
 3221 01a2 19       		.uleb128 0x19
 3222 01a3 00       		.byte	0
 3223 01a4 00       		.byte	0
 3224 01a5 24       		.uleb128 0x24
 3225 01a6 21       		.uleb128 0x21
 3226 01a7 00       		.byte	0
 3227 01a8 00       		.byte	0
 3228 01a9 00       		.byte	0
 3229 01aa 25       		.uleb128 0x25
 3230 01ab 0D       		.uleb128 0xd
 3231 01ac 00       		.byte	0
 3232 01ad 03       		.uleb128 0x3
 3233 01ae 08       		.uleb128 0x8
 3234 01af 3A       		.uleb128 0x3a
 3235 01b0 0B       		.uleb128 0xb
 3236 01b1 3B       		.uleb128 0x3b
 3237 01b2 05       		.uleb128 0x5
 3238 01b3 49       		.uleb128 0x49
 3239 01b4 13       		.uleb128 0x13
 3240 01b5 38       		.uleb128 0x38
 3241 01b6 0B       		.uleb128 0xb
 3242 01b7 00       		.byte	0
 3243 01b8 00       		.byte	0
ARM GAS  /tmp/ccwKqRxp.s 			page 58


 3244 01b9 26       		.uleb128 0x26
 3245 01ba 04       		.uleb128 0x4
 3246 01bb 01       		.byte	0x1
 3247 01bc 0B       		.uleb128 0xb
 3248 01bd 0B       		.uleb128 0xb
 3249 01be 49       		.uleb128 0x49
 3250 01bf 13       		.uleb128 0x13
 3251 01c0 3A       		.uleb128 0x3a
 3252 01c1 0B       		.uleb128 0xb
 3253 01c2 3B       		.uleb128 0x3b
 3254 01c3 0B       		.uleb128 0xb
 3255 01c4 6E       		.uleb128 0x6e
 3256 01c5 0E       		.uleb128 0xe
 3257 01c6 01       		.uleb128 0x1
 3258 01c7 13       		.uleb128 0x13
 3259 01c8 00       		.byte	0
 3260 01c9 00       		.byte	0
 3261 01ca 27       		.uleb128 0x27
 3262 01cb 28       		.uleb128 0x28
 3263 01cc 00       		.byte	0
 3264 01cd 03       		.uleb128 0x3
 3265 01ce 0E       		.uleb128 0xe
 3266 01cf 1C       		.uleb128 0x1c
 3267 01d0 0B       		.uleb128 0xb
 3268 01d1 00       		.byte	0
 3269 01d2 00       		.byte	0
 3270 01d3 28       		.uleb128 0x28
 3271 01d4 28       		.uleb128 0x28
 3272 01d5 00       		.byte	0
 3273 01d6 03       		.uleb128 0x3
 3274 01d7 08       		.uleb128 0x8
 3275 01d8 1C       		.uleb128 0x1c
 3276 01d9 0B       		.uleb128 0xb
 3277 01da 00       		.byte	0
 3278 01db 00       		.byte	0
 3279 01dc 29       		.uleb128 0x29
 3280 01dd 34       		.uleb128 0x34
 3281 01de 00       		.byte	0
 3282 01df 03       		.uleb128 0x3
 3283 01e0 08       		.uleb128 0x8
 3284 01e1 3A       		.uleb128 0x3a
 3285 01e2 0B       		.uleb128 0xb
 3286 01e3 3B       		.uleb128 0x3b
 3287 01e4 05       		.uleb128 0x5
 3288 01e5 49       		.uleb128 0x49
 3289 01e6 13       		.uleb128 0x13
 3290 01e7 3F       		.uleb128 0x3f
 3291 01e8 19       		.uleb128 0x19
 3292 01e9 3C       		.uleb128 0x3c
 3293 01ea 19       		.uleb128 0x19
 3294 01eb 00       		.byte	0
 3295 01ec 00       		.byte	0
 3296 01ed 2A       		.uleb128 0x2a
 3297 01ee 34       		.uleb128 0x34
 3298 01ef 00       		.byte	0
 3299 01f0 03       		.uleb128 0x3
 3300 01f1 0E       		.uleb128 0xe
ARM GAS  /tmp/ccwKqRxp.s 			page 59


 3301 01f2 3A       		.uleb128 0x3a
 3302 01f3 0B       		.uleb128 0xb
 3303 01f4 3B       		.uleb128 0x3b
 3304 01f5 0B       		.uleb128 0xb
 3305 01f6 49       		.uleb128 0x49
 3306 01f7 13       		.uleb128 0x13
 3307 01f8 3F       		.uleb128 0x3f
 3308 01f9 19       		.uleb128 0x19
 3309 01fa 02       		.uleb128 0x2
 3310 01fb 18       		.uleb128 0x18
 3311 01fc 00       		.byte	0
 3312 01fd 00       		.byte	0
 3313 01fe 2B       		.uleb128 0x2b
 3314 01ff 2E       		.uleb128 0x2e
 3315 0200 00       		.byte	0
 3316 0201 3F       		.uleb128 0x3f
 3317 0202 19       		.uleb128 0x19
 3318 0203 03       		.uleb128 0x3
 3319 0204 0E       		.uleb128 0xe
 3320 0205 3A       		.uleb128 0x3a
 3321 0206 0B       		.uleb128 0xb
 3322 0207 3B       		.uleb128 0x3b
 3323 0208 0B       		.uleb128 0xb
 3324 0209 11       		.uleb128 0x11
 3325 020a 01       		.uleb128 0x1
 3326 020b 12       		.uleb128 0x12
 3327 020c 06       		.uleb128 0x6
 3328 020d 40       		.uleb128 0x40
 3329 020e 18       		.uleb128 0x18
 3330 020f 9642     		.uleb128 0x2116
 3331 0211 19       		.uleb128 0x19
 3332 0212 00       		.byte	0
 3333 0213 00       		.byte	0
 3334 0214 2C       		.uleb128 0x2c
 3335 0215 2E       		.uleb128 0x2e
 3336 0216 00       		.byte	0
 3337 0217 3F       		.uleb128 0x3f
 3338 0218 19       		.uleb128 0x19
 3339 0219 03       		.uleb128 0x3
 3340 021a 0E       		.uleb128 0xe
 3341 021b 3A       		.uleb128 0x3a
 3342 021c 0B       		.uleb128 0xb
 3343 021d 3B       		.uleb128 0x3b
 3344 021e 0B       		.uleb128 0xb
 3345 021f 11       		.uleb128 0x11
 3346 0220 01       		.uleb128 0x1
 3347 0221 12       		.uleb128 0x12
 3348 0222 06       		.uleb128 0x6
 3349 0223 40       		.uleb128 0x40
 3350 0224 18       		.uleb128 0x18
 3351 0225 9742     		.uleb128 0x2117
 3352 0227 19       		.uleb128 0x19
 3353 0228 00       		.byte	0
 3354 0229 00       		.byte	0
 3355 022a 2D       		.uleb128 0x2d
 3356 022b 2E       		.uleb128 0x2e
 3357 022c 01       		.byte	0x1
ARM GAS  /tmp/ccwKqRxp.s 			page 60


 3358 022d 3F       		.uleb128 0x3f
 3359 022e 19       		.uleb128 0x19
 3360 022f 03       		.uleb128 0x3
 3361 0230 0E       		.uleb128 0xe
 3362 0231 3A       		.uleb128 0x3a
 3363 0232 0B       		.uleb128 0xb
 3364 0233 3B       		.uleb128 0x3b
 3365 0234 0B       		.uleb128 0xb
 3366 0235 49       		.uleb128 0x49
 3367 0236 13       		.uleb128 0x13
 3368 0237 11       		.uleb128 0x11
 3369 0238 01       		.uleb128 0x1
 3370 0239 12       		.uleb128 0x12
 3371 023a 06       		.uleb128 0x6
 3372 023b 40       		.uleb128 0x40
 3373 023c 18       		.uleb128 0x18
 3374 023d 9742     		.uleb128 0x2117
 3375 023f 19       		.uleb128 0x19
 3376 0240 01       		.uleb128 0x1
 3377 0241 13       		.uleb128 0x13
 3378 0242 00       		.byte	0
 3379 0243 00       		.byte	0
 3380 0244 2E       		.uleb128 0x2e
 3381 0245 05       		.uleb128 0x5
 3382 0246 00       		.byte	0
 3383 0247 03       		.uleb128 0x3
 3384 0248 08       		.uleb128 0x8
 3385 0249 3A       		.uleb128 0x3a
 3386 024a 0B       		.uleb128 0xb
 3387 024b 3B       		.uleb128 0x3b
 3388 024c 0B       		.uleb128 0xb
 3389 024d 49       		.uleb128 0x49
 3390 024e 13       		.uleb128 0x13
 3391 024f 02       		.uleb128 0x2
 3392 0250 18       		.uleb128 0x18
 3393 0251 00       		.byte	0
 3394 0252 00       		.byte	0
 3395 0253 2F       		.uleb128 0x2f
 3396 0254 2E       		.uleb128 0x2e
 3397 0255 01       		.byte	0x1
 3398 0256 3F       		.uleb128 0x3f
 3399 0257 19       		.uleb128 0x19
 3400 0258 03       		.uleb128 0x3
 3401 0259 0E       		.uleb128 0xe
 3402 025a 3A       		.uleb128 0x3a
 3403 025b 0B       		.uleb128 0xb
 3404 025c 3B       		.uleb128 0x3b
 3405 025d 0B       		.uleb128 0xb
 3406 025e 8701     		.uleb128 0x87
 3407 0260 19       		.uleb128 0x19
 3408 0261 11       		.uleb128 0x11
 3409 0262 01       		.uleb128 0x1
 3410 0263 12       		.uleb128 0x12
 3411 0264 06       		.uleb128 0x6
 3412 0265 40       		.uleb128 0x40
 3413 0266 18       		.uleb128 0x18
 3414 0267 9642     		.uleb128 0x2116
ARM GAS  /tmp/ccwKqRxp.s 			page 61


 3415 0269 19       		.uleb128 0x19
 3416 026a 01       		.uleb128 0x1
 3417 026b 13       		.uleb128 0x13
 3418 026c 00       		.byte	0
 3419 026d 00       		.byte	0
 3420 026e 30       		.uleb128 0x30
 3421 026f 05       		.uleb128 0x5
 3422 0270 00       		.byte	0
 3423 0271 03       		.uleb128 0x3
 3424 0272 0E       		.uleb128 0xe
 3425 0273 3A       		.uleb128 0x3a
 3426 0274 0B       		.uleb128 0xb
 3427 0275 3B       		.uleb128 0x3b
 3428 0276 0B       		.uleb128 0xb
 3429 0277 49       		.uleb128 0x49
 3430 0278 13       		.uleb128 0x13
 3431 0279 02       		.uleb128 0x2
 3432 027a 18       		.uleb128 0x18
 3433 027b 00       		.byte	0
 3434 027c 00       		.byte	0
 3435 027d 31       		.uleb128 0x31
 3436 027e 2E       		.uleb128 0x2e
 3437 027f 01       		.byte	0x1
 3438 0280 03       		.uleb128 0x3
 3439 0281 0E       		.uleb128 0xe
 3440 0282 3A       		.uleb128 0x3a
 3441 0283 0B       		.uleb128 0xb
 3442 0284 3B       		.uleb128 0x3b
 3443 0285 05       		.uleb128 0x5
 3444 0286 11       		.uleb128 0x11
 3445 0287 01       		.uleb128 0x1
 3446 0288 12       		.uleb128 0x12
 3447 0289 06       		.uleb128 0x6
 3448 028a 40       		.uleb128 0x40
 3449 028b 18       		.uleb128 0x18
 3450 028c 9642     		.uleb128 0x2116
 3451 028e 19       		.uleb128 0x19
 3452 028f 00       		.byte	0
 3453 0290 00       		.byte	0
 3454 0291 32       		.uleb128 0x32
 3455 0292 05       		.uleb128 0x5
 3456 0293 00       		.byte	0
 3457 0294 03       		.uleb128 0x3
 3458 0295 0E       		.uleb128 0xe
 3459 0296 3A       		.uleb128 0x3a
 3460 0297 0B       		.uleb128 0xb
 3461 0298 3B       		.uleb128 0x3b
 3462 0299 05       		.uleb128 0x5
 3463 029a 49       		.uleb128 0x49
 3464 029b 13       		.uleb128 0x13
 3465 029c 02       		.uleb128 0x2
 3466 029d 18       		.uleb128 0x18
 3467 029e 00       		.byte	0
 3468 029f 00       		.byte	0
 3469 02a0 00       		.byte	0
 3470              		.section	.debug_aranges,"",%progbits
 3471 0000 3C000000 		.4byte	0x3c
ARM GAS  /tmp/ccwKqRxp.s 			page 62


 3472 0004 0200     		.2byte	0x2
 3473 0006 00000000 		.4byte	.Ldebug_info0
 3474 000a 04       		.byte	0x4
 3475 000b 00       		.byte	0
 3476 000c 0000     		.2byte	0
 3477 000e 0000     		.2byte	0
 3478 0010 00000000 		.4byte	.LFB302
 3479 0014 14000000 		.4byte	.LFE302-.LFB302
 3480 0018 00000000 		.4byte	.LFB334
 3481 001c 14000000 		.4byte	.LFE334-.LFB334
 3482 0020 00000000 		.4byte	.LFB335
 3483 0024 1C000000 		.4byte	.LFE335-.LFB335
 3484 0028 00000000 		.4byte	.LFB336
 3485 002c 04000000 		.4byte	.LFE336-.LFB336
 3486 0030 00000000 		.4byte	.LFB337
 3487 0034 10000000 		.4byte	.LFE337-.LFB337
 3488 0038 00000000 		.4byte	0
 3489 003c 00000000 		.4byte	0
 3490              		.section	.debug_ranges,"",%progbits
 3491              	.Ldebug_ranges0:
 3492 0000 00000000 		.4byte	.LFB302
 3493 0004 14000000 		.4byte	.LFE302
 3494 0008 00000000 		.4byte	.LFB334
 3495 000c 14000000 		.4byte	.LFE334
 3496 0010 00000000 		.4byte	.LFB335
 3497 0014 1C000000 		.4byte	.LFE335
 3498 0018 00000000 		.4byte	.LFB336
 3499 001c 04000000 		.4byte	.LFE336
 3500 0020 00000000 		.4byte	.LFB337
 3501 0024 10000000 		.4byte	.LFE337
 3502 0028 00000000 		.4byte	0
 3503 002c 00000000 		.4byte	0
 3504              		.section	.debug_line,"",%progbits
 3505              	.Ldebug_line0:
 3506 0000 98040000 		.section	.debug_str,"MS",%progbits,1
 3506      02002F04 
 3506      00000201 
 3506      FB0E0D00 
 3506      01010101 
 3507              	.LASF253:
 3508 0000 6F66665F 		.ascii	"off_ctx\000"
 3508      63747800 
 3509              	.LASF21:
 3510 0008 73697A65 		.ascii	"size_t\000"
 3510      5F7400
 3511              	.LASF252:
 3512 000f 6F66665F 		.ascii	"off_prio\000"
 3512      7072696F 
 3512      00
 3513              	.LASF33:
 3514 0018 73697A65 		.ascii	"sizetype\000"
 3514      74797065 
 3514      00
 3515              	.LASF134:
 3516 0021 5F5F6C6F 		.ascii	"__locale_t\000"
 3516      63616C65 
 3516      5F7400
ARM GAS  /tmp/ccwKqRxp.s 			page 63


 3517              	.LASF32:
 3518 002c 5F5F7661 		.ascii	"__value\000"
 3518      6C756500 
 3519              	.LASF203:
 3520 0034 73797374 		.ascii	"systime_t\000"
 3520      696D655F 
 3520      7400
 3521              	.LASF261:
 3522 003e 6F66665F 		.ascii	"off_preempt\000"
 3522      70726565 
 3522      6D707400 
 3523              	.LASF124:
 3524 004a 5F5F7366 		.ascii	"__sf\000"
 3524      00
 3525              	.LASF242:
 3526 004f 6F776E65 		.ascii	"owner\000"
 3526      7200
 3527              	.LASF69:
 3528 0055 5F726561 		.ascii	"_read\000"
 3528      6400
 3529              	.LASF145:
 3530 005b 74707269 		.ascii	"tprio_t\000"
 3530      6F5F7400 
 3531              	.LASF264:
 3532 0063 63685F64 		.ascii	"ch_debug\000"
 3532      65627567 
 3532      00
 3533              	.LASF216:
 3534 006c 31314572 		.ascii	"11ErrorStatus\000"
 3534      726F7253 
 3534      74617475 
 3534      7300
 3535              	.LASF277:
 3536 007a 70726F76 		.ascii	"provider\000"
 3536      69646572 
 3536      00
 3537              	.LASF70:
 3538 0083 5F777269 		.ascii	"_write\000"
 3538      746500
 3539              	.LASF18:
 3540 008a 696E7433 		.ascii	"int32_t\000"
 3540      325F7400 
 3541              	.LASF84:
 3542 0092 5F617363 		.ascii	"_asctime_buf\000"
 3542      74696D65 
 3542      5F627566 
 3542      00
 3543              	.LASF118:
 3544 009f 5F637674 		.ascii	"_cvtlen\000"
 3544      6C656E00 
 3545              	.LASF186:
 3546 00a7 76746675 		.ascii	"vtfunc_t\000"
 3546      6E635F74 
 3546      00
 3547              	.LASF192:
 3548 00b0 63685F76 		.ascii	"ch_virtual_timers_list\000"
 3548      69727475 
ARM GAS  /tmp/ccwKqRxp.s 			page 64


 3548      616C5F74 
 3548      696D6572 
 3548      735F6C69 
 3549              	.LASF103:
 3550 00c7 5F756E75 		.ascii	"_unused\000"
 3550      73656400 
 3551              	.LASF43:
 3552 00cf 5F5F746D 		.ascii	"__tm\000"
 3552      00
 3553              	.LASF99:
 3554 00d4 5F776373 		.ascii	"_wcsrtombs_state\000"
 3554      72746F6D 
 3554      62735F73 
 3554      74617465 
 3554      00
 3555              	.LASF74:
 3556 00e5 5F6E6275 		.ascii	"_nbuf\000"
 3556      6600
 3557              	.LASF44:
 3558 00eb 5F5F746D 		.ascii	"__tm_sec\000"
 3558      5F736563 
 3558      00
 3559              	.LASF92:
 3560 00f4 5F6C3634 		.ascii	"_l64a_buf\000"
 3560      615F6275 
 3560      6600
 3561              	.LASF279:
 3562 00fe 63685F64 		.ascii	"ch_dyn_element\000"
 3562      796E5F65 
 3562      6C656D65 
 3562      6E7400
 3563              	.LASF63:
 3564 010d 5F73697A 		.ascii	"_size\000"
 3564      6500
 3565              	.LASF166:
 3566 0113 73746174 		.ascii	"state\000"
 3566      6500
 3567              	.LASF78:
 3568 0119 5F6C6F63 		.ascii	"_lock\000"
 3568      6B00
 3569              	.LASF175:
 3570 011f 73746174 		.ascii	"stats\000"
 3570      7300
 3571              	.LASF131:
 3572 0125 5F6D756C 		.ascii	"_mult\000"
 3572      7400
 3573              	.LASF301:
 3574 012b 474E5520 		.ascii	"GNU C++11 6.3.1 20170620 (release) [ARM/embedded-6-"
 3574      432B2B31 
 3574      3120362E 
 3574      332E3120 
 3574      32303137 
 3575 015e 6272616E 		.ascii	"branch revision 249437] -mcpu=cortex-m7 -mfloat-abi"
 3575      63682072 
 3575      65766973 
 3575      696F6E20 
 3575      32343934 
ARM GAS  /tmp/ccwKqRxp.s 			page 65


 3576 0191 3D686172 		.ascii	"=hard -mfpu=fpv4-sp-d16 -mno-thumb-interwork -mthum"
 3576      64202D6D 
 3576      6670753D 
 3576      66707634 
 3576      2D73702D 
 3577 01c4 62202D67 		.ascii	"b -g -std=gnu++11 -fomit-frame-pointer -falign-func"
 3577      202D7374 
 3577      643D676E 
 3577      752B2B31 
 3577      31202D66 
 3578 01f7 74696F6E 		.ascii	"tions=16 -ffunction-sections -fdata-sections -fno-c"
 3578      733D3136 
 3578      202D6666 
 3578      756E6374 
 3578      696F6E2D 
 3579 022a 6F6D6D6F 		.ascii	"ommon -fsingle-precision-constant -fno-rtti\000"
 3579      6E202D66 
 3579      73696E67 
 3579      6C652D70 
 3579      72656369 
 3580              	.LASF284:
 3581 0256 6F626A5F 		.ascii	"obj_list\000"
 3581      6C697374 
 3581      00
 3582              	.LASF233:
 3583 025f 74696D65 		.ascii	"time_measurement_t\000"
 3583      5F6D6561 
 3583      73757265 
 3583      6D656E74 
 3583      5F7400
 3584              	.LASF255:
 3585 0272 6F66665F 		.ascii	"off_older\000"
 3585      6F6C6465 
 3585      7200
 3586              	.LASF161:
 3587 027c 7072696F 		.ascii	"prio\000"
 3587      00
 3588              	.LASF29:
 3589 0281 5F5F7763 		.ascii	"__wch\000"
 3589      6800
 3590              	.LASF153:
 3591 0287 65786974 		.ascii	"exitcode\000"
 3591      636F6465 
 3591      00
 3592              	.LASF296:
 3593 0290 5F6F7065 		.ascii	"_open_r\000"
 3593      6E5F7200 
 3594              	.LASF2:
 3595 0298 5F5F7569 		.ascii	"__uint8_t\000"
 3595      6E74385F 
 3595      7400
 3596              	.LASF66:
 3597 02a2 5F66696C 		.ascii	"_file\000"
 3597      6500
 3598              	.LASF53:
 3599 02a8 5F6F6E5F 		.ascii	"_on_exit_args\000"
 3599      65786974 
ARM GAS  /tmp/ccwKqRxp.s 			page 66


 3599      5F617267 
 3599      7300
 3600              	.LASF139:
 3601 02b6 5F737973 		.ascii	"_sys_nerr\000"
 3601      5F6E6572 
 3601      7200
 3602              	.LASF270:
 3603 02c0 656E646D 		.ascii	"endmem\000"
 3603      656D00
 3604              	.LASF294:
 3605 02c7 6572726E 		.ascii	"errno\000"
 3605      6F00
 3606              	.LASF95:
 3607 02cd 5F6D6272 		.ascii	"_mbrlen_state\000"
 3607      6C656E5F 
 3607      73746174 
 3607      6500
 3608              	.LASF9:
 3609 02db 6C6F6E67 		.ascii	"long int\000"
 3609      20696E74 
 3609      00
 3610              	.LASF136:
 3611 02e4 5F696D70 		.ascii	"_impure_ptr\000"
 3611      7572655F 
 3611      70747200 
 3612              	.LASF115:
 3613 02f0 5F726573 		.ascii	"_result_k\000"
 3613      756C745F 
 3613      6B00
 3614              	.LASF224:
 3615 02fa 31305F6D 		.ascii	"10_mbstate_t\000"
 3615      62737461 
 3615      74655F74 
 3615      00
 3616              	.LASF246:
 3617 0307 7A65726F 		.ascii	"zero\000"
 3617      00
 3618              	.LASF85:
 3619 030c 5F6C6F63 		.ascii	"_localtime_buf\000"
 3619      616C7469 
 3619      6D655F62 
 3619      756600
 3620              	.LASF143:
 3621 031b 74737461 		.ascii	"tstate_t\000"
 3621      74655F74 
 3621      00
 3622              	.LASF141:
 3623 0324 72747469 		.ascii	"rttime_t\000"
 3623      6D655F74 
 3623      00
 3624              	.LASF258:
 3625 032d 6F66665F 		.ascii	"off_state\000"
 3625      73746174 
 3625      6500
 3626              	.LASF180:
 3627 0337 74687265 		.ascii	"threads_queue_t\000"
 3627      6164735F 
ARM GAS  /tmp/ccwKqRxp.s 			page 67


 3627      71756575 
 3627      655F7400 
 3628              	.LASF220:
 3629 0347 72656761 		.ascii	"regarm_t\000"
 3629      726D5F74 
 3629      00
 3630              	.LASF211:
 3631 0350 3130466C 		.ascii	"10FlagStatus\000"
 3631      61675374 
 3631      61747573 
 3631      00
 3632              	.LASF48:
 3633 035d 5F5F746D 		.ascii	"__tm_mon\000"
 3633      5F6D6F6E 
 3633      00
 3634              	.LASF285:
 3635 0366 6F626A5F 		.ascii	"obj_pool\000"
 3635      706F6F6C 
 3635      00
 3636              	.LASF303:
 3637 036f 2F686F6D 		.ascii	"/home/incsl/ardupilot/build/CUAVv5\000"
 3637      652F696E 
 3637      63736C2F 
 3637      61726475 
 3637      70696C6F 
 3638              	.LASF82:
 3639 0392 5F756E75 		.ascii	"_unused_rand\000"
 3639      7365645F 
 3639      72616E64 
 3639      00
 3640              	.LASF271:
 3641 039f 6D656D63 		.ascii	"memcore_t\000"
 3641      6F72655F 
 3641      7400
 3642              	.LASF3:
 3643 03a9 7369676E 		.ascii	"signed char\000"
 3643      65642063 
 3643      68617200 
 3644              	.LASF159:
 3645 03b5 65776D61 		.ascii	"ewmask\000"
 3645      736B00
 3646              	.LASF16:
 3647 03bc 75696E74 		.ascii	"uint8_t\000"
 3647      385F7400 
 3648              	.LASF147:
 3649 03c4 6576656E 		.ascii	"eventmask_t\000"
 3649      746D6173 
 3649      6B5F7400 
 3650              	.LASF155:
 3651 03d0 77747472 		.ascii	"wttrp\000"
 3651      7000
 3652              	.LASF4:
 3653 03d6 756E7369 		.ascii	"unsigned char\000"
 3653      676E6564 
 3653      20636861 
 3653      7200
 3654              	.LASF193:
ARM GAS  /tmp/ccwKqRxp.s 			page 68


 3655 03e4 6C617374 		.ascii	"lasttime\000"
 3655      74696D65 
 3655      00
 3656              	.LASF196:
 3657 03ed 70616E69 		.ascii	"panic_msg\000"
 3657      635F6D73 
 3657      6700
 3658              	.LASF110:
 3659 03f7 5F756E73 		.ascii	"_unspecified_locale_info\000"
 3659      70656369 
 3659      66696564 
 3659      5F6C6F63 
 3659      616C655F 
 3660              	.LASF81:
 3661 0410 5F726565 		.ascii	"_reent\000"
 3661      6E7400
 3662              	.LASF212:
 3663 0417 31354675 		.ascii	"15FunctionalState\000"
 3663      6E637469 
 3663      6F6E616C 
 3663      53746174 
 3663      6500
 3664              	.LASF137:
 3665 0429 5F676C6F 		.ascii	"_global_impure_ptr\000"
 3665      62616C5F 
 3665      696D7075 
 3665      72655F70 
 3665      747200
 3666              	.LASF194:
 3667 043c 73797374 		.ascii	"system_debug_t\000"
 3667      656D5F64 
 3667      65627567 
 3667      5F7400
 3668              	.LASF0:
 3669 044b 5F5F676E 		.ascii	"__gnuc_va_list\000"
 3669      75635F76 
 3669      615F6C69 
 3669      737400
 3670              	.LASF274:
 3671 045a 31336D65 		.ascii	"13memory_pool_t\000"
 3671      6D6F7279 
 3671      5F706F6F 
 3671      6C5F7400 
 3672              	.LASF23:
 3673 046a 63686172 		.ascii	"char\000"
 3673      00
 3674              	.LASF60:
 3675 046f 5F666E73 		.ascii	"_fns\000"
 3675      00
 3676              	.LASF72:
 3677 0474 5F636C6F 		.ascii	"_close\000"
 3677      736500
 3678              	.LASF287:
 3679 047b 73656D5F 		.ascii	"sem_list\000"
 3679      6C697374 
 3679      00
 3680              	.LASF6:
ARM GAS  /tmp/ccwKqRxp.s 			page 69


 3681 0484 5F5F7569 		.ascii	"__uint16_t\000"
 3681      6E743136 
 3681      5F7400
 3682              	.LASF154:
 3683 048f 77746F62 		.ascii	"wtobjp\000"
 3683      6A7000
 3684              	.LASF236:
 3685 0496 6E5F6374 		.ascii	"n_ctxswc\000"
 3685      78737763 
 3685      00
 3686              	.LASF105:
 3687 049f 5F737464 		.ascii	"_stdin\000"
 3687      696E00
 3688              	.LASF167:
 3689 04a6 666C6167 		.ascii	"flags\000"
 3689      7300
 3690              	.LASF304:
 3691 04ac 6465636C 		.ascii	"decltype(nullptr)\000"
 3691      74797065 
 3691      286E756C 
 3691      6C707472 
 3691      2900
 3692              	.LASF221:
 3693 04be 73746B61 		.ascii	"stkalign_t\000"
 3693      6C69676E 
 3693      5F7400
 3694              	.LASF174:
 3695 04c9 6D706F6F 		.ascii	"mpool\000"
 3695      6C00
 3696              	.LASF230:
 3697 04cf 776F7273 		.ascii	"worst\000"
 3697      7400
 3698              	.LASF249:
 3699 04d5 70747273 		.ascii	"ptrsize\000"
 3699      697A6500 
 3700              	.LASF262:
 3701 04dd 6F66665F 		.ascii	"off_time\000"
 3701      74696D65 
 3701      00
 3702              	.LASF148:
 3703 04e6 636E745F 		.ascii	"cnt_t\000"
 3703      7400
 3704              	.LASF68:
 3705 04ec 5F636F6F 		.ascii	"_cookie\000"
 3705      6B696500 
 3706              	.LASF158:
 3707 04f4 77746D74 		.ascii	"wtmtxp\000"
 3707      787000
 3708              	.LASF42:
 3709 04fb 5F776473 		.ascii	"_wds\000"
 3709      00
 3710              	.LASF184:
 3711 0500 63685F72 		.ascii	"ch_ready_list\000"
 3711      65616479 
 3711      5F6C6973 
 3711      7400
 3712              	.LASF133:
ARM GAS  /tmp/ccwKqRxp.s 			page 70


 3713 050e 5F5F6C6F 		.ascii	"__lock\000"
 3713      636B00
 3714              	.LASF122:
 3715 0515 5F736967 		.ascii	"_sig_func\000"
 3715      5F66756E 
 3715      6300
 3716              	.LASF288:
 3717 051f 73656D5F 		.ascii	"sem_pool\000"
 3717      706F6F6C 
 3717      00
 3718              	.LASF76:
 3719 0528 5F6F6666 		.ascii	"_offset\000"
 3719      73657400 
 3720              	.LASF119:
 3721 0530 5F637674 		.ascii	"_cvtbuf\000"
 3721      62756600 
 3722              	.LASF232:
 3723 0538 63756D75 		.ascii	"cumulative\000"
 3723      6C617469 
 3723      766500
 3724              	.LASF269:
 3725 0543 6E657874 		.ascii	"nextmem\000"
 3725      6D656D00 
 3726              	.LASF237:
 3727 054b 6D5F6372 		.ascii	"m_crit_thd\000"
 3727      69745F74 
 3727      686400
 3728              	.LASF13:
 3729 0556 5F5F7569 		.ascii	"__uint64_t\000"
 3729      6E743634 
 3729      5F7400
 3730              	.LASF215:
 3731 0561 46756E63 		.ascii	"FunctionalState\000"
 3731      74696F6E 
 3731      616C5374 
 3731      61746500 
 3732              	.LASF116:
 3733 0571 5F703573 		.ascii	"_p5s\000"
 3733      00
 3734              	.LASF11:
 3735 0576 6C6F6E67 		.ascii	"long unsigned int\000"
 3735      20756E73 
 3735      69676E65 
 3735      6420696E 
 3735      7400
 3736              	.LASF251:
 3737 0588 74687265 		.ascii	"threadsize\000"
 3737      61647369 
 3737      7A6500
 3738              	.LASF37:
 3739 0593 5F5F7661 		.ascii	"__va_list\000"
 3739      5F6C6973 
 3739      7400
 3740              	.LASF64:
 3741 059d 5F5F7346 		.ascii	"__sFILE\000"
 3741      494C4500 
 3742              	.LASF112:
ARM GAS  /tmp/ccwKqRxp.s 			page 71


 3743 05a5 5F5F7364 		.ascii	"__sdidinit\000"
 3743      6964696E 
 3743      697400
 3744              	.LASF80:
 3745 05b0 5F666C61 		.ascii	"_flags2\000"
 3745      67733200 
 3746              	.LASF206:
 3747 05b8 53797374 		.ascii	"SystemCoreClock\000"
 3747      656D436F 
 3747      7265436C 
 3747      6F636B00 
 3748              	.LASF240:
 3749 05c8 63685F73 		.ascii	"ch_semaphore\000"
 3749      656D6170 
 3749      686F7265 
 3749      00
 3750              	.LASF151:
 3751 05d5 63685F74 		.ascii	"ch_thread\000"
 3751      68726561 
 3751      6400
 3752              	.LASF28:
 3753 05df 5F5F6170 		.ascii	"__ap\000"
 3753      00
 3754              	.LASF191:
 3755 05e4 76697274 		.ascii	"virtual_timers_list_t\000"
 3755      75616C5F 
 3755      74696D65 
 3755      72735F6C 
 3755      6973745F 
 3756              	.LASF243:
 3757 05fa 63685F69 		.ascii	"ch_idle_thread_wa\000"
 3757      646C655F 
 3757      74687265 
 3757      61645F77 
 3757      6100
 3758              	.LASF104:
 3759 060c 5F657272 		.ascii	"_errno\000"
 3759      6E6F00
 3760              	.LASF290:
 3761 0613 6669666F 		.ascii	"fifo_list\000"
 3761      5F6C6973 
 3761      7400
 3762              	.LASF187:
 3763 061d 76697274 		.ascii	"virtual_timer_t\000"
 3763      75616C5F 
 3763      74696D65 
 3763      725F7400 
 3764              	.LASF183:
 3765 062d 72656164 		.ascii	"ready_list_t\000"
 3765      795F6C69 
 3765      73745F74 
 3765      00
 3766              	.LASF163:
 3767 063a 6F6C6465 		.ascii	"older\000"
 3767      7200
 3768              	.LASF93:
 3769 0640 5F736967 		.ascii	"_signal_buf\000"
ARM GAS  /tmp/ccwKqRxp.s 			page 72


 3769      6E616C5F 
 3769      62756600 
 3770              	.LASF173:
 3771 064c 7265616C 		.ascii	"realprio\000"
 3771      7072696F 
 3771      00
 3772              	.LASF149:
 3773 0655 75636E74 		.ascii	"ucnt_t\000"
 3773      5F7400
 3774              	.LASF217:
 3775 065c 4552524F 		.ascii	"ERROR\000"
 3775      5200
 3776              	.LASF257:
 3777 0662 6F66665F 		.ascii	"off_stklimit\000"
 3777      73746B6C 
 3777      696D6974 
 3777      00
 3778              	.LASF273:
 3779 066f 706F6F6C 		.ascii	"pool_header\000"
 3779      5F686561 
 3779      64657200 
 3780              	.LASF38:
 3781 067b 5F426967 		.ascii	"_Bigint\000"
 3781      696E7400 
 3782              	.LASF178:
 3783 0683 63685F74 		.ascii	"ch_threads_list\000"
 3783      68726561 
 3783      64735F6C 
 3783      69737400 
 3784              	.LASF40:
 3785 0693 5F6D6178 		.ascii	"_maxwds\000"
 3785      77647300 
 3786              	.LASF235:
 3787 069b 6E5F6972 		.ascii	"n_irq\000"
 3787      7100
 3788              	.LASF305:
 3789 06a1 6F73616C 		.ascii	"osalSysHalt\000"
 3789      53797348 
 3789      616C7400 
 3790              	.LASF113:
 3791 06ad 5F5F636C 		.ascii	"__cleanup\000"
 3791      65616E75 
 3791      7000
 3792              	.LASF121:
 3793 06b7 5F617465 		.ascii	"_atexit0\000"
 3793      78697430 
 3793      00
 3794              	.LASF295:
 3795 06c0 5F5F6378 		.ascii	"__cxa_pure_virtual\000"
 3795      615F7075 
 3795      72655F76 
 3795      69727475 
 3795      616C00
 3796              	.LASF10:
 3797 06d3 5F5F7569 		.ascii	"__uint32_t\000"
 3797      6E743332 
 3797      5F7400
ARM GAS  /tmp/ccwKqRxp.s 			page 73


 3798              	.LASF109:
 3799 06de 5F656D65 		.ascii	"_emergency\000"
 3799      7267656E 
 3799      637900
 3800              	.LASF172:
 3801 06e9 6D74786C 		.ascii	"mtxlist\000"
 3801      69737400 
 3802              	.LASF12:
 3803 06f1 6C6F6E67 		.ascii	"long long int\000"
 3803      206C6F6E 
 3803      6720696E 
 3803      7400
 3804              	.LASF1:
 3805 06ff 76615F6C 		.ascii	"va_list\000"
 3805      69737400 
 3806              	.LASF204:
 3807 0707 73797369 		.ascii	"sysinterval_t\000"
 3807      6E746572 
 3807      76616C5F 
 3807      7400
 3808              	.LASF127:
 3809 0715 5F6E696F 		.ascii	"_niobs\000"
 3809      627300
 3810              	.LASF283:
 3811 071c 63685F6F 		.ascii	"ch_objects_factory\000"
 3811      626A6563 
 3811      74735F66 
 3811      6163746F 
 3811      727900
 3812              	.LASF123:
 3813 072f 5F5F7367 		.ascii	"__sglue\000"
 3813      6C756500 
 3814              	.LASF102:
 3815 0737 5F6E6D61 		.ascii	"_nmalloc\000"
 3815      6C6C6F63 
 3815      00
 3816              	.LASF86:
 3817 0740 5F67616D 		.ascii	"_gamma_signgam\000"
 3817      6D615F73 
 3817      69676E67 
 3817      616D00
 3818              	.LASF117:
 3819 074f 5F667265 		.ascii	"_freelist\000"
 3819      656C6973 
 3819      7400
 3820              	.LASF128:
 3821 0759 5F696F62 		.ascii	"_iobs\000"
 3821      7300
 3822              	.LASF276:
 3823 075f 616C6967 		.ascii	"align\000"
 3823      6E00
 3824              	.LASF126:
 3825 0765 5F676C75 		.ascii	"_glue\000"
 3825      6500
 3826              	.LASF205:
 3827 076b 49544D5F 		.ascii	"ITM_RxBuffer\000"
 3827      52784275 
ARM GAS  /tmp/ccwKqRxp.s 			page 74


 3827      66666572 
 3827      00
 3828              	.LASF41:
 3829 0778 5F736967 		.ascii	"_sign\000"
 3829      6E00
 3830              	.LASF298:
 3831 077e 5F657869 		.ascii	"_exit\000"
 3831      7400
 3832              	.LASF254:
 3833 0784 6F66665F 		.ascii	"off_newer\000"
 3833      6E657765 
 3833      7200
 3834              	.LASF238:
 3835 078e 6D5F6372 		.ascii	"m_crit_isr\000"
 3835      69745F69 
 3835      737200
 3836              	.LASF15:
 3837 0799 756E7369 		.ascii	"unsigned int\000"
 3837      676E6564 
 3837      20696E74 
 3837      00
 3838              	.LASF140:
 3839 07a6 7274636E 		.ascii	"rtcnt_t\000"
 3839      745F7400 
 3840              	.LASF168:
 3841 07ae 72656673 		.ascii	"refs\000"
 3841      00
 3842              	.LASF100:
 3843 07b3 5F685F65 		.ascii	"_h_errno\000"
 3843      72726E6F 
 3843      00
 3844              	.LASF234:
 3845 07bc 31346B65 		.ascii	"14kernel_stats_t\000"
 3845      726E656C 
 3845      5F737461 
 3845      74735F74 
 3845      00
 3846              	.LASF293:
 3847 07cd 5F5F6473 		.ascii	"__dso_handle\000"
 3847      6F5F6861 
 3847      6E646C65 
 3847      00
 3848              	.LASF98:
 3849 07da 5F776372 		.ascii	"_wcrtomb_state\000"
 3849      746F6D62 
 3849      5F737461 
 3849      746500
 3850              	.LASF47:
 3851 07e9 5F5F746D 		.ascii	"__tm_mday\000"
 3851      5F6D6461 
 3851      7900
 3852              	.LASF239:
 3853 07f3 6B65726E 		.ascii	"kernel_stats_t\000"
 3853      656C5F73 
 3853      74617473 
 3853      5F7400
 3854              	.LASF120:
ARM GAS  /tmp/ccwKqRxp.s 			page 75


 3855 0802 5F6E6577 		.ascii	"_new\000"
 3855      00
 3856              	.LASF73:
 3857 0807 5F756275 		.ascii	"_ubuf\000"
 3857      6600
 3858              	.LASF107:
 3859 080d 5F737464 		.ascii	"_stderr\000"
 3859      65727200 
 3860              	.LASF91:
 3861 0815 5F776374 		.ascii	"_wctomb_state\000"
 3861      6F6D625F 
 3861      73746174 
 3861      6500
 3862              	.LASF79:
 3863 0823 5F6D6273 		.ascii	"_mbstate\000"
 3863      74617465 
 3863      00
 3864              	.LASF185:
 3865 082c 63757272 		.ascii	"current\000"
 3865      656E7400 
 3866              	.LASF87:
 3867 0834 5F72616E 		.ascii	"_rand_next\000"
 3867      645F6E65 
 3867      787400
 3868              	.LASF65:
 3869 083f 5F666C61 		.ascii	"_flags\000"
 3869      677300
 3870              	.LASF226:
 3871 0846 6F666673 		.ascii	"offset\000"
 3871      657400
 3872              	.LASF176:
 3873 084d 74687265 		.ascii	"thread_reference_t\000"
 3873      61645F72 
 3873      65666572 
 3873      656E6365 
 3873      5F7400
 3874              	.LASF58:
 3875 0860 5F617465 		.ascii	"_atexit\000"
 3875      78697400 
 3876              	.LASF31:
 3877 0868 5F5F636F 		.ascii	"__count\000"
 3877      756E7400 
 3878              	.LASF266:
 3879 0870 626F6F6C 		.ascii	"bool\000"
 3879      00
 3880              	.LASF267:
 3881 0875 6D656D67 		.ascii	"memgetfunc_t\000"
 3881      65746675 
 3881      6E635F74 
 3881      00
 3882              	.LASF50:
 3883 0882 5F5F746D 		.ascii	"__tm_wday\000"
 3883      5F776461 
 3883      7900
 3884              	.LASF213:
 3885 088c 44495341 		.ascii	"DISABLE\000"
 3885      424C4500 
ARM GAS  /tmp/ccwKqRxp.s 			page 76


 3886              	.LASF150:
 3887 0894 74687265 		.ascii	"thread_t\000"
 3887      61645F74 
 3887      00
 3888              	.LASF22:
 3889 089d 6C6F6E67 		.ascii	"long double\000"
 3889      20646F75 
 3889      626C6500 
 3890              	.LASF51:
 3891 08a9 5F5F746D 		.ascii	"__tm_yday\000"
 3891      5F796461 
 3891      7900
 3892              	.LASF244:
 3893 08b3 39636864 		.ascii	"9chdebug_t\000"
 3893      65627567 
 3893      5F7400
 3894              	.LASF156:
 3895 08be 73656E74 		.ascii	"sentmsg\000"
 3895      6D736700 
 3896              	.LASF223:
 3897 08c6 706F7274 		.ascii	"port_intctx\000"
 3897      5F696E74 
 3897      63747800 
 3898              	.LASF291:
 3899 08d2 6F626A65 		.ascii	"objects_factory_t\000"
 3899      6374735F 
 3899      66616374 
 3899      6F72795F 
 3899      7400
 3900              	.LASF297:
 3901 08e4 5F6B696C 		.ascii	"_kill\000"
 3901      6C00
 3902              	.LASF130:
 3903 08ea 5F736565 		.ascii	"_seed\000"
 3903      6400
 3904              	.LASF214:
 3905 08f0 454E4142 		.ascii	"ENABLE\000"
 3905      4C4500
 3906              	.LASF286:
 3907 08f7 6275665F 		.ascii	"buf_list\000"
 3907      6C697374 
 3907      00
 3908              	.LASF71:
 3909 0900 5F736565 		.ascii	"_seek\000"
 3909      6B00
 3910              	.LASF219:
 3911 0906 4572726F 		.ascii	"ErrorStatus\000"
 3911      72537461 
 3911      74757300 
 3912              	.LASF26:
 3913 0912 5F66706F 		.ascii	"_fpos_t\000"
 3913      735F7400 
 3914              	.LASF30:
 3915 091a 5F5F7763 		.ascii	"__wchb\000"
 3915      686200
 3916              	.LASF207:
 3917 0921 41484250 		.ascii	"AHBPrescTable\000"
ARM GAS  /tmp/ccwKqRxp.s 			page 77


 3917      72657363 
 3917      5461626C 
 3917      6500
 3918              	.LASF188:
 3919 092f 63685F76 		.ascii	"ch_virtual_timer\000"
 3919      69727475 
 3919      616C5F74 
 3919      696D6572 
 3919      00
 3920              	.LASF225:
 3921 0940 3136746D 		.ascii	"16tm_calibration_t\000"
 3921      5F63616C 
 3921      69627261 
 3921      74696F6E 
 3921      5F7400
 3922              	.LASF90:
 3923 0953 5F6D6274 		.ascii	"_mbtowc_state\000"
 3923      6F77635F 
 3923      73746174 
 3923      6500
 3924              	.LASF202:
 3925 0961 6B65726E 		.ascii	"kernel_stats\000"
 3925      656C5F73 
 3925      74617473 
 3925      00
 3926              	.LASF247:
 3927 096e 73697A65 		.ascii	"size\000"
 3927      00
 3928              	.LASF14:
 3929 0973 6C6F6E67 		.ascii	"long long unsigned int\000"
 3929      206C6F6E 
 3929      6720756E 
 3929      7369676E 
 3929      65642069 
 3930              	.LASF17:
 3931 098a 75696E74 		.ascii	"uint16_t\000"
 3931      31365F74 
 3931      00
 3932              	.LASF256:
 3933 0993 6F66665F 		.ascii	"off_name\000"
 3933      6E616D65 
 3933      00
 3934              	.LASF55:
 3935 099c 5F64736F 		.ascii	"_dso_handle\000"
 3935      5F68616E 
 3935      646C6500 
 3936              	.LASF146:
 3937 09a8 6D73675F 		.ascii	"msg_t\000"
 3937      7400
 3938              	.LASF181:
 3939 09ae 63685F74 		.ascii	"ch_threads_queue\000"
 3939      68726561 
 3939      64735F71 
 3939      75657565 
 3939      00
 3940              	.LASF129:
 3941 09bf 5F72616E 		.ascii	"_rand48\000"
ARM GAS  /tmp/ccwKqRxp.s 			page 78


 3941      64343800 
 3942              	.LASF106:
 3943 09c7 5F737464 		.ascii	"_stdout\000"
 3943      6F757400 
 3944              	.LASF189:
 3945 09cf 64656C74 		.ascii	"delta\000"
 3945      6100
 3946              	.LASF135:
 3947 09d5 76707269 		.ascii	"vprintf_console_hook\000"
 3947      6E74665F 
 3947      636F6E73 
 3947      6F6C655F 
 3947      686F6F6B 
 3948              	.LASF75:
 3949 09ea 5F626C6B 		.ascii	"_blksize\000"
 3949      73697A65 
 3949      00
 3950              	.LASF62:
 3951 09f3 5F626173 		.ascii	"_base\000"
 3951      6500
 3952              	.LASF218:
 3953 09f9 53554343 		.ascii	"SUCCESS\000"
 3953      45535300 
 3954              	.LASF160:
 3955 0a01 71756575 		.ascii	"queue\000"
 3955      6500
 3956              	.LASF171:
 3957 0a07 6570656E 		.ascii	"epending\000"
 3957      64696E67 
 3957      00
 3958              	.LASF300:
 3959 0a10 72656173 		.ascii	"reason\000"
 3959      6F6E00
 3960              	.LASF83:
 3961 0a17 5F737472 		.ascii	"_strtok_last\000"
 3961      746F6B5F 
 3961      6C617374 
 3961      00
 3962              	.LASF292:
 3963 0a24 63685F66 		.ascii	"ch_factory\000"
 3963      6163746F 
 3963      727900
 3964              	.LASF96:
 3965 0a2f 5F6D6272 		.ascii	"_mbrtowc_state\000"
 3965      746F7763 
 3965      5F737461 
 3965      746500
 3966              	.LASF289:
 3967 0a3e 6D62785F 		.ascii	"mbx_list\000"
 3967      6C697374 
 3967      00
 3968              	.LASF201:
 3969 0a47 6D61696E 		.ascii	"mainthread\000"
 3969      74687265 
 3969      616400
 3970              	.LASF35:
 3971 0a52 5F666C6F 		.ascii	"_flock_t\000"
ARM GAS  /tmp/ccwKqRxp.s 			page 79


 3971      636B5F74 
 3971      00
 3972              	.LASF248:
 3973 0a5b 76657273 		.ascii	"version\000"
 3973      696F6E00 
 3974              	.LASF125:
 3975 0a63 5F5F4649 		.ascii	"__FILE\000"
 3975      4C4500
 3976              	.LASF209:
 3977 0a6a 52455345 		.ascii	"RESET\000"
 3977      5400
 3978              	.LASF229:
 3979 0a70 62657374 		.ascii	"best\000"
 3979      00
 3980              	.LASF34:
 3981 0a75 5F6D6273 		.ascii	"_mbstate_t\000"
 3981      74617465 
 3981      5F7400
 3982              	.LASF88:
 3983 0a80 5F723438 		.ascii	"_r48\000"
 3983      00
 3984              	.LASF165:
 3985 0a85 77616261 		.ascii	"wabase\000"
 3985      736500
 3986              	.LASF27:
 3987 0a8c 77696E74 		.ascii	"wint_t\000"
 3987      5F7400
 3988              	.LASF278:
 3989 0a93 6D656D6F 		.ascii	"memory_pool_t\000"
 3989      72795F70 
 3989      6F6F6C5F 
 3989      7400
 3990              	.LASF39:
 3991 0aa1 5F6E6578 		.ascii	"_next\000"
 3991      7400
 3992              	.LASF77:
 3993 0aa7 5F646174 		.ascii	"_data\000"
 3993      6100
 3994              	.LASF210:
 3995 0aad 466C6167 		.ascii	"FlagStatus\000"
 3995      53746174 
 3995      757300
 3996              	.LASF199:
 3997 0ab8 726C6973 		.ascii	"rlist\000"
 3997      7400
 3998              	.LASF142:
 3999 0abe 746D6F64 		.ascii	"tmode_t\000"
 3999      655F7400 
 4000              	.LASF227:
 4001 0ac6 746D5F63 		.ascii	"tm_calibration_t\000"
 4001      616C6962 
 4001      72617469 
 4001      6F6E5F74 
 4001      00
 4002              	.LASF164:
 4003 0ad7 6E616D65 		.ascii	"name\000"
 4003      00
ARM GAS  /tmp/ccwKqRxp.s 			page 80


 4004              	.LASF208:
 4005 0adc 41504250 		.ascii	"APBPrescTable\000"
 4005      72657363 
 4005      5461626C 
 4005      6500
 4006              	.LASF89:
 4007 0aea 5F6D626C 		.ascii	"_mblen_state\000"
 4007      656E5F73 
 4007      74617465 
 4007      00
 4008              	.LASF5:
 4009 0af7 73686F72 		.ascii	"short int\000"
 4009      7420696E 
 4009      7400
 4010              	.LASF20:
 4011 0b01 75696E74 		.ascii	"uint64_t\000"
 4011      36345F74 
 4011      00
 4012              	.LASF190:
 4013 0b0a 66756E63 		.ascii	"func\000"
 4013      00
 4014              	.LASF241:
 4015 0b0f 63685F6D 		.ascii	"ch_mutex\000"
 4015      75746578 
 4015      00
 4016              	.LASF170:
 4017 0b18 6D736771 		.ascii	"msgqueue\000"
 4017      75657565 
 4017      00
 4018              	.LASF56:
 4019 0b21 5F666E74 		.ascii	"_fntypes\000"
 4019      79706573 
 4019      00
 4020              	.LASF195:
 4021 0b2a 63685F73 		.ascii	"ch_system_debug\000"
 4021      79737465 
 4021      6D5F6465 
 4021      62756700 
 4022              	.LASF138:
 4023 0b3a 5F737973 		.ascii	"_sys_errlist\000"
 4023      5F657272 
 4023      6C697374 
 4023      00
 4024              	.LASF282:
 4025 0b47 64796E5F 		.ascii	"dyn_list_t\000"
 4025      6C697374 
 4025      5F7400
 4026              	.LASF49:
 4027 0b52 5F5F746D 		.ascii	"__tm_year\000"
 4027      5F796561 
 4027      7200
 4028              	.LASF275:
 4029 0b5c 6F626A65 		.ascii	"object_size\000"
 4029      63745F73 
 4029      697A6500 
 4030              	.LASF67:
 4031 0b68 5F6C6266 		.ascii	"_lbfsize\000"
ARM GAS  /tmp/ccwKqRxp.s 			page 81


 4031      73697A65 
 4031      00
 4032              	.LASF200:
 4033 0b71 76746C69 		.ascii	"vtlist\000"
 4033      737400
 4034              	.LASF108:
 4035 0b78 5F696E63 		.ascii	"_inc\000"
 4035      00
 4036              	.LASF59:
 4037 0b7d 5F696E64 		.ascii	"_ind\000"
 4037      00
 4038              	.LASF169:
 4039 0b82 77616974 		.ascii	"waiting\000"
 4039      696E6700 
 4040              	.LASF61:
 4041 0b8a 5F5F7362 		.ascii	"__sbuf\000"
 4041      756600
 4042              	.LASF280:
 4043 0b91 64796E5F 		.ascii	"dyn_element_t\000"
 4043      656C656D 
 4043      656E745F 
 4043      7400
 4044              	.LASF57:
 4045 0b9f 5F69735F 		.ascii	"_is_cxa\000"
 4045      63786100 
 4046              	.LASF24:
 4047 0ba7 5F4C4F43 		.ascii	"_LOCK_T\000"
 4047      4B5F5400 
 4048              	.LASF265:
 4049 0baf 6D757465 		.ascii	"mutex_t\000"
 4049      785F7400 
 4050              	.LASF144:
 4051 0bb7 74726566 		.ascii	"trefs_t\000"
 4051      735F7400 
 4052              	.LASF101:
 4053 0bbf 5F6E6578 		.ascii	"_nextf\000"
 4053      746600
 4054              	.LASF222:
 4055 0bc6 706F7274 		.ascii	"port_context\000"
 4055      5F636F6E 
 4055      74657874 
 4055      00
 4056              	.LASF177:
 4057 0bd3 74687265 		.ascii	"threads_list_t\000"
 4057      6164735F 
 4057      6C697374 
 4057      5F7400
 4058              	.LASF299:
 4059 0be2 73746174 		.ascii	"status\000"
 4059      757300
 4060              	.LASF198:
 4061 0be9 63685F73 		.ascii	"ch_system\000"
 4061      79737465 
 4061      6D00
 4062              	.LASF111:
 4063 0bf3 5F6C6F63 		.ascii	"_locale\000"
 4063      616C6500 
ARM GAS  /tmp/ccwKqRxp.s 			page 82


 4064              	.LASF36:
 4065 0bfb 5F5F554C 		.ascii	"__ULong\000"
 4065      6F6E6700 
 4066              	.LASF162:
 4067 0c03 6E657765 		.ascii	"newer\000"
 4067      7200
 4068              	.LASF19:
 4069 0c09 75696E74 		.ascii	"uint32_t\000"
 4069      33325F74 
 4069      00
 4070              	.LASF228:
 4071 0c12 31387469 		.ascii	"18time_measurement_t\000"
 4071      6D655F6D 
 4071      65617375 
 4071      72656D65 
 4071      6E745F74 
 4072              	.LASF114:
 4073 0c27 5F726573 		.ascii	"_result\000"
 4073      756C7400 
 4074              	.LASF268:
 4075 0c2f 396D656D 		.ascii	"9memcore_t\000"
 4075      636F7265 
 4075      5F7400
 4076              	.LASF260:
 4077 0c3a 6F66665F 		.ascii	"off_refs\000"
 4077      72656673 
 4077      00
 4078              	.LASF25:
 4079 0c43 5F6F6666 		.ascii	"_off_t\000"
 4079      5F7400
 4080              	.LASF152:
 4081 0c4a 7264796D 		.ascii	"rdymsg\000"
 4081      736700
 4082              	.LASF132:
 4083 0c51 5F616464 		.ascii	"_add\000"
 4083      00
 4084              	.LASF7:
 4085 0c56 73686F72 		.ascii	"short unsigned int\000"
 4085      7420756E 
 4085      7369676E 
 4085      65642069 
 4085      6E7400
 4086              	.LASF46:
 4087 0c69 5F5F746D 		.ascii	"__tm_hour\000"
 4087      5F686F75 
 4087      7200
 4088              	.LASF197:
 4089 0c73 63685F73 		.ascii	"ch_system_t\000"
 4089      79737465 
 4089      6D5F7400 
 4090              	.LASF263:
 4091 0c7f 63686465 		.ascii	"chdebug_t\000"
 4091      6275675F 
 4091      7400
 4092              	.LASF302:
 4093 0c89 2E2E2F2E 		.ascii	"../../modules/ChibiOS/os/various/cpp_wrappers/sysca"
 4093      2E2F6D6F 
ARM GAS  /tmp/ccwKqRxp.s 			page 83


 4093      64756C65 
 4093      732F4368 
 4093      6962694F 
 4094 0cbc 6C6C735F 		.ascii	"lls_cpp.cpp\000"
 4094      6370702E 
 4094      63707000 
 4095              	.LASF97:
 4096 0cc8 5F6D6273 		.ascii	"_mbsrtowcs_state\000"
 4096      72746F77 
 4096      63735F73 
 4096      74617465 
 4096      00
 4097              	.LASF182:
 4098 0cd9 70726576 		.ascii	"prev\000"
 4098      00
 4099              	.LASF250:
 4100 0cde 74696D65 		.ascii	"timesize\000"
 4100      73697A65 
 4100      00
 4101              	.LASF8:
 4102 0ce7 5F5F696E 		.ascii	"__int32_t\000"
 4102      7433325F 
 4102      7400
 4103              	.LASF272:
 4104 0cf1 63685F6D 		.ascii	"ch_memcore\000"
 4104      656D636F 
 4104      726500
 4105              	.LASF259:
 4106 0cfc 6F66665F 		.ascii	"off_flags\000"
 4106      666C6167 
 4106      7300
 4107              	.LASF54:
 4108 0d06 5F666E61 		.ascii	"_fnargs\000"
 4108      72677300 
 4109              	.LASF52:
 4110 0d0e 5F5F746D 		.ascii	"__tm_isdst\000"
 4110      5F697364 
 4110      737400
 4111              	.LASF179:
 4112 0d19 6E657874 		.ascii	"next\000"
 4112      00
 4113              	.LASF45:
 4114 0d1e 5F5F746D 		.ascii	"__tm_min\000"
 4114      5F6D696E 
 4114      00
 4115              	.LASF281:
 4116 0d27 63685F64 		.ascii	"ch_dyn_list\000"
 4116      796E5F6C 
 4116      69737400 
 4117              	.LASF245:
 4118 0d33 6964656E 		.ascii	"identifier\000"
 4118      74696669 
 4118      657200
 4119              	.LASF94:
 4120 0d3e 5F676574 		.ascii	"_getdate_err\000"
 4120      64617465 
 4120      5F657272 
ARM GAS  /tmp/ccwKqRxp.s 			page 84


 4120      00
 4121              	.LASF157:
 4122 0d4b 77747365 		.ascii	"wtsemp\000"
 4122      6D7000
 4123              	.LASF231:
 4124 0d52 6C617374 		.ascii	"last\000"
 4124      00
 4125              		.ident	"GCC: (GNU Tools for ARM Embedded Processors 6-2017-q2-update) 6.3.1 20170620 (release) [AR
ARM GAS  /tmp/ccwKqRxp.s 			page 85


DEFINED SYMBOLS
                            *ABS*:0000000000000000 syscalls_cpp.cpp
     /tmp/ccwKqRxp.s:18     .text._ZL11osalSysHaltPKc:0000000000000000 $t
     /tmp/ccwKqRxp.s:25     .text._ZL11osalSysHaltPKc:0000000000000000 _ZL11osalSysHaltPKc
.ARM.exidx.text._ZL11osalSysHaltPKc:0000000000000000 $d
     /tmp/ccwKqRxp.s:59     .bss.__dso_handle:0000000000000000 __dso_handle
     /tmp/ccwKqRxp.s:56     .bss.__dso_handle:0000000000000000 $d
     /tmp/ccwKqRxp.s:62     .rodata:0000000000000000 $d
     /tmp/ccwKqRxp.s:66     .text._exit:0000000000000000 $t
     /tmp/ccwKqRxp.s:74     .text._exit:0000000000000000 _exit
     /tmp/ccwKqRxp.s:99     .text._exit:0000000000000010 $d
            .ARM.exidx.text._exit:0000000000000000 $d
     /tmp/ccwKqRxp.s:105    .text._kill:0000000000000000 $t
     /tmp/ccwKqRxp.s:113    .text._kill:0000000000000000 _kill
     /tmp/ccwKqRxp.s:140    .text._kill:0000000000000018 $d
            .ARM.exidx.text._kill:0000000000000000 $d
     /tmp/ccwKqRxp.s:147    .text._open_r:0000000000000000 $t
     /tmp/ccwKqRxp.s:155    .text._open_r:0000000000000000 _open_r
          .ARM.exidx.text._open_r:0000000000000000 $d
     /tmp/ccwKqRxp.s:177    .text.__cxa_pure_virtual:0000000000000000 $t
     /tmp/ccwKqRxp.s:185    .text.__cxa_pure_virtual:0000000000000000 __cxa_pure_virtual
     /tmp/ccwKqRxp.s:206    .text.__cxa_pure_virtual:000000000000000c $d
.ARM.extab.text.__cxa_pure_virtual:0000000000000000 $d
.ARM.exidx.text.__cxa_pure_virtual:0000000000000000 $d
                     .debug_frame:0000000000000010 $d

UNDEFINED SYMBOLS
chSysHalt
__aeabi_unwind_cpp_pr0
errno
__aeabi_unwind_cpp_pr1
