ARM GAS  /tmp/ccR1l5GD.s 			page 1


   1              		.cpu cortex-m7
   2              		.eabi_attribute 27, 1
   3              		.eabi_attribute 28, 1
   4              		.eabi_attribute 20, 1
   5              		.eabi_attribute 21, 1
   6              		.eabi_attribute 23, 3
   7              		.eabi_attribute 24, 1
   8              		.eabi_attribute 25, 1
   9              		.eabi_attribute 26, 1
  10              		.eabi_attribute 30, 4
  11              		.eabi_attribute 34, 1
  12              		.eabi_attribute 18, 4
  13              		.file	"usbcfg_dualcdc.c"
  14              		.text
  15              	.Ltext0:
  16              		.cfi_sections	.debug_frame
  17              		.section	.text.get_descriptor,"ax",%progbits
  18              		.align	1
  19              		.syntax unified
  20              		.thumb
  21              		.thumb_func
  22              		.fpu fpv4-sp-d16
  23              		.type	get_descriptor, %function
  24              	get_descriptor:
  25              	.LFB336:
  26              		.file 1 "../../libraries/AP_HAL_ChibiOS/hwdef/common/usbcfg_dualcdc.c"
  27              		.loc 1 274 0
  28              		.cfi_startproc
  29              		@ args = 0, pretend = 0, frame = 0
  30              		@ frame_needed = 0, uses_anonymous_args = 0
  31              		@ link register save eliminated.
  32              	.LVL0:
  33              		.loc 1 278 0
  34 0000 0229     		cmp	r1, #2
  35 0002 06D0     		beq	.L3
  36 0004 0329     		cmp	r1, #3
  37 0006 06D0     		beq	.L4
  38 0008 0129     		cmp	r1, #1
  39              		.loc 1 287 0
  40 000a 0648     		ldr	r0, .L8
  41              	.LVL1:
  42 000c 18BF     		it	ne
  43 000e 0020     		movne	r0, #0
  44 0010 7047     		bx	lr
  45              	.LVL2:
  46              	.L3:
  47              		.loc 1 282 0
  48 0012 0548     		ldr	r0, .L8+4
  49              	.LVL3:
  50 0014 7047     		bx	lr
  51              	.LVL4:
  52              	.L4:
  53              		.loc 1 284 0
  54 0016 032A     		cmp	r2, #3
  55              		.loc 1 285 0
  56 0018 9ABF     		itte	ls
  57 001a 0448     		ldrls	r0, .L8+8
ARM GAS  /tmp/ccR1l5GD.s 			page 2


  58              	.LVL5:
  59 001c 00EBC200 		addls	r0, r0, r2, lsl #3
  60              		.loc 1 287 0
  61 0020 0020     		movhi	r0, #0
  62              		.loc 1 288 0
  63 0022 7047     		bx	lr
  64              	.L9:
  65              		.align	2
  66              	.L8:
  67 0024 00000000 		.word	.LANCHOR0
  68 0028 00000000 		.word	.LANCHOR1
  69 002c 00000000 		.word	.LANCHOR2
  70              		.cfi_endproc
  71              	.LFE336:
  72              		.size	get_descriptor, .-get_descriptor
  73              		.section	.text.setup_usb_string,"ax",%progbits
  74              		.align	1
  75              		.syntax unified
  76              		.thumb
  77              		.thumb_func
  78              		.fpu fpv4-sp-d16
  79              		.type	setup_usb_string, %function
  80              	setup_usb_string:
  81              	.LFB334:
  82              		.loc 1 242 0
  83              		.cfi_startproc
  84              		@ args = 0, pretend = 0, frame = 104
  85              		@ frame_needed = 0, uses_anonymous_args = 0
  86              	.LVL6:
  87 0000 70B5     		push	{r4, r5, r6, lr}
  88              		.cfi_def_cfa_offset 16
  89              		.cfi_offset 4, -16
  90              		.cfi_offset 5, -12
  91              		.cfi_offset 6, -8
  92              		.cfi_offset 14, -4
  93 0002 9AB0     		sub	sp, sp, #104
  94              		.cfi_def_cfa_offset 120
  95              		.loc 1 242 0
  96 0004 0646     		mov	r6, r0
  97 0006 0846     		mov	r0, r1
  98              	.LVL7:
  99 0008 1446     		mov	r4, r2
 100              		.loc 1 244 0
 101 000a 01AD     		add	r5, sp, #4
 102 000c 2946     		mov	r1, r5
 103              	.LVL8:
 104 000e FFF7FEFF 		bl	string_substitute
 105              	.LVL9:
 106              		.loc 1 245 0
 107 0012 2846     		mov	r0, r5
 108 0014 FFF7FEFF 		bl	strlen
 109              	.LVL10:
 110 0018 C0B2     		uxtb	r0, r0
 111              	.LVL11:
 112              		.loc 1 246 0
 113 001a 431C     		adds	r3, r0, #1
 114 001c 5B00     		lsls	r3, r3, #1
ARM GAS  /tmp/ccR1l5GD.s 			page 3


 115              		.loc 1 247 0
 116 001e 86E81800 		stm	r6, {r3, r4}
 117              		.loc 1 248 0
 118 0022 2370     		strb	r3, [r4]
 119              		.loc 1 249 0
 120 0024 0323     		movs	r3, #3
 121 0026 0234     		adds	r4, r4, #2
 122              	.LVL12:
 123 0028 04F8013C 		strb	r3, [r4, #-1]
 124              	.LVL13:
 125              		.loc 1 251 0
 126 002c 0023     		movs	r3, #0
 127              		.loc 1 253 0
 128 002e 1946     		mov	r1, r3
 129              	.LVL14:
 130              	.L11:
 131              		.loc 1 251 0 discriminator 1
 132 0030 DAB2     		uxtb	r2, r3
 133 0032 0234     		adds	r4, r4, #2
 134 0034 9042     		cmp	r0, r2
 135 0036 01D8     		bhi	.L12
 136              		.loc 1 255 0
 137 0038 1AB0     		add	sp, sp, #104
 138              		.cfi_remember_state
 139              		.cfi_def_cfa_offset 16
 140              		@ sp needed
 141 003a 70BD     		pop	{r4, r5, r6, pc}
 142              	.LVL15:
 143              	.L12:
 144              		.cfi_restore_state
 145              		.loc 1 252 0 discriminator 3
 146 003c EA5C     		ldrb	r2, [r5, r3]	@ zero_extendqisi2
 147 003e 0133     		adds	r3, r3, #1
 148              	.LVL16:
 149              		.loc 1 253 0 discriminator 3
 150 0040 04F8011C 		strb	r1, [r4, #-1]
 151              		.loc 1 252 0 discriminator 3
 152 0044 04F8022C 		strb	r2, [r4, #-2]
 153 0048 F2E7     		b	.L11
 154              		.cfi_endproc
 155              	.LFE334:
 156              		.size	setup_usb_string, .-setup_usb_string
 157              		.section	.text.requests_hook,"ax",%progbits
 158              		.align	1
 159              		.syntax unified
 160              		.thumb
 161              		.thumb_func
 162              		.fpu fpv4-sp-d16
 163              		.type	requests_hook, %function
 164              	requests_hook:
 165              	.LFB338:
 166              		.loc 1 448 0
 167              		.cfi_startproc
 168              		@ args = 0, pretend = 0, frame = 0
 169              		@ frame_needed = 0, uses_anonymous_args = 0
 170              		@ link register save eliminated.
 171              	.LVL17:
ARM GAS  /tmp/ccR1l5GD.s 			page 4


 172              		.loc 1 450 0
 173 0000 90F85C30 		ldrb	r3, [r0, #92]	@ zero_extendqisi2
 174 0004 03F01F03 		and	r3, r3, #31
 175 0008 012B     		cmp	r3, #1
 176 000a 03D1     		bne	.L14
 177              		.loc 1 450 0 is_stmt 0 discriminator 1
 178 000c 90F85D20 		ldrb	r2, [r0, #93]	@ zero_extendqisi2
 179 0010 0B2A     		cmp	r2, #11
 180 0012 01D0     		beq	.L17
 181              	.L14:
 182              		.loc 1 455 0 is_stmt 1
 183 0014 FFF7FEBF 		b	sduRequestsHook
 184              	.LVL18:
 185              	.L17:
 186              		.loc 1 452 0
 187 0018 0022     		movs	r2, #0
 188 001a 0265     		str	r2, [r0, #80]
 189 001c 4265     		str	r2, [r0, #84]
 190 001e 8265     		str	r2, [r0, #88]
 191              		.loc 1 456 0
 192 0020 1846     		mov	r0, r3
 193              	.LVL19:
 194 0022 7047     		bx	lr
 195              		.cfi_endproc
 196              	.LFE338:
 197              		.size	requests_hook, .-requests_hook
 198              		.section	.text.sof_handler,"ax",%progbits
 199              		.align	1
 200              		.syntax unified
 201              		.thumb
 202              		.thumb_func
 203              		.fpu fpv4-sp-d16
 204              		.type	sof_handler, %function
 205              	sof_handler:
 206              	.LFB339:
 207              		.loc 1 461 0
 208              		.cfi_startproc
 209              		@ args = 0, pretend = 0, frame = 0
 210              		@ frame_needed = 0, uses_anonymous_args = 0
 211              	.LVL20:
 212 0000 08B5     		push	{r3, lr}
 213              		.cfi_def_cfa_offset 8
 214              		.cfi_offset 3, -8
 215              		.cfi_offset 14, -4
 216              	.LBB44:
 217              	.LBB45:
 218              	.LBB46:
 219              	.LBB47:
 220              	.LBB48:
 221              	.LBB49:
 222              	.LBB50:
 223              		.file 2 "../../modules/ChibiOS/os/common/ext/ARM/CMSIS/Core/Include/cmsis_gcc.h"
 224              		.loc 2 493 0
 225 0002 2023     		movs	r3, #32
 226              		.syntax unified
 227              	@ 493 "../../modules/ChibiOS/os/common/ext/ARM/CMSIS/Core/Include/cmsis_gcc.h" 1
 228 0004 83F31188 		MSR basepri, r3
ARM GAS  /tmp/ccR1l5GD.s 			page 5


 229              	@ 0 "" 2
 230              	.LVL21:
 231              		.thumb
 232              		.syntax unified
 233              	.LBE50:
 234              	.LBE49:
 235              	.LBE48:
 236              	.LBE47:
 237              		.file 3 "../../modules/ChibiOS/os/rt/include/chsys.h"
 238              		.loc 3 396 0
 239 0008 FFF7FEFF 		bl	_stats_start_measure_crit_isr
 240              	.LVL22:
 241              	.LBE46:
 242              	.LBE45:
 243              	.LBE44:
 244              		.loc 1 466 0
 245 000c 0548     		ldr	r0, .L19
 246 000e FFF7FEFF 		bl	sduSOFHookI
 247              	.LVL23:
 248              		.loc 1 467 0
 249 0012 0548     		ldr	r0, .L19+4
 250 0014 FFF7FEFF 		bl	sduSOFHookI
 251              	.LVL24:
 252              	.LBB51:
 253              	.LBB52:
 254              	.LBB53:
 255              		.loc 3 416 0
 256 0018 FFF7FEFF 		bl	_stats_stop_measure_crit_isr
 257              	.LVL25:
 258              	.LBB54:
 259              	.LBB55:
 260              	.LBB56:
 261              	.LBB57:
 262              		.loc 2 493 0
 263 001c 0023     		movs	r3, #0
 264              		.syntax unified
 265              	@ 493 "../../modules/ChibiOS/os/common/ext/ARM/CMSIS/Core/Include/cmsis_gcc.h" 1
 266 001e 83F31188 		MSR basepri, r3
 267              	@ 0 "" 2
 268              	.LVL26:
 269              		.thumb
 270              		.syntax unified
 271 0022 08BD     		pop	{r3, pc}
 272              	.L20:
 273              		.align	2
 274              	.L19:
 275 0024 00000000 		.word	.LANCHOR3
 276 0028 00000000 		.word	.LANCHOR4
 277              	.LBE57:
 278              	.LBE56:
 279              	.LBE55:
 280              	.LBE54:
 281              	.LBE53:
 282              	.LBE52:
 283              	.LBE51:
 284              		.cfi_endproc
 285              	.LFE339:
ARM GAS  /tmp/ccR1l5GD.s 			page 6


 286              		.size	sof_handler, .-sof_handler
 287              		.section	.text.usb_event,"ax",%progbits
 288              		.align	1
 289              		.syntax unified
 290              		.thumb
 291              		.thumb_func
 292              		.fpu fpv4-sp-d16
 293              		.type	usb_event, %function
 294              	usb_event:
 295              	.LFB337:
 296              		.loc 1 387 0
 297              		.cfi_startproc
 298              		@ args = 0, pretend = 0, frame = 0
 299              		@ frame_needed = 0, uses_anonymous_args = 0
 300              	.LVL27:
 301 0000 38B5     		push	{r3, r4, r5, lr}
 302              		.cfi_def_cfa_offset 16
 303              		.cfi_offset 3, -16
 304              		.cfi_offset 4, -12
 305              		.cfi_offset 5, -8
 306              		.cfi_offset 14, -4
 307              		.loc 1 387 0
 308 0002 0446     		mov	r4, r0
 309              		.loc 1 391 0
 310 0004 0529     		cmp	r1, #5
 311 0006 2BD8     		bhi	.L21
 312 0008 DFE801F0 		tbb	[pc, r1]
 313              	.L24:
 314 000c 31       		.byte	(.L23-.L24)/2
 315 000d 2A       		.byte	(.L21-.L24)/2
 316 000e 03       		.byte	(.L25-.L24)/2
 317 000f 31       		.byte	(.L23-.L24)/2
 318 0010 31       		.byte	(.L23-.L24)/2
 319 0011 3D       		.byte	(.L26-.L24)/2
 320              		.p2align 1
 321              	.L25:
 322              	.LVL28:
 323              	.LBB96:
 324              	.LBB97:
 325              	.LBB98:
 326              	.LBB99:
 327              	.LBB100:
 328              	.LBB101:
 329              	.LBB102:
 330              	.LBB103:
 331              		.loc 2 493 0
 332 0012 2023     		movs	r3, #32
 333              		.syntax unified
 334              	@ 493 "../../modules/ChibiOS/os/common/ext/ARM/CMSIS/Core/Include/cmsis_gcc.h" 1
 335 0014 83F31188 		MSR basepri, r3
 336              	@ 0 "" 2
 337              	.LVL29:
 338              		.thumb
 339              		.syntax unified
 340              	.LBE103:
 341              	.LBE102:
 342              	.LBE101:
ARM GAS  /tmp/ccR1l5GD.s 			page 7


 343              	.LBE100:
 344              		.loc 3 396 0
 345 0018 FFF7FEFF 		bl	_stats_start_measure_crit_isr
 346              	.LVL30:
 347              	.LBE99:
 348              	.LBE98:
 349              		.loc 1 397 0
 350 001c 2578     		ldrb	r5, [r4]	@ zero_extendqisi2
 351 001e 042D     		cmp	r5, #4
 352 0020 1FD1     		bne	.L27
 353              		.loc 1 401 0
 354 0022 1F4A     		ldr	r2, .L30
 355 0024 0121     		movs	r1, #1
 356 0026 2046     		mov	r0, r4
 357 0028 FFF7FEFF 		bl	usbInitEndpointI
 358              	.LVL31:
 359              		.loc 1 402 0
 360 002c 1D4A     		ldr	r2, .L30+4
 361 002e 0221     		movs	r1, #2
 362 0030 2046     		mov	r0, r4
 363 0032 FFF7FEFF 		bl	usbInitEndpointI
 364              	.LVL32:
 365              		.loc 1 403 0
 366 0036 1C4A     		ldr	r2, .L30+8
 367 0038 0321     		movs	r1, #3
 368 003a 2046     		mov	r0, r4
 369 003c FFF7FEFF 		bl	usbInitEndpointI
 370              	.LVL33:
 371              		.loc 1 404 0
 372 0040 1A4A     		ldr	r2, .L30+12
 373 0042 2946     		mov	r1, r5
 374 0044 2046     		mov	r0, r4
 375 0046 FFF7FEFF 		bl	usbInitEndpointI
 376              	.LVL34:
 377              		.loc 1 407 0
 378 004a 1948     		ldr	r0, .L30+16
 379 004c FFF7FEFF 		bl	sduConfigureHookI
 380              	.LVL35:
 381              		.loc 1 408 0
 382 0050 1848     		ldr	r0, .L30+20
 383 0052 FFF7FEFF 		bl	sduConfigureHookI
 384              	.LVL36:
 385              	.L29:
 386              	.LBE97:
 387              	.LBE96:
 388              	.LBB105:
 389              	.LBB106:
 390              		.loc 3 416 0
 391 0056 FFF7FEFF 		bl	_stats_stop_measure_crit_isr
 392              	.LVL37:
 393              	.LBB107:
 394              	.LBB108:
 395              	.LBB109:
 396              	.LBB110:
 397              		.loc 2 493 0
 398 005a 0023     		movs	r3, #0
 399              		.syntax unified
ARM GAS  /tmp/ccR1l5GD.s 			page 8


 400              	@ 493 "../../modules/ChibiOS/os/common/ext/ARM/CMSIS/Core/Include/cmsis_gcc.h" 1
 401 005c 83F31188 		MSR basepri, r3
 402              	@ 0 "" 2
 403              	.LVL38:
 404              		.thumb
 405              		.syntax unified
 406              	.L21:
 407 0060 38BD     		pop	{r3, r4, r5, pc}
 408              	.LVL39:
 409              	.L27:
 410              	.LBE110:
 411              	.LBE109:
 412              	.LBE108:
 413              	.LBE107:
 414              	.LBE106:
 415              	.LBE105:
 416              	.LBB111:
 417              	.LBB104:
 418              		.loc 1 410 0
 419 0062 032D     		cmp	r5, #3
 420 0064 F7D1     		bne	.L29
 421              		.loc 1 411 0
 422 0066 2046     		mov	r0, r4
 423 0068 FFF7FEFF 		bl	usbDisableEndpointsI
 424              	.LVL40:
 425 006c F3E7     		b	.L29
 426              	.LVL41:
 427              	.L23:
 428              	.LBE104:
 429              	.LBE111:
 430              	.LBB112:
 431              	.LBB113:
 432              	.LBB114:
 433              	.LBB115:
 434              	.LBB116:
 435              	.LBB117:
 436              		.loc 2 493 0
 437 006e 2023     		movs	r3, #32
 438              		.syntax unified
 439              	@ 493 "../../modules/ChibiOS/os/common/ext/ARM/CMSIS/Core/Include/cmsis_gcc.h" 1
 440 0070 83F31188 		MSR basepri, r3
 441              	@ 0 "" 2
 442              	.LVL42:
 443              		.thumb
 444              		.syntax unified
 445              	.LBE117:
 446              	.LBE116:
 447              	.LBE115:
 448              	.LBE114:
 449              		.loc 3 396 0
 450 0074 FFF7FEFF 		bl	_stats_start_measure_crit_isr
 451              	.LVL43:
 452              	.LBE113:
 453              	.LBE112:
 454              		.loc 1 424 0
 455 0078 0D48     		ldr	r0, .L30+16
 456 007a FFF7FEFF 		bl	sduSuspendHookI
ARM GAS  /tmp/ccR1l5GD.s 			page 9


 457              	.LVL44:
 458              		.loc 1 425 0
 459 007e 0D48     		ldr	r0, .L30+20
 460 0080 FFF7FEFF 		bl	sduSuspendHookI
 461              	.LVL45:
 462 0084 E7E7     		b	.L29
 463              	.LVL46:
 464              	.L26:
 465              	.LBB118:
 466              	.LBB119:
 467              	.LBB120:
 468              	.LBB121:
 469              	.LBB122:
 470              	.LBB123:
 471              		.loc 2 493 0
 472 0086 2023     		movs	r3, #32
 473              		.syntax unified
 474              	@ 493 "../../modules/ChibiOS/os/common/ext/ARM/CMSIS/Core/Include/cmsis_gcc.h" 1
 475 0088 83F31188 		MSR basepri, r3
 476              	@ 0 "" 2
 477              	.LVL47:
 478              		.thumb
 479              		.syntax unified
 480              	.LBE123:
 481              	.LBE122:
 482              	.LBE121:
 483              	.LBE120:
 484              		.loc 3 396 0
 485 008c FFF7FEFF 		bl	_stats_start_measure_crit_isr
 486              	.LVL48:
 487              	.LBE119:
 488              	.LBE118:
 489              		.loc 1 433 0
 490 0090 0748     		ldr	r0, .L30+16
 491 0092 FFF7FEFF 		bl	sduWakeupHookI
 492              	.LVL49:
 493              		.loc 1 434 0
 494 0096 0748     		ldr	r0, .L30+20
 495 0098 FFF7FEFF 		bl	sduWakeupHookI
 496              	.LVL50:
 497 009c DBE7     		b	.L29
 498              	.L31:
 499 009e 00BF     		.align	2
 500              	.L30:
 501 00a0 00000000 		.word	.LANCHOR5
 502 00a4 00000000 		.word	.LANCHOR6
 503 00a8 00000000 		.word	.LANCHOR7
 504 00ac 00000000 		.word	.LANCHOR8
 505 00b0 00000000 		.word	.LANCHOR3
 506 00b4 00000000 		.word	.LANCHOR4
 507              		.cfi_endproc
 508              	.LFE337:
 509              		.size	usb_event, .-usb_event
 510              		.section	.text.setup_usb_strings,"ax",%progbits
 511              		.align	1
 512              		.global	setup_usb_strings
 513              		.syntax unified
ARM GAS  /tmp/ccR1l5GD.s 			page 10


 514              		.thumb
 515              		.thumb_func
 516              		.fpu fpv4-sp-d16
 517              		.type	setup_usb_strings, %function
 518              	setup_usb_strings:
 519              	.LFB335:
 520              		.loc 1 261 0
 521              		.cfi_startproc
 522              		@ args = 0, pretend = 0, frame = 0
 523              		@ frame_needed = 0, uses_anonymous_args = 0
 524 0000 38B5     		push	{r3, r4, r5, lr}
 525              		.cfi_def_cfa_offset 16
 526              		.cfi_offset 3, -16
 527              		.cfi_offset 4, -12
 528              		.cfi_offset 5, -8
 529              		.cfi_offset 14, -4
 530              		.loc 1 262 0
 531 0002 0C4D     		ldr	r5, .L33
 532 0004 0C4C     		ldr	r4, .L33+4
 533 0006 2A46     		mov	r2, r5
 534 0008 0C49     		ldr	r1, .L33+8
 535 000a 04F10800 		add	r0, r4, #8
 536 000e FFF7FEFF 		bl	setup_usb_string
 537              	.LVL51:
 538              		.loc 1 263 0
 539 0012 05F1CA02 		add	r2, r5, #202
 540 0016 04F11000 		add	r0, r4, #16
 541 001a 0949     		ldr	r1, .L33+12
 542 001c FFF7FEFF 		bl	setup_usb_string
 543              	.LVL52:
 544              		.loc 1 264 0
 545 0020 05F5CA72 		add	r2, r5, #404
 546 0024 04F11800 		add	r0, r4, #24
 547 0028 0649     		ldr	r1, .L33+16
 548              		.loc 1 265 0
 549 002a BDE83840 		pop	{r3, r4, r5, lr}
 550              		.cfi_restore 14
 551              		.cfi_restore 5
 552              		.cfi_restore 4
 553              		.cfi_restore 3
 554              		.cfi_def_cfa_offset 0
 555              		.loc 1 264 0
 556 002e FFF7FEBF 		b	setup_usb_string
 557              	.LVL53:
 558              	.L34:
 559 0032 00BF     		.align	2
 560              	.L33:
 561 0034 00000000 		.word	.LANCHOR9
 562 0038 00000000 		.word	.LANCHOR2
 563 003c 00000000 		.word	.LC0
 564 0040 0A000000 		.word	.LC1
 565 0044 12000000 		.word	.LC2
 566              		.cfi_endproc
 567              	.LFE335:
 568              		.size	setup_usb_strings, .-setup_usb_strings
 569              		.global	serusbcfg2
 570              		.global	serusbcfg1
ARM GAS  /tmp/ccR1l5GD.s 			page 11


 571              		.global	usbcfg
 572              		.global	SDU2
 573              		.global	SDU1
 574              		.section	.bss.SDU1,"aw",%nobits
 575              		.align	2
 576              		.set	.LANCHOR3,. + 0
 577              		.type	SDU1, %object
 578              		.size	SDU1, 1168
 579              	SDU1:
 580 0000 00000000 		.space	1168
 580      00000000 
 580      00000000 
 580      00000000 
 580      00000000 
 581              		.section	.bss.SDU2,"aw",%nobits
 582              		.align	2
 583              		.set	.LANCHOR4,. + 0
 584              		.type	SDU2, %object
 585              		.size	SDU2, 1168
 586              	SDU2:
 587 0000 00000000 		.space	1168
 587      00000000 
 587      00000000 
 587      00000000 
 587      00000000 
 588              		.section	.bss.ep1instate,"aw",%nobits
 589              		.align	2
 590              		.type	ep1instate, %object
 591              		.size	ep1instate, 16
 592              	ep1instate:
 593 0000 00000000 		.space	16
 593      00000000 
 593      00000000 
 593      00000000 
 594              		.section	.bss.ep2instate,"aw",%nobits
 595              		.align	2
 596              		.type	ep2instate, %object
 597              		.size	ep2instate, 16
 598              	ep2instate:
 599 0000 00000000 		.space	16
 599      00000000 
 599      00000000 
 599      00000000 
 600              		.section	.bss.ep2outstate,"aw",%nobits
 601              		.align	2
 602              		.type	ep2outstate, %object
 603              		.size	ep2outstate, 16
 604              	ep2outstate:
 605 0000 00000000 		.space	16
 605      00000000 
 605      00000000 
 605      00000000 
 606              		.section	.bss.ep3instate,"aw",%nobits
 607              		.align	2
 608              		.type	ep3instate, %object
 609              		.size	ep3instate, 16
 610              	ep3instate:
ARM GAS  /tmp/ccR1l5GD.s 			page 12


 611 0000 00000000 		.space	16
 611      00000000 
 611      00000000 
 611      00000000 
 612              		.section	.bss.ep4instate,"aw",%nobits
 613              		.align	2
 614              		.type	ep4instate, %object
 615              		.size	ep4instate, 16
 616              	ep4instate:
 617 0000 00000000 		.space	16
 617      00000000 
 617      00000000 
 617      00000000 
 618              		.section	.bss.ep4outstate,"aw",%nobits
 619              		.align	2
 620              		.type	ep4outstate, %object
 621              		.size	ep4outstate, 16
 622              	ep4outstate:
 623 0000 00000000 		.space	16
 623      00000000 
 623      00000000 
 623      00000000 
 624              		.section	.bss.vcom_buffers,"aw",%nobits
 625              		.set	.LANCHOR9,. + 0
 626              		.type	vcom_buffers, %object
 627              		.size	vcom_buffers, 606
 628              	vcom_buffers:
 629 0000 00000000 		.space	606
 629      00000000 
 629      00000000 
 629      00000000 
 629      00000000 
 630              		.section	.data.vcom_strings,"aw",%progbits
 631              		.align	2
 632              		.set	.LANCHOR2,. + 0
 633              		.type	vcom_strings, %object
 634              		.size	vcom_strings, 32
 635              	vcom_strings:
 636 0000 04000000 		.word	4
 637 0004 00000000 		.word	vcom_string0
 638 0008 00000000 		.word	0
 639 000c 00000000 		.word	0
 640 0010 00000000 		.word	0
 641 0014 00000000 		.word	0
 642 0018 00000000 		.word	0
 643 001c 00000000 		.word	0
 644              		.section	.rodata.ep1config,"a",%progbits
 645              		.align	2
 646              		.set	.LANCHOR5,. + 0
 647              		.type	ep1config, %object
 648              		.size	ep1config, 36
 649              	ep1config:
 650 0000 03000000 		.word	3
 651 0004 00000000 		.word	0
 652 0008 00000000 		.word	sduInterruptTransmitted
 653 000c 00000000 		.word	0
 654 0010 1000     		.short	16
ARM GAS  /tmp/ccR1l5GD.s 			page 13


 655 0012 0000     		.short	0
 656 0014 00000000 		.word	ep1instate
 657 0018 00000000 		.word	0
 658 001c 0100     		.short	1
 659 001e 0000     		.space	2
 660 0020 00000000 		.word	0
 661              		.section	.rodata.ep2config,"a",%progbits
 662              		.align	2
 663              		.set	.LANCHOR6,. + 0
 664              		.type	ep2config, %object
 665              		.size	ep2config, 36
 666              	ep2config:
 667 0000 02000000 		.word	2
 668 0004 00000000 		.word	0
 669 0008 00000000 		.word	sduDataTransmitted
 670 000c 00000000 		.word	sduDataReceived
 671 0010 4000     		.short	64
 672 0012 4000     		.short	64
 673 0014 00000000 		.word	ep2instate
 674 0018 00000000 		.word	ep2outstate
 675 001c 0200     		.short	2
 676 001e 0000     		.space	2
 677 0020 00000000 		.word	0
 678              		.section	.rodata.ep3config,"a",%progbits
 679              		.align	2
 680              		.set	.LANCHOR7,. + 0
 681              		.type	ep3config, %object
 682              		.size	ep3config, 36
 683              	ep3config:
 684 0000 03000000 		.word	3
 685 0004 00000000 		.word	0
 686 0008 00000000 		.word	sduInterruptTransmitted
 687 000c 00000000 		.word	0
 688 0010 1000     		.short	16
 689 0012 0000     		.short	0
 690 0014 00000000 		.word	ep3instate
 691 0018 00000000 		.word	0
 692 001c 0100     		.short	1
 693 001e 0000     		.space	2
 694 0020 00000000 		.word	0
 695              		.section	.rodata.ep4config,"a",%progbits
 696              		.align	2
 697              		.set	.LANCHOR8,. + 0
 698              		.type	ep4config, %object
 699              		.size	ep4config, 36
 700              	ep4config:
 701 0000 02000000 		.word	2
 702 0004 00000000 		.word	0
 703 0008 00000000 		.word	sduDataTransmitted
 704 000c 00000000 		.word	sduDataReceived
 705 0010 4000     		.short	64
 706 0012 4000     		.short	64
 707 0014 00000000 		.word	ep4instate
 708 0018 00000000 		.word	ep4outstate
 709 001c 0200     		.short	2
 710 001e 0000     		.space	2
 711 0020 00000000 		.word	0
ARM GAS  /tmp/ccR1l5GD.s 			page 14


 712              		.section	.rodata.serusbcfg1,"a",%progbits
 713              		.align	2
 714              		.type	serusbcfg1, %object
 715              		.size	serusbcfg1, 8
 716              	serusbcfg1:
 717 0000 00000000 		.word	USBD1
 718 0004 02       		.byte	2
 719 0005 02       		.byte	2
 720 0006 01       		.byte	1
 721 0007 00       		.space	1
 722              		.section	.rodata.serusbcfg2,"a",%progbits
 723              		.align	2
 724              		.type	serusbcfg2, %object
 725              		.size	serusbcfg2, 8
 726              	serusbcfg2:
 727 0000 00000000 		.word	USBD1
 728 0004 04       		.byte	4
 729 0005 04       		.byte	4
 730 0006 03       		.byte	3
 731 0007 00       		.space	1
 732              		.section	.rodata.setup_usb_strings.str1.1,"aMS",%progbits,1
 733              	.LC0:
 734 0000 41726475 		.ascii	"ArduPilot\000"
 734      50696C6F 
 734      7400
 735              	.LC1:
 736 000a 25424F41 		.ascii	"%BOARD%\000"
 736      52442500 
 737              	.LC2:
 738 0012 25534552 		.ascii	"%SERIAL%\000"
 738      49414C25 
 738      00
 739              		.section	.rodata.usbcfg,"a",%progbits
 740              		.align	2
 741              		.type	usbcfg, %object
 742              		.size	usbcfg, 16
 743              	usbcfg:
 744 0000 00000000 		.word	usb_event
 745 0004 00000000 		.word	get_descriptor
 746 0008 00000000 		.word	requests_hook
 747 000c 00000000 		.word	sof_handler
 748              		.section	.rodata.vcom_configuration_descriptor,"a",%progbits
 749              		.align	2
 750              		.set	.LANCHOR1,. + 0
 751              		.type	vcom_configuration_descriptor, %object
 752              		.size	vcom_configuration_descriptor, 8
 753              	vcom_configuration_descriptor:
 754 0000 8D000000 		.word	141
 755 0004 00000000 		.word	vcom_configuration_descriptor_data
 756              		.section	.rodata.vcom_configuration_descriptor_data,"a",%progbits
 757              		.type	vcom_configuration_descriptor_data, %object
 758              		.size	vcom_configuration_descriptor_data, 141
 759              	vcom_configuration_descriptor_data:
 760 0000 09       		.byte	9
 761 0001 02       		.byte	2
 762 0002 8D       		.byte	-115
 763 0003 00       		.byte	0
ARM GAS  /tmp/ccR1l5GD.s 			page 15


 764 0004 04       		.byte	4
 765 0005 01       		.byte	1
 766 0006 00       		.byte	0
 767 0007 C0       		.byte	-64
 768 0008 32       		.byte	50
 769 0009 08       		.byte	8
 770 000a 0B       		.byte	11
 771 000b 00       		.byte	0
 772 000c 02       		.byte	2
 773 000d 02       		.byte	2
 774 000e 02       		.byte	2
 775 000f 01       		.byte	1
 776 0010 00       		.byte	0
 777 0011 09       		.byte	9
 778 0012 04       		.byte	4
 779 0013 00       		.byte	0
 780 0014 00       		.byte	0
 781 0015 01       		.byte	1
 782 0016 02       		.byte	2
 783 0017 02       		.byte	2
 784 0018 01       		.byte	1
 785 0019 00       		.byte	0
 786 001a 05       		.byte	5
 787 001b 24       		.byte	36
 788 001c 00       		.byte	0
 789 001d 10       		.byte	16
 790 001e 01       		.byte	1
 791 001f 05       		.byte	5
 792 0020 24       		.byte	36
 793 0021 01       		.byte	1
 794 0022 03       		.byte	3
 795 0023 01       		.byte	1
 796 0024 04       		.byte	4
 797 0025 24       		.byte	36
 798 0026 02       		.byte	2
 799 0027 02       		.byte	2
 800 0028 05       		.byte	5
 801 0029 24       		.byte	36
 802 002a 06       		.byte	6
 803 002b 00       		.byte	0
 804 002c 01       		.byte	1
 805 002d 07       		.byte	7
 806 002e 05       		.byte	5
 807 002f 81       		.byte	-127
 808 0030 03       		.byte	3
 809 0031 10       		.byte	16
 810 0032 00       		.byte	0
 811 0033 01       		.byte	1
 812 0034 09       		.byte	9
 813 0035 04       		.byte	4
 814 0036 01       		.byte	1
 815 0037 00       		.byte	0
 816 0038 02       		.byte	2
 817 0039 0A       		.byte	10
 818 003a 00       		.byte	0
 819 003b 00       		.byte	0
 820 003c 00       		.byte	0
ARM GAS  /tmp/ccR1l5GD.s 			page 16


 821 003d 07       		.byte	7
 822 003e 05       		.byte	5
 823 003f 02       		.byte	2
 824 0040 02       		.byte	2
 825 0041 40       		.byte	64
 826 0042 00       		.byte	0
 827 0043 00       		.byte	0
 828 0044 07       		.byte	7
 829 0045 05       		.byte	5
 830 0046 82       		.byte	-126
 831 0047 02       		.byte	2
 832 0048 40       		.byte	64
 833 0049 00       		.byte	0
 834 004a 00       		.byte	0
 835 004b 08       		.byte	8
 836 004c 0B       		.byte	11
 837 004d 02       		.byte	2
 838 004e 02       		.byte	2
 839 004f 02       		.byte	2
 840 0050 02       		.byte	2
 841 0051 01       		.byte	1
 842 0052 00       		.byte	0
 843 0053 09       		.byte	9
 844 0054 04       		.byte	4
 845 0055 02       		.byte	2
 846 0056 00       		.byte	0
 847 0057 01       		.byte	1
 848 0058 02       		.byte	2
 849 0059 02       		.byte	2
 850 005a 01       		.byte	1
 851 005b 00       		.byte	0
 852 005c 05       		.byte	5
 853 005d 24       		.byte	36
 854 005e 00       		.byte	0
 855 005f 10       		.byte	16
 856 0060 01       		.byte	1
 857 0061 05       		.byte	5
 858 0062 24       		.byte	36
 859 0063 01       		.byte	1
 860 0064 03       		.byte	3
 861 0065 03       		.byte	3
 862 0066 04       		.byte	4
 863 0067 24       		.byte	36
 864 0068 02       		.byte	2
 865 0069 02       		.byte	2
 866 006a 05       		.byte	5
 867 006b 24       		.byte	36
 868 006c 06       		.byte	6
 869 006d 02       		.byte	2
 870 006e 03       		.byte	3
 871 006f 07       		.byte	7
 872 0070 05       		.byte	5
 873 0071 83       		.byte	-125
 874 0072 03       		.byte	3
 875 0073 10       		.byte	16
 876 0074 00       		.byte	0
 877 0075 01       		.byte	1
ARM GAS  /tmp/ccR1l5GD.s 			page 17


 878 0076 09       		.byte	9
 879 0077 04       		.byte	4
 880 0078 03       		.byte	3
 881 0079 00       		.byte	0
 882 007a 02       		.byte	2
 883 007b 0A       		.byte	10
 884 007c 00       		.byte	0
 885 007d 00       		.byte	0
 886 007e 00       		.byte	0
 887 007f 07       		.byte	7
 888 0080 05       		.byte	5
 889 0081 04       		.byte	4
 890 0082 02       		.byte	2
 891 0083 40       		.byte	64
 892 0084 00       		.byte	0
 893 0085 00       		.byte	0
 894 0086 07       		.byte	7
 895 0087 05       		.byte	5
 896 0088 84       		.byte	-124
 897 0089 02       		.byte	2
 898 008a 40       		.byte	64
 899 008b 00       		.byte	0
 900 008c 00       		.byte	0
 901              		.section	.rodata.vcom_device_descriptor,"a",%progbits
 902              		.align	2
 903              		.set	.LANCHOR0,. + 0
 904              		.type	vcom_device_descriptor, %object
 905              		.size	vcom_device_descriptor, 8
 906              	vcom_device_descriptor:
 907 0000 12000000 		.word	18
 908 0004 00000000 		.word	vcom_device_descriptor_data
 909              		.section	.rodata.vcom_device_descriptor_data,"a",%progbits
 910              		.type	vcom_device_descriptor_data, %object
 911              		.size	vcom_device_descriptor_data, 18
 912              	vcom_device_descriptor_data:
 913 0000 12       		.byte	18
 914 0001 01       		.byte	1
 915 0002 00       		.byte	0
 916 0003 02       		.byte	2
 917 0004 EF       		.byte	-17
 918 0005 02       		.byte	2
 919 0006 01       		.byte	1
 920 0007 40       		.byte	64
 921 0008 09       		.byte	9
 922 0009 12       		.byte	18
 923 000a 40       		.byte	64
 924 000b 57       		.byte	87
 925 000c 00       		.byte	0
 926 000d 02       		.byte	2
 927 000e 01       		.byte	1
 928 000f 02       		.byte	2
 929 0010 03       		.byte	3
 930 0011 01       		.byte	1
 931              		.section	.rodata.vcom_string0,"a",%progbits
 932              		.type	vcom_string0, %object
 933              		.size	vcom_string0, 4
 934              	vcom_string0:
ARM GAS  /tmp/ccR1l5GD.s 			page 18


 935 0000 04       		.byte	4
 936 0001 03       		.byte	3
 937 0002 09       		.byte	9
 938 0003 04       		.byte	4
 939              		.text
 940              	.Letext0:
 941              		.file 4 "/opt/gcc-arm-none-eabi-6-2017-q2-update/lib/gcc/arm-none-eabi/6.3.1/include/stddef.h"
 942              		.file 5 "/opt/gcc-arm-none-eabi-6-2017-q2-update/arm-none-eabi/include/machine/_default_types.h"
 943              		.file 6 "/opt/gcc-arm-none-eabi-6-2017-q2-update/arm-none-eabi/include/sys/_stdint.h"
 944              		.file 7 "/opt/gcc-arm-none-eabi-6-2017-q2-update/arm-none-eabi/include/stdint.h"
 945              		.file 8 "../../modules/ChibiOS/os/common/ports/ARMCMx/compilers/GCC/chtypes.h"
 946              		.file 9 "../../modules/ChibiOS/os/rt/include/chsystypes.h"
 947              		.file 10 "../../modules/ChibiOS/os/rt/include/chschd.h"
 948              		.file 11 "../../modules/ChibiOS/os/rt/include/chtime.h"
 949              		.file 12 "../../modules/ChibiOS/os/common/ext/ARM/CMSIS/Core/Include/core_cm7.h"
 950              		.file 13 "../../modules/ChibiOS/os/common/ext/ST/STM32F7xx/system_stm32f7xx.h"
 951              		.file 14 "../../modules/ChibiOS/os/common/ext/ST/STM32F7xx/stm32f767xx.h"
 952              		.file 15 "../../modules/ChibiOS/os/common/ports/ARMCMx/chcore.h"
 953              		.file 16 "../../modules/ChibiOS/os/common/ports/ARMCMx/chcore_v7m.h"
 954              		.file 17 "../../modules/ChibiOS/os/hal/ports/STM32/LLD/TIMv1/stm32_tim.h"
 955              		.file 18 "../../modules/ChibiOS/os/rt/include/chtm.h"
 956              		.file 19 "../../modules/ChibiOS/os/rt/include/chstats.h"
 957              		.file 20 "../../modules/ChibiOS/os/rt/include/chsem.h"
 958              		.file 21 "../../modules/ChibiOS/os/rt/include/chmtx.h"
 959              		.file 22 "../../modules/ChibiOS/os/rt/include/chregistry.h"
 960              		.file 23 "../../modules/ChibiOS/os/rt/include/chevents.h"
 961              		.file 24 "../../modules/ChibiOS/os/oslib/include/chmemcore.h"
 962              		.file 25 "../../modules/ChibiOS/os/oslib/include/chmempools.h"
 963              		.file 26 "../../modules/ChibiOS/os/oslib/include/chfactory.h"
 964              		.file 27 "../../modules/ChibiOS/os/hal/ports/STM32/LLD/DMAv2/stm32_dma.h"
 965              		.file 28 "../../modules/ChibiOS/os/hal/include/hal_ioblock.h"
 966              		.file 29 "../../modules/ChibiOS/os/hal/include/hal_buffers.h"
 967              		.file 30 "../../modules/ChibiOS/os/hal/include/hal_queues.h"
 968              		.file 31 "../../modules/ChibiOS/os/hal/include/hal_pal.h"
 969              		.file 32 "../../modules/ChibiOS/os/hal/ports/STM32/LLD/GPIOv2/stm32_gpio.h"
 970              		.file 33 "../../modules/ChibiOS/os/hal/ports/STM32/LLD/GPIOv2/hal_pal_lld.h"
 971              		.file 34 "../../modules/ChibiOS/os/hal/include/hal_adc.h"
 972              		.file 35 "../../modules/ChibiOS/os/hal/ports/STM32/LLD/ADCv2/hal_adc_lld.h"
 973              		.file 36 "../../modules/ChibiOS/os/hal/include/hal_i2c.h"
 974              		.file 37 "../../modules/ChibiOS/os/hal/ports/STM32/LLD/I2Cv2/hal_i2c_lld.h"
 975              		.file 38 "../../modules/ChibiOS/os/hal/include/hal_pwm.h"
 976              		.file 39 "../../modules/ChibiOS/os/hal/ports/STM32/LLD/TIMv1/hal_pwm_lld.h"
 977              		.file 40 "../../modules/ChibiOS/os/hal/include/hal_serial.h"
 978              		.file 41 "../../modules/ChibiOS/os/hal/ports/STM32/LLD/USARTv2/hal_serial_lld.h"
 979              		.file 42 "../../modules/ChibiOS/os/hal/include/hal_sdc.h"
 980              		.file 43 "../../modules/ChibiOS/os/hal/ports/STM32/LLD/SDMMCv1/hal_sdc_lld.h"
 981              		.file 44 "../../modules/ChibiOS/os/hal/include/hal_spi.h"
 982              		.file 45 "../../modules/ChibiOS/os/hal/ports/STM32/LLD/SPIv2/hal_spi_lld.h"
 983              		.file 46 "../../modules/ChibiOS/os/hal/include/hal_usb.h"
 984              		.file 47 "../../modules/ChibiOS/os/hal/ports/STM32/LLD/OTGv1/hal_usb_lld.h"
 985              		.file 48 "../../modules/ChibiOS/os/hal/ports/STM32/LLD/OTGv1/stm32_otg.h"
 986              		.file 49 "../../modules/ChibiOS/os/hal/include/hal_serial_usb.h"
 987              		.file 50 "/opt/gcc-arm-none-eabi-6-2017-q2-update/arm-none-eabi/include/sys/lock.h"
 988              		.file 51 "/opt/gcc-arm-none-eabi-6-2017-q2-update/arm-none-eabi/include/sys/_types.h"
 989              		.file 52 "/opt/gcc-arm-none-eabi-6-2017-q2-update/arm-none-eabi/include/sys/reent.h"
 990              		.file 53 "/opt/gcc-arm-none-eabi-6-2017-q2-update/arm-none-eabi/include/stdlib.h"
 991              		.file 54 "../../libraries/AP_HAL_ChibiOS/hwdef/common/usbcfg.h"
ARM GAS  /tmp/ccR1l5GD.s 			page 19


 992              		.file 55 "../../modules/ChibiOS/os/hal/osal/rt/osal.h"
 993              		.file 56 "/opt/gcc-arm-none-eabi-6-2017-q2-update/arm-none-eabi/include/string.h"