ARM GAS  /tmp/cc604Vkg.s 			page 1


   1              		.cpu cortex-m7
   2              		.eabi_attribute 27, 1
   3              		.eabi_attribute 28, 1
   4              		.eabi_attribute 20, 1
   5              		.eabi_attribute 21, 1
   6              		.eabi_attribute 23, 3
   7              		.eabi_attribute 24, 1
   8              		.eabi_attribute 25, 1
   9              		.eabi_attribute 26, 1
  10              		.eabi_attribute 30, 4
  11              		.eabi_attribute 34, 1
  12              		.eabi_attribute 18, 4
  13              		.file	"watchdog.c"
  14              		.text
  15              	.Ltext0:
  16              		.cfi_sections	.debug_frame
  17              		.section	.text.stm32_watchdog_init,"ax",%progbits
  18              		.align	1
  19              		.global	stm32_watchdog_init
  20              		.syntax unified
  21              		.thumb
  22              		.thumb_func
  23              		.fpu fpv4-sp-d16
  24              		.type	stm32_watchdog_init, %function
  25              	stm32_watchdog_init:
  26              	.LFB334:
  27              		.file 1 "../../libraries/AP_HAL_ChibiOS/hwdef/common/watchdog.c"
  28              		.loc 1 62 0
  29              		.cfi_startproc
  30              		@ args = 0, pretend = 0, frame = 0
  31              		@ frame_needed = 0, uses_anonymous_args = 0
  32              		@ link register save eliminated.
  33              		.loc 1 64 0
  34 0000 074B     		ldr	r3, .L2
  35 0002 45F25552 		movw	r2, #21845
  36 0006 1A60     		str	r2, [r3]
  37              		.loc 1 65 0
  38 0008 0222     		movs	r2, #2
  39 000a 5A60     		str	r2, [r3, #4]
  40              		.loc 1 66 0
  41 000c 40F6FF72 		movw	r2, #4095
  42 0010 9A60     		str	r2, [r3, #8]
  43              		.loc 1 67 0
  44 0012 4CF6CC42 		movw	r2, #52428
  45 0016 1A60     		str	r2, [r3]
  46              		.loc 1 68 0
  47 0018 0122     		movs	r2, #1
  48 001a 024B     		ldr	r3, .L2+4
  49 001c 1A70     		strb	r2, [r3]
  50 001e 7047     		bx	lr
  51              	.L3:
  52              		.align	2
  53              	.L2:
  54 0020 00300040 		.word	1073754112
  55 0024 00000000 		.word	.LANCHOR0
  56              		.cfi_endproc
  57              	.LFE334:
ARM GAS  /tmp/cc604Vkg.s 			page 2


  58              		.size	stm32_watchdog_init, .-stm32_watchdog_init
  59              		.section	.text.stm32_watchdog_pat,"ax",%progbits
  60              		.align	1
  61              		.global	stm32_watchdog_pat
  62              		.syntax unified
  63              		.thumb
  64              		.thumb_func
  65              		.fpu fpv4-sp-d16
  66              		.type	stm32_watchdog_pat, %function
  67              	stm32_watchdog_pat:
  68              	.LFB335:
  69              		.loc 1 76 0
  70              		.cfi_startproc
  71              		@ args = 0, pretend = 0, frame = 0
  72              		@ frame_needed = 0, uses_anonymous_args = 0
  73              		@ link register save eliminated.
  74              		.loc 1 77 0
  75 0000 034B     		ldr	r3, .L9
  76 0002 1B78     		ldrb	r3, [r3]	@ zero_extendqisi2
  77 0004 1BB1     		cbz	r3, .L4
  78              		.loc 1 78 0
  79 0006 4AF6AA22 		movw	r2, #43690
  80 000a 024B     		ldr	r3, .L9+4
  81 000c 1A60     		str	r2, [r3]
  82              	.L4:
  83 000e 7047     		bx	lr
  84              	.L10:
  85              		.align	2
  86              	.L9:
  87 0010 00000000 		.word	.LANCHOR0
  88 0014 00300040 		.word	1073754112
  89              		.cfi_endproc
  90              	.LFE335:
  91              		.size	stm32_watchdog_pat, .-stm32_watchdog_pat
  92              		.section	.text.stm32_watchdog_save_reason,"ax",%progbits
  93              		.align	1
  94              		.global	stm32_watchdog_save_reason
  95              		.syntax unified
  96              		.thumb
  97              		.thumb_func
  98              		.fpu fpv4-sp-d16
  99              		.type	stm32_watchdog_save_reason, %function
 100              	stm32_watchdog_save_reason:
 101              	.LFB336:
 102              		.loc 1 86 0
 103              		.cfi_startproc
 104              		@ args = 0, pretend = 0, frame = 0
 105              		@ frame_needed = 0, uses_anonymous_args = 0
 106              		@ link register save eliminated.
 107              		.loc 1 87 0
 108 0000 034B     		ldr	r3, .L16
 109 0002 1B68     		ldr	r3, [r3]
 110 0004 9B00     		lsls	r3, r3, #2
 111              		.loc 1 88 0
 112 0006 42BF     		ittt	mi
 113 0008 0122     		movmi	r2, #1
 114 000a 024B     		ldrmi	r3, .L16+4
ARM GAS  /tmp/cc604Vkg.s 			page 3


 115 000c 1A70     		strbmi	r2, [r3]
 116 000e 7047     		bx	lr
 117              	.L17:
 118              		.align	2
 119              	.L16:
 120 0010 74380240 		.word	1073887348
 121 0014 00000000 		.word	.LANCHOR1
 122              		.cfi_endproc
 123              	.LFE336:
 124              		.size	stm32_watchdog_save_reason, .-stm32_watchdog_save_reason
 125              		.section	.text.stm32_watchdog_clear_reason,"ax",%progbits
 126              		.align	1
 127              		.global	stm32_watchdog_clear_reason
 128              		.syntax unified
 129              		.thumb
 130              		.thumb_func
 131              		.fpu fpv4-sp-d16
 132              		.type	stm32_watchdog_clear_reason, %function
 133              	stm32_watchdog_clear_reason:
 134              	.LFB337:
 135              		.loc 1 96 0
 136              		.cfi_startproc
 137              		@ args = 0, pretend = 0, frame = 0
 138              		@ frame_needed = 0, uses_anonymous_args = 0
 139              		@ link register save eliminated.
 140              		.loc 1 97 0
 141 0000 4FF08072 		mov	r2, #16777216
 142 0004 014B     		ldr	r3, .L19
 143 0006 1A60     		str	r2, [r3]
 144 0008 7047     		bx	lr
 145              	.L20:
 146 000a 00BF     		.align	2
 147              	.L19:
 148 000c 74380240 		.word	1073887348
 149              		.cfi_endproc
 150              	.LFE337:
 151              		.size	stm32_watchdog_clear_reason, .-stm32_watchdog_clear_reason
 152              		.section	.text.stm32_was_watchdog_reset,"ax",%progbits
 153              		.align	1
 154              		.global	stm32_was_watchdog_reset
 155              		.syntax unified
 156              		.thumb
 157              		.thumb_func
 158              		.fpu fpv4-sp-d16
 159              		.type	stm32_was_watchdog_reset, %function
 160              	stm32_was_watchdog_reset:
 161              	.LFB338:
 162              		.loc 1 104 0
 163              		.cfi_startproc
 164              		@ args = 0, pretend = 0, frame = 0
 165              		@ frame_needed = 0, uses_anonymous_args = 0
 166              		@ link register save eliminated.
 167              		.loc 1 106 0
 168 0000 014B     		ldr	r3, .L22
 169 0002 1878     		ldrb	r0, [r3]	@ zero_extendqisi2
 170 0004 7047     		bx	lr
 171              	.L23:
ARM GAS  /tmp/cc604Vkg.s 			page 4


 172 0006 00BF     		.align	2
 173              	.L22:
 174 0008 00000000 		.word	.LANCHOR1
 175              		.cfi_endproc
 176              	.LFE338:
 177              		.size	stm32_was_watchdog_reset, .-stm32_was_watchdog_reset
 178              		.section	.text.stm32_watchdog_save,"ax",%progbits
 179              		.align	1
 180              		.global	stm32_watchdog_save
 181              		.syntax unified
 182              		.thumb
 183              		.thumb_func
 184              		.fpu fpv4-sp-d16
 185              		.type	stm32_watchdog_save, %function
 186              	stm32_watchdog_save:
 187              	.LFB339:
 188              		.loc 1 112 0
 189              		.cfi_startproc
 190              		@ args = 0, pretend = 0, frame = 0
 191              		@ frame_needed = 0, uses_anonymous_args = 0
 192              		@ link register save eliminated.
 193              	.LVL0:
 194              		.loc 1 113 0
 195 0000 CAB2     		uxtb	r2, r1
 196 0002 0146     		mov	r1, r0
 197              	.LVL1:
 198 0004 0120     		movs	r0, #1
 199              	.LVL2:
 200 0006 FFF7FEBF 		b	set_rtc_backup
 201              	.LVL3:
 202              		.cfi_endproc
 203              	.LFE339:
 204              		.size	stm32_watchdog_save, .-stm32_watchdog_save
 205              		.section	.text.stm32_watchdog_load,"ax",%progbits
 206              		.align	1
 207              		.global	stm32_watchdog_load
 208              		.syntax unified
 209              		.thumb
 210              		.thumb_func
 211              		.fpu fpv4-sp-d16
 212              		.type	stm32_watchdog_load, %function
 213              	stm32_watchdog_load:
 214              	.LFB340:
 215              		.loc 1 120 0
 216              		.cfi_startproc
 217              		@ args = 0, pretend = 0, frame = 0
 218              		@ frame_needed = 0, uses_anonymous_args = 0
 219              		@ link register save eliminated.
 220              	.LVL4:
 221              		.loc 1 121 0
 222 0000 CAB2     		uxtb	r2, r1
 223 0002 0146     		mov	r1, r0
 224              	.LVL5:
 225 0004 0120     		movs	r0, #1
 226              	.LVL6:
 227 0006 FFF7FEBF 		b	get_rtc_backup
 228              	.LVL7:
ARM GAS  /tmp/cc604Vkg.s 			page 5


 229              		.cfi_endproc
 230              	.LFE340:
 231              		.size	stm32_watchdog_load, .-stm32_watchdog_load
 232              		.section	.bss.was_watchdog_reset,"aw",%nobits
 233              		.set	.LANCHOR1,. + 0
 234              		.type	was_watchdog_reset, %object
 235              		.size	was_watchdog_reset, 1
 236              	was_watchdog_reset:
 237 0000 00       		.space	1
 238              		.section	.bss.watchdog_enabled,"aw",%nobits
 239              		.set	.LANCHOR0,. + 0
 240              		.type	watchdog_enabled, %object
 241              		.size	watchdog_enabled, 1
 242              	watchdog_enabled:
 243 0000 00       		.space	1
 244              		.text
 245              	.Letext0:
 246              		.file 2 "/opt/gcc-arm-none-eabi-6-2017-q2-update/lib/gcc/arm-none-eabi/6.3.1/include/stddef.h"
 247              		.file 3 "/opt/gcc-arm-none-eabi-6-2017-q2-update/arm-none-eabi/include/machine/_default_types.h"
 248              		.file 4 "/opt/gcc-arm-none-eabi-6-2017-q2-update/arm-none-eabi/include/sys/_stdint.h"
 249              		.file 5 "/opt/gcc-arm-none-eabi-6-2017-q2-update/arm-none-eabi/include/stdint.h"
 250              		.file 6 "../../modules/ChibiOS/os/common/ports/ARMCMx/compilers/GCC/chtypes.h"
 251              		.file 7 "../../modules/ChibiOS/os/rt/include/chsystypes.h"
 252              		.file 8 "../../modules/ChibiOS/os/rt/include/chschd.h"
 253              		.file 9 "../../modules/ChibiOS/os/rt/include/chtime.h"
 254              		.file 10 "../../modules/ChibiOS/os/common/ext/ARM/CMSIS/Core/Include/core_cm7.h"
 255              		.file 11 "../../modules/ChibiOS/os/common/ext/ST/STM32F7xx/system_stm32f7xx.h"
 256              		.file 12 "../../modules/ChibiOS/os/common/ext/ST/STM32F7xx/stm32f767xx.h"
 257              		.file 13 "../../modules/ChibiOS/os/common/ports/ARMCMx/chcore.h"
 258              		.file 14 "../../modules/ChibiOS/os/common/ports/ARMCMx/chcore_v7m.h"
 259              		.file 15 "../../modules/ChibiOS/os/hal/ports/STM32/LLD/TIMv1/stm32_tim.h"
 260              		.file 16 "../../modules/ChibiOS/os/rt/include/chtm.h"
 261              		.file 17 "../../modules/ChibiOS/os/rt/include/chstats.h"
 262              		.file 18 "../../modules/ChibiOS/os/rt/include/chsem.h"
 263              		.file 19 "../../modules/ChibiOS/os/rt/include/chmtx.h"
 264              		.file 20 "../../modules/ChibiOS/os/rt/include/chsys.h"
 265              		.file 21 "../../modules/ChibiOS/os/rt/include/chregistry.h"
 266              		.file 22 "../../modules/ChibiOS/os/rt/include/chevents.h"
 267              		.file 23 "../../modules/ChibiOS/os/oslib/include/chmemcore.h"
 268              		.file 24 "../../modules/ChibiOS/os/oslib/include/chmempools.h"
 269              		.file 25 "../../modules/ChibiOS/os/oslib/include/chfactory.h"
 270              		.file 26 "../../modules/ChibiOS/os/hal/ports/STM32/LLD/DMAv2/stm32_dma.h"
 271              		.file 27 "../../modules/ChibiOS/os/hal/include/hal_ioblock.h"
 272              		.file 28 "../../modules/ChibiOS/os/hal/include/hal_queues.h"
 273              		.file 29 "../../modules/ChibiOS/os/hal/include/hal_pal.h"
 274              		.file 30 "../../modules/ChibiOS/os/hal/ports/STM32/LLD/GPIOv2/stm32_gpio.h"
 275              		.file 31 "../../modules/ChibiOS/os/hal/ports/STM32/LLD/GPIOv2/hal_pal_lld.h"
 276              		.file 32 "../../modules/ChibiOS/os/hal/include/hal_adc.h"
 277              		.file 33 "../../modules/ChibiOS/os/hal/ports/STM32/LLD/ADCv2/hal_adc_lld.h"
 278              		.file 34 "../../modules/ChibiOS/os/hal/include/hal_i2c.h"
 279              		.file 35 "../../modules/ChibiOS/os/hal/ports/STM32/LLD/I2Cv2/hal_i2c_lld.h"
 280              		.file 36 "../../modules/ChibiOS/os/hal/include/hal_pwm.h"
 281              		.file 37 "../../modules/ChibiOS/os/hal/ports/STM32/LLD/TIMv1/hal_pwm_lld.h"
 282              		.file 38 "../../modules/ChibiOS/os/hal/include/hal_serial.h"
 283              		.file 39 "../../modules/ChibiOS/os/hal/ports/STM32/LLD/USARTv2/hal_serial_lld.h"
 284              		.file 40 "../../modules/ChibiOS/os/hal/include/hal_sdc.h"
 285              		.file 41 "../../modules/ChibiOS/os/hal/ports/STM32/LLD/SDMMCv1/hal_sdc_lld.h"
ARM GAS  /tmp/cc604Vkg.s 			page 6


 286              		.file 42 "../../modules/ChibiOS/os/hal/include/hal_spi.h"
 287              		.file 43 "../../modules/ChibiOS/os/hal/ports/STM32/LLD/SPIv2/hal_spi_lld.h"
 288              		.file 44 "../../modules/ChibiOS/os/hal/include/hal_usb.h"
 289              		.file 45 "../../modules/ChibiOS/os/hal/ports/STM32/LLD/OTGv1/hal_usb_lld.h"
 290              		.file 46 "../../modules/ChibiOS/os/hal/ports/STM32/LLD/OTGv1/stm32_otg.h"
 291              		.file 47 "../../libraries/AP_HAL_ChibiOS/hwdef/common/stm32_util.h"